
Encrypt_M3.elf:     file format elf32-littlearm

Sections:
Idx Name          Size      VMA       LMA       File off  Algn
  0 .isr_vector   0000010c  08000000  08000000  00010000  2**0
                  CONTENTS, ALLOC, LOAD, READONLY, DATA
  1 .text         00003348  0800010c  0800010c  0001010c  2**2
                  CONTENTS, ALLOC, LOAD, READONLY, CODE
  2 .rodata       000004c4  08003454  08003454  00013454  2**2
                  CONTENTS, ALLOC, LOAD, READONLY, DATA
  3 .ARM.extab    00000000  08003918  08003918  0002000c  2**0
                  CONTENTS
  4 .ARM          00000000  08003918  08003918  0002000c  2**0
                  CONTENTS
  5 .preinit_array 00000000  08003918  08003918  0002000c  2**0
                  CONTENTS, ALLOC, LOAD, DATA
  6 .init_array   00000004  08003918  08003918  00013918  2**2
                  CONTENTS, ALLOC, LOAD, DATA
  7 .fini_array   00000004  0800391c  0800391c  0001391c  2**2
                  CONTENTS, ALLOC, LOAD, DATA
  8 .data         0000000c  20000000  08003920  00020000  2**2
                  CONTENTS, ALLOC, LOAD, DATA
  9 .bss          000000b8  2000000c  0800392c  0002000c  2**2
                  ALLOC
 10 ._user_heap_stack 00000604  200000c4  0800392c  000200c4  2**0
                  ALLOC
 11 .ARM.attributes 00000029  00000000  00000000  0002000c  2**0
                  CONTENTS, READONLY
 12 .debug_info   00009363  00000000  00000000  00020035  2**0
                  CONTENTS, READONLY, DEBUGGING, OCTETS
 13 .debug_abbrev 00001906  00000000  00000000  00029398  2**0
                  CONTENTS, READONLY, DEBUGGING, OCTETS
 14 .debug_aranges 00000938  00000000  00000000  0002aca0  2**3
                  CONTENTS, READONLY, DEBUGGING, OCTETS
 15 .debug_ranges 00000898  00000000  00000000  0002b5d8  2**3
                  CONTENTS, READONLY, DEBUGGING, OCTETS
 16 .debug_macro  000166a7  00000000  00000000  0002be70  2**0
                  CONTENTS, READONLY, DEBUGGING, OCTETS
 17 .debug_line   0000adcb  00000000  00000000  00042517  2**0
                  CONTENTS, READONLY, DEBUGGING, OCTETS
 18 .debug_str    0008094d  00000000  00000000  0004d2e2  2**0
                  CONTENTS, READONLY, DEBUGGING, OCTETS
 19 .comment      00000050  00000000  00000000  000cdc2f  2**0
                  CONTENTS, READONLY
 20 .debug_frame  00002590  00000000  00000000  000cdc80  2**2
                  CONTENTS, READONLY, DEBUGGING, OCTETS

Disassembly of section .text:

0800010c <__do_global_dtors_aux>:
 800010c:	b510      	push	{r4, lr}
 800010e:	4c05      	ldr	r4, [pc, #20]	; (8000124 <__do_global_dtors_aux+0x18>)
 8000110:	7823      	ldrb	r3, [r4, #0]
 8000112:	b933      	cbnz	r3, 8000122 <__do_global_dtors_aux+0x16>
 8000114:	4b04      	ldr	r3, [pc, #16]	; (8000128 <__do_global_dtors_aux+0x1c>)
 8000116:	b113      	cbz	r3, 800011e <__do_global_dtors_aux+0x12>
 8000118:	4804      	ldr	r0, [pc, #16]	; (800012c <__do_global_dtors_aux+0x20>)
 800011a:	f3af 8000 	nop.w
 800011e:	2301      	movs	r3, #1
 8000120:	7023      	strb	r3, [r4, #0]
 8000122:	bd10      	pop	{r4, pc}
 8000124:	2000000c 	.word	0x2000000c
 8000128:	00000000 	.word	0x00000000
 800012c:	0800343c 	.word	0x0800343c

08000130 <frame_dummy>:
 8000130:	b508      	push	{r3, lr}
 8000132:	4b03      	ldr	r3, [pc, #12]	; (8000140 <frame_dummy+0x10>)
 8000134:	b11b      	cbz	r3, 800013e <frame_dummy+0xe>
 8000136:	4903      	ldr	r1, [pc, #12]	; (8000144 <frame_dummy+0x14>)
 8000138:	4803      	ldr	r0, [pc, #12]	; (8000148 <frame_dummy+0x18>)
 800013a:	f3af 8000 	nop.w
 800013e:	bd08      	pop	{r3, pc}
 8000140:	00000000 	.word	0x00000000
 8000144:	20000010 	.word	0x20000010
 8000148:	0800343c 	.word	0x0800343c

0800014c <atCRC>:
#include "ATSHA204.h"

extern I2C_HandleTypeDef hi2c2;

void atCRC(uint8_t *data, uint8_t length)
{
 800014c:	b480      	push	{r7}
 800014e:	b087      	sub	sp, #28
 8000150:	af00      	add	r7, sp, #0
 8000152:	6078      	str	r0, [r7, #4]
 8000154:	460b      	mov	r3, r1
 8000156:	70fb      	strb	r3, [r7, #3]
    uint8_t counter;
    uint16_t crc_register = 0;
 8000158:	2300      	movs	r3, #0
 800015a:	82bb      	strh	r3, [r7, #20]
    uint16_t polynom = 0x8005;
 800015c:	f248 0305 	movw	r3, #32773	; 0x8005
 8000160:	823b      	strh	r3, [r7, #16]
    uint8_t shift_register;
    uint8_t data_bit, crc_bit;

    for (counter = 1; counter < (length - 2); counter++)
 8000162:	2301      	movs	r3, #1
 8000164:	75fb      	strb	r3, [r7, #23]
 8000166:	e027      	b.n	80001b8 <atCRC+0x6c>
    {
        for (shift_register = 0x01; shift_register > 0x00; shift_register <<= 1)
 8000168:	2301      	movs	r3, #1
 800016a:	74fb      	strb	r3, [r7, #19]
 800016c:	e01e      	b.n	80001ac <atCRC+0x60>
        {
            data_bit = (data[counter] & shift_register) ? 1 : 0;
 800016e:	7dfb      	ldrb	r3, [r7, #23]
 8000170:	687a      	ldr	r2, [r7, #4]
 8000172:	4413      	add	r3, r2
 8000174:	781a      	ldrb	r2, [r3, #0]
 8000176:	7cfb      	ldrb	r3, [r7, #19]
 8000178:	4013      	ands	r3, r2
 800017a:	b2db      	uxtb	r3, r3
 800017c:	2b00      	cmp	r3, #0
 800017e:	bf14      	ite	ne
 8000180:	2301      	movne	r3, #1
 8000182:	2300      	moveq	r3, #0
 8000184:	b2db      	uxtb	r3, r3
 8000186:	73fb      	strb	r3, [r7, #15]
            crc_bit = crc_register >> 15;
 8000188:	8abb      	ldrh	r3, [r7, #20]
 800018a:	0bdb      	lsrs	r3, r3, #15
 800018c:	b29b      	uxth	r3, r3
 800018e:	73bb      	strb	r3, [r7, #14]
            crc_register <<= 1;
 8000190:	8abb      	ldrh	r3, [r7, #20]
 8000192:	005b      	lsls	r3, r3, #1
 8000194:	82bb      	strh	r3, [r7, #20]
            if (data_bit != crc_bit)
 8000196:	7bfa      	ldrb	r2, [r7, #15]
 8000198:	7bbb      	ldrb	r3, [r7, #14]
 800019a:	429a      	cmp	r2, r3
 800019c:	d003      	beq.n	80001a6 <atCRC+0x5a>
            {
                crc_register ^= polynom;
 800019e:	8aba      	ldrh	r2, [r7, #20]
 80001a0:	8a3b      	ldrh	r3, [r7, #16]
 80001a2:	4053      	eors	r3, r2
 80001a4:	82bb      	strh	r3, [r7, #20]
        for (shift_register = 0x01; shift_register > 0x00; shift_register <<= 1)
 80001a6:	7cfb      	ldrb	r3, [r7, #19]
 80001a8:	005b      	lsls	r3, r3, #1
 80001aa:	74fb      	strb	r3, [r7, #19]
 80001ac:	7cfb      	ldrb	r3, [r7, #19]
 80001ae:	2b00      	cmp	r3, #0
 80001b0:	d1dd      	bne.n	800016e <atCRC+0x22>
    for (counter = 1; counter < (length - 2); counter++)
 80001b2:	7dfb      	ldrb	r3, [r7, #23]
 80001b4:	3301      	adds	r3, #1
 80001b6:	75fb      	strb	r3, [r7, #23]
 80001b8:	7dfa      	ldrb	r2, [r7, #23]
 80001ba:	78fb      	ldrb	r3, [r7, #3]
 80001bc:	3b02      	subs	r3, #2
 80001be:	429a      	cmp	r2, r3
 80001c0:	dbd2      	blt.n	8000168 <atCRC+0x1c>
            }
        }
    }
    data[length - 2 ] = (uint8_t)(crc_register & 0x00FF);
 80001c2:	78fb      	ldrb	r3, [r7, #3]
 80001c4:	3b02      	subs	r3, #2
 80001c6:	687a      	ldr	r2, [r7, #4]
 80001c8:	4413      	add	r3, r2
 80001ca:	8aba      	ldrh	r2, [r7, #20]
 80001cc:	b2d2      	uxtb	r2, r2
 80001ce:	701a      	strb	r2, [r3, #0]
    data[length - 1] = (uint8_t)(crc_register >> 8);
 80001d0:	8abb      	ldrh	r3, [r7, #20]
 80001d2:	0a1b      	lsrs	r3, r3, #8
 80001d4:	b299      	uxth	r1, r3
 80001d6:	78fb      	ldrb	r3, [r7, #3]
 80001d8:	3b01      	subs	r3, #1
 80001da:	687a      	ldr	r2, [r7, #4]
 80001dc:	4413      	add	r3, r2
 80001de:	b2ca      	uxtb	r2, r1
 80001e0:	701a      	strb	r2, [r3, #0]
}
 80001e2:	bf00      	nop
 80001e4:	371c      	adds	r7, #28
 80001e6:	46bd      	mov	sp, r7
 80001e8:	bc80      	pop	{r7}
 80001ea:	4770      	bx	lr

080001ec <WakeUp>:
						 0xE5, 0xE6, 0xE7, 0xE8, 0xE9, 0xEA, 0xE0, 0xE1, 0xE2, 0xE3, 0xE4, 0xE5, 0xE6, 0xE7, 0xE8, 0xE9};
uint8_t DATA4[] = 		{0xF0, 0xF1, 0xF2, 0xF3, 0xF4, 0xF5, 0xF6, 0xF7, 0xF8, 0xF9, 0xFA, 0xF0, 0xF1, 0xF2, 0xF3, 0xF4,
						 0xF5, 0xF6, 0xF7, 0xF8, 0xF9, 0xFA, 0xF0, 0xF1, 0xF2, 0xF3, 0xF4, 0xF5, 0xF6, 0xF7, 0xF8, 0xF9};


void WakeUp(uint8_t *data_rec){
 80001ec:	b580      	push	{r7, lr}
 80001ee:	b086      	sub	sp, #24
 80001f0:	af02      	add	r7, sp, #8
 80001f2:	6078      	str	r0, [r7, #4]

	uint8_t data = 0;
 80001f4:	2300      	movs	r3, #0
 80001f6:	73fb      	strb	r3, [r7, #15]

	HAL_I2C_Master_Receive(&hi2c2, 0xFE, &data, sizeof(data), 1000);
 80001f8:	f107 020f 	add.w	r2, r7, #15
 80001fc:	f44f 737a 	mov.w	r3, #1000	; 0x3e8
 8000200:	9300      	str	r3, [sp, #0]
 8000202:	2301      	movs	r3, #1
 8000204:	21fe      	movs	r1, #254	; 0xfe
 8000206:	4818      	ldr	r0, [pc, #96]	; (8000268 <WakeUp+0x7c>)
 8000208:	f001 fad0 	bl	80017ac <HAL_I2C_Master_Receive>
	HAL_Delay(5); // 2.5 ms para acordar; 45 ms para entrar em sleep
 800020c:	2005      	movs	r0, #5
 800020e:	f000 fd5f 	bl	8000cd0 <HAL_Delay>
	// first read: 0 byte read - should receive an ACK

	HAL_I2C_Master_Receive(&hi2c2, I2C_ADDRESS, &data, 1, 1000);
 8000212:	f107 020f 	add.w	r2, r7, #15
 8000216:	f44f 737a 	mov.w	r3, #1000	; 0x3e8
 800021a:	9300      	str	r3, [sp, #0]
 800021c:	2301      	movs	r3, #1
 800021e:	21c8      	movs	r1, #200	; 0xc8
 8000220:	4811      	ldr	r0, [pc, #68]	; (8000268 <WakeUp+0x7c>)
 8000222:	f001 fac3 	bl	80017ac <HAL_I2C_Master_Receive>
	HAL_Delay(5);
 8000226:	2005      	movs	r0, #5
 8000228:	f000 fd52 	bl	8000cd0 <HAL_Delay>

	// Read 88bytes
	HAL_I2C_Master_Transmit(&hi2c2, I2C_ADDRESS, &data, sizeof(data), 1000);		// Send 1 byte
 800022c:	f107 020f 	add.w	r2, r7, #15
 8000230:	f44f 737a 	mov.w	r3, #1000	; 0x3e8
 8000234:	9300      	str	r3, [sp, #0]
 8000236:	2301      	movs	r3, #1
 8000238:	21c8      	movs	r1, #200	; 0xc8
 800023a:	480b      	ldr	r0, [pc, #44]	; (8000268 <WakeUp+0x7c>)
 800023c:	f001 f9b8 	bl	80015b0 <HAL_I2C_Master_Transmit>
	HAL_Delay(5);
 8000240:	2005      	movs	r0, #5
 8000242:	f000 fd45 	bl	8000cd0 <HAL_Delay>
	HAL_I2C_Master_Receive(&hi2c2, I2C_ADDRESS, data_rec, 4, 1000); 		    	// Receiv: 0x04, 0x11, 0x33, 0x43.
 8000246:	f44f 737a 	mov.w	r3, #1000	; 0x3e8
 800024a:	9300      	str	r3, [sp, #0]
 800024c:	2304      	movs	r3, #4
 800024e:	687a      	ldr	r2, [r7, #4]
 8000250:	21c8      	movs	r1, #200	; 0xc8
 8000252:	4805      	ldr	r0, [pc, #20]	; (8000268 <WakeUp+0x7c>)
 8000254:	f001 faaa 	bl	80017ac <HAL_I2C_Master_Receive>
	HAL_Delay(5);
 8000258:	2005      	movs	r0, #5
 800025a:	f000 fd39 	bl	8000cd0 <HAL_Delay>
}
 800025e:	bf00      	nop
 8000260:	3710      	adds	r7, #16
 8000262:	46bd      	mov	sp, r7
 8000264:	bd80      	pop	{r7, pc}
 8000266:	bf00      	nop
 8000268:	20000028 	.word	0x20000028

0800026c <ReadConfig>:


void ReadConfig(uint8_t *readCommand, uint16_t size, uint8_t *data_config) {
 800026c:	b580      	push	{r7, lr}
 800026e:	b086      	sub	sp, #24
 8000270:	af02      	add	r7, sp, #8
 8000272:	60f8      	str	r0, [r7, #12]
 8000274:	460b      	mov	r3, r1
 8000276:	607a      	str	r2, [r7, #4]
 8000278:	817b      	strh	r3, [r7, #10]

	HAL_I2C_Master_Transmit(&hi2c2, I2C_ADDRESS, readCommand, 8, 1000); 		    // Send read command
 800027a:	f44f 737a 	mov.w	r3, #1000	; 0x3e8
 800027e:	9300      	str	r3, [sp, #0]
 8000280:	2308      	movs	r3, #8
 8000282:	68fa      	ldr	r2, [r7, #12]
 8000284:	21c8      	movs	r1, #200	; 0xc8
 8000286:	480b      	ldr	r0, [pc, #44]	; (80002b4 <ReadConfig+0x48>)
 8000288:	f001 f992 	bl	80015b0 <HAL_I2C_Master_Transmit>
	HAL_Delay(5);
 800028c:	2005      	movs	r0, #5
 800028e:	f000 fd1f 	bl	8000cd0 <HAL_Delay>
	HAL_I2C_Master_Receive(&hi2c2, I2C_ADDRESS, data_config, size, 1000); 	        // Receive: data packet size, 0x01 0x23..., CRC_LSB, CRC_MSB
 8000292:	897b      	ldrh	r3, [r7, #10]
 8000294:	f44f 727a 	mov.w	r2, #1000	; 0x3e8
 8000298:	9200      	str	r2, [sp, #0]
 800029a:	687a      	ldr	r2, [r7, #4]
 800029c:	21c8      	movs	r1, #200	; 0xc8
 800029e:	4805      	ldr	r0, [pc, #20]	; (80002b4 <ReadConfig+0x48>)
 80002a0:	f001 fa84 	bl	80017ac <HAL_I2C_Master_Receive>
	HAL_Delay(5);
 80002a4:	2005      	movs	r0, #5
 80002a6:	f000 fd13 	bl	8000cd0 <HAL_Delay>
}
 80002aa:	bf00      	nop
 80002ac:	3710      	adds	r7, #16
 80002ae:	46bd      	mov	sp, r7
 80002b0:	bd80      	pop	{r7, pc}
 80002b2:	bf00      	nop
 80002b4:	20000028 	.word	0x20000028

080002b8 <BlockConfigZone>:
	HAL_I2C_Master_Transmit(&hi2c2, I2C_ADDRESS, configSlot14_15, sizeof(configSlot14_15), 1000);
	HAL_Delay(5);
}


void BlockConfigZone(uint8_t *receiv_byte){
 80002b8:	b580      	push	{r7, lr}
 80002ba:	b086      	sub	sp, #24
 80002bc:	af02      	add	r7, sp, #8
 80002be:	6078      	str	r0, [r7, #4]

	// Lock command: {COMMAND, COUNT, OPCODE, ZONE, CRC_88_LSB,  CRC_88_MSB, CRC_LSB, CRC_MSB}
	uint8_t blockConfig[] = { COMMAND, SIZE_BLOCK_CONFIG, COMMAND_LOCK, ZONE_CONFIG_LOCK, 0xb5, 0x0b,/*0xc4, 0xe1*/ 0x00, 0x00};
 80002c0:	4a14      	ldr	r2, [pc, #80]	; (8000314 <BlockConfigZone+0x5c>)
 80002c2:	f107 0308 	add.w	r3, r7, #8
 80002c6:	e892 0003 	ldmia.w	r2, {r0, r1}
 80002ca:	e883 0003 	stmia.w	r3, {r0, r1}
	atCRC(blockConfig,sizeof(blockConfig));
 80002ce:	f107 0308 	add.w	r3, r7, #8
 80002d2:	2108      	movs	r1, #8
 80002d4:	4618      	mov	r0, r3
 80002d6:	f7ff ff39 	bl	800014c <atCRC>
	HAL_I2C_Master_Transmit(&hi2c2, I2C_ADDRESS, blockConfig, sizeof(blockConfig), 1000);
 80002da:	f107 0208 	add.w	r2, r7, #8
 80002de:	f44f 737a 	mov.w	r3, #1000	; 0x3e8
 80002e2:	9300      	str	r3, [sp, #0]
 80002e4:	2308      	movs	r3, #8
 80002e6:	21c8      	movs	r1, #200	; 0xc8
 80002e8:	480b      	ldr	r0, [pc, #44]	; (8000318 <BlockConfigZone+0x60>)
 80002ea:	f001 f961 	bl	80015b0 <HAL_I2C_Master_Transmit>
	HAL_Delay(5);
 80002ee:	2005      	movs	r0, #5
 80002f0:	f000 fcee 	bl	8000cd0 <HAL_Delay>
	HAL_I2C_Master_Receive(&hi2c2, I2C_ADDRESS, receiv_byte, 1, 1000);
 80002f4:	f44f 737a 	mov.w	r3, #1000	; 0x3e8
 80002f8:	9300      	str	r3, [sp, #0]
 80002fa:	2301      	movs	r3, #1
 80002fc:	687a      	ldr	r2, [r7, #4]
 80002fe:	21c8      	movs	r1, #200	; 0xc8
 8000300:	4805      	ldr	r0, [pc, #20]	; (8000318 <BlockConfigZone+0x60>)
 8000302:	f001 fa53 	bl	80017ac <HAL_I2C_Master_Receive>
	HAL_Delay(5);
 8000306:	2005      	movs	r0, #5
 8000308:	f000 fce2 	bl	8000cd0 <HAL_Delay>
}
 800030c:	bf00      	nop
 800030e:	3710      	adds	r7, #16
 8000310:	46bd      	mov	sp, r7
 8000312:	bd80      	pop	{r7, pc}
 8000314:	080034b4 	.word	0x080034b4
 8000318:	20000028 	.word	0x20000028

0800031c <BlockDataZone>:
	uint8_t writeOTP15[] = {COMMAND, SIZE_WRITE_OTP, COMMAND_WRITE, 0x01, 0x0F, 0x01, 0x02, 0x03, 0x04, 0x85, 0x62};
	HAL_I2C_Master_Transmit(&hi2c2, 0xC8, writeOTP15, sizeof(writeOTP15), 1000);
	HAL_Delay(5);
}

void BlockDataZone(void){
 800031c:	b580      	push	{r7, lr}
 800031e:	b084      	sub	sp, #16
 8000320:	af02      	add	r7, sp, #8

	// Lock command: {COMMAND, COUNT, OPCODE, ZONE, CRC_DATA_OTP_LSB,   CRC_DATA_OTP_MSB, CRC_LSB, CRC_MSB}
	//Data and OTP Zone: Seus conteúdos são concatenados nessa ordem para criar a entrada para o algoritmo CRC
	uint8_t blockConfig[] = { COMMAND, SIZE_BLOCK_CONFIG, COMMAND_LOCK, ZONE_DATA_LOCK, 0x04, 0x58, /*0x66, 0xc7*/ 0x00, 0x00};
 8000322:	4a0d      	ldr	r2, [pc, #52]	; (8000358 <BlockDataZone+0x3c>)
 8000324:	463b      	mov	r3, r7
 8000326:	e892 0003 	ldmia.w	r2, {r0, r1}
 800032a:	e883 0003 	stmia.w	r3, {r0, r1}
	atCRC(blockConfig,sizeof(blockConfig));
 800032e:	463b      	mov	r3, r7
 8000330:	2108      	movs	r1, #8
 8000332:	4618      	mov	r0, r3
 8000334:	f7ff ff0a 	bl	800014c <atCRC>
	HAL_I2C_Master_Transmit(&hi2c2, I2C_ADDRESS, blockConfig, sizeof(blockConfig), 1000);
 8000338:	463a      	mov	r2, r7
 800033a:	f44f 737a 	mov.w	r3, #1000	; 0x3e8
 800033e:	9300      	str	r3, [sp, #0]
 8000340:	2308      	movs	r3, #8
 8000342:	21c8      	movs	r1, #200	; 0xc8
 8000344:	4805      	ldr	r0, [pc, #20]	; (800035c <BlockDataZone+0x40>)
 8000346:	f001 f933 	bl	80015b0 <HAL_I2C_Master_Transmit>
	HAL_Delay(5);
 800034a:	2005      	movs	r0, #5
 800034c:	f000 fcc0 	bl	8000cd0 <HAL_Delay>
}
 8000350:	bf00      	nop
 8000352:	3708      	adds	r7, #8
 8000354:	46bd      	mov	sp, r7
 8000356:	bd80      	pop	{r7, pc}
 8000358:	080037fc 	.word	0x080037fc
 800035c:	20000028 	.word	0x20000028

08000360 <ReadDataZone>:


void ReadDataZone(uint8_t *readData, uint16_t size, uint8_t *data) {
 8000360:	b580      	push	{r7, lr}
 8000362:	b086      	sub	sp, #24
 8000364:	af02      	add	r7, sp, #8
 8000366:	60f8      	str	r0, [r7, #12]
 8000368:	460b      	mov	r3, r1
 800036a:	607a      	str	r2, [r7, #4]
 800036c:	817b      	strh	r3, [r7, #10]

	HAL_I2C_Master_Transmit(&hi2c2, I2C_ADDRESS, readData, 8, 1000); 		    // Send read command
 800036e:	f44f 737a 	mov.w	r3, #1000	; 0x3e8
 8000372:	9300      	str	r3, [sp, #0]
 8000374:	2308      	movs	r3, #8
 8000376:	68fa      	ldr	r2, [r7, #12]
 8000378:	21c8      	movs	r1, #200	; 0xc8
 800037a:	480b      	ldr	r0, [pc, #44]	; (80003a8 <ReadDataZone+0x48>)
 800037c:	f001 f918 	bl	80015b0 <HAL_I2C_Master_Transmit>
	HAL_Delay(5);
 8000380:	2005      	movs	r0, #5
 8000382:	f000 fca5 	bl	8000cd0 <HAL_Delay>
	HAL_I2C_Master_Receive(&hi2c2, I2C_ADDRESS, data, size, 1000);
 8000386:	897b      	ldrh	r3, [r7, #10]
 8000388:	f44f 727a 	mov.w	r2, #1000	; 0x3e8
 800038c:	9200      	str	r2, [sp, #0]
 800038e:	687a      	ldr	r2, [r7, #4]
 8000390:	21c8      	movs	r1, #200	; 0xc8
 8000392:	4805      	ldr	r0, [pc, #20]	; (80003a8 <ReadDataZone+0x48>)
 8000394:	f001 fa0a 	bl	80017ac <HAL_I2C_Master_Receive>
	HAL_Delay(5);
 8000398:	2005      	movs	r0, #5
 800039a:	f000 fc99 	bl	8000cd0 <HAL_Delay>
}
 800039e:	bf00      	nop
 80003a0:	3710      	adds	r7, #16
 80003a2:	46bd      	mov	sp, r7
 80003a4:	bd80      	pop	{r7, pc}
 80003a6:	bf00      	nop
 80003a8:	20000028 	.word	0x20000028

080003ac <CommandNonce>:


void CommandNonce(uint8_t *NumIn, uint16_t size, uint8_t *data){
 80003ac:	b580      	push	{r7, lr}
 80003ae:	b08a      	sub	sp, #40	; 0x28
 80003b0:	af02      	add	r7, sp, #8
 80003b2:	60f8      	str	r0, [r7, #12]
 80003b4:	460b      	mov	r3, r1
 80003b6:	607a      	str	r2, [r7, #4]
 80003b8:	817b      	strh	r3, [r7, #10]

	// NONCE command: {COMMAND, COUNT, OPCODE, Param1_mode, 0x00, 0x00, NumIn, CRC_LSB, CRC_MSB}
	uint8_t NumIn_receiv[] = {0};
 80003ba:	2300      	movs	r3, #0
 80003bc:	773b      	strb	r3, [r7, #28]
	*NumIn = NumIn_receiv;
 80003be:	f107 031c 	add.w	r3, r7, #28
 80003c2:	b2da      	uxtb	r2, r3
 80003c4:	68fb      	ldr	r3, [r7, #12]
 80003c6:	701a      	strb	r2, [r3, #0]
	uint8_t noncecommand[] = {COMMAND, SIZE_WRITE_NONCE, COMMAND_NONCE, NONCE_MODE0, 0x00, 0x00, NumIn_receiv, /*0xca, 0x4f*/ 0x00, 0x00};
 80003c8:	2303      	movs	r3, #3
 80003ca:	743b      	strb	r3, [r7, #16]
 80003cc:	231b      	movs	r3, #27
 80003ce:	747b      	strb	r3, [r7, #17]
 80003d0:	2316      	movs	r3, #22
 80003d2:	74bb      	strb	r3, [r7, #18]
 80003d4:	2300      	movs	r3, #0
 80003d6:	74fb      	strb	r3, [r7, #19]
 80003d8:	2300      	movs	r3, #0
 80003da:	753b      	strb	r3, [r7, #20]
 80003dc:	2300      	movs	r3, #0
 80003de:	757b      	strb	r3, [r7, #21]
 80003e0:	f107 031c 	add.w	r3, r7, #28
 80003e4:	b2db      	uxtb	r3, r3
 80003e6:	75bb      	strb	r3, [r7, #22]
 80003e8:	2300      	movs	r3, #0
 80003ea:	75fb      	strb	r3, [r7, #23]
 80003ec:	2300      	movs	r3, #0
 80003ee:	763b      	strb	r3, [r7, #24]
	atCRC(noncecommand,sizeof(noncecommand));
 80003f0:	f107 0310 	add.w	r3, r7, #16
 80003f4:	2109      	movs	r1, #9
 80003f6:	4618      	mov	r0, r3
 80003f8:	f7ff fea8 	bl	800014c <atCRC>

	HAL_I2C_Master_Transmit(&hi2c2, I2C_ADDRESS, noncecommand, sizeof(noncecommand), 1000);
 80003fc:	f107 0210 	add.w	r2, r7, #16
 8000400:	f44f 737a 	mov.w	r3, #1000	; 0x3e8
 8000404:	9300      	str	r3, [sp, #0]
 8000406:	2309      	movs	r3, #9
 8000408:	21c8      	movs	r1, #200	; 0xc8
 800040a:	480b      	ldr	r0, [pc, #44]	; (8000438 <CommandNonce+0x8c>)
 800040c:	f001 f8d0 	bl	80015b0 <HAL_I2C_Master_Transmit>
	HAL_Delay(70);
 8000410:	2046      	movs	r0, #70	; 0x46
 8000412:	f000 fc5d 	bl	8000cd0 <HAL_Delay>
	HAL_I2C_Master_Receive(&hi2c2, I2C_ADDRESS, data, size, 1000);
 8000416:	897b      	ldrh	r3, [r7, #10]
 8000418:	f44f 727a 	mov.w	r2, #1000	; 0x3e8
 800041c:	9200      	str	r2, [sp, #0]
 800041e:	687a      	ldr	r2, [r7, #4]
 8000420:	21c8      	movs	r1, #200	; 0xc8
 8000422:	4805      	ldr	r0, [pc, #20]	; (8000438 <CommandNonce+0x8c>)
 8000424:	f001 f9c2 	bl	80017ac <HAL_I2C_Master_Receive>
	HAL_Delay(10);
 8000428:	200a      	movs	r0, #10
 800042a:	f000 fc51 	bl	8000cd0 <HAL_Delay>
}
 800042e:	bf00      	nop
 8000430:	3720      	adds	r7, #32
 8000432:	46bd      	mov	sp, r7
 8000434:	bd80      	pop	{r7, pc}
 8000436:	bf00      	nop
 8000438:	20000028 	.word	0x20000028

0800043c <GendigCommand>:


void GendigCommand(uint8_t *data, uint16_t size){
 800043c:	b580      	push	{r7, lr}
 800043e:	b086      	sub	sp, #24
 8000440:	af02      	add	r7, sp, #8
 8000442:	6078      	str	r0, [r7, #4]
 8000444:	460b      	mov	r3, r1
 8000446:	807b      	strh	r3, [r7, #2]
	// GENDIG command: {COMMAND, COUNT, OPCODE, ZONE_DATA, SLOTID_LSB, SLOTID_MSB, CRC_LSB, CRC_MSB}
	uint8_t GenDig[] = {COMMAND, SIZE_WRITE_GENDIG, COMMAND_GENDIG, 0x02, 0x08, 0x00, /*0x33, 0xe8*/ 0x00, 0x00};
 8000448:	4a14      	ldr	r2, [pc, #80]	; (800049c <GendigCommand+0x60>)
 800044a:	f107 0308 	add.w	r3, r7, #8
 800044e:	e892 0003 	ldmia.w	r2, {r0, r1}
 8000452:	e883 0003 	stmia.w	r3, {r0, r1}
	atCRC(GenDig,sizeof(GenDig));
 8000456:	f107 0308 	add.w	r3, r7, #8
 800045a:	2108      	movs	r1, #8
 800045c:	4618      	mov	r0, r3
 800045e:	f7ff fe75 	bl	800014c <atCRC>
	HAL_I2C_Master_Transmit(&hi2c2, I2C_ADDRESS, GenDig, sizeof(GenDig), 1000);
 8000462:	f107 0208 	add.w	r2, r7, #8
 8000466:	f44f 737a 	mov.w	r3, #1000	; 0x3e8
 800046a:	9300      	str	r3, [sp, #0]
 800046c:	2308      	movs	r3, #8
 800046e:	21c8      	movs	r1, #200	; 0xc8
 8000470:	480b      	ldr	r0, [pc, #44]	; (80004a0 <GendigCommand+0x64>)
 8000472:	f001 f89d 	bl	80015b0 <HAL_I2C_Master_Transmit>
	HAL_Delay(50);
 8000476:	2032      	movs	r0, #50	; 0x32
 8000478:	f000 fc2a 	bl	8000cd0 <HAL_Delay>
	HAL_I2C_Master_Receive(&hi2c2, I2C_ADDRESS, data, size, 1000);
 800047c:	887b      	ldrh	r3, [r7, #2]
 800047e:	f44f 727a 	mov.w	r2, #1000	; 0x3e8
 8000482:	9200      	str	r2, [sp, #0]
 8000484:	687a      	ldr	r2, [r7, #4]
 8000486:	21c8      	movs	r1, #200	; 0xc8
 8000488:	4805      	ldr	r0, [pc, #20]	; (80004a0 <GendigCommand+0x64>)
 800048a:	f001 f98f 	bl	80017ac <HAL_I2C_Master_Receive>
	HAL_Delay(5);
 800048e:	2005      	movs	r0, #5
 8000490:	f000 fc1e 	bl	8000cd0 <HAL_Delay>
}
 8000494:	bf00      	nop
 8000496:	3710      	adds	r7, #16
 8000498:	46bd      	mov	sp, r7
 800049a:	bd80      	pop	{r7, pc}
 800049c:	08003804 	.word	0x08003804
 80004a0:	20000028 	.word	0x20000028

080004a4 <ReadEncript>:
	HAL_I2C_Master_Receive(&hi2c2, I2C_ADDRESS, data, size, 1000);
	HAL_Delay(5);
}


void ReadEncript(uint8_t *readEncript, uint16_t size, uint8_t *data){
 80004a4:	b580      	push	{r7, lr}
 80004a6:	b086      	sub	sp, #24
 80004a8:	af02      	add	r7, sp, #8
 80004aa:	60f8      	str	r0, [r7, #12]
 80004ac:	460b      	mov	r3, r1
 80004ae:	607a      	str	r2, [r7, #4]
 80004b0:	817b      	strh	r3, [r7, #10]

	// Read Encript
	HAL_I2C_Master_Transmit(&hi2c2, I2C_ADDRESS, readEncript, 8, 1000); // Send read encript command
 80004b2:	f44f 737a 	mov.w	r3, #1000	; 0x3e8
 80004b6:	9300      	str	r3, [sp, #0]
 80004b8:	2308      	movs	r3, #8
 80004ba:	68fa      	ldr	r2, [r7, #12]
 80004bc:	21c8      	movs	r1, #200	; 0xc8
 80004be:	480b      	ldr	r0, [pc, #44]	; (80004ec <ReadEncript+0x48>)
 80004c0:	f001 f876 	bl	80015b0 <HAL_I2C_Master_Transmit>
	HAL_Delay(5);
 80004c4:	2005      	movs	r0, #5
 80004c6:	f000 fc03 	bl	8000cd0 <HAL_Delay>
	HAL_I2C_Master_Receive(&hi2c2, I2C_ADDRESS, data, size, 1000);
 80004ca:	897b      	ldrh	r3, [r7, #10]
 80004cc:	f44f 727a 	mov.w	r2, #1000	; 0x3e8
 80004d0:	9200      	str	r2, [sp, #0]
 80004d2:	687a      	ldr	r2, [r7, #4]
 80004d4:	21c8      	movs	r1, #200	; 0xc8
 80004d6:	4805      	ldr	r0, [pc, #20]	; (80004ec <ReadEncript+0x48>)
 80004d8:	f001 f968 	bl	80017ac <HAL_I2C_Master_Receive>
	HAL_Delay(5);
 80004dc:	2005      	movs	r0, #5
 80004de:	f000 fbf7 	bl	8000cd0 <HAL_Delay>
}
 80004e2:	bf00      	nop
 80004e4:	3710      	adds	r7, #16
 80004e6:	46bd      	mov	sp, r7
 80004e8:	bd80      	pop	{r7, pc}
 80004ea:	bf00      	nop
 80004ec:	20000028 	.word	0x20000028

080004f0 <main>:
/**
  * @brief  The application entry point.
  * @retval int
  */
int main(void)
{
 80004f0:	b5b0      	push	{r4, r5, r7, lr}
 80004f2:	b0e4      	sub	sp, #400	; 0x190
 80004f4:	af00      	add	r7, sp, #0

  /* MCU Configuration--------------------------------------------------------*/

  /* Reset of all peripherals, Initializes the Flash interface and the Systick. */

	HAL_Init();
 80004f6:	f000 fb89 	bl	8000c0c <HAL_Init>
  /* USER CODE BEGIN Init */

  /* USER CODE END Init */

  /* Configure the system clock */
  SystemClock_Config();
 80004fa:	f000 f983 	bl	8000804 <SystemClock_Config>
  /* USER CODE BEGIN SysInit */

  /* USER CODE END SysInit */

  /* Initialize all configured peripherals */
  MX_GPIO_Init();
 80004fe:	f000 fa21 	bl	8000944 <MX_GPIO_Init>
  MX_USART1_Init();
 8000502:	f000 f9f3 	bl	80008ec <MX_USART1_Init>
  MX_I2C2_Init();
 8000506:	f000 f9c3 	bl	8000890 <MX_I2C2_Init>
  /* USER CODE BEGIN 2 */

  // read configuration zone: {COMMAND, COUNT, OPCODE, ZONE, ADDRESS_1, ADDRESS_2, CRC_LSB, CRC_MSB}
  uint8_t readCommand0[8] = {0x03, 0x07, 0x02, 0x80, 0x00, 0x00, 0x09, 0xAD};
 800050a:	4ab2      	ldr	r2, [pc, #712]	; (80007d4 <main+0x2e4>)
 800050c:	f507 73c4 	add.w	r3, r7, #392	; 0x188
 8000510:	e892 0003 	ldmia.w	r2, {r0, r1}
 8000514:	e883 0003 	stmia.w	r3, {r0, r1}
  uint8_t readCommand1[8] = {0x03, 0x07, 0x02, 0x80, 0x08, 0x00, 0x0a, 0x4d};
 8000518:	4aaf      	ldr	r2, [pc, #700]	; (80007d8 <main+0x2e8>)
 800051a:	f507 73c0 	add.w	r3, r7, #384	; 0x180
 800051e:	e892 0003 	ldmia.w	r2, {r0, r1}
 8000522:	e883 0003 	stmia.w	r3, {r0, r1}
  uint8_t readCommand2[8] = {0x03, 0x07, 0x02, 0x00, 0x10, 0x00, 0x1d, 0x9d};
 8000526:	4aad      	ldr	r2, [pc, #692]	; (80007dc <main+0x2ec>)
 8000528:	f507 73bc 	add.w	r3, r7, #376	; 0x178
 800052c:	e892 0003 	ldmia.w	r2, {r0, r1}
 8000530:	e883 0003 	stmia.w	r3, {r0, r1}
  uint8_t readCommand3[8] = {0x03, 0x07, 0x02, 0x00, 0x11, 0x00, 0x14, 0x1d};
 8000534:	4aaa      	ldr	r2, [pc, #680]	; (80007e0 <main+0x2f0>)
 8000536:	f507 73b8 	add.w	r3, r7, #368	; 0x170
 800053a:	e892 0003 	ldmia.w	r2, {r0, r1}
 800053e:	e883 0003 	stmia.w	r3, {r0, r1}
  uint8_t readCommand4[8] = {0x03, 0x07, 0x02, 0x00, 0x12, 0x00, 0x1b, 0x1d};
 8000542:	4aa8      	ldr	r2, [pc, #672]	; (80007e4 <main+0x2f4>)
 8000544:	f507 73b4 	add.w	r3, r7, #360	; 0x168
 8000548:	e892 0003 	ldmia.w	r2, {r0, r1}
 800054c:	e883 0003 	stmia.w	r3, {r0, r1}
  uint8_t readCommand5[8] = {0x03, 0x07, 0x02, 0x00, 0x13, 0x00, 0x12, 0x9d};
 8000550:	4aa5      	ldr	r2, [pc, #660]	; (80007e8 <main+0x2f8>)
 8000552:	f507 73b0 	add.w	r3, r7, #352	; 0x160
 8000556:	e892 0003 	ldmia.w	r2, {r0, r1}
 800055a:	e883 0003 	stmia.w	r3, {r0, r1}
  uint8_t readCommand6[8] = {0x03, 0x07, 0x02, 0x00, 0x14, 0x00, 0x1e, 0xdd};
 800055e:	4aa3      	ldr	r2, [pc, #652]	; (80007ec <main+0x2fc>)
 8000560:	f507 73ac 	add.w	r3, r7, #344	; 0x158
 8000564:	e892 0003 	ldmia.w	r2, {r0, r1}
 8000568:	e883 0003 	stmia.w	r3, {r0, r1}
  uint8_t readCommand7[8] = {0x03, 0x07, 0x02, 0x00, 0x15, 0x00, 0x17, 0x5d};
 800056c:	4aa0      	ldr	r2, [pc, #640]	; (80007f0 <main+0x300>)
 800056e:	f507 73a8 	add.w	r3, r7, #336	; 0x150
 8000572:	e892 0003 	ldmia.w	r2, {r0, r1}
 8000576:	e883 0003 	stmia.w	r3, {r0, r1}

  uint8_t readMASTERKEY[8] = {0x03, 0x07, 0x02, 0x82, 0x70, 0x00, 0x09, 0x8c};
 800057a:	4a9e      	ldr	r2, [pc, #632]	; (80007f4 <main+0x304>)
 800057c:	f507 73a4 	add.w	r3, r7, #328	; 0x148
 8000580:	e892 0003 	ldmia.w	r2, {r0, r1}
 8000584:	e883 0003 	stmia.w	r3, {r0, r1}
  uint8_t readDATA0[8] = {0x03, 0x07, 0x02, 0x82, 0x10, 0x00, 0x09, 0x98};
 8000588:	4a9b      	ldr	r2, [pc, #620]	; (80007f8 <main+0x308>)
 800058a:	f507 73a0 	add.w	r3, r7, #320	; 0x140
 800058e:	e892 0003 	ldmia.w	r2, {r0, r1}
 8000592:	e883 0003 	stmia.w	r3, {r0, r1}
  uint8_t readDATA2[8] = {0x03, 0x07, 0x02, 0x82, 0x50, 0x00, 0x0a, 0x14};
 8000596:	4a99      	ldr	r2, [pc, #612]	; (80007fc <main+0x30c>)
 8000598:	f507 739c 	add.w	r3, r7, #312	; 0x138
 800059c:	e892 0003 	ldmia.w	r2, {r0, r1}
 80005a0:	e883 0003 	stmia.w	r3, {r0, r1}

  uint8_t temp_nonce[] = {};

  uint8_t receiv_MASTERKEY[35] = {0};
 80005a4:	2300      	movs	r3, #0
 80005a6:	f8c7 3114 	str.w	r3, [r7, #276]	; 0x114
 80005aa:	f507 738c 	add.w	r3, r7, #280	; 0x118
 80005ae:	221f      	movs	r2, #31
 80005b0:	2100      	movs	r1, #0
 80005b2:	4618      	mov	r0, r3
 80005b4:	f002 ff3a 	bl	800342c <memset>


  // NONCE
  uint8_t NumIn [20] = { 0x01, 0x02, 0x03, 0x04, 0x05, 0x06, 0x07, 0x08, 0x09, 0x00, 0x01, 0x02, 0x03, 0x04, 0x05,
 80005b8:	4b91      	ldr	r3, [pc, #580]	; (8000800 <main+0x310>)
 80005ba:	f507 7480 	add.w	r4, r7, #256	; 0x100
 80005be:	461d      	mov	r5, r3
 80005c0:	cd0f      	ldmia	r5!, {r0, r1, r2, r3}
 80005c2:	c40f      	stmia	r4!, {r0, r1, r2, r3}
 80005c4:	682b      	ldr	r3, [r5, #0]
 80005c6:	6023      	str	r3, [r4, #0]
		  	  	  	  	 0x06, 0x07, 0x08, 0x09, 0x00};
  uint8_t nonce_receiv[35] = {0};
 80005c8:	2300      	movs	r3, #0
 80005ca:	f8c7 30dc 	str.w	r3, [r7, #220]	; 0xdc
 80005ce:	f107 03e0 	add.w	r3, r7, #224	; 0xe0
 80005d2:	221f      	movs	r2, #31
 80005d4:	2100      	movs	r1, #0
 80005d6:	4618      	mov	r0, r3
 80005d8:	f002 ff28 	bl	800342c <memset>

  // SHA-256
  uint8_t sha_init[1] = {0};
 80005dc:	2300      	movs	r3, #0
 80005de:	f887 30d8 	strb.w	r3, [r7, #216]	; 0xd8
  uint8_t SHA_receiv[35] = {0};
 80005e2:	2300      	movs	r3, #0
 80005e4:	f8c7 30b4 	str.w	r3, [r7, #180]	; 0xb4
 80005e8:	f107 03b8 	add.w	r3, r7, #184	; 0xb8
 80005ec:	221f      	movs	r2, #31
 80005ee:	2100      	movs	r1, #0
 80005f0:	4618      	mov	r0, r3
 80005f2:	f002 ff1b 	bl	800342c <memset>

  // GENDIG
  uint8_t gendig_receiv[4] = {0};
 80005f6:	2300      	movs	r3, #0
 80005f8:	f8c7 30b0 	str.w	r3, [r7, #176]	; 0xb0



  uint8_t receiv_DATA2[35] = {0};
 80005fc:	f507 73c8 	add.w	r3, r7, #400	; 0x190
 8000600:	f5a3 7382 	sub.w	r3, r3, #260	; 0x104
 8000604:	2200      	movs	r2, #0
 8000606:	601a      	str	r2, [r3, #0]
 8000608:	3304      	adds	r3, #4
 800060a:	221f      	movs	r2, #31
 800060c:	2100      	movs	r1, #0
 800060e:	4618      	mov	r0, r3
 8000610:	f002 ff0c 	bl	800342c <memset>


  uint8_t read_byte[4];
  uint8_t receiv_ack[1] = {0};
 8000614:	f507 73c8 	add.w	r3, r7, #400	; 0x190
 8000618:	f5a3 7386 	sub.w	r3, r3, #268	; 0x10c
 800061c:	2200      	movs	r2, #0
 800061e:	701a      	strb	r2, [r3, #0]

  //uint8_t read_config[32] = {0};
  uint8_t read_config0[35] = {0};
 8000620:	f507 73c8 	add.w	r3, r7, #400	; 0x190
 8000624:	f5a3 7398 	sub.w	r3, r3, #304	; 0x130
 8000628:	2200      	movs	r2, #0
 800062a:	601a      	str	r2, [r3, #0]
 800062c:	3304      	adds	r3, #4
 800062e:	221f      	movs	r2, #31
 8000630:	2100      	movs	r1, #0
 8000632:	4618      	mov	r0, r3
 8000634:	f002 fefa 	bl	800342c <memset>
  uint8_t read_config1[35] = {0};
 8000638:	f507 73c8 	add.w	r3, r7, #400	; 0x190
 800063c:	f5a3 73aa 	sub.w	r3, r3, #340	; 0x154
 8000640:	2200      	movs	r2, #0
 8000642:	601a      	str	r2, [r3, #0]
 8000644:	3304      	adds	r3, #4
 8000646:	221f      	movs	r2, #31
 8000648:	2100      	movs	r1, #0
 800064a:	4618      	mov	r0, r3
 800064c:	f002 feee 	bl	800342c <memset>
  uint8_t read_config2[7] = {0};
 8000650:	f507 73c8 	add.w	r3, r7, #400	; 0x190
 8000654:	f5a3 73ae 	sub.w	r3, r3, #348	; 0x15c
 8000658:	2200      	movs	r2, #0
 800065a:	601a      	str	r2, [r3, #0]
 800065c:	3304      	adds	r3, #4
 800065e:	2100      	movs	r1, #0
 8000660:	460a      	mov	r2, r1
 8000662:	801a      	strh	r2, [r3, #0]
 8000664:	460a      	mov	r2, r1
 8000666:	709a      	strb	r2, [r3, #2]
  uint8_t read_config3[7] = {0};
 8000668:	f507 73c8 	add.w	r3, r7, #400	; 0x190
 800066c:	f5a3 73b2 	sub.w	r3, r3, #356	; 0x164
 8000670:	2200      	movs	r2, #0
 8000672:	601a      	str	r2, [r3, #0]
 8000674:	3304      	adds	r3, #4
 8000676:	2100      	movs	r1, #0
 8000678:	460a      	mov	r2, r1
 800067a:	801a      	strh	r2, [r3, #0]
 800067c:	460a      	mov	r2, r1
 800067e:	709a      	strb	r2, [r3, #2]
  uint8_t read_config4[7] = {0};
 8000680:	f507 73c8 	add.w	r3, r7, #400	; 0x190
 8000684:	f5a3 73b6 	sub.w	r3, r3, #364	; 0x16c
 8000688:	2200      	movs	r2, #0
 800068a:	601a      	str	r2, [r3, #0]
 800068c:	3304      	adds	r3, #4
 800068e:	2100      	movs	r1, #0
 8000690:	460a      	mov	r2, r1
 8000692:	801a      	strh	r2, [r3, #0]
 8000694:	460a      	mov	r2, r1
 8000696:	709a      	strb	r2, [r3, #2]
  uint8_t read_config5[7] = {0};
 8000698:	f507 73c8 	add.w	r3, r7, #400	; 0x190
 800069c:	f5a3 73ba 	sub.w	r3, r3, #372	; 0x174
 80006a0:	2200      	movs	r2, #0
 80006a2:	601a      	str	r2, [r3, #0]
 80006a4:	3304      	adds	r3, #4
 80006a6:	2100      	movs	r1, #0
 80006a8:	460a      	mov	r2, r1
 80006aa:	801a      	strh	r2, [r3, #0]
 80006ac:	460a      	mov	r2, r1
 80006ae:	709a      	strb	r2, [r3, #2]
  uint8_t read_config6[7] = {0};
 80006b0:	f507 73c8 	add.w	r3, r7, #400	; 0x190
 80006b4:	f5a3 73be 	sub.w	r3, r3, #380	; 0x17c
 80006b8:	2200      	movs	r2, #0
 80006ba:	601a      	str	r2, [r3, #0]
 80006bc:	3304      	adds	r3, #4
 80006be:	2100      	movs	r1, #0
 80006c0:	460a      	mov	r2, r1
 80006c2:	801a      	strh	r2, [r3, #0]
 80006c4:	460a      	mov	r2, r1
 80006c6:	709a      	strb	r2, [r3, #2]
  uint8_t read_config7[7] = {0};
 80006c8:	f507 73c8 	add.w	r3, r7, #400	; 0x190
 80006cc:	f5a3 73c2 	sub.w	r3, r3, #388	; 0x184
 80006d0:	2200      	movs	r2, #0
 80006d2:	601a      	str	r2, [r3, #0]
 80006d4:	3304      	adds	r3, #4
 80006d6:	2100      	movs	r1, #0
 80006d8:	460a      	mov	r2, r1
 80006da:	801a      	strh	r2, [r3, #0]
 80006dc:	460a      	mov	r2, r1
 80006de:	709a      	strb	r2, [r3, #2]
  uint8_t read_config8[7] = {0};
 80006e0:	f507 73c8 	add.w	r3, r7, #400	; 0x190
 80006e4:	f5a3 73c6 	sub.w	r3, r3, #396	; 0x18c
 80006e8:	2200      	movs	r2, #0
 80006ea:	601a      	str	r2, [r3, #0]
 80006ec:	3304      	adds	r3, #4
 80006ee:	2100      	movs	r1, #0
 80006f0:	460a      	mov	r2, r1
 80006f2:	801a      	strh	r2, [r3, #0]
 80006f4:	460a      	mov	r2, r1
 80006f6:	709a      	strb	r2, [r3, #2]

  /* Infinite loop */
  /* USER CODE BEGIN WHILE */
  while (1)
  {
	  WakeUp(read_byte);
 80006f8:	f107 0388 	add.w	r3, r7, #136	; 0x88
 80006fc:	4618      	mov	r0, r3
 80006fe:	f7ff fd75 	bl	80001ec <WakeUp>
	 // WriteConfigZone();
	  BlockConfigZone(receiv_ack);
 8000702:	f107 0384 	add.w	r3, r7, #132	; 0x84
 8000706:	4618      	mov	r0, r3
 8000708:	f7ff fdd6 	bl	80002b8 <BlockConfigZone>
	 // WriteDataZone();
	 // WriteOTPZone();
	  BlockDataZone();
 800070c:	f7ff fe06 	bl	800031c <BlockDataZone>

	  ReadConfig(readCommand0, 35, read_config0);
 8000710:	f107 0260 	add.w	r2, r7, #96	; 0x60
 8000714:	f507 73c4 	add.w	r3, r7, #392	; 0x188
 8000718:	2123      	movs	r1, #35	; 0x23
 800071a:	4618      	mov	r0, r3
 800071c:	f7ff fda6 	bl	800026c <ReadConfig>
	  ReadConfig(readCommand1, 35, read_config1);
 8000720:	f107 023c 	add.w	r2, r7, #60	; 0x3c
 8000724:	f507 73c0 	add.w	r3, r7, #384	; 0x180
 8000728:	2123      	movs	r1, #35	; 0x23
 800072a:	4618      	mov	r0, r3
 800072c:	f7ff fd9e 	bl	800026c <ReadConfig>
	  ReadConfig(readCommand2, 7, read_config2);
 8000730:	f107 0234 	add.w	r2, r7, #52	; 0x34
 8000734:	f507 73bc 	add.w	r3, r7, #376	; 0x178
 8000738:	2107      	movs	r1, #7
 800073a:	4618      	mov	r0, r3
 800073c:	f7ff fd96 	bl	800026c <ReadConfig>
	  ReadConfig(readCommand3, 7, read_config3);
 8000740:	f107 022c 	add.w	r2, r7, #44	; 0x2c
 8000744:	f507 73b8 	add.w	r3, r7, #368	; 0x170
 8000748:	2107      	movs	r1, #7
 800074a:	4618      	mov	r0, r3
 800074c:	f7ff fd8e 	bl	800026c <ReadConfig>
	  ReadConfig(readCommand4, 7, read_config4);
 8000750:	f107 0224 	add.w	r2, r7, #36	; 0x24
 8000754:	f507 73b4 	add.w	r3, r7, #360	; 0x168
 8000758:	2107      	movs	r1, #7
 800075a:	4618      	mov	r0, r3
 800075c:	f7ff fd86 	bl	800026c <ReadConfig>
	  ReadConfig(readCommand5, 7, read_config5);
 8000760:	f107 021c 	add.w	r2, r7, #28
 8000764:	f507 73b0 	add.w	r3, r7, #352	; 0x160
 8000768:	2107      	movs	r1, #7
 800076a:	4618      	mov	r0, r3
 800076c:	f7ff fd7e 	bl	800026c <ReadConfig>
	  ReadConfig(readCommand6, 7, read_config6);
 8000770:	f107 0214 	add.w	r2, r7, #20
 8000774:	f507 73ac 	add.w	r3, r7, #344	; 0x158
 8000778:	2107      	movs	r1, #7
 800077a:	4618      	mov	r0, r3
 800077c:	f7ff fd76 	bl	800026c <ReadConfig>
	  ReadConfig(readCommand7, 7, read_config7);
 8000780:	f107 020c 	add.w	r2, r7, #12
 8000784:	f507 73a8 	add.w	r3, r7, #336	; 0x150
 8000788:	2107      	movs	r1, #7
 800078a:	4618      	mov	r0, r3
 800078c:	f7ff fd6e 	bl	800026c <ReadConfig>


	  ReadDataZone(readMASTERKEY, 35, receiv_MASTERKEY);
 8000790:	f507 728a 	add.w	r2, r7, #276	; 0x114
 8000794:	f507 73a4 	add.w	r3, r7, #328	; 0x148
 8000798:	2123      	movs	r1, #35	; 0x23
 800079a:	4618      	mov	r0, r3
 800079c:	f7ff fde0 	bl	8000360 <ReadDataZone>
	  CommandNonce(NumIn, 35, nonce_receiv);
 80007a0:	f107 02dc 	add.w	r2, r7, #220	; 0xdc
 80007a4:	f507 7380 	add.w	r3, r7, #256	; 0x100
 80007a8:	2123      	movs	r1, #35	; 0x23
 80007aa:	4618      	mov	r0, r3
 80007ac:	f7ff fdfe 	bl	80003ac <CommandNonce>
	  //SHACommandInit(sha_init, 1);
	  //SHACommandCompute(SHA_receiv, 35);

	  GendigCommand(gendig_receiv, 4);
 80007b0:	f107 03b0 	add.w	r3, r7, #176	; 0xb0
 80007b4:	2104      	movs	r1, #4
 80007b6:	4618      	mov	r0, r3
 80007b8:	f7ff fe40 	bl	800043c <GendigCommand>
	  ReadEncript(readDATA2, 35, receiv_DATA2);
 80007bc:	f107 028c 	add.w	r2, r7, #140	; 0x8c
 80007c0:	f507 739c 	add.w	r3, r7, #312	; 0x138
 80007c4:	2123      	movs	r1, #35	; 0x23
 80007c6:	4618      	mov	r0, r3
 80007c8:	f7ff fe6c 	bl	80004a4 <ReadEncript>

	 // TempKeyGen(nonce_receiv, 55 );

	  HAL_Delay(10);
 80007cc:	200a      	movs	r0, #10
 80007ce:	f000 fa7f 	bl	8000cd0 <HAL_Delay>
	  WakeUp(read_byte);
 80007d2:	e791      	b.n	80006f8 <main+0x208>
 80007d4:	08003884 	.word	0x08003884
 80007d8:	0800388c 	.word	0x0800388c
 80007dc:	08003894 	.word	0x08003894
 80007e0:	0800389c 	.word	0x0800389c
 80007e4:	080038a4 	.word	0x080038a4
 80007e8:	080038ac 	.word	0x080038ac
 80007ec:	080038b4 	.word	0x080038b4
 80007f0:	080038bc 	.word	0x080038bc
 80007f4:	080038c4 	.word	0x080038c4
 80007f8:	080038cc 	.word	0x080038cc
 80007fc:	080038d4 	.word	0x080038d4
 8000800:	080038dc 	.word	0x080038dc

08000804 <SystemClock_Config>:
/**
  * @brief System Clock Configuration
  * @retval None
  */
void SystemClock_Config(void)
{
 8000804:	b580      	push	{r7, lr}
 8000806:	b090      	sub	sp, #64	; 0x40
 8000808:	af00      	add	r7, sp, #0
  RCC_OscInitTypeDef RCC_OscInitStruct = {0};
 800080a:	f107 0318 	add.w	r3, r7, #24
 800080e:	2228      	movs	r2, #40	; 0x28
 8000810:	2100      	movs	r1, #0
 8000812:	4618      	mov	r0, r3
 8000814:	f002 fe0a 	bl	800342c <memset>
  RCC_ClkInitTypeDef RCC_ClkInitStruct = {0};
 8000818:	1d3b      	adds	r3, r7, #4
 800081a:	2200      	movs	r2, #0
 800081c:	601a      	str	r2, [r3, #0]
 800081e:	605a      	str	r2, [r3, #4]
 8000820:	609a      	str	r2, [r3, #8]
 8000822:	60da      	str	r2, [r3, #12]
 8000824:	611a      	str	r2, [r3, #16]

  /** Initializes the RCC Oscillators according to the specified parameters
  * in the RCC_OscInitTypeDef structure.
  */
  RCC_OscInitStruct.OscillatorType = RCC_OSCILLATORTYPE_HSE;
 8000826:	2301      	movs	r3, #1
 8000828:	61bb      	str	r3, [r7, #24]
  RCC_OscInitStruct.HSEState = RCC_HSE_ON;
 800082a:	f44f 3380 	mov.w	r3, #65536	; 0x10000
 800082e:	61fb      	str	r3, [r7, #28]
  RCC_OscInitStruct.HSEPredivValue = RCC_HSE_PREDIV_DIV1;
 8000830:	2300      	movs	r3, #0
 8000832:	623b      	str	r3, [r7, #32]
  RCC_OscInitStruct.HSIState = RCC_HSI_ON;
 8000834:	2301      	movs	r3, #1
 8000836:	62bb      	str	r3, [r7, #40]	; 0x28
  RCC_OscInitStruct.PLL.PLLState = RCC_PLL_ON;
 8000838:	2302      	movs	r3, #2
 800083a:	637b      	str	r3, [r7, #52]	; 0x34
  RCC_OscInitStruct.PLL.PLLSource = RCC_PLLSOURCE_HSE;
 800083c:	f44f 3380 	mov.w	r3, #65536	; 0x10000
 8000840:	63bb      	str	r3, [r7, #56]	; 0x38
  RCC_OscInitStruct.PLL.PLLMUL = RCC_PLL_MUL9;
 8000842:	f44f 13e0 	mov.w	r3, #1835008	; 0x1c0000
 8000846:	63fb      	str	r3, [r7, #60]	; 0x3c
  if (HAL_RCC_OscConfig(&RCC_OscInitStruct) != HAL_OK)
 8000848:	f107 0318 	add.w	r3, r7, #24
 800084c:	4618      	mov	r0, r3
 800084e:	f001 fd39 	bl	80022c4 <HAL_RCC_OscConfig>
 8000852:	4603      	mov	r3, r0
 8000854:	2b00      	cmp	r3, #0
 8000856:	d001      	beq.n	800085c <SystemClock_Config+0x58>
  {
    Error_Handler();
 8000858:	f000 f8ae 	bl	80009b8 <Error_Handler>
  }

  /** Initializes the CPU, AHB and APB buses clocks
  */
  RCC_ClkInitStruct.ClockType = RCC_CLOCKTYPE_HCLK|RCC_CLOCKTYPE_SYSCLK
 800085c:	230f      	movs	r3, #15
 800085e:	607b      	str	r3, [r7, #4]
                              |RCC_CLOCKTYPE_PCLK1|RCC_CLOCKTYPE_PCLK2;
  RCC_ClkInitStruct.SYSCLKSource = RCC_SYSCLKSOURCE_PLLCLK;
 8000860:	2302      	movs	r3, #2
 8000862:	60bb      	str	r3, [r7, #8]
  RCC_ClkInitStruct.AHBCLKDivider = RCC_SYSCLK_DIV1;
 8000864:	2300      	movs	r3, #0
 8000866:	60fb      	str	r3, [r7, #12]
  RCC_ClkInitStruct.APB1CLKDivider = RCC_HCLK_DIV2;
 8000868:	f44f 6380 	mov.w	r3, #1024	; 0x400
 800086c:	613b      	str	r3, [r7, #16]
  RCC_ClkInitStruct.APB2CLKDivider = RCC_HCLK_DIV1;
 800086e:	2300      	movs	r3, #0
 8000870:	617b      	str	r3, [r7, #20]

  if (HAL_RCC_ClockConfig(&RCC_ClkInitStruct, FLASH_LATENCY_2) != HAL_OK)
 8000872:	1d3b      	adds	r3, r7, #4
 8000874:	2102      	movs	r1, #2
 8000876:	4618      	mov	r0, r3
 8000878:	f001 ffa6 	bl	80027c8 <HAL_RCC_ClockConfig>
 800087c:	4603      	mov	r3, r0
 800087e:	2b00      	cmp	r3, #0
 8000880:	d001      	beq.n	8000886 <SystemClock_Config+0x82>
  {
    Error_Handler();
 8000882:	f000 f899 	bl	80009b8 <Error_Handler>
  }
}
 8000886:	bf00      	nop
 8000888:	3740      	adds	r7, #64	; 0x40
 800088a:	46bd      	mov	sp, r7
 800088c:	bd80      	pop	{r7, pc}
	...

08000890 <MX_I2C2_Init>:
  * @brief I2C2 Initialization Function
  * @param None
  * @retval None
  */
static void MX_I2C2_Init(void)
{
 8000890:	b580      	push	{r7, lr}
 8000892:	af00      	add	r7, sp, #0
  /* USER CODE END I2C2_Init 0 */

  /* USER CODE BEGIN I2C2_Init 1 */

  /* USER CODE END I2C2_Init 1 */
  hi2c2.Instance = I2C2;
 8000894:	4b12      	ldr	r3, [pc, #72]	; (80008e0 <MX_I2C2_Init+0x50>)
 8000896:	4a13      	ldr	r2, [pc, #76]	; (80008e4 <MX_I2C2_Init+0x54>)
 8000898:	601a      	str	r2, [r3, #0]
  hi2c2.Init.ClockSpeed = 100000;
 800089a:	4b11      	ldr	r3, [pc, #68]	; (80008e0 <MX_I2C2_Init+0x50>)
 800089c:	4a12      	ldr	r2, [pc, #72]	; (80008e8 <MX_I2C2_Init+0x58>)
 800089e:	605a      	str	r2, [r3, #4]
  hi2c2.Init.DutyCycle = I2C_DUTYCYCLE_2;
 80008a0:	4b0f      	ldr	r3, [pc, #60]	; (80008e0 <MX_I2C2_Init+0x50>)
 80008a2:	2200      	movs	r2, #0
 80008a4:	609a      	str	r2, [r3, #8]
  hi2c2.Init.OwnAddress1 = 0;
 80008a6:	4b0e      	ldr	r3, [pc, #56]	; (80008e0 <MX_I2C2_Init+0x50>)
 80008a8:	2200      	movs	r2, #0
 80008aa:	60da      	str	r2, [r3, #12]
  hi2c2.Init.AddressingMode = I2C_ADDRESSINGMODE_7BIT;
 80008ac:	4b0c      	ldr	r3, [pc, #48]	; (80008e0 <MX_I2C2_Init+0x50>)
 80008ae:	f44f 4280 	mov.w	r2, #16384	; 0x4000
 80008b2:	611a      	str	r2, [r3, #16]
  hi2c2.Init.DualAddressMode = I2C_DUALADDRESS_DISABLE;
 80008b4:	4b0a      	ldr	r3, [pc, #40]	; (80008e0 <MX_I2C2_Init+0x50>)
 80008b6:	2200      	movs	r2, #0
 80008b8:	615a      	str	r2, [r3, #20]
  hi2c2.Init.OwnAddress2 = 0;
 80008ba:	4b09      	ldr	r3, [pc, #36]	; (80008e0 <MX_I2C2_Init+0x50>)
 80008bc:	2200      	movs	r2, #0
 80008be:	619a      	str	r2, [r3, #24]
  hi2c2.Init.GeneralCallMode = I2C_GENERALCALL_DISABLE;
 80008c0:	4b07      	ldr	r3, [pc, #28]	; (80008e0 <MX_I2C2_Init+0x50>)
 80008c2:	2200      	movs	r2, #0
 80008c4:	61da      	str	r2, [r3, #28]
  hi2c2.Init.NoStretchMode = I2C_NOSTRETCH_DISABLE;
 80008c6:	4b06      	ldr	r3, [pc, #24]	; (80008e0 <MX_I2C2_Init+0x50>)
 80008c8:	2200      	movs	r2, #0
 80008ca:	621a      	str	r2, [r3, #32]
  if (HAL_I2C_Init(&hi2c2) != HAL_OK)
 80008cc:	4804      	ldr	r0, [pc, #16]	; (80008e0 <MX_I2C2_Init+0x50>)
 80008ce:	f000 fd2b 	bl	8001328 <HAL_I2C_Init>
 80008d2:	4603      	mov	r3, r0
 80008d4:	2b00      	cmp	r3, #0
 80008d6:	d001      	beq.n	80008dc <MX_I2C2_Init+0x4c>
  {
    Error_Handler();
 80008d8:	f000 f86e 	bl	80009b8 <Error_Handler>
  }
  /* USER CODE BEGIN I2C2_Init 2 */

  /* USER CODE END I2C2_Init 2 */

}
 80008dc:	bf00      	nop
 80008de:	bd80      	pop	{r7, pc}
 80008e0:	20000028 	.word	0x20000028
 80008e4:	40005800 	.word	0x40005800
 80008e8:	000186a0 	.word	0x000186a0

080008ec <MX_USART1_Init>:
  * @brief USART1 Initialization Function
  * @param None
  * @retval None
  */
static void MX_USART1_Init(void)
{
 80008ec:	b580      	push	{r7, lr}
 80008ee:	af00      	add	r7, sp, #0
  /* USER CODE END USART1_Init 0 */

  /* USER CODE BEGIN USART1_Init 1 */

  /* USER CODE END USART1_Init 1 */
  husart1.Instance = USART1;
 80008f0:	4b12      	ldr	r3, [pc, #72]	; (800093c <MX_USART1_Init+0x50>)
 80008f2:	4a13      	ldr	r2, [pc, #76]	; (8000940 <MX_USART1_Init+0x54>)
 80008f4:	601a      	str	r2, [r3, #0]
  husart1.Init.BaudRate = 115200;
 80008f6:	4b11      	ldr	r3, [pc, #68]	; (800093c <MX_USART1_Init+0x50>)
 80008f8:	f44f 32e1 	mov.w	r2, #115200	; 0x1c200
 80008fc:	605a      	str	r2, [r3, #4]
  husart1.Init.WordLength = USART_WORDLENGTH_8B;
 80008fe:	4b0f      	ldr	r3, [pc, #60]	; (800093c <MX_USART1_Init+0x50>)
 8000900:	2200      	movs	r2, #0
 8000902:	609a      	str	r2, [r3, #8]
  husart1.Init.StopBits = USART_STOPBITS_1;
 8000904:	4b0d      	ldr	r3, [pc, #52]	; (800093c <MX_USART1_Init+0x50>)
 8000906:	2200      	movs	r2, #0
 8000908:	60da      	str	r2, [r3, #12]
  husart1.Init.Parity = USART_PARITY_NONE;
 800090a:	4b0c      	ldr	r3, [pc, #48]	; (800093c <MX_USART1_Init+0x50>)
 800090c:	2200      	movs	r2, #0
 800090e:	611a      	str	r2, [r3, #16]
  husart1.Init.Mode = USART_MODE_TX_RX;
 8000910:	4b0a      	ldr	r3, [pc, #40]	; (800093c <MX_USART1_Init+0x50>)
 8000912:	220c      	movs	r2, #12
 8000914:	615a      	str	r2, [r3, #20]
  husart1.Init.CLKPolarity = USART_POLARITY_LOW;
 8000916:	4b09      	ldr	r3, [pc, #36]	; (800093c <MX_USART1_Init+0x50>)
 8000918:	2200      	movs	r2, #0
 800091a:	619a      	str	r2, [r3, #24]
  husart1.Init.CLKPhase = USART_PHASE_1EDGE;
 800091c:	4b07      	ldr	r3, [pc, #28]	; (800093c <MX_USART1_Init+0x50>)
 800091e:	2200      	movs	r2, #0
 8000920:	61da      	str	r2, [r3, #28]
  husart1.Init.CLKLastBit = USART_LASTBIT_DISABLE;
 8000922:	4b06      	ldr	r3, [pc, #24]	; (800093c <MX_USART1_Init+0x50>)
 8000924:	2200      	movs	r2, #0
 8000926:	621a      	str	r2, [r3, #32]
  if (HAL_USART_Init(&husart1) != HAL_OK)
 8000928:	4804      	ldr	r0, [pc, #16]	; (800093c <MX_USART1_Init+0x50>)
 800092a:	f002 f8e5 	bl	8002af8 <HAL_USART_Init>
 800092e:	4603      	mov	r3, r0
 8000930:	2b00      	cmp	r3, #0
 8000932:	d001      	beq.n	8000938 <MX_USART1_Init+0x4c>
  {
    Error_Handler();
 8000934:	f000 f840 	bl	80009b8 <Error_Handler>
  }
  /* USER CODE BEGIN USART1_Init 2 */

  /* USER CODE END USART1_Init 2 */

}
 8000938:	bf00      	nop
 800093a:	bd80      	pop	{r7, pc}
 800093c:	2000007c 	.word	0x2000007c
 8000940:	40013800 	.word	0x40013800

08000944 <MX_GPIO_Init>:
  * @brief GPIO Initialization Function
  * @param None
  * @retval None
  */
static void MX_GPIO_Init(void)
{
 8000944:	b480      	push	{r7}
 8000946:	b085      	sub	sp, #20
 8000948:	af00      	add	r7, sp, #0

  /* GPIO Ports Clock Enable */
  __HAL_RCC_GPIOC_CLK_ENABLE();
 800094a:	4b1a      	ldr	r3, [pc, #104]	; (80009b4 <MX_GPIO_Init+0x70>)
 800094c:	699b      	ldr	r3, [r3, #24]
 800094e:	4a19      	ldr	r2, [pc, #100]	; (80009b4 <MX_GPIO_Init+0x70>)
 8000950:	f043 0310 	orr.w	r3, r3, #16
 8000954:	6193      	str	r3, [r2, #24]
 8000956:	4b17      	ldr	r3, [pc, #92]	; (80009b4 <MX_GPIO_Init+0x70>)
 8000958:	699b      	ldr	r3, [r3, #24]
 800095a:	f003 0310 	and.w	r3, r3, #16
 800095e:	60fb      	str	r3, [r7, #12]
 8000960:	68fb      	ldr	r3, [r7, #12]
  __HAL_RCC_GPIOD_CLK_ENABLE();
 8000962:	4b14      	ldr	r3, [pc, #80]	; (80009b4 <MX_GPIO_Init+0x70>)
 8000964:	699b      	ldr	r3, [r3, #24]
 8000966:	4a13      	ldr	r2, [pc, #76]	; (80009b4 <MX_GPIO_Init+0x70>)
 8000968:	f043 0320 	orr.w	r3, r3, #32
 800096c:	6193      	str	r3, [r2, #24]
 800096e:	4b11      	ldr	r3, [pc, #68]	; (80009b4 <MX_GPIO_Init+0x70>)
 8000970:	699b      	ldr	r3, [r3, #24]
 8000972:	f003 0320 	and.w	r3, r3, #32
 8000976:	60bb      	str	r3, [r7, #8]
 8000978:	68bb      	ldr	r3, [r7, #8]
  __HAL_RCC_GPIOB_CLK_ENABLE();
 800097a:	4b0e      	ldr	r3, [pc, #56]	; (80009b4 <MX_GPIO_Init+0x70>)
 800097c:	699b      	ldr	r3, [r3, #24]
 800097e:	4a0d      	ldr	r2, [pc, #52]	; (80009b4 <MX_GPIO_Init+0x70>)
 8000980:	f043 0308 	orr.w	r3, r3, #8
 8000984:	6193      	str	r3, [r2, #24]
 8000986:	4b0b      	ldr	r3, [pc, #44]	; (80009b4 <MX_GPIO_Init+0x70>)
 8000988:	699b      	ldr	r3, [r3, #24]
 800098a:	f003 0308 	and.w	r3, r3, #8
 800098e:	607b      	str	r3, [r7, #4]
 8000990:	687b      	ldr	r3, [r7, #4]
  __HAL_RCC_GPIOA_CLK_ENABLE();
 8000992:	4b08      	ldr	r3, [pc, #32]	; (80009b4 <MX_GPIO_Init+0x70>)
 8000994:	699b      	ldr	r3, [r3, #24]
 8000996:	4a07      	ldr	r2, [pc, #28]	; (80009b4 <MX_GPIO_Init+0x70>)
 8000998:	f043 0304 	orr.w	r3, r3, #4
 800099c:	6193      	str	r3, [r2, #24]
 800099e:	4b05      	ldr	r3, [pc, #20]	; (80009b4 <MX_GPIO_Init+0x70>)
 80009a0:	699b      	ldr	r3, [r3, #24]
 80009a2:	f003 0304 	and.w	r3, r3, #4
 80009a6:	603b      	str	r3, [r7, #0]
 80009a8:	683b      	ldr	r3, [r7, #0]

}
 80009aa:	bf00      	nop
 80009ac:	3714      	adds	r7, #20
 80009ae:	46bd      	mov	sp, r7
 80009b0:	bc80      	pop	{r7}
 80009b2:	4770      	bx	lr
 80009b4:	40021000 	.word	0x40021000

080009b8 <Error_Handler>:
/**
  * @brief  This function is executed in case of error occurrence.
  * @retval None
  */
void Error_Handler(void)
{
 80009b8:	b480      	push	{r7}
 80009ba:	af00      	add	r7, sp, #0
  \details Disables IRQ interrupts by setting the I-bit in the CPSR.
           Can only be executed in Privileged modes.
 */
__STATIC_FORCEINLINE void __disable_irq(void)
{
  __ASM volatile ("cpsid i" : : : "memory");
 80009bc:	b672      	cpsid	i
}
 80009be:	bf00      	nop
  /* USER CODE BEGIN Error_Handler_Debug */
  /* User can add his own implementation to report the HAL error return state */
  __disable_irq();
  while (1)
 80009c0:	e7fe      	b.n	80009c0 <Error_Handler+0x8>
	...

080009c4 <HAL_MspInit>:
/* USER CODE END 0 */
/**
  * Initializes the Global MSP.
  */
void HAL_MspInit(void)
{
 80009c4:	b480      	push	{r7}
 80009c6:	b085      	sub	sp, #20
 80009c8:	af00      	add	r7, sp, #0
  /* USER CODE BEGIN MspInit 0 */

  /* USER CODE END MspInit 0 */

  __HAL_RCC_AFIO_CLK_ENABLE();
 80009ca:	4b15      	ldr	r3, [pc, #84]	; (8000a20 <HAL_MspInit+0x5c>)
 80009cc:	699b      	ldr	r3, [r3, #24]
 80009ce:	4a14      	ldr	r2, [pc, #80]	; (8000a20 <HAL_MspInit+0x5c>)
 80009d0:	f043 0301 	orr.w	r3, r3, #1
 80009d4:	6193      	str	r3, [r2, #24]
 80009d6:	4b12      	ldr	r3, [pc, #72]	; (8000a20 <HAL_MspInit+0x5c>)
 80009d8:	699b      	ldr	r3, [r3, #24]
 80009da:	f003 0301 	and.w	r3, r3, #1
 80009de:	60bb      	str	r3, [r7, #8]
 80009e0:	68bb      	ldr	r3, [r7, #8]
  __HAL_RCC_PWR_CLK_ENABLE();
 80009e2:	4b0f      	ldr	r3, [pc, #60]	; (8000a20 <HAL_MspInit+0x5c>)
 80009e4:	69db      	ldr	r3, [r3, #28]
 80009e6:	4a0e      	ldr	r2, [pc, #56]	; (8000a20 <HAL_MspInit+0x5c>)
 80009e8:	f043 5380 	orr.w	r3, r3, #268435456	; 0x10000000
 80009ec:	61d3      	str	r3, [r2, #28]
 80009ee:	4b0c      	ldr	r3, [pc, #48]	; (8000a20 <HAL_MspInit+0x5c>)
 80009f0:	69db      	ldr	r3, [r3, #28]
 80009f2:	f003 5380 	and.w	r3, r3, #268435456	; 0x10000000
 80009f6:	607b      	str	r3, [r7, #4]
 80009f8:	687b      	ldr	r3, [r7, #4]

  /* System interrupt init*/

  /** NOJTAG: JTAG-DP Disabled and SW-DP Enabled
  */
  __HAL_AFIO_REMAP_SWJ_NOJTAG();
 80009fa:	4b0a      	ldr	r3, [pc, #40]	; (8000a24 <HAL_MspInit+0x60>)
 80009fc:	685b      	ldr	r3, [r3, #4]
 80009fe:	60fb      	str	r3, [r7, #12]
 8000a00:	68fb      	ldr	r3, [r7, #12]
 8000a02:	f023 63e0 	bic.w	r3, r3, #117440512	; 0x7000000
 8000a06:	60fb      	str	r3, [r7, #12]
 8000a08:	68fb      	ldr	r3, [r7, #12]
 8000a0a:	f043 7300 	orr.w	r3, r3, #33554432	; 0x2000000
 8000a0e:	60fb      	str	r3, [r7, #12]
 8000a10:	4a04      	ldr	r2, [pc, #16]	; (8000a24 <HAL_MspInit+0x60>)
 8000a12:	68fb      	ldr	r3, [r7, #12]
 8000a14:	6053      	str	r3, [r2, #4]

  /* USER CODE BEGIN MspInit 1 */

  /* USER CODE END MspInit 1 */
}
 8000a16:	bf00      	nop
 8000a18:	3714      	adds	r7, #20
 8000a1a:	46bd      	mov	sp, r7
 8000a1c:	bc80      	pop	{r7}
 8000a1e:	4770      	bx	lr
 8000a20:	40021000 	.word	0x40021000
 8000a24:	40010000 	.word	0x40010000

08000a28 <HAL_I2C_MspInit>:
* This function configures the hardware resources used in this example
* @param hi2c: I2C handle pointer
* @retval None
*/
void HAL_I2C_MspInit(I2C_HandleTypeDef* hi2c)
{
 8000a28:	b580      	push	{r7, lr}
 8000a2a:	b088      	sub	sp, #32
 8000a2c:	af00      	add	r7, sp, #0
 8000a2e:	6078      	str	r0, [r7, #4]
  GPIO_InitTypeDef GPIO_InitStruct = {0};
 8000a30:	f107 0310 	add.w	r3, r7, #16
 8000a34:	2200      	movs	r2, #0
 8000a36:	601a      	str	r2, [r3, #0]
 8000a38:	605a      	str	r2, [r3, #4]
 8000a3a:	609a      	str	r2, [r3, #8]
 8000a3c:	60da      	str	r2, [r3, #12]
  if(hi2c->Instance==I2C2)
 8000a3e:	687b      	ldr	r3, [r7, #4]
 8000a40:	681b      	ldr	r3, [r3, #0]
 8000a42:	4a16      	ldr	r2, [pc, #88]	; (8000a9c <HAL_I2C_MspInit+0x74>)
 8000a44:	4293      	cmp	r3, r2
 8000a46:	d124      	bne.n	8000a92 <HAL_I2C_MspInit+0x6a>
  {
  /* USER CODE BEGIN I2C2_MspInit 0 */

  /* USER CODE END I2C2_MspInit 0 */

    __HAL_RCC_GPIOB_CLK_ENABLE();
 8000a48:	4b15      	ldr	r3, [pc, #84]	; (8000aa0 <HAL_I2C_MspInit+0x78>)
 8000a4a:	699b      	ldr	r3, [r3, #24]
 8000a4c:	4a14      	ldr	r2, [pc, #80]	; (8000aa0 <HAL_I2C_MspInit+0x78>)
 8000a4e:	f043 0308 	orr.w	r3, r3, #8
 8000a52:	6193      	str	r3, [r2, #24]
 8000a54:	4b12      	ldr	r3, [pc, #72]	; (8000aa0 <HAL_I2C_MspInit+0x78>)
 8000a56:	699b      	ldr	r3, [r3, #24]
 8000a58:	f003 0308 	and.w	r3, r3, #8
 8000a5c:	60fb      	str	r3, [r7, #12]
 8000a5e:	68fb      	ldr	r3, [r7, #12]
    /**I2C2 GPIO Configuration
    PB10     ------> I2C2_SCL
    PB11     ------> I2C2_SDA
    */
    GPIO_InitStruct.Pin = GPIO_PIN_10|GPIO_PIN_11;
 8000a60:	f44f 6340 	mov.w	r3, #3072	; 0xc00
 8000a64:	613b      	str	r3, [r7, #16]
    GPIO_InitStruct.Mode = GPIO_MODE_AF_OD;
 8000a66:	2312      	movs	r3, #18
 8000a68:	617b      	str	r3, [r7, #20]
    GPIO_InitStruct.Speed = GPIO_SPEED_FREQ_HIGH;
 8000a6a:	2303      	movs	r3, #3
 8000a6c:	61fb      	str	r3, [r7, #28]
    HAL_GPIO_Init(GPIOB, &GPIO_InitStruct);
 8000a6e:	f107 0310 	add.w	r3, r7, #16
 8000a72:	4619      	mov	r1, r3
 8000a74:	480b      	ldr	r0, [pc, #44]	; (8000aa4 <HAL_I2C_MspInit+0x7c>)
 8000a76:	f000 fad3 	bl	8001020 <HAL_GPIO_Init>

    /* Peripheral clock enable */
    __HAL_RCC_I2C2_CLK_ENABLE();
 8000a7a:	4b09      	ldr	r3, [pc, #36]	; (8000aa0 <HAL_I2C_MspInit+0x78>)
 8000a7c:	69db      	ldr	r3, [r3, #28]
 8000a7e:	4a08      	ldr	r2, [pc, #32]	; (8000aa0 <HAL_I2C_MspInit+0x78>)
 8000a80:	f443 0380 	orr.w	r3, r3, #4194304	; 0x400000
 8000a84:	61d3      	str	r3, [r2, #28]
 8000a86:	4b06      	ldr	r3, [pc, #24]	; (8000aa0 <HAL_I2C_MspInit+0x78>)
 8000a88:	69db      	ldr	r3, [r3, #28]
 8000a8a:	f403 0380 	and.w	r3, r3, #4194304	; 0x400000
 8000a8e:	60bb      	str	r3, [r7, #8]
 8000a90:	68bb      	ldr	r3, [r7, #8]
  /* USER CODE BEGIN I2C2_MspInit 1 */

  /* USER CODE END I2C2_MspInit 1 */
  }

}
 8000a92:	bf00      	nop
 8000a94:	3720      	adds	r7, #32
 8000a96:	46bd      	mov	sp, r7
 8000a98:	bd80      	pop	{r7, pc}
 8000a9a:	bf00      	nop
 8000a9c:	40005800 	.word	0x40005800
 8000aa0:	40021000 	.word	0x40021000
 8000aa4:	40010c00 	.word	0x40010c00

08000aa8 <HAL_USART_MspInit>:
* This function configures the hardware resources used in this example
* @param husart: USART handle pointer
* @retval None
*/
void HAL_USART_MspInit(USART_HandleTypeDef* husart)
{
 8000aa8:	b580      	push	{r7, lr}
 8000aaa:	b088      	sub	sp, #32
 8000aac:	af00      	add	r7, sp, #0
 8000aae:	6078      	str	r0, [r7, #4]
  GPIO_InitTypeDef GPIO_InitStruct = {0};
 8000ab0:	f107 0310 	add.w	r3, r7, #16
 8000ab4:	2200      	movs	r2, #0
 8000ab6:	601a      	str	r2, [r3, #0]
 8000ab8:	605a      	str	r2, [r3, #4]
 8000aba:	609a      	str	r2, [r3, #8]
 8000abc:	60da      	str	r2, [r3, #12]
  if(husart->Instance==USART1)
 8000abe:	687b      	ldr	r3, [r7, #4]
 8000ac0:	681b      	ldr	r3, [r3, #0]
 8000ac2:	4a20      	ldr	r2, [pc, #128]	; (8000b44 <HAL_USART_MspInit+0x9c>)
 8000ac4:	4293      	cmp	r3, r2
 8000ac6:	d139      	bne.n	8000b3c <HAL_USART_MspInit+0x94>
  {
  /* USER CODE BEGIN USART1_MspInit 0 */

  /* USER CODE END USART1_MspInit 0 */
    /* Peripheral clock enable */
    __HAL_RCC_USART1_CLK_ENABLE();
 8000ac8:	4b1f      	ldr	r3, [pc, #124]	; (8000b48 <HAL_USART_MspInit+0xa0>)
 8000aca:	699b      	ldr	r3, [r3, #24]
 8000acc:	4a1e      	ldr	r2, [pc, #120]	; (8000b48 <HAL_USART_MspInit+0xa0>)
 8000ace:	f443 4380 	orr.w	r3, r3, #16384	; 0x4000
 8000ad2:	6193      	str	r3, [r2, #24]
 8000ad4:	4b1c      	ldr	r3, [pc, #112]	; (8000b48 <HAL_USART_MspInit+0xa0>)
 8000ad6:	699b      	ldr	r3, [r3, #24]
 8000ad8:	f403 4380 	and.w	r3, r3, #16384	; 0x4000
 8000adc:	60fb      	str	r3, [r7, #12]
 8000ade:	68fb      	ldr	r3, [r7, #12]

    __HAL_RCC_GPIOA_CLK_ENABLE();
 8000ae0:	4b19      	ldr	r3, [pc, #100]	; (8000b48 <HAL_USART_MspInit+0xa0>)
 8000ae2:	699b      	ldr	r3, [r3, #24]
 8000ae4:	4a18      	ldr	r2, [pc, #96]	; (8000b48 <HAL_USART_MspInit+0xa0>)
 8000ae6:	f043 0304 	orr.w	r3, r3, #4
 8000aea:	6193      	str	r3, [r2, #24]
 8000aec:	4b16      	ldr	r3, [pc, #88]	; (8000b48 <HAL_USART_MspInit+0xa0>)
 8000aee:	699b      	ldr	r3, [r3, #24]
 8000af0:	f003 0304 	and.w	r3, r3, #4
 8000af4:	60bb      	str	r3, [r7, #8]
 8000af6:	68bb      	ldr	r3, [r7, #8]
    /**USART1 GPIO Configuration
    PA8     ------> USART1_CK
    PA9     ------> USART1_TX
    PA10     ------> USART1_RX
    */
    GPIO_InitStruct.Pin = GPIO_PIN_8|GPIO_PIN_9;
 8000af8:	f44f 7340 	mov.w	r3, #768	; 0x300
 8000afc:	613b      	str	r3, [r7, #16]
    GPIO_InitStruct.Mode = GPIO_MODE_AF_PP;
 8000afe:	2302      	movs	r3, #2
 8000b00:	617b      	str	r3, [r7, #20]
    GPIO_InitStruct.Speed = GPIO_SPEED_FREQ_HIGH;
 8000b02:	2303      	movs	r3, #3
 8000b04:	61fb      	str	r3, [r7, #28]
    HAL_GPIO_Init(GPIOA, &GPIO_InitStruct);
 8000b06:	f107 0310 	add.w	r3, r7, #16
 8000b0a:	4619      	mov	r1, r3
 8000b0c:	480f      	ldr	r0, [pc, #60]	; (8000b4c <HAL_USART_MspInit+0xa4>)
 8000b0e:	f000 fa87 	bl	8001020 <HAL_GPIO_Init>

    GPIO_InitStruct.Pin = GPIO_PIN_10;
 8000b12:	f44f 6380 	mov.w	r3, #1024	; 0x400
 8000b16:	613b      	str	r3, [r7, #16]
    GPIO_InitStruct.Mode = GPIO_MODE_INPUT;
 8000b18:	2300      	movs	r3, #0
 8000b1a:	617b      	str	r3, [r7, #20]
    GPIO_InitStruct.Pull = GPIO_NOPULL;
 8000b1c:	2300      	movs	r3, #0
 8000b1e:	61bb      	str	r3, [r7, #24]
    HAL_GPIO_Init(GPIOA, &GPIO_InitStruct);
 8000b20:	f107 0310 	add.w	r3, r7, #16
 8000b24:	4619      	mov	r1, r3
 8000b26:	4809      	ldr	r0, [pc, #36]	; (8000b4c <HAL_USART_MspInit+0xa4>)
 8000b28:	f000 fa7a 	bl	8001020 <HAL_GPIO_Init>

    /* USART1 interrupt Init */
    HAL_NVIC_SetPriority(USART1_IRQn, 0, 0);
 8000b2c:	2200      	movs	r2, #0
 8000b2e:	2100      	movs	r1, #0
 8000b30:	2025      	movs	r0, #37	; 0x25
 8000b32:	f000 f9c8 	bl	8000ec6 <HAL_NVIC_SetPriority>
    HAL_NVIC_EnableIRQ(USART1_IRQn);
 8000b36:	2025      	movs	r0, #37	; 0x25
 8000b38:	f000 f9e1 	bl	8000efe <HAL_NVIC_EnableIRQ>
  /* USER CODE BEGIN USART1_MspInit 1 */

  /* USER CODE END USART1_MspInit 1 */
  }

}
 8000b3c:	bf00      	nop
 8000b3e:	3720      	adds	r7, #32
 8000b40:	46bd      	mov	sp, r7
 8000b42:	bd80      	pop	{r7, pc}
 8000b44:	40013800 	.word	0x40013800
 8000b48:	40021000 	.word	0x40021000
 8000b4c:	40010800 	.word	0x40010800

08000b50 <NMI_Handler>:
/******************************************************************************/
/**
  * @brief This function handles Non maskable interrupt.
  */
void NMI_Handler(void)
{
 8000b50:	b480      	push	{r7}
 8000b52:	af00      	add	r7, sp, #0
  /* USER CODE BEGIN NonMaskableInt_IRQn 0 */

  /* USER CODE END NonMaskableInt_IRQn 0 */
  /* USER CODE BEGIN NonMaskableInt_IRQn 1 */
  while (1)
 8000b54:	e7fe      	b.n	8000b54 <NMI_Handler+0x4>

08000b56 <HardFault_Handler>:

/**
  * @brief This function handles Hard fault interrupt.
  */
void HardFault_Handler(void)
{
 8000b56:	b480      	push	{r7}
 8000b58:	af00      	add	r7, sp, #0
  /* USER CODE BEGIN HardFault_IRQn 0 */

  /* USER CODE END HardFault_IRQn 0 */
  while (1)
 8000b5a:	e7fe      	b.n	8000b5a <HardFault_Handler+0x4>

08000b5c <MemManage_Handler>:

/**
  * @brief This function handles Memory management fault.
  */
void MemManage_Handler(void)
{
 8000b5c:	b480      	push	{r7}
 8000b5e:	af00      	add	r7, sp, #0
  /* USER CODE BEGIN MemoryManagement_IRQn 0 */

  /* USER CODE END MemoryManagement_IRQn 0 */
  while (1)
 8000b60:	e7fe      	b.n	8000b60 <MemManage_Handler+0x4>

08000b62 <BusFault_Handler>:

/**
  * @brief This function handles Prefetch fault, memory access fault.
  */
void BusFault_Handler(void)
{
 8000b62:	b480      	push	{r7}
 8000b64:	af00      	add	r7, sp, #0
  /* USER CODE BEGIN BusFault_IRQn 0 */

  /* USER CODE END BusFault_IRQn 0 */
  while (1)
 8000b66:	e7fe      	b.n	8000b66 <BusFault_Handler+0x4>

08000b68 <UsageFault_Handler>:

/**
  * @brief This function handles Undefined instruction or illegal state.
  */
void UsageFault_Handler(void)
{
 8000b68:	b480      	push	{r7}
 8000b6a:	af00      	add	r7, sp, #0
  /* USER CODE BEGIN UsageFault_IRQn 0 */

  /* USER CODE END UsageFault_IRQn 0 */
  while (1)
 8000b6c:	e7fe      	b.n	8000b6c <UsageFault_Handler+0x4>

08000b6e <SVC_Handler>:

/**
  * @brief This function handles System service call via SWI instruction.
  */
void SVC_Handler(void)
{
 8000b6e:	b480      	push	{r7}
 8000b70:	af00      	add	r7, sp, #0

  /* USER CODE END SVCall_IRQn 0 */
  /* USER CODE BEGIN SVCall_IRQn 1 */

  /* USER CODE END SVCall_IRQn 1 */
}
 8000b72:	bf00      	nop
 8000b74:	46bd      	mov	sp, r7
 8000b76:	bc80      	pop	{r7}
 8000b78:	4770      	bx	lr

08000b7a <DebugMon_Handler>:

/**
  * @brief This function handles Debug monitor.
  */
void DebugMon_Handler(void)
{
 8000b7a:	b480      	push	{r7}
 8000b7c:	af00      	add	r7, sp, #0

  /* USER CODE END DebugMonitor_IRQn 0 */
  /* USER CODE BEGIN DebugMonitor_IRQn 1 */

  /* USER CODE END DebugMonitor_IRQn 1 */
}
 8000b7e:	bf00      	nop
 8000b80:	46bd      	mov	sp, r7
 8000b82:	bc80      	pop	{r7}
 8000b84:	4770      	bx	lr

08000b86 <PendSV_Handler>:

/**
  * @brief This function handles Pendable request for system service.
  */
void PendSV_Handler(void)
{
 8000b86:	b480      	push	{r7}
 8000b88:	af00      	add	r7, sp, #0

  /* USER CODE END PendSV_IRQn 0 */
  /* USER CODE BEGIN PendSV_IRQn 1 */

  /* USER CODE END PendSV_IRQn 1 */
}
 8000b8a:	bf00      	nop
 8000b8c:	46bd      	mov	sp, r7
 8000b8e:	bc80      	pop	{r7}
 8000b90:	4770      	bx	lr

08000b92 <SysTick_Handler>:

/**
  * @brief This function handles System tick timer.
  */
void SysTick_Handler(void)
{
 8000b92:	b580      	push	{r7, lr}
 8000b94:	af00      	add	r7, sp, #0
  /* USER CODE BEGIN SysTick_IRQn 0 */

  /* USER CODE END SysTick_IRQn 0 */
  HAL_IncTick();
 8000b96:	f000 f87f 	bl	8000c98 <HAL_IncTick>
  /* USER CODE BEGIN SysTick_IRQn 1 */

  /* USER CODE END SysTick_IRQn 1 */
}
 8000b9a:	bf00      	nop
 8000b9c:	bd80      	pop	{r7, pc}
	...

08000ba0 <USART1_IRQHandler>:

/**
  * @brief This function handles USART1 global interrupt.
  */
void USART1_IRQHandler(void)
{
 8000ba0:	b580      	push	{r7, lr}
 8000ba2:	af00      	add	r7, sp, #0
  /* USER CODE BEGIN USART1_IRQn 0 */

  /* USER CODE END USART1_IRQn 0 */
  HAL_USART_IRQHandler(&husart1);
 8000ba4:	4802      	ldr	r0, [pc, #8]	; (8000bb0 <USART1_IRQHandler+0x10>)
 8000ba6:	f001 ffe9 	bl	8002b7c <HAL_USART_IRQHandler>
  /* USER CODE BEGIN USART1_IRQn 1 */

  /* USER CODE END USART1_IRQn 1 */
}
 8000baa:	bf00      	nop
 8000bac:	bd80      	pop	{r7, pc}
 8000bae:	bf00      	nop
 8000bb0:	2000007c 	.word	0x2000007c

08000bb4 <SystemInit>:
  * @note   This function should be used only after reset.
  * @param  None
  * @retval None
  */
void SystemInit (void)
{
 8000bb4:	b480      	push	{r7}
 8000bb6:	af00      	add	r7, sp, #0

  /* Configure the Vector Table location -------------------------------------*/
#if defined(USER_VECT_TAB_ADDRESS)
  SCB->VTOR = VECT_TAB_BASE_ADDRESS | VECT_TAB_OFFSET; /* Vector Table Relocation in Internal SRAM. */
#endif /* USER_VECT_TAB_ADDRESS */
}
 8000bb8:	bf00      	nop
 8000bba:	46bd      	mov	sp, r7
 8000bbc:	bc80      	pop	{r7}
 8000bbe:	4770      	bx	lr

08000bc0 <Reset_Handler>:
 8000bc0:	480c      	ldr	r0, [pc, #48]	; (8000bf4 <LoopFillZerobss+0x12>)
 8000bc2:	490d      	ldr	r1, [pc, #52]	; (8000bf8 <LoopFillZerobss+0x16>)
 8000bc4:	4a0d      	ldr	r2, [pc, #52]	; (8000bfc <LoopFillZerobss+0x1a>)
 8000bc6:	2300      	movs	r3, #0
 8000bc8:	e002      	b.n	8000bd0 <LoopCopyDataInit>

08000bca <CopyDataInit>:
 8000bca:	58d4      	ldr	r4, [r2, r3]
 8000bcc:	50c4      	str	r4, [r0, r3]
 8000bce:	3304      	adds	r3, #4

08000bd0 <LoopCopyDataInit>:
 8000bd0:	18c4      	adds	r4, r0, r3
 8000bd2:	428c      	cmp	r4, r1
 8000bd4:	d3f9      	bcc.n	8000bca <CopyDataInit>
 8000bd6:	4a0a      	ldr	r2, [pc, #40]	; (8000c00 <LoopFillZerobss+0x1e>)
 8000bd8:	4c0a      	ldr	r4, [pc, #40]	; (8000c04 <LoopFillZerobss+0x22>)
 8000bda:	2300      	movs	r3, #0
 8000bdc:	e001      	b.n	8000be2 <LoopFillZerobss>

08000bde <FillZerobss>:
 8000bde:	6013      	str	r3, [r2, #0]
 8000be0:	3204      	adds	r2, #4

08000be2 <LoopFillZerobss>:
 8000be2:	42a2      	cmp	r2, r4
 8000be4:	d3fb      	bcc.n	8000bde <FillZerobss>
 8000be6:	f7ff ffe5 	bl	8000bb4 <SystemInit>
 8000bea:	f002 fbfb 	bl	80033e4 <__libc_init_array>
 8000bee:	f7ff fc7f 	bl	80004f0 <main>
 8000bf2:	4770      	bx	lr
 8000bf4:	20000000 	.word	0x20000000
 8000bf8:	2000000c 	.word	0x2000000c
 8000bfc:	08003920 	.word	0x08003920
 8000c00:	2000000c 	.word	0x2000000c
 8000c04:	200000c4 	.word	0x200000c4

08000c08 <ADC1_2_IRQHandler>:
 8000c08:	e7fe      	b.n	8000c08 <ADC1_2_IRQHandler>
	...

08000c0c <HAL_Init>:
  *         need to ensure that the SysTick time base is always set to 1 millisecond
  *         to have correct HAL operation.
  * @retval HAL status
  */
HAL_StatusTypeDef HAL_Init(void)
{
 8000c0c:	b580      	push	{r7, lr}
 8000c0e:	af00      	add	r7, sp, #0
    defined(STM32F102x6) || defined(STM32F102xB) || \
    defined(STM32F103x6) || defined(STM32F103xB) || defined(STM32F103xE) || defined(STM32F103xG) || \
    defined(STM32F105xC) || defined(STM32F107xC)

  /* Prefetch buffer is not available on value line devices */
  __HAL_FLASH_PREFETCH_BUFFER_ENABLE();
 8000c10:	4b08      	ldr	r3, [pc, #32]	; (8000c34 <HAL_Init+0x28>)
 8000c12:	681b      	ldr	r3, [r3, #0]
 8000c14:	4a07      	ldr	r2, [pc, #28]	; (8000c34 <HAL_Init+0x28>)
 8000c16:	f043 0310 	orr.w	r3, r3, #16
 8000c1a:	6013      	str	r3, [r2, #0]
#endif
#endif /* PREFETCH_ENABLE */

  /* Set Interrupt Group Priority */
  HAL_NVIC_SetPriorityGrouping(NVIC_PRIORITYGROUP_4);
 8000c1c:	2003      	movs	r0, #3
 8000c1e:	f000 f947 	bl	8000eb0 <HAL_NVIC_SetPriorityGrouping>

  /* Use systick as time base source and configure 1ms tick (default clock after Reset is HSI) */
  HAL_InitTick(TICK_INT_PRIORITY);
 8000c22:	200f      	movs	r0, #15
 8000c24:	f000 f808 	bl	8000c38 <HAL_InitTick>

  /* Init the low level hardware */
  HAL_MspInit();
 8000c28:	f7ff fecc 	bl	80009c4 <HAL_MspInit>

  /* Return function status */
  return HAL_OK;
 8000c2c:	2300      	movs	r3, #0
}
 8000c2e:	4618      	mov	r0, r3
 8000c30:	bd80      	pop	{r7, pc}
 8000c32:	bf00      	nop
 8000c34:	40022000 	.word	0x40022000

08000c38 <HAL_InitTick>:
  *       implementation  in user file.
  * @param TickPriority Tick interrupt priority.
  * @retval HAL status
  */
__weak HAL_StatusTypeDef HAL_InitTick(uint32_t TickPriority)
{
 8000c38:	b580      	push	{r7, lr}
 8000c3a:	b082      	sub	sp, #8
 8000c3c:	af00      	add	r7, sp, #0
 8000c3e:	6078      	str	r0, [r7, #4]
  /* Configure the SysTick to have interrupt in 1ms time basis*/
  if (HAL_SYSTICK_Config(SystemCoreClock / (1000U / uwTickFreq)) > 0U)
 8000c40:	4b12      	ldr	r3, [pc, #72]	; (8000c8c <HAL_InitTick+0x54>)
 8000c42:	681a      	ldr	r2, [r3, #0]
 8000c44:	4b12      	ldr	r3, [pc, #72]	; (8000c90 <HAL_InitTick+0x58>)
 8000c46:	781b      	ldrb	r3, [r3, #0]
 8000c48:	4619      	mov	r1, r3
 8000c4a:	f44f 737a 	mov.w	r3, #1000	; 0x3e8
 8000c4e:	fbb3 f3f1 	udiv	r3, r3, r1
 8000c52:	fbb2 f3f3 	udiv	r3, r2, r3
 8000c56:	4618      	mov	r0, r3
 8000c58:	f000 f95f 	bl	8000f1a <HAL_SYSTICK_Config>
 8000c5c:	4603      	mov	r3, r0
 8000c5e:	2b00      	cmp	r3, #0
 8000c60:	d001      	beq.n	8000c66 <HAL_InitTick+0x2e>
  {
    return HAL_ERROR;
 8000c62:	2301      	movs	r3, #1
 8000c64:	e00e      	b.n	8000c84 <HAL_InitTick+0x4c>
  }

  /* Configure the SysTick IRQ priority */
  if (TickPriority < (1UL << __NVIC_PRIO_BITS))
 8000c66:	687b      	ldr	r3, [r7, #4]
 8000c68:	2b0f      	cmp	r3, #15
 8000c6a:	d80a      	bhi.n	8000c82 <HAL_InitTick+0x4a>
  {
    HAL_NVIC_SetPriority(SysTick_IRQn, TickPriority, 0U);
 8000c6c:	2200      	movs	r2, #0
 8000c6e:	6879      	ldr	r1, [r7, #4]
 8000c70:	f04f 30ff 	mov.w	r0, #4294967295	; 0xffffffff
 8000c74:	f000 f927 	bl	8000ec6 <HAL_NVIC_SetPriority>
    uwTickPrio = TickPriority;
 8000c78:	4a06      	ldr	r2, [pc, #24]	; (8000c94 <HAL_InitTick+0x5c>)
 8000c7a:	687b      	ldr	r3, [r7, #4]
 8000c7c:	6013      	str	r3, [r2, #0]
  {
    return HAL_ERROR;
  }

  /* Return function status */
  return HAL_OK;
 8000c7e:	2300      	movs	r3, #0
 8000c80:	e000      	b.n	8000c84 <HAL_InitTick+0x4c>
    return HAL_ERROR;
 8000c82:	2301      	movs	r3, #1
}
 8000c84:	4618      	mov	r0, r3
 8000c86:	3708      	adds	r7, #8
 8000c88:	46bd      	mov	sp, r7
 8000c8a:	bd80      	pop	{r7, pc}
 8000c8c:	20000000 	.word	0x20000000
 8000c90:	20000008 	.word	0x20000008
 8000c94:	20000004 	.word	0x20000004

08000c98 <HAL_IncTick>:
  * @note This function is declared as __weak to be overwritten in case of other
  *      implementations in user file.
  * @retval None
  */
__weak void HAL_IncTick(void)
{
 8000c98:	b480      	push	{r7}
 8000c9a:	af00      	add	r7, sp, #0
  uwTick += uwTickFreq;
 8000c9c:	4b05      	ldr	r3, [pc, #20]	; (8000cb4 <HAL_IncTick+0x1c>)
 8000c9e:	781b      	ldrb	r3, [r3, #0]
 8000ca0:	461a      	mov	r2, r3
 8000ca2:	4b05      	ldr	r3, [pc, #20]	; (8000cb8 <HAL_IncTick+0x20>)
 8000ca4:	681b      	ldr	r3, [r3, #0]
 8000ca6:	4413      	add	r3, r2
 8000ca8:	4a03      	ldr	r2, [pc, #12]	; (8000cb8 <HAL_IncTick+0x20>)
 8000caa:	6013      	str	r3, [r2, #0]
}
 8000cac:	bf00      	nop
 8000cae:	46bd      	mov	sp, r7
 8000cb0:	bc80      	pop	{r7}
 8000cb2:	4770      	bx	lr
 8000cb4:	20000008 	.word	0x20000008
 8000cb8:	200000c0 	.word	0x200000c0

08000cbc <HAL_GetTick>:
  * @note  This function is declared as __weak to be overwritten in case of other
  *       implementations in user file.
  * @retval tick value
  */
__weak uint32_t HAL_GetTick(void)
{
 8000cbc:	b480      	push	{r7}
 8000cbe:	af00      	add	r7, sp, #0
  return uwTick;
 8000cc0:	4b02      	ldr	r3, [pc, #8]	; (8000ccc <HAL_GetTick+0x10>)
 8000cc2:	681b      	ldr	r3, [r3, #0]
}
 8000cc4:	4618      	mov	r0, r3
 8000cc6:	46bd      	mov	sp, r7
 8000cc8:	bc80      	pop	{r7}
 8000cca:	4770      	bx	lr
 8000ccc:	200000c0 	.word	0x200000c0

08000cd0 <HAL_Delay>:
  *       implementations in user file.
  * @param Delay specifies the delay time length, in milliseconds.
  * @retval None
  */
__weak void HAL_Delay(uint32_t Delay)
{
 8000cd0:	b580      	push	{r7, lr}
 8000cd2:	b084      	sub	sp, #16
 8000cd4:	af00      	add	r7, sp, #0
 8000cd6:	6078      	str	r0, [r7, #4]
  uint32_t tickstart = HAL_GetTick();
 8000cd8:	f7ff fff0 	bl	8000cbc <HAL_GetTick>
 8000cdc:	60b8      	str	r0, [r7, #8]
  uint32_t wait = Delay;
 8000cde:	687b      	ldr	r3, [r7, #4]
 8000ce0:	60fb      	str	r3, [r7, #12]

  /* Add a freq to guarantee minimum wait */
  if (wait < HAL_MAX_DELAY)
 8000ce2:	68fb      	ldr	r3, [r7, #12]
 8000ce4:	f1b3 3fff 	cmp.w	r3, #4294967295	; 0xffffffff
 8000ce8:	d005      	beq.n	8000cf6 <HAL_Delay+0x26>
  {
    wait += (uint32_t)(uwTickFreq);
 8000cea:	4b0a      	ldr	r3, [pc, #40]	; (8000d14 <HAL_Delay+0x44>)
 8000cec:	781b      	ldrb	r3, [r3, #0]
 8000cee:	461a      	mov	r2, r3
 8000cf0:	68fb      	ldr	r3, [r7, #12]
 8000cf2:	4413      	add	r3, r2
 8000cf4:	60fb      	str	r3, [r7, #12]
  }

  while ((HAL_GetTick() - tickstart) < wait)
 8000cf6:	bf00      	nop
 8000cf8:	f7ff ffe0 	bl	8000cbc <HAL_GetTick>
 8000cfc:	4602      	mov	r2, r0
 8000cfe:	68bb      	ldr	r3, [r7, #8]
 8000d00:	1ad3      	subs	r3, r2, r3
 8000d02:	68fa      	ldr	r2, [r7, #12]
 8000d04:	429a      	cmp	r2, r3
 8000d06:	d8f7      	bhi.n	8000cf8 <HAL_Delay+0x28>
  {
  }
}
 8000d08:	bf00      	nop
 8000d0a:	bf00      	nop
 8000d0c:	3710      	adds	r7, #16
 8000d0e:	46bd      	mov	sp, r7
 8000d10:	bd80      	pop	{r7, pc}
 8000d12:	bf00      	nop
 8000d14:	20000008 	.word	0x20000008

08000d18 <__NVIC_SetPriorityGrouping>:
           In case of a conflict between priority grouping and available
           priority bits (__NVIC_PRIO_BITS), the smallest possible priority group is set.
  \param [in]      PriorityGroup  Priority grouping field.
 */
__STATIC_INLINE void __NVIC_SetPriorityGrouping(uint32_t PriorityGroup)
{
 8000d18:	b480      	push	{r7}
 8000d1a:	b085      	sub	sp, #20
 8000d1c:	af00      	add	r7, sp, #0
 8000d1e:	6078      	str	r0, [r7, #4]
  uint32_t reg_value;
  uint32_t PriorityGroupTmp = (PriorityGroup & (uint32_t)0x07UL);             /* only values 0..7 are used          */
 8000d20:	687b      	ldr	r3, [r7, #4]
 8000d22:	f003 0307 	and.w	r3, r3, #7
 8000d26:	60fb      	str	r3, [r7, #12]

  reg_value  =  SCB->AIRCR;                                                   /* read old register configuration    */
 8000d28:	4b0c      	ldr	r3, [pc, #48]	; (8000d5c <__NVIC_SetPriorityGrouping+0x44>)
 8000d2a:	68db      	ldr	r3, [r3, #12]
 8000d2c:	60bb      	str	r3, [r7, #8]
  reg_value &= ~((uint32_t)(SCB_AIRCR_VECTKEY_Msk | SCB_AIRCR_PRIGROUP_Msk)); /* clear bits to change               */
 8000d2e:	68ba      	ldr	r2, [r7, #8]
 8000d30:	f64f 03ff 	movw	r3, #63743	; 0xf8ff
 8000d34:	4013      	ands	r3, r2
 8000d36:	60bb      	str	r3, [r7, #8]
  reg_value  =  (reg_value                                   |
                ((uint32_t)0x5FAUL << SCB_AIRCR_VECTKEY_Pos) |
                (PriorityGroupTmp << SCB_AIRCR_PRIGROUP_Pos) );               /* Insert write key and priority group */
 8000d38:	68fb      	ldr	r3, [r7, #12]
 8000d3a:	021a      	lsls	r2, r3, #8
                ((uint32_t)0x5FAUL << SCB_AIRCR_VECTKEY_Pos) |
 8000d3c:	68bb      	ldr	r3, [r7, #8]
 8000d3e:	4313      	orrs	r3, r2
  reg_value  =  (reg_value                                   |
 8000d40:	f043 63bf 	orr.w	r3, r3, #100139008	; 0x5f80000
 8000d44:	f443 3300 	orr.w	r3, r3, #131072	; 0x20000
 8000d48:	60bb      	str	r3, [r7, #8]
  SCB->AIRCR =  reg_value;
 8000d4a:	4a04      	ldr	r2, [pc, #16]	; (8000d5c <__NVIC_SetPriorityGrouping+0x44>)
 8000d4c:	68bb      	ldr	r3, [r7, #8]
 8000d4e:	60d3      	str	r3, [r2, #12]
}
 8000d50:	bf00      	nop
 8000d52:	3714      	adds	r7, #20
 8000d54:	46bd      	mov	sp, r7
 8000d56:	bc80      	pop	{r7}
 8000d58:	4770      	bx	lr
 8000d5a:	bf00      	nop
 8000d5c:	e000ed00 	.word	0xe000ed00

08000d60 <__NVIC_GetPriorityGrouping>:
  \brief   Get Priority Grouping
  \details Reads the priority grouping field from the NVIC Interrupt Controller.
  \return                Priority grouping field (SCB->AIRCR [10:8] PRIGROUP field).
 */
__STATIC_INLINE uint32_t __NVIC_GetPriorityGrouping(void)
{
 8000d60:	b480      	push	{r7}
 8000d62:	af00      	add	r7, sp, #0
  return ((uint32_t)((SCB->AIRCR & SCB_AIRCR_PRIGROUP_Msk) >> SCB_AIRCR_PRIGROUP_Pos));
 8000d64:	4b04      	ldr	r3, [pc, #16]	; (8000d78 <__NVIC_GetPriorityGrouping+0x18>)
 8000d66:	68db      	ldr	r3, [r3, #12]
 8000d68:	0a1b      	lsrs	r3, r3, #8
 8000d6a:	f003 0307 	and.w	r3, r3, #7
}
 8000d6e:	4618      	mov	r0, r3
 8000d70:	46bd      	mov	sp, r7
 8000d72:	bc80      	pop	{r7}
 8000d74:	4770      	bx	lr
 8000d76:	bf00      	nop
 8000d78:	e000ed00 	.word	0xe000ed00

08000d7c <__NVIC_EnableIRQ>:
  \details Enables a device specific interrupt in the NVIC interrupt controller.
  \param [in]      IRQn  Device specific interrupt number.
  \note    IRQn must not be negative.
 */
__STATIC_INLINE void __NVIC_EnableIRQ(IRQn_Type IRQn)
{
 8000d7c:	b480      	push	{r7}
 8000d7e:	b083      	sub	sp, #12
 8000d80:	af00      	add	r7, sp, #0
 8000d82:	4603      	mov	r3, r0
 8000d84:	71fb      	strb	r3, [r7, #7]
  if ((int32_t)(IRQn) >= 0)
 8000d86:	f997 3007 	ldrsb.w	r3, [r7, #7]
 8000d8a:	2b00      	cmp	r3, #0
 8000d8c:	db0b      	blt.n	8000da6 <__NVIC_EnableIRQ+0x2a>
  {
    NVIC->ISER[(((uint32_t)IRQn) >> 5UL)] = (uint32_t)(1UL << (((uint32_t)IRQn) & 0x1FUL));
 8000d8e:	79fb      	ldrb	r3, [r7, #7]
 8000d90:	f003 021f 	and.w	r2, r3, #31
 8000d94:	4906      	ldr	r1, [pc, #24]	; (8000db0 <__NVIC_EnableIRQ+0x34>)
 8000d96:	f997 3007 	ldrsb.w	r3, [r7, #7]
 8000d9a:	095b      	lsrs	r3, r3, #5
 8000d9c:	2001      	movs	r0, #1
 8000d9e:	fa00 f202 	lsl.w	r2, r0, r2
 8000da2:	f841 2023 	str.w	r2, [r1, r3, lsl #2]
  }
}
 8000da6:	bf00      	nop
 8000da8:	370c      	adds	r7, #12
 8000daa:	46bd      	mov	sp, r7
 8000dac:	bc80      	pop	{r7}
 8000dae:	4770      	bx	lr
 8000db0:	e000e100 	.word	0xe000e100

08000db4 <__NVIC_SetPriority>:
  \param [in]      IRQn  Interrupt number.
  \param [in]  priority  Priority to set.
  \note    The priority cannot be set for every processor exception.
 */
__STATIC_INLINE void __NVIC_SetPriority(IRQn_Type IRQn, uint32_t priority)
{
 8000db4:	b480      	push	{r7}
 8000db6:	b083      	sub	sp, #12
 8000db8:	af00      	add	r7, sp, #0
 8000dba:	4603      	mov	r3, r0
 8000dbc:	6039      	str	r1, [r7, #0]
 8000dbe:	71fb      	strb	r3, [r7, #7]
  if ((int32_t)(IRQn) >= 0)
 8000dc0:	f997 3007 	ldrsb.w	r3, [r7, #7]
 8000dc4:	2b00      	cmp	r3, #0
 8000dc6:	db0a      	blt.n	8000dde <__NVIC_SetPriority+0x2a>
  {
    NVIC->IP[((uint32_t)IRQn)]               = (uint8_t)((priority << (8U - __NVIC_PRIO_BITS)) & (uint32_t)0xFFUL);
 8000dc8:	683b      	ldr	r3, [r7, #0]
 8000dca:	b2da      	uxtb	r2, r3
 8000dcc:	490c      	ldr	r1, [pc, #48]	; (8000e00 <__NVIC_SetPriority+0x4c>)
 8000dce:	f997 3007 	ldrsb.w	r3, [r7, #7]
 8000dd2:	0112      	lsls	r2, r2, #4
 8000dd4:	b2d2      	uxtb	r2, r2
 8000dd6:	440b      	add	r3, r1
 8000dd8:	f883 2300 	strb.w	r2, [r3, #768]	; 0x300
  }
  else
  {
    SCB->SHP[(((uint32_t)IRQn) & 0xFUL)-4UL] = (uint8_t)((priority << (8U - __NVIC_PRIO_BITS)) & (uint32_t)0xFFUL);
  }
}
 8000ddc:	e00a      	b.n	8000df4 <__NVIC_SetPriority+0x40>
    SCB->SHP[(((uint32_t)IRQn) & 0xFUL)-4UL] = (uint8_t)((priority << (8U - __NVIC_PRIO_BITS)) & (uint32_t)0xFFUL);
 8000dde:	683b      	ldr	r3, [r7, #0]
 8000de0:	b2da      	uxtb	r2, r3
 8000de2:	4908      	ldr	r1, [pc, #32]	; (8000e04 <__NVIC_SetPriority+0x50>)
 8000de4:	79fb      	ldrb	r3, [r7, #7]
 8000de6:	f003 030f 	and.w	r3, r3, #15
 8000dea:	3b04      	subs	r3, #4
 8000dec:	0112      	lsls	r2, r2, #4
 8000dee:	b2d2      	uxtb	r2, r2
 8000df0:	440b      	add	r3, r1
 8000df2:	761a      	strb	r2, [r3, #24]
}
 8000df4:	bf00      	nop
 8000df6:	370c      	adds	r7, #12
 8000df8:	46bd      	mov	sp, r7
 8000dfa:	bc80      	pop	{r7}
 8000dfc:	4770      	bx	lr
 8000dfe:	bf00      	nop
 8000e00:	e000e100 	.word	0xe000e100
 8000e04:	e000ed00 	.word	0xe000ed00

08000e08 <NVIC_EncodePriority>:
  \param [in]   PreemptPriority  Preemptive priority value (starting from 0).
  \param [in]       SubPriority  Subpriority value (starting from 0).
  \return                        Encoded priority. Value can be used in the function \ref NVIC_SetPriority().
 */
__STATIC_INLINE uint32_t NVIC_EncodePriority (uint32_t PriorityGroup, uint32_t PreemptPriority, uint32_t SubPriority)
{
 8000e08:	b480      	push	{r7}
 8000e0a:	b089      	sub	sp, #36	; 0x24
 8000e0c:	af00      	add	r7, sp, #0
 8000e0e:	60f8      	str	r0, [r7, #12]
 8000e10:	60b9      	str	r1, [r7, #8]
 8000e12:	607a      	str	r2, [r7, #4]
  uint32_t PriorityGroupTmp = (PriorityGroup & (uint32_t)0x07UL);   /* only values 0..7 are used          */
 8000e14:	68fb      	ldr	r3, [r7, #12]
 8000e16:	f003 0307 	and.w	r3, r3, #7
 8000e1a:	61fb      	str	r3, [r7, #28]
  uint32_t PreemptPriorityBits;
  uint32_t SubPriorityBits;

  PreemptPriorityBits = ((7UL - PriorityGroupTmp) > (uint32_t)(__NVIC_PRIO_BITS)) ? (uint32_t)(__NVIC_PRIO_BITS) : (uint32_t)(7UL - PriorityGroupTmp);
 8000e1c:	69fb      	ldr	r3, [r7, #28]
 8000e1e:	f1c3 0307 	rsb	r3, r3, #7
 8000e22:	2b04      	cmp	r3, #4
 8000e24:	bf28      	it	cs
 8000e26:	2304      	movcs	r3, #4
 8000e28:	61bb      	str	r3, [r7, #24]
  SubPriorityBits     = ((PriorityGroupTmp + (uint32_t)(__NVIC_PRIO_BITS)) < (uint32_t)7UL) ? (uint32_t)0UL : (uint32_t)((PriorityGroupTmp - 7UL) + (uint32_t)(__NVIC_PRIO_BITS));
 8000e2a:	69fb      	ldr	r3, [r7, #28]
 8000e2c:	3304      	adds	r3, #4
 8000e2e:	2b06      	cmp	r3, #6
 8000e30:	d902      	bls.n	8000e38 <NVIC_EncodePriority+0x30>
 8000e32:	69fb      	ldr	r3, [r7, #28]
 8000e34:	3b03      	subs	r3, #3
 8000e36:	e000      	b.n	8000e3a <NVIC_EncodePriority+0x32>
 8000e38:	2300      	movs	r3, #0
 8000e3a:	617b      	str	r3, [r7, #20]

  return (
           ((PreemptPriority & (uint32_t)((1UL << (PreemptPriorityBits)) - 1UL)) << SubPriorityBits) |
 8000e3c:	f04f 32ff 	mov.w	r2, #4294967295	; 0xffffffff
 8000e40:	69bb      	ldr	r3, [r7, #24]
 8000e42:	fa02 f303 	lsl.w	r3, r2, r3
 8000e46:	43da      	mvns	r2, r3
 8000e48:	68bb      	ldr	r3, [r7, #8]
 8000e4a:	401a      	ands	r2, r3
 8000e4c:	697b      	ldr	r3, [r7, #20]
 8000e4e:	409a      	lsls	r2, r3
           ((SubPriority     & (uint32_t)((1UL << (SubPriorityBits    )) - 1UL)))
 8000e50:	f04f 31ff 	mov.w	r1, #4294967295	; 0xffffffff
 8000e54:	697b      	ldr	r3, [r7, #20]
 8000e56:	fa01 f303 	lsl.w	r3, r1, r3
 8000e5a:	43d9      	mvns	r1, r3
 8000e5c:	687b      	ldr	r3, [r7, #4]
 8000e5e:	400b      	ands	r3, r1
           ((PreemptPriority & (uint32_t)((1UL << (PreemptPriorityBits)) - 1UL)) << SubPriorityBits) |
 8000e60:	4313      	orrs	r3, r2
         );
}
 8000e62:	4618      	mov	r0, r3
 8000e64:	3724      	adds	r7, #36	; 0x24
 8000e66:	46bd      	mov	sp, r7
 8000e68:	bc80      	pop	{r7}
 8000e6a:	4770      	bx	lr

08000e6c <SysTick_Config>:
  \note    When the variable <b>__Vendor_SysTickConfig</b> is set to 1, then the
           function <b>SysTick_Config</b> is not included. In this case, the file <b><i>device</i>.h</b>
           must contain a vendor-specific implementation of this function.
 */
__STATIC_INLINE uint32_t SysTick_Config(uint32_t ticks)
{
 8000e6c:	b580      	push	{r7, lr}
 8000e6e:	b082      	sub	sp, #8
 8000e70:	af00      	add	r7, sp, #0
 8000e72:	6078      	str	r0, [r7, #4]
  if ((ticks - 1UL) > SysTick_LOAD_RELOAD_Msk)
 8000e74:	687b      	ldr	r3, [r7, #4]
 8000e76:	3b01      	subs	r3, #1
 8000e78:	f1b3 7f80 	cmp.w	r3, #16777216	; 0x1000000
 8000e7c:	d301      	bcc.n	8000e82 <SysTick_Config+0x16>
  {
    return (1UL);                                                   /* Reload value impossible */
 8000e7e:	2301      	movs	r3, #1
 8000e80:	e00f      	b.n	8000ea2 <SysTick_Config+0x36>
  }

  SysTick->LOAD  = (uint32_t)(ticks - 1UL);                         /* set reload register */
 8000e82:	4a0a      	ldr	r2, [pc, #40]	; (8000eac <SysTick_Config+0x40>)
 8000e84:	687b      	ldr	r3, [r7, #4]
 8000e86:	3b01      	subs	r3, #1
 8000e88:	6053      	str	r3, [r2, #4]
  NVIC_SetPriority (SysTick_IRQn, (1UL << __NVIC_PRIO_BITS) - 1UL); /* set Priority for Systick Interrupt */
 8000e8a:	210f      	movs	r1, #15
 8000e8c:	f04f 30ff 	mov.w	r0, #4294967295	; 0xffffffff
 8000e90:	f7ff ff90 	bl	8000db4 <__NVIC_SetPriority>
  SysTick->VAL   = 0UL;                                             /* Load the SysTick Counter Value */
 8000e94:	4b05      	ldr	r3, [pc, #20]	; (8000eac <SysTick_Config+0x40>)
 8000e96:	2200      	movs	r2, #0
 8000e98:	609a      	str	r2, [r3, #8]
  SysTick->CTRL  = SysTick_CTRL_CLKSOURCE_Msk |
 8000e9a:	4b04      	ldr	r3, [pc, #16]	; (8000eac <SysTick_Config+0x40>)
 8000e9c:	2207      	movs	r2, #7
 8000e9e:	601a      	str	r2, [r3, #0]
                   SysTick_CTRL_TICKINT_Msk   |
                   SysTick_CTRL_ENABLE_Msk;                         /* Enable SysTick IRQ and SysTick Timer */
  return (0UL);                                                     /* Function successful */
 8000ea0:	2300      	movs	r3, #0
}
 8000ea2:	4618      	mov	r0, r3
 8000ea4:	3708      	adds	r7, #8
 8000ea6:	46bd      	mov	sp, r7
 8000ea8:	bd80      	pop	{r7, pc}
 8000eaa:	bf00      	nop
 8000eac:	e000e010 	.word	0xe000e010

08000eb0 <HAL_NVIC_SetPriorityGrouping>:
  * @note   When the NVIC_PriorityGroup_0 is selected, IRQ preemption is no more possible. 
  *         The pending IRQ priority will be managed only by the subpriority. 
  * @retval None
  */
void HAL_NVIC_SetPriorityGrouping(uint32_t PriorityGroup)
{
 8000eb0:	b580      	push	{r7, lr}
 8000eb2:	b082      	sub	sp, #8
 8000eb4:	af00      	add	r7, sp, #0
 8000eb6:	6078      	str	r0, [r7, #4]
  /* Check the parameters */
  assert_param(IS_NVIC_PRIORITY_GROUP(PriorityGroup));
  
  /* Set the PRIGROUP[10:8] bits according to the PriorityGroup parameter value */
  NVIC_SetPriorityGrouping(PriorityGroup);
 8000eb8:	6878      	ldr	r0, [r7, #4]
 8000eba:	f7ff ff2d 	bl	8000d18 <__NVIC_SetPriorityGrouping>
}
 8000ebe:	bf00      	nop
 8000ec0:	3708      	adds	r7, #8
 8000ec2:	46bd      	mov	sp, r7
 8000ec4:	bd80      	pop	{r7, pc}

08000ec6 <HAL_NVIC_SetPriority>:
  *         This parameter can be a value between 0 and 15
  *         A lower priority value indicates a higher priority.          
  * @retval None
  */
void HAL_NVIC_SetPriority(IRQn_Type IRQn, uint32_t PreemptPriority, uint32_t SubPriority)
{ 
 8000ec6:	b580      	push	{r7, lr}
 8000ec8:	b086      	sub	sp, #24
 8000eca:	af00      	add	r7, sp, #0
 8000ecc:	4603      	mov	r3, r0
 8000ece:	60b9      	str	r1, [r7, #8]
 8000ed0:	607a      	str	r2, [r7, #4]
 8000ed2:	73fb      	strb	r3, [r7, #15]
  uint32_t prioritygroup = 0x00U;
 8000ed4:	2300      	movs	r3, #0
 8000ed6:	617b      	str	r3, [r7, #20]
  
  /* Check the parameters */
  assert_param(IS_NVIC_SUB_PRIORITY(SubPriority));
  assert_param(IS_NVIC_PREEMPTION_PRIORITY(PreemptPriority));
  
  prioritygroup = NVIC_GetPriorityGrouping();
 8000ed8:	f7ff ff42 	bl	8000d60 <__NVIC_GetPriorityGrouping>
 8000edc:	6178      	str	r0, [r7, #20]
  
  NVIC_SetPriority(IRQn, NVIC_EncodePriority(prioritygroup, PreemptPriority, SubPriority));
 8000ede:	687a      	ldr	r2, [r7, #4]
 8000ee0:	68b9      	ldr	r1, [r7, #8]
 8000ee2:	6978      	ldr	r0, [r7, #20]
 8000ee4:	f7ff ff90 	bl	8000e08 <NVIC_EncodePriority>
 8000ee8:	4602      	mov	r2, r0
 8000eea:	f997 300f 	ldrsb.w	r3, [r7, #15]
 8000eee:	4611      	mov	r1, r2
 8000ef0:	4618      	mov	r0, r3
 8000ef2:	f7ff ff5f 	bl	8000db4 <__NVIC_SetPriority>
}
 8000ef6:	bf00      	nop
 8000ef8:	3718      	adds	r7, #24
 8000efa:	46bd      	mov	sp, r7
 8000efc:	bd80      	pop	{r7, pc}

08000efe <HAL_NVIC_EnableIRQ>:
  *         This parameter can be an enumerator of IRQn_Type enumeration
  *         (For the complete STM32 Devices IRQ Channels list, please refer to the appropriate CMSIS device file (stm32f10xxx.h))
  * @retval None
  */
void HAL_NVIC_EnableIRQ(IRQn_Type IRQn)
{
 8000efe:	b580      	push	{r7, lr}
 8000f00:	b082      	sub	sp, #8
 8000f02:	af00      	add	r7, sp, #0
 8000f04:	4603      	mov	r3, r0
 8000f06:	71fb      	strb	r3, [r7, #7]
  /* Check the parameters */
  assert_param(IS_NVIC_DEVICE_IRQ(IRQn));

  /* Enable interrupt */
  NVIC_EnableIRQ(IRQn);
 8000f08:	f997 3007 	ldrsb.w	r3, [r7, #7]
 8000f0c:	4618      	mov	r0, r3
 8000f0e:	f7ff ff35 	bl	8000d7c <__NVIC_EnableIRQ>
}
 8000f12:	bf00      	nop
 8000f14:	3708      	adds	r7, #8
 8000f16:	46bd      	mov	sp, r7
 8000f18:	bd80      	pop	{r7, pc}

08000f1a <HAL_SYSTICK_Config>:
  * @param  TicksNumb: Specifies the ticks Number of ticks between two interrupts.
  * @retval status:  - 0  Function succeeded.
  *                  - 1  Function failed.
  */
uint32_t HAL_SYSTICK_Config(uint32_t TicksNumb)
{
 8000f1a:	b580      	push	{r7, lr}
 8000f1c:	b082      	sub	sp, #8
 8000f1e:	af00      	add	r7, sp, #0
 8000f20:	6078      	str	r0, [r7, #4]
   return SysTick_Config(TicksNumb);
 8000f22:	6878      	ldr	r0, [r7, #4]
 8000f24:	f7ff ffa2 	bl	8000e6c <SysTick_Config>
 8000f28:	4603      	mov	r3, r0
}
 8000f2a:	4618      	mov	r0, r3
 8000f2c:	3708      	adds	r7, #8
 8000f2e:	46bd      	mov	sp, r7
 8000f30:	bd80      	pop	{r7, pc}
	...

08000f34 <HAL_DMA_Abort_IT>:
  * @param  hdma  : pointer to a DMA_HandleTypeDef structure that contains
  *                 the configuration information for the specified DMA Channel.
  * @retval HAL status
  */
HAL_StatusTypeDef HAL_DMA_Abort_IT(DMA_HandleTypeDef *hdma)
{  
 8000f34:	b580      	push	{r7, lr}
 8000f36:	b084      	sub	sp, #16
 8000f38:	af00      	add	r7, sp, #0
 8000f3a:	6078      	str	r0, [r7, #4]
  HAL_StatusTypeDef status = HAL_OK;
 8000f3c:	2300      	movs	r3, #0
 8000f3e:	73fb      	strb	r3, [r7, #15]
  
  if(HAL_DMA_STATE_BUSY != hdma->State)
 8000f40:	687b      	ldr	r3, [r7, #4]
 8000f42:	f893 3021 	ldrb.w	r3, [r3, #33]	; 0x21
 8000f46:	2b02      	cmp	r3, #2
 8000f48:	d005      	beq.n	8000f56 <HAL_DMA_Abort_IT+0x22>
  {
    /* no transfer ongoing */
    hdma->ErrorCode = HAL_DMA_ERROR_NO_XFER;
 8000f4a:	687b      	ldr	r3, [r7, #4]
 8000f4c:	2204      	movs	r2, #4
 8000f4e:	639a      	str	r2, [r3, #56]	; 0x38
        
    status = HAL_ERROR;
 8000f50:	2301      	movs	r3, #1
 8000f52:	73fb      	strb	r3, [r7, #15]
 8000f54:	e051      	b.n	8000ffa <HAL_DMA_Abort_IT+0xc6>
  }
  else
  { 
    /* Disable DMA IT */
    __HAL_DMA_DISABLE_IT(hdma, (DMA_IT_TC | DMA_IT_HT | DMA_IT_TE));
 8000f56:	687b      	ldr	r3, [r7, #4]
 8000f58:	681b      	ldr	r3, [r3, #0]
 8000f5a:	681a      	ldr	r2, [r3, #0]
 8000f5c:	687b      	ldr	r3, [r7, #4]
 8000f5e:	681b      	ldr	r3, [r3, #0]
 8000f60:	f022 020e 	bic.w	r2, r2, #14
 8000f64:	601a      	str	r2, [r3, #0]

    /* Disable the channel */
    __HAL_DMA_DISABLE(hdma);
 8000f66:	687b      	ldr	r3, [r7, #4]
 8000f68:	681b      	ldr	r3, [r3, #0]
 8000f6a:	681a      	ldr	r2, [r3, #0]
 8000f6c:	687b      	ldr	r3, [r7, #4]
 8000f6e:	681b      	ldr	r3, [r3, #0]
 8000f70:	f022 0201 	bic.w	r2, r2, #1
 8000f74:	601a      	str	r2, [r3, #0]

    /* Clear all flags */
    __HAL_DMA_CLEAR_FLAG(hdma, __HAL_DMA_GET_GI_FLAG_INDEX(hdma));
 8000f76:	687b      	ldr	r3, [r7, #4]
 8000f78:	681b      	ldr	r3, [r3, #0]
 8000f7a:	4a22      	ldr	r2, [pc, #136]	; (8001004 <HAL_DMA_Abort_IT+0xd0>)
 8000f7c:	4293      	cmp	r3, r2
 8000f7e:	d029      	beq.n	8000fd4 <HAL_DMA_Abort_IT+0xa0>
 8000f80:	687b      	ldr	r3, [r7, #4]
 8000f82:	681b      	ldr	r3, [r3, #0]
 8000f84:	4a20      	ldr	r2, [pc, #128]	; (8001008 <HAL_DMA_Abort_IT+0xd4>)
 8000f86:	4293      	cmp	r3, r2
 8000f88:	d022      	beq.n	8000fd0 <HAL_DMA_Abort_IT+0x9c>
 8000f8a:	687b      	ldr	r3, [r7, #4]
 8000f8c:	681b      	ldr	r3, [r3, #0]
 8000f8e:	4a1f      	ldr	r2, [pc, #124]	; (800100c <HAL_DMA_Abort_IT+0xd8>)
 8000f90:	4293      	cmp	r3, r2
 8000f92:	d01a      	beq.n	8000fca <HAL_DMA_Abort_IT+0x96>
 8000f94:	687b      	ldr	r3, [r7, #4]
 8000f96:	681b      	ldr	r3, [r3, #0]
 8000f98:	4a1d      	ldr	r2, [pc, #116]	; (8001010 <HAL_DMA_Abort_IT+0xdc>)
 8000f9a:	4293      	cmp	r3, r2
 8000f9c:	d012      	beq.n	8000fc4 <HAL_DMA_Abort_IT+0x90>
 8000f9e:	687b      	ldr	r3, [r7, #4]
 8000fa0:	681b      	ldr	r3, [r3, #0]
 8000fa2:	4a1c      	ldr	r2, [pc, #112]	; (8001014 <HAL_DMA_Abort_IT+0xe0>)
 8000fa4:	4293      	cmp	r3, r2
 8000fa6:	d00a      	beq.n	8000fbe <HAL_DMA_Abort_IT+0x8a>
 8000fa8:	687b      	ldr	r3, [r7, #4]
 8000faa:	681b      	ldr	r3, [r3, #0]
 8000fac:	4a1a      	ldr	r2, [pc, #104]	; (8001018 <HAL_DMA_Abort_IT+0xe4>)
 8000fae:	4293      	cmp	r3, r2
 8000fb0:	d102      	bne.n	8000fb8 <HAL_DMA_Abort_IT+0x84>
 8000fb2:	f44f 1380 	mov.w	r3, #1048576	; 0x100000
 8000fb6:	e00e      	b.n	8000fd6 <HAL_DMA_Abort_IT+0xa2>
 8000fb8:	f04f 7380 	mov.w	r3, #16777216	; 0x1000000
 8000fbc:	e00b      	b.n	8000fd6 <HAL_DMA_Abort_IT+0xa2>
 8000fbe:	f44f 3380 	mov.w	r3, #65536	; 0x10000
 8000fc2:	e008      	b.n	8000fd6 <HAL_DMA_Abort_IT+0xa2>
 8000fc4:	f44f 5380 	mov.w	r3, #4096	; 0x1000
 8000fc8:	e005      	b.n	8000fd6 <HAL_DMA_Abort_IT+0xa2>
 8000fca:	f44f 7380 	mov.w	r3, #256	; 0x100
 8000fce:	e002      	b.n	8000fd6 <HAL_DMA_Abort_IT+0xa2>
 8000fd0:	2310      	movs	r3, #16
 8000fd2:	e000      	b.n	8000fd6 <HAL_DMA_Abort_IT+0xa2>
 8000fd4:	2301      	movs	r3, #1
 8000fd6:	4a11      	ldr	r2, [pc, #68]	; (800101c <HAL_DMA_Abort_IT+0xe8>)
 8000fd8:	6053      	str	r3, [r2, #4]

    /* Change the DMA state */
    hdma->State = HAL_DMA_STATE_READY;
 8000fda:	687b      	ldr	r3, [r7, #4]
 8000fdc:	2201      	movs	r2, #1
 8000fde:	f883 2021 	strb.w	r2, [r3, #33]	; 0x21

    /* Process Unlocked */
    __HAL_UNLOCK(hdma);
 8000fe2:	687b      	ldr	r3, [r7, #4]
 8000fe4:	2200      	movs	r2, #0
 8000fe6:	f883 2020 	strb.w	r2, [r3, #32]

    /* Call User Abort callback */
    if(hdma->XferAbortCallback != NULL)
 8000fea:	687b      	ldr	r3, [r7, #4]
 8000fec:	6b5b      	ldr	r3, [r3, #52]	; 0x34
 8000fee:	2b00      	cmp	r3, #0
 8000ff0:	d003      	beq.n	8000ffa <HAL_DMA_Abort_IT+0xc6>
    {
      hdma->XferAbortCallback(hdma);
 8000ff2:	687b      	ldr	r3, [r7, #4]
 8000ff4:	6b5b      	ldr	r3, [r3, #52]	; 0x34
 8000ff6:	6878      	ldr	r0, [r7, #4]
 8000ff8:	4798      	blx	r3
    } 
  }
  return status;
 8000ffa:	7bfb      	ldrb	r3, [r7, #15]
}
 8000ffc:	4618      	mov	r0, r3
 8000ffe:	3710      	adds	r7, #16
 8001000:	46bd      	mov	sp, r7
 8001002:	bd80      	pop	{r7, pc}
 8001004:	40020008 	.word	0x40020008
 8001008:	4002001c 	.word	0x4002001c
 800100c:	40020030 	.word	0x40020030
 8001010:	40020044 	.word	0x40020044
 8001014:	40020058 	.word	0x40020058
 8001018:	4002006c 	.word	0x4002006c
 800101c:	40020000 	.word	0x40020000

08001020 <HAL_GPIO_Init>:
  * @param  GPIO_Init: pointer to a GPIO_InitTypeDef structure that contains
  *         the configuration information for the specified GPIO peripheral.
  * @retval None
  */
void HAL_GPIO_Init(GPIO_TypeDef  *GPIOx, GPIO_InitTypeDef *GPIO_Init)
{
 8001020:	b480      	push	{r7}
 8001022:	b08b      	sub	sp, #44	; 0x2c
 8001024:	af00      	add	r7, sp, #0
 8001026:	6078      	str	r0, [r7, #4]
 8001028:	6039      	str	r1, [r7, #0]
  uint32_t position = 0x00u;
 800102a:	2300      	movs	r3, #0
 800102c:	627b      	str	r3, [r7, #36]	; 0x24
  uint32_t ioposition;
  uint32_t iocurrent;
  uint32_t temp;
  uint32_t config = 0x00u;
 800102e:	2300      	movs	r3, #0
 8001030:	623b      	str	r3, [r7, #32]
  assert_param(IS_GPIO_ALL_INSTANCE(GPIOx));
  assert_param(IS_GPIO_PIN(GPIO_Init->Pin));
  assert_param(IS_GPIO_MODE(GPIO_Init->Mode));

  /* Configure the port pins */
  while (((GPIO_Init->Pin) >> position) != 0x00u)
 8001032:	e169      	b.n	8001308 <HAL_GPIO_Init+0x2e8>
  {
    /* Get the IO position */
    ioposition = (0x01uL << position);
 8001034:	2201      	movs	r2, #1
 8001036:	6a7b      	ldr	r3, [r7, #36]	; 0x24
 8001038:	fa02 f303 	lsl.w	r3, r2, r3
 800103c:	61fb      	str	r3, [r7, #28]

    /* Get the current IO position */
    iocurrent = (uint32_t)(GPIO_Init->Pin) & ioposition;
 800103e:	683b      	ldr	r3, [r7, #0]
 8001040:	681b      	ldr	r3, [r3, #0]
 8001042:	69fa      	ldr	r2, [r7, #28]
 8001044:	4013      	ands	r3, r2
 8001046:	61bb      	str	r3, [r7, #24]

    if (iocurrent == ioposition)
 8001048:	69ba      	ldr	r2, [r7, #24]
 800104a:	69fb      	ldr	r3, [r7, #28]
 800104c:	429a      	cmp	r2, r3
 800104e:	f040 8158 	bne.w	8001302 <HAL_GPIO_Init+0x2e2>
    {
      /* Check the Alternate function parameters */
      assert_param(IS_GPIO_AF_INSTANCE(GPIOx));

      /* Based on the required mode, filling config variable with MODEy[1:0] and CNFy[3:2] corresponding bits */
      switch (GPIO_Init->Mode)
 8001052:	683b      	ldr	r3, [r7, #0]
 8001054:	685b      	ldr	r3, [r3, #4]
 8001056:	4a9a      	ldr	r2, [pc, #616]	; (80012c0 <HAL_GPIO_Init+0x2a0>)
 8001058:	4293      	cmp	r3, r2
 800105a:	d05e      	beq.n	800111a <HAL_GPIO_Init+0xfa>
 800105c:	4a98      	ldr	r2, [pc, #608]	; (80012c0 <HAL_GPIO_Init+0x2a0>)
 800105e:	4293      	cmp	r3, r2
 8001060:	d875      	bhi.n	800114e <HAL_GPIO_Init+0x12e>
 8001062:	4a98      	ldr	r2, [pc, #608]	; (80012c4 <HAL_GPIO_Init+0x2a4>)
 8001064:	4293      	cmp	r3, r2
 8001066:	d058      	beq.n	800111a <HAL_GPIO_Init+0xfa>
 8001068:	4a96      	ldr	r2, [pc, #600]	; (80012c4 <HAL_GPIO_Init+0x2a4>)
 800106a:	4293      	cmp	r3, r2
 800106c:	d86f      	bhi.n	800114e <HAL_GPIO_Init+0x12e>
 800106e:	4a96      	ldr	r2, [pc, #600]	; (80012c8 <HAL_GPIO_Init+0x2a8>)
 8001070:	4293      	cmp	r3, r2
 8001072:	d052      	beq.n	800111a <HAL_GPIO_Init+0xfa>
 8001074:	4a94      	ldr	r2, [pc, #592]	; (80012c8 <HAL_GPIO_Init+0x2a8>)
 8001076:	4293      	cmp	r3, r2
 8001078:	d869      	bhi.n	800114e <HAL_GPIO_Init+0x12e>
 800107a:	4a94      	ldr	r2, [pc, #592]	; (80012cc <HAL_GPIO_Init+0x2ac>)
 800107c:	4293      	cmp	r3, r2
 800107e:	d04c      	beq.n	800111a <HAL_GPIO_Init+0xfa>
 8001080:	4a92      	ldr	r2, [pc, #584]	; (80012cc <HAL_GPIO_Init+0x2ac>)
 8001082:	4293      	cmp	r3, r2
 8001084:	d863      	bhi.n	800114e <HAL_GPIO_Init+0x12e>
 8001086:	4a92      	ldr	r2, [pc, #584]	; (80012d0 <HAL_GPIO_Init+0x2b0>)
 8001088:	4293      	cmp	r3, r2
 800108a:	d046      	beq.n	800111a <HAL_GPIO_Init+0xfa>
 800108c:	4a90      	ldr	r2, [pc, #576]	; (80012d0 <HAL_GPIO_Init+0x2b0>)
 800108e:	4293      	cmp	r3, r2
 8001090:	d85d      	bhi.n	800114e <HAL_GPIO_Init+0x12e>
 8001092:	2b12      	cmp	r3, #18
 8001094:	d82a      	bhi.n	80010ec <HAL_GPIO_Init+0xcc>
 8001096:	2b12      	cmp	r3, #18
 8001098:	d859      	bhi.n	800114e <HAL_GPIO_Init+0x12e>
 800109a:	a201      	add	r2, pc, #4	; (adr r2, 80010a0 <HAL_GPIO_Init+0x80>)
 800109c:	f852 f023 	ldr.w	pc, [r2, r3, lsl #2]
 80010a0:	0800111b 	.word	0x0800111b
 80010a4:	080010f5 	.word	0x080010f5
 80010a8:	08001107 	.word	0x08001107
 80010ac:	08001149 	.word	0x08001149
 80010b0:	0800114f 	.word	0x0800114f
 80010b4:	0800114f 	.word	0x0800114f
 80010b8:	0800114f 	.word	0x0800114f
 80010bc:	0800114f 	.word	0x0800114f
 80010c0:	0800114f 	.word	0x0800114f
 80010c4:	0800114f 	.word	0x0800114f
 80010c8:	0800114f 	.word	0x0800114f
 80010cc:	0800114f 	.word	0x0800114f
 80010d0:	0800114f 	.word	0x0800114f
 80010d4:	0800114f 	.word	0x0800114f
 80010d8:	0800114f 	.word	0x0800114f
 80010dc:	0800114f 	.word	0x0800114f
 80010e0:	0800114f 	.word	0x0800114f
 80010e4:	080010fd 	.word	0x080010fd
 80010e8:	08001111 	.word	0x08001111
 80010ec:	4a79      	ldr	r2, [pc, #484]	; (80012d4 <HAL_GPIO_Init+0x2b4>)
 80010ee:	4293      	cmp	r3, r2
 80010f0:	d013      	beq.n	800111a <HAL_GPIO_Init+0xfa>
          config = GPIO_CR_MODE_INPUT + GPIO_CR_CNF_ANALOG;
          break;

        /* Parameters are checked with assert_param */
        default:
          break;
 80010f2:	e02c      	b.n	800114e <HAL_GPIO_Init+0x12e>
          config = GPIO_Init->Speed + GPIO_CR_CNF_GP_OUTPUT_PP;
 80010f4:	683b      	ldr	r3, [r7, #0]
 80010f6:	68db      	ldr	r3, [r3, #12]
 80010f8:	623b      	str	r3, [r7, #32]
          break;
 80010fa:	e029      	b.n	8001150 <HAL_GPIO_Init+0x130>
          config = GPIO_Init->Speed + GPIO_CR_CNF_GP_OUTPUT_OD;
 80010fc:	683b      	ldr	r3, [r7, #0]
 80010fe:	68db      	ldr	r3, [r3, #12]
 8001100:	3304      	adds	r3, #4
 8001102:	623b      	str	r3, [r7, #32]
          break;
 8001104:	e024      	b.n	8001150 <HAL_GPIO_Init+0x130>
          config = GPIO_Init->Speed + GPIO_CR_CNF_AF_OUTPUT_PP;
 8001106:	683b      	ldr	r3, [r7, #0]
 8001108:	68db      	ldr	r3, [r3, #12]
 800110a:	3308      	adds	r3, #8
 800110c:	623b      	str	r3, [r7, #32]
          break;
 800110e:	e01f      	b.n	8001150 <HAL_GPIO_Init+0x130>
          config = GPIO_Init->Speed + GPIO_CR_CNF_AF_OUTPUT_OD;
 8001110:	683b      	ldr	r3, [r7, #0]
 8001112:	68db      	ldr	r3, [r3, #12]
 8001114:	330c      	adds	r3, #12
 8001116:	623b      	str	r3, [r7, #32]
          break;
 8001118:	e01a      	b.n	8001150 <HAL_GPIO_Init+0x130>
          if (GPIO_Init->Pull == GPIO_NOPULL)
 800111a:	683b      	ldr	r3, [r7, #0]
 800111c:	689b      	ldr	r3, [r3, #8]
 800111e:	2b00      	cmp	r3, #0
 8001120:	d102      	bne.n	8001128 <HAL_GPIO_Init+0x108>
            config = GPIO_CR_MODE_INPUT + GPIO_CR_CNF_INPUT_FLOATING;
 8001122:	2304      	movs	r3, #4
 8001124:	623b      	str	r3, [r7, #32]
          break;
 8001126:	e013      	b.n	8001150 <HAL_GPIO_Init+0x130>
          else if (GPIO_Init->Pull == GPIO_PULLUP)
 8001128:	683b      	ldr	r3, [r7, #0]
 800112a:	689b      	ldr	r3, [r3, #8]
 800112c:	2b01      	cmp	r3, #1
 800112e:	d105      	bne.n	800113c <HAL_GPIO_Init+0x11c>
            config = GPIO_CR_MODE_INPUT + GPIO_CR_CNF_INPUT_PU_PD;
 8001130:	2308      	movs	r3, #8
 8001132:	623b      	str	r3, [r7, #32]
            GPIOx->BSRR = ioposition;
 8001134:	687b      	ldr	r3, [r7, #4]
 8001136:	69fa      	ldr	r2, [r7, #28]
 8001138:	611a      	str	r2, [r3, #16]
          break;
 800113a:	e009      	b.n	8001150 <HAL_GPIO_Init+0x130>
            config = GPIO_CR_MODE_INPUT + GPIO_CR_CNF_INPUT_PU_PD;
 800113c:	2308      	movs	r3, #8
 800113e:	623b      	str	r3, [r7, #32]
            GPIOx->BRR = ioposition;
 8001140:	687b      	ldr	r3, [r7, #4]
 8001142:	69fa      	ldr	r2, [r7, #28]
 8001144:	615a      	str	r2, [r3, #20]
          break;
 8001146:	e003      	b.n	8001150 <HAL_GPIO_Init+0x130>
          config = GPIO_CR_MODE_INPUT + GPIO_CR_CNF_ANALOG;
 8001148:	2300      	movs	r3, #0
 800114a:	623b      	str	r3, [r7, #32]
          break;
 800114c:	e000      	b.n	8001150 <HAL_GPIO_Init+0x130>
          break;
 800114e:	bf00      	nop
      }

      /* Check if the current bit belongs to first half or last half of the pin count number
       in order to address CRH or CRL register*/
      configregister = (iocurrent < GPIO_PIN_8) ? &GPIOx->CRL     : &GPIOx->CRH;
 8001150:	69bb      	ldr	r3, [r7, #24]
 8001152:	2bff      	cmp	r3, #255	; 0xff
 8001154:	d801      	bhi.n	800115a <HAL_GPIO_Init+0x13a>
 8001156:	687b      	ldr	r3, [r7, #4]
 8001158:	e001      	b.n	800115e <HAL_GPIO_Init+0x13e>
 800115a:	687b      	ldr	r3, [r7, #4]
 800115c:	3304      	adds	r3, #4
 800115e:	617b      	str	r3, [r7, #20]
      registeroffset = (iocurrent < GPIO_PIN_8) ? (position << 2u) : ((position - 8u) << 2u);
 8001160:	69bb      	ldr	r3, [r7, #24]
 8001162:	2bff      	cmp	r3, #255	; 0xff
 8001164:	d802      	bhi.n	800116c <HAL_GPIO_Init+0x14c>
 8001166:	6a7b      	ldr	r3, [r7, #36]	; 0x24
 8001168:	009b      	lsls	r3, r3, #2
 800116a:	e002      	b.n	8001172 <HAL_GPIO_Init+0x152>
 800116c:	6a7b      	ldr	r3, [r7, #36]	; 0x24
 800116e:	3b08      	subs	r3, #8
 8001170:	009b      	lsls	r3, r3, #2
 8001172:	613b      	str	r3, [r7, #16]

      /* Apply the new configuration of the pin to the register */
      MODIFY_REG((*configregister), ((GPIO_CRL_MODE0 | GPIO_CRL_CNF0) << registeroffset), (config << registeroffset));
 8001174:	697b      	ldr	r3, [r7, #20]
 8001176:	681a      	ldr	r2, [r3, #0]
 8001178:	210f      	movs	r1, #15
 800117a:	693b      	ldr	r3, [r7, #16]
 800117c:	fa01 f303 	lsl.w	r3, r1, r3
 8001180:	43db      	mvns	r3, r3
 8001182:	401a      	ands	r2, r3
 8001184:	6a39      	ldr	r1, [r7, #32]
 8001186:	693b      	ldr	r3, [r7, #16]
 8001188:	fa01 f303 	lsl.w	r3, r1, r3
 800118c:	431a      	orrs	r2, r3
 800118e:	697b      	ldr	r3, [r7, #20]
 8001190:	601a      	str	r2, [r3, #0]

      /*--------------------- EXTI Mode Configuration ------------------------*/
      /* Configure the External Interrupt or event for the current IO */
      if ((GPIO_Init->Mode & EXTI_MODE) == EXTI_MODE)
 8001192:	683b      	ldr	r3, [r7, #0]
 8001194:	685b      	ldr	r3, [r3, #4]
 8001196:	f003 5380 	and.w	r3, r3, #268435456	; 0x10000000
 800119a:	2b00      	cmp	r3, #0
 800119c:	f000 80b1 	beq.w	8001302 <HAL_GPIO_Init+0x2e2>
      {
        /* Enable AFIO Clock */
        __HAL_RCC_AFIO_CLK_ENABLE();
 80011a0:	4b4d      	ldr	r3, [pc, #308]	; (80012d8 <HAL_GPIO_Init+0x2b8>)
 80011a2:	699b      	ldr	r3, [r3, #24]
 80011a4:	4a4c      	ldr	r2, [pc, #304]	; (80012d8 <HAL_GPIO_Init+0x2b8>)
 80011a6:	f043 0301 	orr.w	r3, r3, #1
 80011aa:	6193      	str	r3, [r2, #24]
 80011ac:	4b4a      	ldr	r3, [pc, #296]	; (80012d8 <HAL_GPIO_Init+0x2b8>)
 80011ae:	699b      	ldr	r3, [r3, #24]
 80011b0:	f003 0301 	and.w	r3, r3, #1
 80011b4:	60bb      	str	r3, [r7, #8]
 80011b6:	68bb      	ldr	r3, [r7, #8]
        temp = AFIO->EXTICR[position >> 2u];
 80011b8:	4a48      	ldr	r2, [pc, #288]	; (80012dc <HAL_GPIO_Init+0x2bc>)
 80011ba:	6a7b      	ldr	r3, [r7, #36]	; 0x24
 80011bc:	089b      	lsrs	r3, r3, #2
 80011be:	3302      	adds	r3, #2
 80011c0:	f852 3023 	ldr.w	r3, [r2, r3, lsl #2]
 80011c4:	60fb      	str	r3, [r7, #12]
        CLEAR_BIT(temp, (0x0Fu) << (4u * (position & 0x03u)));
 80011c6:	6a7b      	ldr	r3, [r7, #36]	; 0x24
 80011c8:	f003 0303 	and.w	r3, r3, #3
 80011cc:	009b      	lsls	r3, r3, #2
 80011ce:	220f      	movs	r2, #15
 80011d0:	fa02 f303 	lsl.w	r3, r2, r3
 80011d4:	43db      	mvns	r3, r3
 80011d6:	68fa      	ldr	r2, [r7, #12]
 80011d8:	4013      	ands	r3, r2
 80011da:	60fb      	str	r3, [r7, #12]
        SET_BIT(temp, (GPIO_GET_INDEX(GPIOx)) << (4u * (position & 0x03u)));
 80011dc:	687b      	ldr	r3, [r7, #4]
 80011de:	4a40      	ldr	r2, [pc, #256]	; (80012e0 <HAL_GPIO_Init+0x2c0>)
 80011e0:	4293      	cmp	r3, r2
 80011e2:	d013      	beq.n	800120c <HAL_GPIO_Init+0x1ec>
 80011e4:	687b      	ldr	r3, [r7, #4]
 80011e6:	4a3f      	ldr	r2, [pc, #252]	; (80012e4 <HAL_GPIO_Init+0x2c4>)
 80011e8:	4293      	cmp	r3, r2
 80011ea:	d00d      	beq.n	8001208 <HAL_GPIO_Init+0x1e8>
 80011ec:	687b      	ldr	r3, [r7, #4]
 80011ee:	4a3e      	ldr	r2, [pc, #248]	; (80012e8 <HAL_GPIO_Init+0x2c8>)
 80011f0:	4293      	cmp	r3, r2
 80011f2:	d007      	beq.n	8001204 <HAL_GPIO_Init+0x1e4>
 80011f4:	687b      	ldr	r3, [r7, #4]
 80011f6:	4a3d      	ldr	r2, [pc, #244]	; (80012ec <HAL_GPIO_Init+0x2cc>)
 80011f8:	4293      	cmp	r3, r2
 80011fa:	d101      	bne.n	8001200 <HAL_GPIO_Init+0x1e0>
 80011fc:	2303      	movs	r3, #3
 80011fe:	e006      	b.n	800120e <HAL_GPIO_Init+0x1ee>
 8001200:	2304      	movs	r3, #4
 8001202:	e004      	b.n	800120e <HAL_GPIO_Init+0x1ee>
 8001204:	2302      	movs	r3, #2
 8001206:	e002      	b.n	800120e <HAL_GPIO_Init+0x1ee>
 8001208:	2301      	movs	r3, #1
 800120a:	e000      	b.n	800120e <HAL_GPIO_Init+0x1ee>
 800120c:	2300      	movs	r3, #0
 800120e:	6a7a      	ldr	r2, [r7, #36]	; 0x24
 8001210:	f002 0203 	and.w	r2, r2, #3
 8001214:	0092      	lsls	r2, r2, #2
 8001216:	4093      	lsls	r3, r2
 8001218:	68fa      	ldr	r2, [r7, #12]
 800121a:	4313      	orrs	r3, r2
 800121c:	60fb      	str	r3, [r7, #12]
        AFIO->EXTICR[position >> 2u] = temp;
 800121e:	492f      	ldr	r1, [pc, #188]	; (80012dc <HAL_GPIO_Init+0x2bc>)
 8001220:	6a7b      	ldr	r3, [r7, #36]	; 0x24
 8001222:	089b      	lsrs	r3, r3, #2
 8001224:	3302      	adds	r3, #2
 8001226:	68fa      	ldr	r2, [r7, #12]
 8001228:	f841 2023 	str.w	r2, [r1, r3, lsl #2]


        /* Configure the interrupt mask */
        if ((GPIO_Init->Mode & GPIO_MODE_IT) == GPIO_MODE_IT)
 800122c:	683b      	ldr	r3, [r7, #0]
 800122e:	685b      	ldr	r3, [r3, #4]
 8001230:	f403 3380 	and.w	r3, r3, #65536	; 0x10000
 8001234:	2b00      	cmp	r3, #0
 8001236:	d006      	beq.n	8001246 <HAL_GPIO_Init+0x226>
        {
          SET_BIT(EXTI->IMR, iocurrent);
 8001238:	4b2d      	ldr	r3, [pc, #180]	; (80012f0 <HAL_GPIO_Init+0x2d0>)
 800123a:	681a      	ldr	r2, [r3, #0]
 800123c:	492c      	ldr	r1, [pc, #176]	; (80012f0 <HAL_GPIO_Init+0x2d0>)
 800123e:	69bb      	ldr	r3, [r7, #24]
 8001240:	4313      	orrs	r3, r2
 8001242:	600b      	str	r3, [r1, #0]
 8001244:	e006      	b.n	8001254 <HAL_GPIO_Init+0x234>
        }
        else
        {
          CLEAR_BIT(EXTI->IMR, iocurrent);
 8001246:	4b2a      	ldr	r3, [pc, #168]	; (80012f0 <HAL_GPIO_Init+0x2d0>)
 8001248:	681a      	ldr	r2, [r3, #0]
 800124a:	69bb      	ldr	r3, [r7, #24]
 800124c:	43db      	mvns	r3, r3
 800124e:	4928      	ldr	r1, [pc, #160]	; (80012f0 <HAL_GPIO_Init+0x2d0>)
 8001250:	4013      	ands	r3, r2
 8001252:	600b      	str	r3, [r1, #0]
        }

        /* Configure the event mask */
        if ((GPIO_Init->Mode & GPIO_MODE_EVT) == GPIO_MODE_EVT)
 8001254:	683b      	ldr	r3, [r7, #0]
 8001256:	685b      	ldr	r3, [r3, #4]
 8001258:	f403 3300 	and.w	r3, r3, #131072	; 0x20000
 800125c:	2b00      	cmp	r3, #0
 800125e:	d006      	beq.n	800126e <HAL_GPIO_Init+0x24e>
        {
          SET_BIT(EXTI->EMR, iocurrent);
 8001260:	4b23      	ldr	r3, [pc, #140]	; (80012f0 <HAL_GPIO_Init+0x2d0>)
 8001262:	685a      	ldr	r2, [r3, #4]
 8001264:	4922      	ldr	r1, [pc, #136]	; (80012f0 <HAL_GPIO_Init+0x2d0>)
 8001266:	69bb      	ldr	r3, [r7, #24]
 8001268:	4313      	orrs	r3, r2
 800126a:	604b      	str	r3, [r1, #4]
 800126c:	e006      	b.n	800127c <HAL_GPIO_Init+0x25c>
        }
        else
        {
          CLEAR_BIT(EXTI->EMR, iocurrent);
 800126e:	4b20      	ldr	r3, [pc, #128]	; (80012f0 <HAL_GPIO_Init+0x2d0>)
 8001270:	685a      	ldr	r2, [r3, #4]
 8001272:	69bb      	ldr	r3, [r7, #24]
 8001274:	43db      	mvns	r3, r3
 8001276:	491e      	ldr	r1, [pc, #120]	; (80012f0 <HAL_GPIO_Init+0x2d0>)
 8001278:	4013      	ands	r3, r2
 800127a:	604b      	str	r3, [r1, #4]
        }

        /* Enable or disable the rising trigger */
        if ((GPIO_Init->Mode & RISING_EDGE) == RISING_EDGE)
 800127c:	683b      	ldr	r3, [r7, #0]
 800127e:	685b      	ldr	r3, [r3, #4]
 8001280:	f403 1380 	and.w	r3, r3, #1048576	; 0x100000
 8001284:	2b00      	cmp	r3, #0
 8001286:	d006      	beq.n	8001296 <HAL_GPIO_Init+0x276>
        {
          SET_BIT(EXTI->RTSR, iocurrent);
 8001288:	4b19      	ldr	r3, [pc, #100]	; (80012f0 <HAL_GPIO_Init+0x2d0>)
 800128a:	689a      	ldr	r2, [r3, #8]
 800128c:	4918      	ldr	r1, [pc, #96]	; (80012f0 <HAL_GPIO_Init+0x2d0>)
 800128e:	69bb      	ldr	r3, [r7, #24]
 8001290:	4313      	orrs	r3, r2
 8001292:	608b      	str	r3, [r1, #8]
 8001294:	e006      	b.n	80012a4 <HAL_GPIO_Init+0x284>
        }
        else
        {
          CLEAR_BIT(EXTI->RTSR, iocurrent);
 8001296:	4b16      	ldr	r3, [pc, #88]	; (80012f0 <HAL_GPIO_Init+0x2d0>)
 8001298:	689a      	ldr	r2, [r3, #8]
 800129a:	69bb      	ldr	r3, [r7, #24]
 800129c:	43db      	mvns	r3, r3
 800129e:	4914      	ldr	r1, [pc, #80]	; (80012f0 <HAL_GPIO_Init+0x2d0>)
 80012a0:	4013      	ands	r3, r2
 80012a2:	608b      	str	r3, [r1, #8]
        }

        /* Enable or disable the falling trigger */
        if ((GPIO_Init->Mode & FALLING_EDGE) == FALLING_EDGE)
 80012a4:	683b      	ldr	r3, [r7, #0]
 80012a6:	685b      	ldr	r3, [r3, #4]
 80012a8:	f403 1300 	and.w	r3, r3, #2097152	; 0x200000
 80012ac:	2b00      	cmp	r3, #0
 80012ae:	d021      	beq.n	80012f4 <HAL_GPIO_Init+0x2d4>
        {
          SET_BIT(EXTI->FTSR, iocurrent);
 80012b0:	4b0f      	ldr	r3, [pc, #60]	; (80012f0 <HAL_GPIO_Init+0x2d0>)
 80012b2:	68da      	ldr	r2, [r3, #12]
 80012b4:	490e      	ldr	r1, [pc, #56]	; (80012f0 <HAL_GPIO_Init+0x2d0>)
 80012b6:	69bb      	ldr	r3, [r7, #24]
 80012b8:	4313      	orrs	r3, r2
 80012ba:	60cb      	str	r3, [r1, #12]
 80012bc:	e021      	b.n	8001302 <HAL_GPIO_Init+0x2e2>
 80012be:	bf00      	nop
 80012c0:	10320000 	.word	0x10320000
 80012c4:	10310000 	.word	0x10310000
 80012c8:	10220000 	.word	0x10220000
 80012cc:	10210000 	.word	0x10210000
 80012d0:	10120000 	.word	0x10120000
 80012d4:	10110000 	.word	0x10110000
 80012d8:	40021000 	.word	0x40021000
 80012dc:	40010000 	.word	0x40010000
 80012e0:	40010800 	.word	0x40010800
 80012e4:	40010c00 	.word	0x40010c00
 80012e8:	40011000 	.word	0x40011000
 80012ec:	40011400 	.word	0x40011400
 80012f0:	40010400 	.word	0x40010400
        }
        else
        {
          CLEAR_BIT(EXTI->FTSR, iocurrent);
 80012f4:	4b0b      	ldr	r3, [pc, #44]	; (8001324 <HAL_GPIO_Init+0x304>)
 80012f6:	68da      	ldr	r2, [r3, #12]
 80012f8:	69bb      	ldr	r3, [r7, #24]
 80012fa:	43db      	mvns	r3, r3
 80012fc:	4909      	ldr	r1, [pc, #36]	; (8001324 <HAL_GPIO_Init+0x304>)
 80012fe:	4013      	ands	r3, r2
 8001300:	60cb      	str	r3, [r1, #12]
        }
      }
    }

	position++;
 8001302:	6a7b      	ldr	r3, [r7, #36]	; 0x24
 8001304:	3301      	adds	r3, #1
 8001306:	627b      	str	r3, [r7, #36]	; 0x24
  while (((GPIO_Init->Pin) >> position) != 0x00u)
 8001308:	683b      	ldr	r3, [r7, #0]
 800130a:	681a      	ldr	r2, [r3, #0]
 800130c:	6a7b      	ldr	r3, [r7, #36]	; 0x24
 800130e:	fa22 f303 	lsr.w	r3, r2, r3
 8001312:	2b00      	cmp	r3, #0
 8001314:	f47f ae8e 	bne.w	8001034 <HAL_GPIO_Init+0x14>
  }
}
 8001318:	bf00      	nop
 800131a:	bf00      	nop
 800131c:	372c      	adds	r7, #44	; 0x2c
 800131e:	46bd      	mov	sp, r7
 8001320:	bc80      	pop	{r7}
 8001322:	4770      	bx	lr
 8001324:	40010400 	.word	0x40010400

08001328 <HAL_I2C_Init>:
  * @param  hi2c Pointer to a I2C_HandleTypeDef structure that contains
  *                the configuration information for the specified I2C.
  * @retval HAL status
  */
HAL_StatusTypeDef HAL_I2C_Init(I2C_HandleTypeDef *hi2c)
{
 8001328:	b580      	push	{r7, lr}
 800132a:	b084      	sub	sp, #16
 800132c:	af00      	add	r7, sp, #0
 800132e:	6078      	str	r0, [r7, #4]
  uint32_t freqrange;
  uint32_t pclk1;

  /* Check the I2C handle allocation */
  if (hi2c == NULL)
 8001330:	687b      	ldr	r3, [r7, #4]
 8001332:	2b00      	cmp	r3, #0
 8001334:	d101      	bne.n	800133a <HAL_I2C_Init+0x12>
  {
    return HAL_ERROR;
 8001336:	2301      	movs	r3, #1
 8001338:	e12b      	b.n	8001592 <HAL_I2C_Init+0x26a>
  assert_param(IS_I2C_DUAL_ADDRESS(hi2c->Init.DualAddressMode));
  assert_param(IS_I2C_OWN_ADDRESS2(hi2c->Init.OwnAddress2));
  assert_param(IS_I2C_GENERAL_CALL(hi2c->Init.GeneralCallMode));
  assert_param(IS_I2C_NO_STRETCH(hi2c->Init.NoStretchMode));

  if (hi2c->State == HAL_I2C_STATE_RESET)
 800133a:	687b      	ldr	r3, [r7, #4]
 800133c:	f893 303d 	ldrb.w	r3, [r3, #61]	; 0x3d
 8001340:	b2db      	uxtb	r3, r3
 8001342:	2b00      	cmp	r3, #0
 8001344:	d106      	bne.n	8001354 <HAL_I2C_Init+0x2c>
  {
    /* Allocate lock resource and initialize it */
    hi2c->Lock = HAL_UNLOCKED;
 8001346:	687b      	ldr	r3, [r7, #4]
 8001348:	2200      	movs	r2, #0
 800134a:	f883 203c 	strb.w	r2, [r3, #60]	; 0x3c

    /* Init the low level hardware : GPIO, CLOCK, NVIC */
    hi2c->MspInitCallback(hi2c);
#else
    /* Init the low level hardware : GPIO, CLOCK, NVIC */
    HAL_I2C_MspInit(hi2c);
 800134e:	6878      	ldr	r0, [r7, #4]
 8001350:	f7ff fb6a 	bl	8000a28 <HAL_I2C_MspInit>
#endif /* USE_HAL_I2C_REGISTER_CALLBACKS */
  }

  hi2c->State = HAL_I2C_STATE_BUSY;
 8001354:	687b      	ldr	r3, [r7, #4]
 8001356:	2224      	movs	r2, #36	; 0x24
 8001358:	f883 203d 	strb.w	r2, [r3, #61]	; 0x3d

  /* Disable the selected I2C peripheral */
  __HAL_I2C_DISABLE(hi2c);
 800135c:	687b      	ldr	r3, [r7, #4]
 800135e:	681b      	ldr	r3, [r3, #0]
 8001360:	681a      	ldr	r2, [r3, #0]
 8001362:	687b      	ldr	r3, [r7, #4]
 8001364:	681b      	ldr	r3, [r3, #0]
 8001366:	f022 0201 	bic.w	r2, r2, #1
 800136a:	601a      	str	r2, [r3, #0]

  /*Reset I2C*/
  hi2c->Instance->CR1 |= I2C_CR1_SWRST;
 800136c:	687b      	ldr	r3, [r7, #4]
 800136e:	681b      	ldr	r3, [r3, #0]
 8001370:	681a      	ldr	r2, [r3, #0]
 8001372:	687b      	ldr	r3, [r7, #4]
 8001374:	681b      	ldr	r3, [r3, #0]
 8001376:	f442 4200 	orr.w	r2, r2, #32768	; 0x8000
 800137a:	601a      	str	r2, [r3, #0]
  hi2c->Instance->CR1 &= ~I2C_CR1_SWRST;
 800137c:	687b      	ldr	r3, [r7, #4]
 800137e:	681b      	ldr	r3, [r3, #0]
 8001380:	681a      	ldr	r2, [r3, #0]
 8001382:	687b      	ldr	r3, [r7, #4]
 8001384:	681b      	ldr	r3, [r3, #0]
 8001386:	f422 4200 	bic.w	r2, r2, #32768	; 0x8000
 800138a:	601a      	str	r2, [r3, #0]

  /* Get PCLK1 frequency */
  pclk1 = HAL_RCC_GetPCLK1Freq();
 800138c:	f001 fb6e 	bl	8002a6c <HAL_RCC_GetPCLK1Freq>
 8001390:	60f8      	str	r0, [r7, #12]

  /* Check the minimum allowed PCLK1 frequency */
  if (I2C_MIN_PCLK_FREQ(pclk1, hi2c->Init.ClockSpeed) == 1U)
 8001392:	687b      	ldr	r3, [r7, #4]
 8001394:	685b      	ldr	r3, [r3, #4]
 8001396:	4a81      	ldr	r2, [pc, #516]	; (800159c <HAL_I2C_Init+0x274>)
 8001398:	4293      	cmp	r3, r2
 800139a:	d807      	bhi.n	80013ac <HAL_I2C_Init+0x84>
 800139c:	68fb      	ldr	r3, [r7, #12]
 800139e:	4a80      	ldr	r2, [pc, #512]	; (80015a0 <HAL_I2C_Init+0x278>)
 80013a0:	4293      	cmp	r3, r2
 80013a2:	bf94      	ite	ls
 80013a4:	2301      	movls	r3, #1
 80013a6:	2300      	movhi	r3, #0
 80013a8:	b2db      	uxtb	r3, r3
 80013aa:	e006      	b.n	80013ba <HAL_I2C_Init+0x92>
 80013ac:	68fb      	ldr	r3, [r7, #12]
 80013ae:	4a7d      	ldr	r2, [pc, #500]	; (80015a4 <HAL_I2C_Init+0x27c>)
 80013b0:	4293      	cmp	r3, r2
 80013b2:	bf94      	ite	ls
 80013b4:	2301      	movls	r3, #1
 80013b6:	2300      	movhi	r3, #0
 80013b8:	b2db      	uxtb	r3, r3
 80013ba:	2b00      	cmp	r3, #0
 80013bc:	d001      	beq.n	80013c2 <HAL_I2C_Init+0x9a>
  {
    return HAL_ERROR;
 80013be:	2301      	movs	r3, #1
 80013c0:	e0e7      	b.n	8001592 <HAL_I2C_Init+0x26a>
  }

  /* Calculate frequency range */
  freqrange = I2C_FREQRANGE(pclk1);
 80013c2:	68fb      	ldr	r3, [r7, #12]
 80013c4:	4a78      	ldr	r2, [pc, #480]	; (80015a8 <HAL_I2C_Init+0x280>)
 80013c6:	fba2 2303 	umull	r2, r3, r2, r3
 80013ca:	0c9b      	lsrs	r3, r3, #18
 80013cc:	60bb      	str	r3, [r7, #8]

  /*---------------------------- I2Cx CR2 Configuration ----------------------*/
  /* Configure I2Cx: Frequency range */
  MODIFY_REG(hi2c->Instance->CR2, I2C_CR2_FREQ, freqrange);
 80013ce:	687b      	ldr	r3, [r7, #4]
 80013d0:	681b      	ldr	r3, [r3, #0]
 80013d2:	685b      	ldr	r3, [r3, #4]
 80013d4:	f023 013f 	bic.w	r1, r3, #63	; 0x3f
 80013d8:	687b      	ldr	r3, [r7, #4]
 80013da:	681b      	ldr	r3, [r3, #0]
 80013dc:	68ba      	ldr	r2, [r7, #8]
 80013de:	430a      	orrs	r2, r1
 80013e0:	605a      	str	r2, [r3, #4]

  /*---------------------------- I2Cx TRISE Configuration --------------------*/
  /* Configure I2Cx: Rise Time */
  MODIFY_REG(hi2c->Instance->TRISE, I2C_TRISE_TRISE, I2C_RISE_TIME(freqrange, hi2c->Init.ClockSpeed));
 80013e2:	687b      	ldr	r3, [r7, #4]
 80013e4:	681b      	ldr	r3, [r3, #0]
 80013e6:	6a1b      	ldr	r3, [r3, #32]
 80013e8:	f023 013f 	bic.w	r1, r3, #63	; 0x3f
 80013ec:	687b      	ldr	r3, [r7, #4]
 80013ee:	685b      	ldr	r3, [r3, #4]
 80013f0:	4a6a      	ldr	r2, [pc, #424]	; (800159c <HAL_I2C_Init+0x274>)
 80013f2:	4293      	cmp	r3, r2
 80013f4:	d802      	bhi.n	80013fc <HAL_I2C_Init+0xd4>
 80013f6:	68bb      	ldr	r3, [r7, #8]
 80013f8:	3301      	adds	r3, #1
 80013fa:	e009      	b.n	8001410 <HAL_I2C_Init+0xe8>
 80013fc:	68bb      	ldr	r3, [r7, #8]
 80013fe:	f44f 7296 	mov.w	r2, #300	; 0x12c
 8001402:	fb02 f303 	mul.w	r3, r2, r3
 8001406:	4a69      	ldr	r2, [pc, #420]	; (80015ac <HAL_I2C_Init+0x284>)
 8001408:	fba2 2303 	umull	r2, r3, r2, r3
 800140c:	099b      	lsrs	r3, r3, #6
 800140e:	3301      	adds	r3, #1
 8001410:	687a      	ldr	r2, [r7, #4]
 8001412:	6812      	ldr	r2, [r2, #0]
 8001414:	430b      	orrs	r3, r1
 8001416:	6213      	str	r3, [r2, #32]

  /*---------------------------- I2Cx CCR Configuration ----------------------*/
  /* Configure I2Cx: Speed */
  MODIFY_REG(hi2c->Instance->CCR, (I2C_CCR_FS | I2C_CCR_DUTY | I2C_CCR_CCR), I2C_SPEED(pclk1, hi2c->Init.ClockSpeed, hi2c->Init.DutyCycle));
 8001418:	687b      	ldr	r3, [r7, #4]
 800141a:	681b      	ldr	r3, [r3, #0]
 800141c:	69db      	ldr	r3, [r3, #28]
 800141e:	f423 424f 	bic.w	r2, r3, #52992	; 0xcf00
 8001422:	f022 02ff 	bic.w	r2, r2, #255	; 0xff
 8001426:	687b      	ldr	r3, [r7, #4]
 8001428:	685b      	ldr	r3, [r3, #4]
 800142a:	495c      	ldr	r1, [pc, #368]	; (800159c <HAL_I2C_Init+0x274>)
 800142c:	428b      	cmp	r3, r1
 800142e:	d819      	bhi.n	8001464 <HAL_I2C_Init+0x13c>
 8001430:	68fb      	ldr	r3, [r7, #12]
 8001432:	1e59      	subs	r1, r3, #1
 8001434:	687b      	ldr	r3, [r7, #4]
 8001436:	685b      	ldr	r3, [r3, #4]
 8001438:	005b      	lsls	r3, r3, #1
 800143a:	fbb1 f3f3 	udiv	r3, r1, r3
 800143e:	1c59      	adds	r1, r3, #1
 8001440:	f640 73fc 	movw	r3, #4092	; 0xffc
 8001444:	400b      	ands	r3, r1
 8001446:	2b00      	cmp	r3, #0
 8001448:	d00a      	beq.n	8001460 <HAL_I2C_Init+0x138>
 800144a:	68fb      	ldr	r3, [r7, #12]
 800144c:	1e59      	subs	r1, r3, #1
 800144e:	687b      	ldr	r3, [r7, #4]
 8001450:	685b      	ldr	r3, [r3, #4]
 8001452:	005b      	lsls	r3, r3, #1
 8001454:	fbb1 f3f3 	udiv	r3, r1, r3
 8001458:	3301      	adds	r3, #1
 800145a:	f3c3 030b 	ubfx	r3, r3, #0, #12
 800145e:	e051      	b.n	8001504 <HAL_I2C_Init+0x1dc>
 8001460:	2304      	movs	r3, #4
 8001462:	e04f      	b.n	8001504 <HAL_I2C_Init+0x1dc>
 8001464:	687b      	ldr	r3, [r7, #4]
 8001466:	689b      	ldr	r3, [r3, #8]
 8001468:	2b00      	cmp	r3, #0
 800146a:	d111      	bne.n	8001490 <HAL_I2C_Init+0x168>
 800146c:	68fb      	ldr	r3, [r7, #12]
 800146e:	1e58      	subs	r0, r3, #1
 8001470:	687b      	ldr	r3, [r7, #4]
 8001472:	6859      	ldr	r1, [r3, #4]
 8001474:	460b      	mov	r3, r1
 8001476:	005b      	lsls	r3, r3, #1
 8001478:	440b      	add	r3, r1
 800147a:	fbb0 f3f3 	udiv	r3, r0, r3
 800147e:	3301      	adds	r3, #1
 8001480:	f3c3 030b 	ubfx	r3, r3, #0, #12
 8001484:	2b00      	cmp	r3, #0
 8001486:	bf0c      	ite	eq
 8001488:	2301      	moveq	r3, #1
 800148a:	2300      	movne	r3, #0
 800148c:	b2db      	uxtb	r3, r3
 800148e:	e012      	b.n	80014b6 <HAL_I2C_Init+0x18e>
 8001490:	68fb      	ldr	r3, [r7, #12]
 8001492:	1e58      	subs	r0, r3, #1
 8001494:	687b      	ldr	r3, [r7, #4]
 8001496:	6859      	ldr	r1, [r3, #4]
 8001498:	460b      	mov	r3, r1
 800149a:	009b      	lsls	r3, r3, #2
 800149c:	440b      	add	r3, r1
 800149e:	0099      	lsls	r1, r3, #2
 80014a0:	440b      	add	r3, r1
 80014a2:	fbb0 f3f3 	udiv	r3, r0, r3
 80014a6:	3301      	adds	r3, #1
 80014a8:	f3c3 030b 	ubfx	r3, r3, #0, #12
 80014ac:	2b00      	cmp	r3, #0
 80014ae:	bf0c      	ite	eq
 80014b0:	2301      	moveq	r3, #1
 80014b2:	2300      	movne	r3, #0
 80014b4:	b2db      	uxtb	r3, r3
 80014b6:	2b00      	cmp	r3, #0
 80014b8:	d001      	beq.n	80014be <HAL_I2C_Init+0x196>
 80014ba:	2301      	movs	r3, #1
 80014bc:	e022      	b.n	8001504 <HAL_I2C_Init+0x1dc>
 80014be:	687b      	ldr	r3, [r7, #4]
 80014c0:	689b      	ldr	r3, [r3, #8]
 80014c2:	2b00      	cmp	r3, #0
 80014c4:	d10e      	bne.n	80014e4 <HAL_I2C_Init+0x1bc>
 80014c6:	68fb      	ldr	r3, [r7, #12]
 80014c8:	1e58      	subs	r0, r3, #1
 80014ca:	687b      	ldr	r3, [r7, #4]
 80014cc:	6859      	ldr	r1, [r3, #4]
 80014ce:	460b      	mov	r3, r1
 80014d0:	005b      	lsls	r3, r3, #1
 80014d2:	440b      	add	r3, r1
 80014d4:	fbb0 f3f3 	udiv	r3, r0, r3
 80014d8:	3301      	adds	r3, #1
 80014da:	f3c3 030b 	ubfx	r3, r3, #0, #12
 80014de:	f443 4300 	orr.w	r3, r3, #32768	; 0x8000
 80014e2:	e00f      	b.n	8001504 <HAL_I2C_Init+0x1dc>
 80014e4:	68fb      	ldr	r3, [r7, #12]
 80014e6:	1e58      	subs	r0, r3, #1
 80014e8:	687b      	ldr	r3, [r7, #4]
 80014ea:	6859      	ldr	r1, [r3, #4]
 80014ec:	460b      	mov	r3, r1
 80014ee:	009b      	lsls	r3, r3, #2
 80014f0:	440b      	add	r3, r1
 80014f2:	0099      	lsls	r1, r3, #2
 80014f4:	440b      	add	r3, r1
 80014f6:	fbb0 f3f3 	udiv	r3, r0, r3
 80014fa:	3301      	adds	r3, #1
 80014fc:	f3c3 030b 	ubfx	r3, r3, #0, #12
 8001500:	f443 4340 	orr.w	r3, r3, #49152	; 0xc000
 8001504:	6879      	ldr	r1, [r7, #4]
 8001506:	6809      	ldr	r1, [r1, #0]
 8001508:	4313      	orrs	r3, r2
 800150a:	61cb      	str	r3, [r1, #28]

  /*---------------------------- I2Cx CR1 Configuration ----------------------*/
  /* Configure I2Cx: Generalcall and NoStretch mode */
  MODIFY_REG(hi2c->Instance->CR1, (I2C_CR1_ENGC | I2C_CR1_NOSTRETCH), (hi2c->Init.GeneralCallMode | hi2c->Init.NoStretchMode));
 800150c:	687b      	ldr	r3, [r7, #4]
 800150e:	681b      	ldr	r3, [r3, #0]
 8001510:	681b      	ldr	r3, [r3, #0]
 8001512:	f023 01c0 	bic.w	r1, r3, #192	; 0xc0
 8001516:	687b      	ldr	r3, [r7, #4]
 8001518:	69da      	ldr	r2, [r3, #28]
 800151a:	687b      	ldr	r3, [r7, #4]
 800151c:	6a1b      	ldr	r3, [r3, #32]
 800151e:	431a      	orrs	r2, r3
 8001520:	687b      	ldr	r3, [r7, #4]
 8001522:	681b      	ldr	r3, [r3, #0]
 8001524:	430a      	orrs	r2, r1
 8001526:	601a      	str	r2, [r3, #0]

  /*---------------------------- I2Cx OAR1 Configuration ---------------------*/
  /* Configure I2Cx: Own Address1 and addressing mode */
  MODIFY_REG(hi2c->Instance->OAR1, (I2C_OAR1_ADDMODE | I2C_OAR1_ADD8_9 | I2C_OAR1_ADD1_7 | I2C_OAR1_ADD0), (hi2c->Init.AddressingMode | hi2c->Init.OwnAddress1));
 8001528:	687b      	ldr	r3, [r7, #4]
 800152a:	681b      	ldr	r3, [r3, #0]
 800152c:	689b      	ldr	r3, [r3, #8]
 800152e:	f423 4303 	bic.w	r3, r3, #33536	; 0x8300
 8001532:	f023 03ff 	bic.w	r3, r3, #255	; 0xff
 8001536:	687a      	ldr	r2, [r7, #4]
 8001538:	6911      	ldr	r1, [r2, #16]
 800153a:	687a      	ldr	r2, [r7, #4]
 800153c:	68d2      	ldr	r2, [r2, #12]
 800153e:	4311      	orrs	r1, r2
 8001540:	687a      	ldr	r2, [r7, #4]
 8001542:	6812      	ldr	r2, [r2, #0]
 8001544:	430b      	orrs	r3, r1
 8001546:	6093      	str	r3, [r2, #8]

  /*---------------------------- I2Cx OAR2 Configuration ---------------------*/
  /* Configure I2Cx: Dual mode and Own Address2 */
  MODIFY_REG(hi2c->Instance->OAR2, (I2C_OAR2_ENDUAL | I2C_OAR2_ADD2), (hi2c->Init.DualAddressMode | hi2c->Init.OwnAddress2));
 8001548:	687b      	ldr	r3, [r7, #4]
 800154a:	681b      	ldr	r3, [r3, #0]
 800154c:	68db      	ldr	r3, [r3, #12]
 800154e:	f023 01ff 	bic.w	r1, r3, #255	; 0xff
 8001552:	687b      	ldr	r3, [r7, #4]
 8001554:	695a      	ldr	r2, [r3, #20]
 8001556:	687b      	ldr	r3, [r7, #4]
 8001558:	699b      	ldr	r3, [r3, #24]
 800155a:	431a      	orrs	r2, r3
 800155c:	687b      	ldr	r3, [r7, #4]
 800155e:	681b      	ldr	r3, [r3, #0]
 8001560:	430a      	orrs	r2, r1
 8001562:	60da      	str	r2, [r3, #12]

  /* Enable the selected I2C peripheral */
  __HAL_I2C_ENABLE(hi2c);
 8001564:	687b      	ldr	r3, [r7, #4]
 8001566:	681b      	ldr	r3, [r3, #0]
 8001568:	681a      	ldr	r2, [r3, #0]
 800156a:	687b      	ldr	r3, [r7, #4]
 800156c:	681b      	ldr	r3, [r3, #0]
 800156e:	f042 0201 	orr.w	r2, r2, #1
 8001572:	601a      	str	r2, [r3, #0]

  hi2c->ErrorCode = HAL_I2C_ERROR_NONE;
 8001574:	687b      	ldr	r3, [r7, #4]
 8001576:	2200      	movs	r2, #0
 8001578:	641a      	str	r2, [r3, #64]	; 0x40
  hi2c->State = HAL_I2C_STATE_READY;
 800157a:	687b      	ldr	r3, [r7, #4]
 800157c:	2220      	movs	r2, #32
 800157e:	f883 203d 	strb.w	r2, [r3, #61]	; 0x3d
  hi2c->PreviousState = I2C_STATE_NONE;
 8001582:	687b      	ldr	r3, [r7, #4]
 8001584:	2200      	movs	r2, #0
 8001586:	631a      	str	r2, [r3, #48]	; 0x30
  hi2c->Mode = HAL_I2C_MODE_NONE;
 8001588:	687b      	ldr	r3, [r7, #4]
 800158a:	2200      	movs	r2, #0
 800158c:	f883 203e 	strb.w	r2, [r3, #62]	; 0x3e

  return HAL_OK;
 8001590:	2300      	movs	r3, #0
}
 8001592:	4618      	mov	r0, r3
 8001594:	3710      	adds	r7, #16
 8001596:	46bd      	mov	sp, r7
 8001598:	bd80      	pop	{r7, pc}
 800159a:	bf00      	nop
 800159c:	000186a0 	.word	0x000186a0
 80015a0:	001e847f 	.word	0x001e847f
 80015a4:	003d08ff 	.word	0x003d08ff
 80015a8:	431bde83 	.word	0x431bde83
 80015ac:	10624dd3 	.word	0x10624dd3

080015b0 <HAL_I2C_Master_Transmit>:
  * @param  Size Amount of data to be sent
  * @param  Timeout Timeout duration
  * @retval HAL status
  */
HAL_StatusTypeDef HAL_I2C_Master_Transmit(I2C_HandleTypeDef *hi2c, uint16_t DevAddress, uint8_t *pData, uint16_t Size, uint32_t Timeout)
{
 80015b0:	b580      	push	{r7, lr}
 80015b2:	b088      	sub	sp, #32
 80015b4:	af02      	add	r7, sp, #8
 80015b6:	60f8      	str	r0, [r7, #12]
 80015b8:	607a      	str	r2, [r7, #4]
 80015ba:	461a      	mov	r2, r3
 80015bc:	460b      	mov	r3, r1
 80015be:	817b      	strh	r3, [r7, #10]
 80015c0:	4613      	mov	r3, r2
 80015c2:	813b      	strh	r3, [r7, #8]
  /* Init tickstart for timeout management*/
  uint32_t tickstart = HAL_GetTick();
 80015c4:	f7ff fb7a 	bl	8000cbc <HAL_GetTick>
 80015c8:	6178      	str	r0, [r7, #20]

  if (hi2c->State == HAL_I2C_STATE_READY)
 80015ca:	68fb      	ldr	r3, [r7, #12]
 80015cc:	f893 303d 	ldrb.w	r3, [r3, #61]	; 0x3d
 80015d0:	b2db      	uxtb	r3, r3
 80015d2:	2b20      	cmp	r3, #32
 80015d4:	f040 80e0 	bne.w	8001798 <HAL_I2C_Master_Transmit+0x1e8>
  {
    /* Wait until BUSY flag is reset */
    if (I2C_WaitOnFlagUntilTimeout(hi2c, I2C_FLAG_BUSY, SET, I2C_TIMEOUT_BUSY_FLAG, tickstart) != HAL_OK)
 80015d8:	697b      	ldr	r3, [r7, #20]
 80015da:	9300      	str	r3, [sp, #0]
 80015dc:	2319      	movs	r3, #25
 80015de:	2201      	movs	r2, #1
 80015e0:	4970      	ldr	r1, [pc, #448]	; (80017a4 <HAL_I2C_Master_Transmit+0x1f4>)
 80015e2:	68f8      	ldr	r0, [r7, #12]
 80015e4:	f000 fc92 	bl	8001f0c <I2C_WaitOnFlagUntilTimeout>
 80015e8:	4603      	mov	r3, r0
 80015ea:	2b00      	cmp	r3, #0
 80015ec:	d001      	beq.n	80015f2 <HAL_I2C_Master_Transmit+0x42>
    {
      return HAL_BUSY;
 80015ee:	2302      	movs	r3, #2
 80015f0:	e0d3      	b.n	800179a <HAL_I2C_Master_Transmit+0x1ea>
    }

    /* Process Locked */
    __HAL_LOCK(hi2c);
 80015f2:	68fb      	ldr	r3, [r7, #12]
 80015f4:	f893 303c 	ldrb.w	r3, [r3, #60]	; 0x3c
 80015f8:	2b01      	cmp	r3, #1
 80015fa:	d101      	bne.n	8001600 <HAL_I2C_Master_Transmit+0x50>
 80015fc:	2302      	movs	r3, #2
 80015fe:	e0cc      	b.n	800179a <HAL_I2C_Master_Transmit+0x1ea>
 8001600:	68fb      	ldr	r3, [r7, #12]
 8001602:	2201      	movs	r2, #1
 8001604:	f883 203c 	strb.w	r2, [r3, #60]	; 0x3c

    /* Check if the I2C is already enabled */
    if ((hi2c->Instance->CR1 & I2C_CR1_PE) != I2C_CR1_PE)
 8001608:	68fb      	ldr	r3, [r7, #12]
 800160a:	681b      	ldr	r3, [r3, #0]
 800160c:	681b      	ldr	r3, [r3, #0]
 800160e:	f003 0301 	and.w	r3, r3, #1
 8001612:	2b01      	cmp	r3, #1
 8001614:	d007      	beq.n	8001626 <HAL_I2C_Master_Transmit+0x76>
    {
      /* Enable I2C peripheral */
      __HAL_I2C_ENABLE(hi2c);
 8001616:	68fb      	ldr	r3, [r7, #12]
 8001618:	681b      	ldr	r3, [r3, #0]
 800161a:	681a      	ldr	r2, [r3, #0]
 800161c:	68fb      	ldr	r3, [r7, #12]
 800161e:	681b      	ldr	r3, [r3, #0]
 8001620:	f042 0201 	orr.w	r2, r2, #1
 8001624:	601a      	str	r2, [r3, #0]
    }

    /* Disable Pos */
    CLEAR_BIT(hi2c->Instance->CR1, I2C_CR1_POS);
 8001626:	68fb      	ldr	r3, [r7, #12]
 8001628:	681b      	ldr	r3, [r3, #0]
 800162a:	681a      	ldr	r2, [r3, #0]
 800162c:	68fb      	ldr	r3, [r7, #12]
 800162e:	681b      	ldr	r3, [r3, #0]
 8001630:	f422 6200 	bic.w	r2, r2, #2048	; 0x800
 8001634:	601a      	str	r2, [r3, #0]

    hi2c->State       = HAL_I2C_STATE_BUSY_TX;
 8001636:	68fb      	ldr	r3, [r7, #12]
 8001638:	2221      	movs	r2, #33	; 0x21
 800163a:	f883 203d 	strb.w	r2, [r3, #61]	; 0x3d
    hi2c->Mode        = HAL_I2C_MODE_MASTER;
 800163e:	68fb      	ldr	r3, [r7, #12]
 8001640:	2210      	movs	r2, #16
 8001642:	f883 203e 	strb.w	r2, [r3, #62]	; 0x3e
    hi2c->ErrorCode   = HAL_I2C_ERROR_NONE;
 8001646:	68fb      	ldr	r3, [r7, #12]
 8001648:	2200      	movs	r2, #0
 800164a:	641a      	str	r2, [r3, #64]	; 0x40

    /* Prepare transfer parameters */
    hi2c->pBuffPtr    = pData;
 800164c:	68fb      	ldr	r3, [r7, #12]
 800164e:	687a      	ldr	r2, [r7, #4]
 8001650:	625a      	str	r2, [r3, #36]	; 0x24
    hi2c->XferCount   = Size;
 8001652:	68fb      	ldr	r3, [r7, #12]
 8001654:	893a      	ldrh	r2, [r7, #8]
 8001656:	855a      	strh	r2, [r3, #42]	; 0x2a
    hi2c->XferSize    = hi2c->XferCount;
 8001658:	68fb      	ldr	r3, [r7, #12]
 800165a:	8d5b      	ldrh	r3, [r3, #42]	; 0x2a
 800165c:	b29a      	uxth	r2, r3
 800165e:	68fb      	ldr	r3, [r7, #12]
 8001660:	851a      	strh	r2, [r3, #40]	; 0x28
    hi2c->XferOptions = I2C_NO_OPTION_FRAME;
 8001662:	68fb      	ldr	r3, [r7, #12]
 8001664:	4a50      	ldr	r2, [pc, #320]	; (80017a8 <HAL_I2C_Master_Transmit+0x1f8>)
 8001666:	62da      	str	r2, [r3, #44]	; 0x2c

    /* Send Slave Address */
    if (I2C_MasterRequestWrite(hi2c, DevAddress, Timeout, tickstart) != HAL_OK)
 8001668:	8979      	ldrh	r1, [r7, #10]
 800166a:	697b      	ldr	r3, [r7, #20]
 800166c:	6a3a      	ldr	r2, [r7, #32]
 800166e:	68f8      	ldr	r0, [r7, #12]
 8001670:	f000 fafc 	bl	8001c6c <I2C_MasterRequestWrite>
 8001674:	4603      	mov	r3, r0
 8001676:	2b00      	cmp	r3, #0
 8001678:	d001      	beq.n	800167e <HAL_I2C_Master_Transmit+0xce>
    {
      return HAL_ERROR;
 800167a:	2301      	movs	r3, #1
 800167c:	e08d      	b.n	800179a <HAL_I2C_Master_Transmit+0x1ea>
    }

    /* Clear ADDR flag */
    __HAL_I2C_CLEAR_ADDRFLAG(hi2c);
 800167e:	2300      	movs	r3, #0
 8001680:	613b      	str	r3, [r7, #16]
 8001682:	68fb      	ldr	r3, [r7, #12]
 8001684:	681b      	ldr	r3, [r3, #0]
 8001686:	695b      	ldr	r3, [r3, #20]
 8001688:	613b      	str	r3, [r7, #16]
 800168a:	68fb      	ldr	r3, [r7, #12]
 800168c:	681b      	ldr	r3, [r3, #0]
 800168e:	699b      	ldr	r3, [r3, #24]
 8001690:	613b      	str	r3, [r7, #16]
 8001692:	693b      	ldr	r3, [r7, #16]

    while (hi2c->XferSize > 0U)
 8001694:	e066      	b.n	8001764 <HAL_I2C_Master_Transmit+0x1b4>
    {
      /* Wait until TXE flag is set */
      if (I2C_WaitOnTXEFlagUntilTimeout(hi2c, Timeout, tickstart) != HAL_OK)
 8001696:	697a      	ldr	r2, [r7, #20]
 8001698:	6a39      	ldr	r1, [r7, #32]
 800169a:	68f8      	ldr	r0, [r7, #12]
 800169c:	f000 fd0c 	bl	80020b8 <I2C_WaitOnTXEFlagUntilTimeout>
 80016a0:	4603      	mov	r3, r0
 80016a2:	2b00      	cmp	r3, #0
 80016a4:	d00d      	beq.n	80016c2 <HAL_I2C_Master_Transmit+0x112>
      {
        if (hi2c->ErrorCode == HAL_I2C_ERROR_AF)
 80016a6:	68fb      	ldr	r3, [r7, #12]
 80016a8:	6c1b      	ldr	r3, [r3, #64]	; 0x40
 80016aa:	2b04      	cmp	r3, #4
 80016ac:	d107      	bne.n	80016be <HAL_I2C_Master_Transmit+0x10e>
        {
          /* Generate Stop */
          SET_BIT(hi2c->Instance->CR1, I2C_CR1_STOP);
 80016ae:	68fb      	ldr	r3, [r7, #12]
 80016b0:	681b      	ldr	r3, [r3, #0]
 80016b2:	681a      	ldr	r2, [r3, #0]
 80016b4:	68fb      	ldr	r3, [r7, #12]
 80016b6:	681b      	ldr	r3, [r3, #0]
 80016b8:	f442 7200 	orr.w	r2, r2, #512	; 0x200
 80016bc:	601a      	str	r2, [r3, #0]
        }
        return HAL_ERROR;
 80016be:	2301      	movs	r3, #1
 80016c0:	e06b      	b.n	800179a <HAL_I2C_Master_Transmit+0x1ea>
      }

      /* Write data to DR */
      hi2c->Instance->DR = *hi2c->pBuffPtr;
 80016c2:	68fb      	ldr	r3, [r7, #12]
 80016c4:	6a5b      	ldr	r3, [r3, #36]	; 0x24
 80016c6:	781a      	ldrb	r2, [r3, #0]
 80016c8:	68fb      	ldr	r3, [r7, #12]
 80016ca:	681b      	ldr	r3, [r3, #0]
 80016cc:	611a      	str	r2, [r3, #16]

      /* Increment Buffer pointer */
      hi2c->pBuffPtr++;
 80016ce:	68fb      	ldr	r3, [r7, #12]
 80016d0:	6a5b      	ldr	r3, [r3, #36]	; 0x24
 80016d2:	1c5a      	adds	r2, r3, #1
 80016d4:	68fb      	ldr	r3, [r7, #12]
 80016d6:	625a      	str	r2, [r3, #36]	; 0x24

      /* Update counter */
      hi2c->XferCount--;
 80016d8:	68fb      	ldr	r3, [r7, #12]
 80016da:	8d5b      	ldrh	r3, [r3, #42]	; 0x2a
 80016dc:	b29b      	uxth	r3, r3
 80016de:	3b01      	subs	r3, #1
 80016e0:	b29a      	uxth	r2, r3
 80016e2:	68fb      	ldr	r3, [r7, #12]
 80016e4:	855a      	strh	r2, [r3, #42]	; 0x2a
      hi2c->XferSize--;
 80016e6:	68fb      	ldr	r3, [r7, #12]
 80016e8:	8d1b      	ldrh	r3, [r3, #40]	; 0x28
 80016ea:	3b01      	subs	r3, #1
 80016ec:	b29a      	uxth	r2, r3
 80016ee:	68fb      	ldr	r3, [r7, #12]
 80016f0:	851a      	strh	r2, [r3, #40]	; 0x28

      if ((__HAL_I2C_GET_FLAG(hi2c, I2C_FLAG_BTF) == SET) && (hi2c->XferSize != 0U))
 80016f2:	68fb      	ldr	r3, [r7, #12]
 80016f4:	681b      	ldr	r3, [r3, #0]
 80016f6:	695b      	ldr	r3, [r3, #20]
 80016f8:	f003 0304 	and.w	r3, r3, #4
 80016fc:	2b04      	cmp	r3, #4
 80016fe:	d11b      	bne.n	8001738 <HAL_I2C_Master_Transmit+0x188>
 8001700:	68fb      	ldr	r3, [r7, #12]
 8001702:	8d1b      	ldrh	r3, [r3, #40]	; 0x28
 8001704:	2b00      	cmp	r3, #0
 8001706:	d017      	beq.n	8001738 <HAL_I2C_Master_Transmit+0x188>
      {
        /* Write data to DR */
        hi2c->Instance->DR = *hi2c->pBuffPtr;
 8001708:	68fb      	ldr	r3, [r7, #12]
 800170a:	6a5b      	ldr	r3, [r3, #36]	; 0x24
 800170c:	781a      	ldrb	r2, [r3, #0]
 800170e:	68fb      	ldr	r3, [r7, #12]
 8001710:	681b      	ldr	r3, [r3, #0]
 8001712:	611a      	str	r2, [r3, #16]

        /* Increment Buffer pointer */
        hi2c->pBuffPtr++;
 8001714:	68fb      	ldr	r3, [r7, #12]
 8001716:	6a5b      	ldr	r3, [r3, #36]	; 0x24
 8001718:	1c5a      	adds	r2, r3, #1
 800171a:	68fb      	ldr	r3, [r7, #12]
 800171c:	625a      	str	r2, [r3, #36]	; 0x24

        /* Update counter */
        hi2c->XferCount--;
 800171e:	68fb      	ldr	r3, [r7, #12]
 8001720:	8d5b      	ldrh	r3, [r3, #42]	; 0x2a
 8001722:	b29b      	uxth	r3, r3
 8001724:	3b01      	subs	r3, #1
 8001726:	b29a      	uxth	r2, r3
 8001728:	68fb      	ldr	r3, [r7, #12]
 800172a:	855a      	strh	r2, [r3, #42]	; 0x2a
        hi2c->XferSize--;
 800172c:	68fb      	ldr	r3, [r7, #12]
 800172e:	8d1b      	ldrh	r3, [r3, #40]	; 0x28
 8001730:	3b01      	subs	r3, #1
 8001732:	b29a      	uxth	r2, r3
 8001734:	68fb      	ldr	r3, [r7, #12]
 8001736:	851a      	strh	r2, [r3, #40]	; 0x28
      }

      /* Wait until BTF flag is set */
      if (I2C_WaitOnBTFFlagUntilTimeout(hi2c, Timeout, tickstart) != HAL_OK)
 8001738:	697a      	ldr	r2, [r7, #20]
 800173a:	6a39      	ldr	r1, [r7, #32]
 800173c:	68f8      	ldr	r0, [r7, #12]
 800173e:	f000 fcfc 	bl	800213a <I2C_WaitOnBTFFlagUntilTimeout>
 8001742:	4603      	mov	r3, r0
 8001744:	2b00      	cmp	r3, #0
 8001746:	d00d      	beq.n	8001764 <HAL_I2C_Master_Transmit+0x1b4>
      {
        if (hi2c->ErrorCode == HAL_I2C_ERROR_AF)
 8001748:	68fb      	ldr	r3, [r7, #12]
 800174a:	6c1b      	ldr	r3, [r3, #64]	; 0x40
 800174c:	2b04      	cmp	r3, #4
 800174e:	d107      	bne.n	8001760 <HAL_I2C_Master_Transmit+0x1b0>
        {
          /* Generate Stop */
          SET_BIT(hi2c->Instance->CR1, I2C_CR1_STOP);
 8001750:	68fb      	ldr	r3, [r7, #12]
 8001752:	681b      	ldr	r3, [r3, #0]
 8001754:	681a      	ldr	r2, [r3, #0]
 8001756:	68fb      	ldr	r3, [r7, #12]
 8001758:	681b      	ldr	r3, [r3, #0]
 800175a:	f442 7200 	orr.w	r2, r2, #512	; 0x200
 800175e:	601a      	str	r2, [r3, #0]
        }
        return HAL_ERROR;
 8001760:	2301      	movs	r3, #1
 8001762:	e01a      	b.n	800179a <HAL_I2C_Master_Transmit+0x1ea>
    while (hi2c->XferSize > 0U)
 8001764:	68fb      	ldr	r3, [r7, #12]
 8001766:	8d1b      	ldrh	r3, [r3, #40]	; 0x28
 8001768:	2b00      	cmp	r3, #0
 800176a:	d194      	bne.n	8001696 <HAL_I2C_Master_Transmit+0xe6>
      }
    }

    /* Generate Stop */
    SET_BIT(hi2c->Instance->CR1, I2C_CR1_STOP);
 800176c:	68fb      	ldr	r3, [r7, #12]
 800176e:	681b      	ldr	r3, [r3, #0]
 8001770:	681a      	ldr	r2, [r3, #0]
 8001772:	68fb      	ldr	r3, [r7, #12]
 8001774:	681b      	ldr	r3, [r3, #0]
 8001776:	f442 7200 	orr.w	r2, r2, #512	; 0x200
 800177a:	601a      	str	r2, [r3, #0]

    hi2c->State = HAL_I2C_STATE_READY;
 800177c:	68fb      	ldr	r3, [r7, #12]
 800177e:	2220      	movs	r2, #32
 8001780:	f883 203d 	strb.w	r2, [r3, #61]	; 0x3d
    hi2c->Mode = HAL_I2C_MODE_NONE;
 8001784:	68fb      	ldr	r3, [r7, #12]
 8001786:	2200      	movs	r2, #0
 8001788:	f883 203e 	strb.w	r2, [r3, #62]	; 0x3e

    /* Process Unlocked */
    __HAL_UNLOCK(hi2c);
 800178c:	68fb      	ldr	r3, [r7, #12]
 800178e:	2200      	movs	r2, #0
 8001790:	f883 203c 	strb.w	r2, [r3, #60]	; 0x3c

    return HAL_OK;
 8001794:	2300      	movs	r3, #0
 8001796:	e000      	b.n	800179a <HAL_I2C_Master_Transmit+0x1ea>
  }
  else
  {
    return HAL_BUSY;
 8001798:	2302      	movs	r3, #2
  }
}
 800179a:	4618      	mov	r0, r3
 800179c:	3718      	adds	r7, #24
 800179e:	46bd      	mov	sp, r7
 80017a0:	bd80      	pop	{r7, pc}
 80017a2:	bf00      	nop
 80017a4:	00100002 	.word	0x00100002
 80017a8:	ffff0000 	.word	0xffff0000

080017ac <HAL_I2C_Master_Receive>:
  * @param  Size Amount of data to be sent
  * @param  Timeout Timeout duration
  * @retval HAL status
  */
HAL_StatusTypeDef HAL_I2C_Master_Receive(I2C_HandleTypeDef *hi2c, uint16_t DevAddress, uint8_t *pData, uint16_t Size, uint32_t Timeout)
{
 80017ac:	b580      	push	{r7, lr}
 80017ae:	b08c      	sub	sp, #48	; 0x30
 80017b0:	af02      	add	r7, sp, #8
 80017b2:	60f8      	str	r0, [r7, #12]
 80017b4:	607a      	str	r2, [r7, #4]
 80017b6:	461a      	mov	r2, r3
 80017b8:	460b      	mov	r3, r1
 80017ba:	817b      	strh	r3, [r7, #10]
 80017bc:	4613      	mov	r3, r2
 80017be:	813b      	strh	r3, [r7, #8]
  __IO uint32_t count = 0U;
 80017c0:	2300      	movs	r3, #0
 80017c2:	623b      	str	r3, [r7, #32]

  /* Init tickstart for timeout management*/
  uint32_t tickstart = HAL_GetTick();
 80017c4:	f7ff fa7a 	bl	8000cbc <HAL_GetTick>
 80017c8:	6278      	str	r0, [r7, #36]	; 0x24

  if (hi2c->State == HAL_I2C_STATE_READY)
 80017ca:	68fb      	ldr	r3, [r7, #12]
 80017cc:	f893 303d 	ldrb.w	r3, [r3, #61]	; 0x3d
 80017d0:	b2db      	uxtb	r3, r3
 80017d2:	2b20      	cmp	r3, #32
 80017d4:	f040 823f 	bne.w	8001c56 <HAL_I2C_Master_Receive+0x4aa>
  {
    /* Wait until BUSY flag is reset */
    if (I2C_WaitOnFlagUntilTimeout(hi2c, I2C_FLAG_BUSY, SET, I2C_TIMEOUT_BUSY_FLAG, tickstart) != HAL_OK)
 80017d8:	6a7b      	ldr	r3, [r7, #36]	; 0x24
 80017da:	9300      	str	r3, [sp, #0]
 80017dc:	2319      	movs	r3, #25
 80017de:	2201      	movs	r2, #1
 80017e0:	497f      	ldr	r1, [pc, #508]	; (80019e0 <HAL_I2C_Master_Receive+0x234>)
 80017e2:	68f8      	ldr	r0, [r7, #12]
 80017e4:	f000 fb92 	bl	8001f0c <I2C_WaitOnFlagUntilTimeout>
 80017e8:	4603      	mov	r3, r0
 80017ea:	2b00      	cmp	r3, #0
 80017ec:	d001      	beq.n	80017f2 <HAL_I2C_Master_Receive+0x46>
    {
      return HAL_BUSY;
 80017ee:	2302      	movs	r3, #2
 80017f0:	e232      	b.n	8001c58 <HAL_I2C_Master_Receive+0x4ac>
    }

    /* Process Locked */
    __HAL_LOCK(hi2c);
 80017f2:	68fb      	ldr	r3, [r7, #12]
 80017f4:	f893 303c 	ldrb.w	r3, [r3, #60]	; 0x3c
 80017f8:	2b01      	cmp	r3, #1
 80017fa:	d101      	bne.n	8001800 <HAL_I2C_Master_Receive+0x54>
 80017fc:	2302      	movs	r3, #2
 80017fe:	e22b      	b.n	8001c58 <HAL_I2C_Master_Receive+0x4ac>
 8001800:	68fb      	ldr	r3, [r7, #12]
 8001802:	2201      	movs	r2, #1
 8001804:	f883 203c 	strb.w	r2, [r3, #60]	; 0x3c

    /* Check if the I2C is already enabled */
    if ((hi2c->Instance->CR1 & I2C_CR1_PE) != I2C_CR1_PE)
 8001808:	68fb      	ldr	r3, [r7, #12]
 800180a:	681b      	ldr	r3, [r3, #0]
 800180c:	681b      	ldr	r3, [r3, #0]
 800180e:	f003 0301 	and.w	r3, r3, #1
 8001812:	2b01      	cmp	r3, #1
 8001814:	d007      	beq.n	8001826 <HAL_I2C_Master_Receive+0x7a>
    {
      /* Enable I2C peripheral */
      __HAL_I2C_ENABLE(hi2c);
 8001816:	68fb      	ldr	r3, [r7, #12]
 8001818:	681b      	ldr	r3, [r3, #0]
 800181a:	681a      	ldr	r2, [r3, #0]
 800181c:	68fb      	ldr	r3, [r7, #12]
 800181e:	681b      	ldr	r3, [r3, #0]
 8001820:	f042 0201 	orr.w	r2, r2, #1
 8001824:	601a      	str	r2, [r3, #0]
    }

    /* Disable Pos */
    CLEAR_BIT(hi2c->Instance->CR1, I2C_CR1_POS);
 8001826:	68fb      	ldr	r3, [r7, #12]
 8001828:	681b      	ldr	r3, [r3, #0]
 800182a:	681a      	ldr	r2, [r3, #0]
 800182c:	68fb      	ldr	r3, [r7, #12]
 800182e:	681b      	ldr	r3, [r3, #0]
 8001830:	f422 6200 	bic.w	r2, r2, #2048	; 0x800
 8001834:	601a      	str	r2, [r3, #0]

    hi2c->State       = HAL_I2C_STATE_BUSY_RX;
 8001836:	68fb      	ldr	r3, [r7, #12]
 8001838:	2222      	movs	r2, #34	; 0x22
 800183a:	f883 203d 	strb.w	r2, [r3, #61]	; 0x3d
    hi2c->Mode        = HAL_I2C_MODE_MASTER;
 800183e:	68fb      	ldr	r3, [r7, #12]
 8001840:	2210      	movs	r2, #16
 8001842:	f883 203e 	strb.w	r2, [r3, #62]	; 0x3e
    hi2c->ErrorCode   = HAL_I2C_ERROR_NONE;
 8001846:	68fb      	ldr	r3, [r7, #12]
 8001848:	2200      	movs	r2, #0
 800184a:	641a      	str	r2, [r3, #64]	; 0x40

    /* Prepare transfer parameters */
    hi2c->pBuffPtr    = pData;
 800184c:	68fb      	ldr	r3, [r7, #12]
 800184e:	687a      	ldr	r2, [r7, #4]
 8001850:	625a      	str	r2, [r3, #36]	; 0x24
    hi2c->XferCount   = Size;
 8001852:	68fb      	ldr	r3, [r7, #12]
 8001854:	893a      	ldrh	r2, [r7, #8]
 8001856:	855a      	strh	r2, [r3, #42]	; 0x2a
    hi2c->XferSize    = hi2c->XferCount;
 8001858:	68fb      	ldr	r3, [r7, #12]
 800185a:	8d5b      	ldrh	r3, [r3, #42]	; 0x2a
 800185c:	b29a      	uxth	r2, r3
 800185e:	68fb      	ldr	r3, [r7, #12]
 8001860:	851a      	strh	r2, [r3, #40]	; 0x28
    hi2c->XferOptions = I2C_NO_OPTION_FRAME;
 8001862:	68fb      	ldr	r3, [r7, #12]
 8001864:	4a5f      	ldr	r2, [pc, #380]	; (80019e4 <HAL_I2C_Master_Receive+0x238>)
 8001866:	62da      	str	r2, [r3, #44]	; 0x2c

    /* Send Slave Address */
    if (I2C_MasterRequestRead(hi2c, DevAddress, Timeout, tickstart) != HAL_OK)
 8001868:	8979      	ldrh	r1, [r7, #10]
 800186a:	6a7b      	ldr	r3, [r7, #36]	; 0x24
 800186c:	6b3a      	ldr	r2, [r7, #48]	; 0x30
 800186e:	68f8      	ldr	r0, [r7, #12]
 8001870:	f000 fa7e 	bl	8001d70 <I2C_MasterRequestRead>
 8001874:	4603      	mov	r3, r0
 8001876:	2b00      	cmp	r3, #0
 8001878:	d001      	beq.n	800187e <HAL_I2C_Master_Receive+0xd2>
    {
      return HAL_ERROR;
 800187a:	2301      	movs	r3, #1
 800187c:	e1ec      	b.n	8001c58 <HAL_I2C_Master_Receive+0x4ac>
    }

    if (hi2c->XferSize == 0U)
 800187e:	68fb      	ldr	r3, [r7, #12]
 8001880:	8d1b      	ldrh	r3, [r3, #40]	; 0x28
 8001882:	2b00      	cmp	r3, #0
 8001884:	d113      	bne.n	80018ae <HAL_I2C_Master_Receive+0x102>
    {
      /* Clear ADDR flag */
      __HAL_I2C_CLEAR_ADDRFLAG(hi2c);
 8001886:	2300      	movs	r3, #0
 8001888:	61fb      	str	r3, [r7, #28]
 800188a:	68fb      	ldr	r3, [r7, #12]
 800188c:	681b      	ldr	r3, [r3, #0]
 800188e:	695b      	ldr	r3, [r3, #20]
 8001890:	61fb      	str	r3, [r7, #28]
 8001892:	68fb      	ldr	r3, [r7, #12]
 8001894:	681b      	ldr	r3, [r3, #0]
 8001896:	699b      	ldr	r3, [r3, #24]
 8001898:	61fb      	str	r3, [r7, #28]
 800189a:	69fb      	ldr	r3, [r7, #28]

      /* Generate Stop */
      SET_BIT(hi2c->Instance->CR1, I2C_CR1_STOP);
 800189c:	68fb      	ldr	r3, [r7, #12]
 800189e:	681b      	ldr	r3, [r3, #0]
 80018a0:	681a      	ldr	r2, [r3, #0]
 80018a2:	68fb      	ldr	r3, [r7, #12]
 80018a4:	681b      	ldr	r3, [r3, #0]
 80018a6:	f442 7200 	orr.w	r2, r2, #512	; 0x200
 80018aa:	601a      	str	r2, [r3, #0]
 80018ac:	e1c0      	b.n	8001c30 <HAL_I2C_Master_Receive+0x484>
    }
    else if (hi2c->XferSize == 1U)
 80018ae:	68fb      	ldr	r3, [r7, #12]
 80018b0:	8d1b      	ldrh	r3, [r3, #40]	; 0x28
 80018b2:	2b01      	cmp	r3, #1
 80018b4:	d11e      	bne.n	80018f4 <HAL_I2C_Master_Receive+0x148>
    {
      /* Disable Acknowledge */
      CLEAR_BIT(hi2c->Instance->CR1, I2C_CR1_ACK);
 80018b6:	68fb      	ldr	r3, [r7, #12]
 80018b8:	681b      	ldr	r3, [r3, #0]
 80018ba:	681a      	ldr	r2, [r3, #0]
 80018bc:	68fb      	ldr	r3, [r7, #12]
 80018be:	681b      	ldr	r3, [r3, #0]
 80018c0:	f422 6280 	bic.w	r2, r2, #1024	; 0x400
 80018c4:	601a      	str	r2, [r3, #0]
  __ASM volatile ("cpsid i" : : : "memory");
 80018c6:	b672      	cpsid	i
}
 80018c8:	bf00      	nop
      /* Disable all active IRQs around ADDR clearing and STOP programming because the EV6_3
      software sequence must complete before the current byte end of transfer */
      __disable_irq();

      /* Clear ADDR flag */
      __HAL_I2C_CLEAR_ADDRFLAG(hi2c);
 80018ca:	2300      	movs	r3, #0
 80018cc:	61bb      	str	r3, [r7, #24]
 80018ce:	68fb      	ldr	r3, [r7, #12]
 80018d0:	681b      	ldr	r3, [r3, #0]
 80018d2:	695b      	ldr	r3, [r3, #20]
 80018d4:	61bb      	str	r3, [r7, #24]
 80018d6:	68fb      	ldr	r3, [r7, #12]
 80018d8:	681b      	ldr	r3, [r3, #0]
 80018da:	699b      	ldr	r3, [r3, #24]
 80018dc:	61bb      	str	r3, [r7, #24]
 80018de:	69bb      	ldr	r3, [r7, #24]

      /* Generate Stop */
      SET_BIT(hi2c->Instance->CR1, I2C_CR1_STOP);
 80018e0:	68fb      	ldr	r3, [r7, #12]
 80018e2:	681b      	ldr	r3, [r3, #0]
 80018e4:	681a      	ldr	r2, [r3, #0]
 80018e6:	68fb      	ldr	r3, [r7, #12]
 80018e8:	681b      	ldr	r3, [r3, #0]
 80018ea:	f442 7200 	orr.w	r2, r2, #512	; 0x200
 80018ee:	601a      	str	r2, [r3, #0]
  __ASM volatile ("cpsie i" : : : "memory");
 80018f0:	b662      	cpsie	i
}
 80018f2:	e035      	b.n	8001960 <HAL_I2C_Master_Receive+0x1b4>

      /* Re-enable IRQs */
      __enable_irq();
    }
    else if (hi2c->XferSize == 2U)
 80018f4:	68fb      	ldr	r3, [r7, #12]
 80018f6:	8d1b      	ldrh	r3, [r3, #40]	; 0x28
 80018f8:	2b02      	cmp	r3, #2
 80018fa:	d11e      	bne.n	800193a <HAL_I2C_Master_Receive+0x18e>
    {
      /* Enable Pos */
      SET_BIT(hi2c->Instance->CR1, I2C_CR1_POS);
 80018fc:	68fb      	ldr	r3, [r7, #12]
 80018fe:	681b      	ldr	r3, [r3, #0]
 8001900:	681a      	ldr	r2, [r3, #0]
 8001902:	68fb      	ldr	r3, [r7, #12]
 8001904:	681b      	ldr	r3, [r3, #0]
 8001906:	f442 6200 	orr.w	r2, r2, #2048	; 0x800
 800190a:	601a      	str	r2, [r3, #0]
  __ASM volatile ("cpsid i" : : : "memory");
 800190c:	b672      	cpsid	i
}
 800190e:	bf00      	nop
      /* Disable all active IRQs around ADDR clearing and STOP programming because the EV6_3
      software sequence must complete before the current byte end of transfer */
      __disable_irq();

      /* Clear ADDR flag */
      __HAL_I2C_CLEAR_ADDRFLAG(hi2c);
 8001910:	2300      	movs	r3, #0
 8001912:	617b      	str	r3, [r7, #20]
 8001914:	68fb      	ldr	r3, [r7, #12]
 8001916:	681b      	ldr	r3, [r3, #0]
 8001918:	695b      	ldr	r3, [r3, #20]
 800191a:	617b      	str	r3, [r7, #20]
 800191c:	68fb      	ldr	r3, [r7, #12]
 800191e:	681b      	ldr	r3, [r3, #0]
 8001920:	699b      	ldr	r3, [r3, #24]
 8001922:	617b      	str	r3, [r7, #20]
 8001924:	697b      	ldr	r3, [r7, #20]

      /* Disable Acknowledge */
      CLEAR_BIT(hi2c->Instance->CR1, I2C_CR1_ACK);
 8001926:	68fb      	ldr	r3, [r7, #12]
 8001928:	681b      	ldr	r3, [r3, #0]
 800192a:	681a      	ldr	r2, [r3, #0]
 800192c:	68fb      	ldr	r3, [r7, #12]
 800192e:	681b      	ldr	r3, [r3, #0]
 8001930:	f422 6280 	bic.w	r2, r2, #1024	; 0x400
 8001934:	601a      	str	r2, [r3, #0]
  __ASM volatile ("cpsie i" : : : "memory");
 8001936:	b662      	cpsie	i
}
 8001938:	e012      	b.n	8001960 <HAL_I2C_Master_Receive+0x1b4>
      __enable_irq();
    }
    else
    {
      /* Enable Acknowledge */
      SET_BIT(hi2c->Instance->CR1, I2C_CR1_ACK);
 800193a:	68fb      	ldr	r3, [r7, #12]
 800193c:	681b      	ldr	r3, [r3, #0]
 800193e:	681a      	ldr	r2, [r3, #0]
 8001940:	68fb      	ldr	r3, [r7, #12]
 8001942:	681b      	ldr	r3, [r3, #0]
 8001944:	f442 6280 	orr.w	r2, r2, #1024	; 0x400
 8001948:	601a      	str	r2, [r3, #0]

      /* Clear ADDR flag */
      __HAL_I2C_CLEAR_ADDRFLAG(hi2c);
 800194a:	2300      	movs	r3, #0
 800194c:	613b      	str	r3, [r7, #16]
 800194e:	68fb      	ldr	r3, [r7, #12]
 8001950:	681b      	ldr	r3, [r3, #0]
 8001952:	695b      	ldr	r3, [r3, #20]
 8001954:	613b      	str	r3, [r7, #16]
 8001956:	68fb      	ldr	r3, [r7, #12]
 8001958:	681b      	ldr	r3, [r3, #0]
 800195a:	699b      	ldr	r3, [r3, #24]
 800195c:	613b      	str	r3, [r7, #16]
 800195e:	693b      	ldr	r3, [r7, #16]
    }

    while (hi2c->XferSize > 0U)
 8001960:	e166      	b.n	8001c30 <HAL_I2C_Master_Receive+0x484>
    {
      if (hi2c->XferSize <= 3U)
 8001962:	68fb      	ldr	r3, [r7, #12]
 8001964:	8d1b      	ldrh	r3, [r3, #40]	; 0x28
 8001966:	2b03      	cmp	r3, #3
 8001968:	f200 811f 	bhi.w	8001baa <HAL_I2C_Master_Receive+0x3fe>
      {
        /* One byte */
        if (hi2c->XferSize == 1U)
 800196c:	68fb      	ldr	r3, [r7, #12]
 800196e:	8d1b      	ldrh	r3, [r3, #40]	; 0x28
 8001970:	2b01      	cmp	r3, #1
 8001972:	d123      	bne.n	80019bc <HAL_I2C_Master_Receive+0x210>
        {
          /* Wait until RXNE flag is set */
          if (I2C_WaitOnRXNEFlagUntilTimeout(hi2c, Timeout, tickstart) != HAL_OK)
 8001974:	6a7a      	ldr	r2, [r7, #36]	; 0x24
 8001976:	6b39      	ldr	r1, [r7, #48]	; 0x30
 8001978:	68f8      	ldr	r0, [r7, #12]
 800197a:	f000 fc1f 	bl	80021bc <I2C_WaitOnRXNEFlagUntilTimeout>
 800197e:	4603      	mov	r3, r0
 8001980:	2b00      	cmp	r3, #0
 8001982:	d001      	beq.n	8001988 <HAL_I2C_Master_Receive+0x1dc>
          {
            return HAL_ERROR;
 8001984:	2301      	movs	r3, #1
 8001986:	e167      	b.n	8001c58 <HAL_I2C_Master_Receive+0x4ac>
          }

          /* Read data from DR */
          *hi2c->pBuffPtr = (uint8_t)hi2c->Instance->DR;
 8001988:	68fb      	ldr	r3, [r7, #12]
 800198a:	681b      	ldr	r3, [r3, #0]
 800198c:	691a      	ldr	r2, [r3, #16]
 800198e:	68fb      	ldr	r3, [r7, #12]
 8001990:	6a5b      	ldr	r3, [r3, #36]	; 0x24
 8001992:	b2d2      	uxtb	r2, r2
 8001994:	701a      	strb	r2, [r3, #0]

          /* Increment Buffer pointer */
          hi2c->pBuffPtr++;
 8001996:	68fb      	ldr	r3, [r7, #12]
 8001998:	6a5b      	ldr	r3, [r3, #36]	; 0x24
 800199a:	1c5a      	adds	r2, r3, #1
 800199c:	68fb      	ldr	r3, [r7, #12]
 800199e:	625a      	str	r2, [r3, #36]	; 0x24

          /* Update counter */
          hi2c->XferSize--;
 80019a0:	68fb      	ldr	r3, [r7, #12]
 80019a2:	8d1b      	ldrh	r3, [r3, #40]	; 0x28
 80019a4:	3b01      	subs	r3, #1
 80019a6:	b29a      	uxth	r2, r3
 80019a8:	68fb      	ldr	r3, [r7, #12]
 80019aa:	851a      	strh	r2, [r3, #40]	; 0x28
          hi2c->XferCount--;
 80019ac:	68fb      	ldr	r3, [r7, #12]
 80019ae:	8d5b      	ldrh	r3, [r3, #42]	; 0x2a
 80019b0:	b29b      	uxth	r3, r3
 80019b2:	3b01      	subs	r3, #1
 80019b4:	b29a      	uxth	r2, r3
 80019b6:	68fb      	ldr	r3, [r7, #12]
 80019b8:	855a      	strh	r2, [r3, #42]	; 0x2a
 80019ba:	e139      	b.n	8001c30 <HAL_I2C_Master_Receive+0x484>
        }
        /* Two bytes */
        else if (hi2c->XferSize == 2U)
 80019bc:	68fb      	ldr	r3, [r7, #12]
 80019be:	8d1b      	ldrh	r3, [r3, #40]	; 0x28
 80019c0:	2b02      	cmp	r3, #2
 80019c2:	d152      	bne.n	8001a6a <HAL_I2C_Master_Receive+0x2be>
        {
          /* Wait until BTF flag is set */
          if (I2C_WaitOnFlagUntilTimeout(hi2c, I2C_FLAG_BTF, RESET, Timeout, tickstart) != HAL_OK)
 80019c4:	6a7b      	ldr	r3, [r7, #36]	; 0x24
 80019c6:	9300      	str	r3, [sp, #0]
 80019c8:	6b3b      	ldr	r3, [r7, #48]	; 0x30
 80019ca:	2200      	movs	r2, #0
 80019cc:	4906      	ldr	r1, [pc, #24]	; (80019e8 <HAL_I2C_Master_Receive+0x23c>)
 80019ce:	68f8      	ldr	r0, [r7, #12]
 80019d0:	f000 fa9c 	bl	8001f0c <I2C_WaitOnFlagUntilTimeout>
 80019d4:	4603      	mov	r3, r0
 80019d6:	2b00      	cmp	r3, #0
 80019d8:	d008      	beq.n	80019ec <HAL_I2C_Master_Receive+0x240>
          {
            return HAL_ERROR;
 80019da:	2301      	movs	r3, #1
 80019dc:	e13c      	b.n	8001c58 <HAL_I2C_Master_Receive+0x4ac>
 80019de:	bf00      	nop
 80019e0:	00100002 	.word	0x00100002
 80019e4:	ffff0000 	.word	0xffff0000
 80019e8:	00010004 	.word	0x00010004
  __ASM volatile ("cpsid i" : : : "memory");
 80019ec:	b672      	cpsid	i
}
 80019ee:	bf00      	nop
          /* Disable all active IRQs around ADDR clearing and STOP programming because the EV6_3
             software sequence must complete before the current byte end of transfer */
          __disable_irq();

          /* Generate Stop */
          SET_BIT(hi2c->Instance->CR1, I2C_CR1_STOP);
 80019f0:	68fb      	ldr	r3, [r7, #12]
 80019f2:	681b      	ldr	r3, [r3, #0]
 80019f4:	681a      	ldr	r2, [r3, #0]
 80019f6:	68fb      	ldr	r3, [r7, #12]
 80019f8:	681b      	ldr	r3, [r3, #0]
 80019fa:	f442 7200 	orr.w	r2, r2, #512	; 0x200
 80019fe:	601a      	str	r2, [r3, #0]

          /* Read data from DR */
          *hi2c->pBuffPtr = (uint8_t)hi2c->Instance->DR;
 8001a00:	68fb      	ldr	r3, [r7, #12]
 8001a02:	681b      	ldr	r3, [r3, #0]
 8001a04:	691a      	ldr	r2, [r3, #16]
 8001a06:	68fb      	ldr	r3, [r7, #12]
 8001a08:	6a5b      	ldr	r3, [r3, #36]	; 0x24
 8001a0a:	b2d2      	uxtb	r2, r2
 8001a0c:	701a      	strb	r2, [r3, #0]

          /* Increment Buffer pointer */
          hi2c->pBuffPtr++;
 8001a0e:	68fb      	ldr	r3, [r7, #12]
 8001a10:	6a5b      	ldr	r3, [r3, #36]	; 0x24
 8001a12:	1c5a      	adds	r2, r3, #1
 8001a14:	68fb      	ldr	r3, [r7, #12]
 8001a16:	625a      	str	r2, [r3, #36]	; 0x24

          /* Update counter */
          hi2c->XferSize--;
 8001a18:	68fb      	ldr	r3, [r7, #12]
 8001a1a:	8d1b      	ldrh	r3, [r3, #40]	; 0x28
 8001a1c:	3b01      	subs	r3, #1
 8001a1e:	b29a      	uxth	r2, r3
 8001a20:	68fb      	ldr	r3, [r7, #12]
 8001a22:	851a      	strh	r2, [r3, #40]	; 0x28
          hi2c->XferCount--;
 8001a24:	68fb      	ldr	r3, [r7, #12]
 8001a26:	8d5b      	ldrh	r3, [r3, #42]	; 0x2a
 8001a28:	b29b      	uxth	r3, r3
 8001a2a:	3b01      	subs	r3, #1
 8001a2c:	b29a      	uxth	r2, r3
 8001a2e:	68fb      	ldr	r3, [r7, #12]
 8001a30:	855a      	strh	r2, [r3, #42]	; 0x2a
  __ASM volatile ("cpsie i" : : : "memory");
 8001a32:	b662      	cpsie	i
}
 8001a34:	bf00      	nop

          /* Re-enable IRQs */
          __enable_irq();

          /* Read data from DR */
          *hi2c->pBuffPtr = (uint8_t)hi2c->Instance->DR;
 8001a36:	68fb      	ldr	r3, [r7, #12]
 8001a38:	681b      	ldr	r3, [r3, #0]
 8001a3a:	691a      	ldr	r2, [r3, #16]
 8001a3c:	68fb      	ldr	r3, [r7, #12]
 8001a3e:	6a5b      	ldr	r3, [r3, #36]	; 0x24
 8001a40:	b2d2      	uxtb	r2, r2
 8001a42:	701a      	strb	r2, [r3, #0]

          /* Increment Buffer pointer */
          hi2c->pBuffPtr++;
 8001a44:	68fb      	ldr	r3, [r7, #12]
 8001a46:	6a5b      	ldr	r3, [r3, #36]	; 0x24
 8001a48:	1c5a      	adds	r2, r3, #1
 8001a4a:	68fb      	ldr	r3, [r7, #12]
 8001a4c:	625a      	str	r2, [r3, #36]	; 0x24

          /* Update counter */
          hi2c->XferSize--;
 8001a4e:	68fb      	ldr	r3, [r7, #12]
 8001a50:	8d1b      	ldrh	r3, [r3, #40]	; 0x28
 8001a52:	3b01      	subs	r3, #1
 8001a54:	b29a      	uxth	r2, r3
 8001a56:	68fb      	ldr	r3, [r7, #12]
 8001a58:	851a      	strh	r2, [r3, #40]	; 0x28
          hi2c->XferCount--;
 8001a5a:	68fb      	ldr	r3, [r7, #12]
 8001a5c:	8d5b      	ldrh	r3, [r3, #42]	; 0x2a
 8001a5e:	b29b      	uxth	r3, r3
 8001a60:	3b01      	subs	r3, #1
 8001a62:	b29a      	uxth	r2, r3
 8001a64:	68fb      	ldr	r3, [r7, #12]
 8001a66:	855a      	strh	r2, [r3, #42]	; 0x2a
 8001a68:	e0e2      	b.n	8001c30 <HAL_I2C_Master_Receive+0x484>
        }
        /* 3 Last bytes */
        else
        {
          /* Wait until BTF flag is set */
          if (I2C_WaitOnFlagUntilTimeout(hi2c, I2C_FLAG_BTF, RESET, Timeout, tickstart) != HAL_OK)
 8001a6a:	6a7b      	ldr	r3, [r7, #36]	; 0x24
 8001a6c:	9300      	str	r3, [sp, #0]
 8001a6e:	6b3b      	ldr	r3, [r7, #48]	; 0x30
 8001a70:	2200      	movs	r2, #0
 8001a72:	497b      	ldr	r1, [pc, #492]	; (8001c60 <HAL_I2C_Master_Receive+0x4b4>)
 8001a74:	68f8      	ldr	r0, [r7, #12]
 8001a76:	f000 fa49 	bl	8001f0c <I2C_WaitOnFlagUntilTimeout>
 8001a7a:	4603      	mov	r3, r0
 8001a7c:	2b00      	cmp	r3, #0
 8001a7e:	d001      	beq.n	8001a84 <HAL_I2C_Master_Receive+0x2d8>
          {
            return HAL_ERROR;
 8001a80:	2301      	movs	r3, #1
 8001a82:	e0e9      	b.n	8001c58 <HAL_I2C_Master_Receive+0x4ac>
          }

          /* Disable Acknowledge */
          CLEAR_BIT(hi2c->Instance->CR1, I2C_CR1_ACK);
 8001a84:	68fb      	ldr	r3, [r7, #12]
 8001a86:	681b      	ldr	r3, [r3, #0]
 8001a88:	681a      	ldr	r2, [r3, #0]
 8001a8a:	68fb      	ldr	r3, [r7, #12]
 8001a8c:	681b      	ldr	r3, [r3, #0]
 8001a8e:	f422 6280 	bic.w	r2, r2, #1024	; 0x400
 8001a92:	601a      	str	r2, [r3, #0]
  __ASM volatile ("cpsid i" : : : "memory");
 8001a94:	b672      	cpsid	i
}
 8001a96:	bf00      	nop
          /* Disable all active IRQs around ADDR clearing and STOP programming because the EV6_3
             software sequence must complete before the current byte end of transfer */
          __disable_irq();

          /* Read data from DR */
          *hi2c->pBuffPtr = (uint8_t)hi2c->Instance->DR;
 8001a98:	68fb      	ldr	r3, [r7, #12]
 8001a9a:	681b      	ldr	r3, [r3, #0]
 8001a9c:	691a      	ldr	r2, [r3, #16]
 8001a9e:	68fb      	ldr	r3, [r7, #12]
 8001aa0:	6a5b      	ldr	r3, [r3, #36]	; 0x24
 8001aa2:	b2d2      	uxtb	r2, r2
 8001aa4:	701a      	strb	r2, [r3, #0]

          /* Increment Buffer pointer */
          hi2c->pBuffPtr++;
 8001aa6:	68fb      	ldr	r3, [r7, #12]
 8001aa8:	6a5b      	ldr	r3, [r3, #36]	; 0x24
 8001aaa:	1c5a      	adds	r2, r3, #1
 8001aac:	68fb      	ldr	r3, [r7, #12]
 8001aae:	625a      	str	r2, [r3, #36]	; 0x24

          /* Update counter */
          hi2c->XferSize--;
 8001ab0:	68fb      	ldr	r3, [r7, #12]
 8001ab2:	8d1b      	ldrh	r3, [r3, #40]	; 0x28
 8001ab4:	3b01      	subs	r3, #1
 8001ab6:	b29a      	uxth	r2, r3
 8001ab8:	68fb      	ldr	r3, [r7, #12]
 8001aba:	851a      	strh	r2, [r3, #40]	; 0x28
          hi2c->XferCount--;
 8001abc:	68fb      	ldr	r3, [r7, #12]
 8001abe:	8d5b      	ldrh	r3, [r3, #42]	; 0x2a
 8001ac0:	b29b      	uxth	r3, r3
 8001ac2:	3b01      	subs	r3, #1
 8001ac4:	b29a      	uxth	r2, r3
 8001ac6:	68fb      	ldr	r3, [r7, #12]
 8001ac8:	855a      	strh	r2, [r3, #42]	; 0x2a

          /* Wait until BTF flag is set */
          count = I2C_TIMEOUT_FLAG * (SystemCoreClock / 25U / 1000U);
 8001aca:	4b66      	ldr	r3, [pc, #408]	; (8001c64 <HAL_I2C_Master_Receive+0x4b8>)
 8001acc:	681b      	ldr	r3, [r3, #0]
 8001ace:	08db      	lsrs	r3, r3, #3
 8001ad0:	4a65      	ldr	r2, [pc, #404]	; (8001c68 <HAL_I2C_Master_Receive+0x4bc>)
 8001ad2:	fba2 2303 	umull	r2, r3, r2, r3
 8001ad6:	0a1a      	lsrs	r2, r3, #8
 8001ad8:	4613      	mov	r3, r2
 8001ada:	009b      	lsls	r3, r3, #2
 8001adc:	4413      	add	r3, r2
 8001ade:	00da      	lsls	r2, r3, #3
 8001ae0:	1ad3      	subs	r3, r2, r3
 8001ae2:	623b      	str	r3, [r7, #32]
          do
          {
            count--;
 8001ae4:	6a3b      	ldr	r3, [r7, #32]
 8001ae6:	3b01      	subs	r3, #1
 8001ae8:	623b      	str	r3, [r7, #32]
            if (count == 0U)
 8001aea:	6a3b      	ldr	r3, [r7, #32]
 8001aec:	2b00      	cmp	r3, #0
 8001aee:	d118      	bne.n	8001b22 <HAL_I2C_Master_Receive+0x376>
            {
              hi2c->PreviousState       = I2C_STATE_NONE;
 8001af0:	68fb      	ldr	r3, [r7, #12]
 8001af2:	2200      	movs	r2, #0
 8001af4:	631a      	str	r2, [r3, #48]	; 0x30
              hi2c->State               = HAL_I2C_STATE_READY;
 8001af6:	68fb      	ldr	r3, [r7, #12]
 8001af8:	2220      	movs	r2, #32
 8001afa:	f883 203d 	strb.w	r2, [r3, #61]	; 0x3d
              hi2c->Mode                = HAL_I2C_MODE_NONE;
 8001afe:	68fb      	ldr	r3, [r7, #12]
 8001b00:	2200      	movs	r2, #0
 8001b02:	f883 203e 	strb.w	r2, [r3, #62]	; 0x3e
              hi2c->ErrorCode           |= HAL_I2C_ERROR_TIMEOUT;
 8001b06:	68fb      	ldr	r3, [r7, #12]
 8001b08:	6c1b      	ldr	r3, [r3, #64]	; 0x40
 8001b0a:	f043 0220 	orr.w	r2, r3, #32
 8001b0e:	68fb      	ldr	r3, [r7, #12]
 8001b10:	641a      	str	r2, [r3, #64]	; 0x40
  __ASM volatile ("cpsie i" : : : "memory");
 8001b12:	b662      	cpsie	i
}
 8001b14:	bf00      	nop

              /* Re-enable IRQs */
              __enable_irq();

              /* Process Unlocked */
              __HAL_UNLOCK(hi2c);
 8001b16:	68fb      	ldr	r3, [r7, #12]
 8001b18:	2200      	movs	r2, #0
 8001b1a:	f883 203c 	strb.w	r2, [r3, #60]	; 0x3c

              return HAL_ERROR;
 8001b1e:	2301      	movs	r3, #1
 8001b20:	e09a      	b.n	8001c58 <HAL_I2C_Master_Receive+0x4ac>
            }
          }
          while (__HAL_I2C_GET_FLAG(hi2c, I2C_FLAG_BTF) == RESET);
 8001b22:	68fb      	ldr	r3, [r7, #12]
 8001b24:	681b      	ldr	r3, [r3, #0]
 8001b26:	695b      	ldr	r3, [r3, #20]
 8001b28:	f003 0304 	and.w	r3, r3, #4
 8001b2c:	2b04      	cmp	r3, #4
 8001b2e:	d1d9      	bne.n	8001ae4 <HAL_I2C_Master_Receive+0x338>

          /* Generate Stop */
          SET_BIT(hi2c->Instance->CR1, I2C_CR1_STOP);
 8001b30:	68fb      	ldr	r3, [r7, #12]
 8001b32:	681b      	ldr	r3, [r3, #0]
 8001b34:	681a      	ldr	r2, [r3, #0]
 8001b36:	68fb      	ldr	r3, [r7, #12]
 8001b38:	681b      	ldr	r3, [r3, #0]
 8001b3a:	f442 7200 	orr.w	r2, r2, #512	; 0x200
 8001b3e:	601a      	str	r2, [r3, #0]

          /* Read data from DR */
          *hi2c->pBuffPtr = (uint8_t)hi2c->Instance->DR;
 8001b40:	68fb      	ldr	r3, [r7, #12]
 8001b42:	681b      	ldr	r3, [r3, #0]
 8001b44:	691a      	ldr	r2, [r3, #16]
 8001b46:	68fb      	ldr	r3, [r7, #12]
 8001b48:	6a5b      	ldr	r3, [r3, #36]	; 0x24
 8001b4a:	b2d2      	uxtb	r2, r2
 8001b4c:	701a      	strb	r2, [r3, #0]

          /* Increment Buffer pointer */
          hi2c->pBuffPtr++;
 8001b4e:	68fb      	ldr	r3, [r7, #12]
 8001b50:	6a5b      	ldr	r3, [r3, #36]	; 0x24
 8001b52:	1c5a      	adds	r2, r3, #1
 8001b54:	68fb      	ldr	r3, [r7, #12]
 8001b56:	625a      	str	r2, [r3, #36]	; 0x24

          /* Update counter */
          hi2c->XferSize--;
 8001b58:	68fb      	ldr	r3, [r7, #12]
 8001b5a:	8d1b      	ldrh	r3, [r3, #40]	; 0x28
 8001b5c:	3b01      	subs	r3, #1
 8001b5e:	b29a      	uxth	r2, r3
 8001b60:	68fb      	ldr	r3, [r7, #12]
 8001b62:	851a      	strh	r2, [r3, #40]	; 0x28
          hi2c->XferCount--;
 8001b64:	68fb      	ldr	r3, [r7, #12]
 8001b66:	8d5b      	ldrh	r3, [r3, #42]	; 0x2a
 8001b68:	b29b      	uxth	r3, r3
 8001b6a:	3b01      	subs	r3, #1
 8001b6c:	b29a      	uxth	r2, r3
 8001b6e:	68fb      	ldr	r3, [r7, #12]
 8001b70:	855a      	strh	r2, [r3, #42]	; 0x2a
  __ASM volatile ("cpsie i" : : : "memory");
 8001b72:	b662      	cpsie	i
}
 8001b74:	bf00      	nop

          /* Re-enable IRQs */
          __enable_irq();

          /* Read data from DR */
          *hi2c->pBuffPtr = (uint8_t)hi2c->Instance->DR;
 8001b76:	68fb      	ldr	r3, [r7, #12]
 8001b78:	681b      	ldr	r3, [r3, #0]
 8001b7a:	691a      	ldr	r2, [r3, #16]
 8001b7c:	68fb      	ldr	r3, [r7, #12]
 8001b7e:	6a5b      	ldr	r3, [r3, #36]	; 0x24
 8001b80:	b2d2      	uxtb	r2, r2
 8001b82:	701a      	strb	r2, [r3, #0]

          /* Increment Buffer pointer */
          hi2c->pBuffPtr++;
 8001b84:	68fb      	ldr	r3, [r7, #12]
 8001b86:	6a5b      	ldr	r3, [r3, #36]	; 0x24
 8001b88:	1c5a      	adds	r2, r3, #1
 8001b8a:	68fb      	ldr	r3, [r7, #12]
 8001b8c:	625a      	str	r2, [r3, #36]	; 0x24

          /* Update counter */
          hi2c->XferSize--;
 8001b8e:	68fb      	ldr	r3, [r7, #12]
 8001b90:	8d1b      	ldrh	r3, [r3, #40]	; 0x28
 8001b92:	3b01      	subs	r3, #1
 8001b94:	b29a      	uxth	r2, r3
 8001b96:	68fb      	ldr	r3, [r7, #12]
 8001b98:	851a      	strh	r2, [r3, #40]	; 0x28
          hi2c->XferCount--;
 8001b9a:	68fb      	ldr	r3, [r7, #12]
 8001b9c:	8d5b      	ldrh	r3, [r3, #42]	; 0x2a
 8001b9e:	b29b      	uxth	r3, r3
 8001ba0:	3b01      	subs	r3, #1
 8001ba2:	b29a      	uxth	r2, r3
 8001ba4:	68fb      	ldr	r3, [r7, #12]
 8001ba6:	855a      	strh	r2, [r3, #42]	; 0x2a
 8001ba8:	e042      	b.n	8001c30 <HAL_I2C_Master_Receive+0x484>
        }
      }
      else
      {
        /* Wait until RXNE flag is set */
        if (I2C_WaitOnRXNEFlagUntilTimeout(hi2c, Timeout, tickstart) != HAL_OK)
 8001baa:	6a7a      	ldr	r2, [r7, #36]	; 0x24
 8001bac:	6b39      	ldr	r1, [r7, #48]	; 0x30
 8001bae:	68f8      	ldr	r0, [r7, #12]
 8001bb0:	f000 fb04 	bl	80021bc <I2C_WaitOnRXNEFlagUntilTimeout>
 8001bb4:	4603      	mov	r3, r0
 8001bb6:	2b00      	cmp	r3, #0
 8001bb8:	d001      	beq.n	8001bbe <HAL_I2C_Master_Receive+0x412>
        {
          return HAL_ERROR;
 8001bba:	2301      	movs	r3, #1
 8001bbc:	e04c      	b.n	8001c58 <HAL_I2C_Master_Receive+0x4ac>
        }

        /* Read data from DR */
        *hi2c->pBuffPtr = (uint8_t)hi2c->Instance->DR;
 8001bbe:	68fb      	ldr	r3, [r7, #12]
 8001bc0:	681b      	ldr	r3, [r3, #0]
 8001bc2:	691a      	ldr	r2, [r3, #16]
 8001bc4:	68fb      	ldr	r3, [r7, #12]
 8001bc6:	6a5b      	ldr	r3, [r3, #36]	; 0x24
 8001bc8:	b2d2      	uxtb	r2, r2
 8001bca:	701a      	strb	r2, [r3, #0]

        /* Increment Buffer pointer */
        hi2c->pBuffPtr++;
 8001bcc:	68fb      	ldr	r3, [r7, #12]
 8001bce:	6a5b      	ldr	r3, [r3, #36]	; 0x24
 8001bd0:	1c5a      	adds	r2, r3, #1
 8001bd2:	68fb      	ldr	r3, [r7, #12]
 8001bd4:	625a      	str	r2, [r3, #36]	; 0x24

        /* Update counter */
        hi2c->XferSize--;
 8001bd6:	68fb      	ldr	r3, [r7, #12]
 8001bd8:	8d1b      	ldrh	r3, [r3, #40]	; 0x28
 8001bda:	3b01      	subs	r3, #1
 8001bdc:	b29a      	uxth	r2, r3
 8001bde:	68fb      	ldr	r3, [r7, #12]
 8001be0:	851a      	strh	r2, [r3, #40]	; 0x28
        hi2c->XferCount--;
 8001be2:	68fb      	ldr	r3, [r7, #12]
 8001be4:	8d5b      	ldrh	r3, [r3, #42]	; 0x2a
 8001be6:	b29b      	uxth	r3, r3
 8001be8:	3b01      	subs	r3, #1
 8001bea:	b29a      	uxth	r2, r3
 8001bec:	68fb      	ldr	r3, [r7, #12]
 8001bee:	855a      	strh	r2, [r3, #42]	; 0x2a

        if (__HAL_I2C_GET_FLAG(hi2c, I2C_FLAG_BTF) == SET)
 8001bf0:	68fb      	ldr	r3, [r7, #12]
 8001bf2:	681b      	ldr	r3, [r3, #0]
 8001bf4:	695b      	ldr	r3, [r3, #20]
 8001bf6:	f003 0304 	and.w	r3, r3, #4
 8001bfa:	2b04      	cmp	r3, #4
 8001bfc:	d118      	bne.n	8001c30 <HAL_I2C_Master_Receive+0x484>
        {
          /* Read data from DR */
          *hi2c->pBuffPtr = (uint8_t)hi2c->Instance->DR;
 8001bfe:	68fb      	ldr	r3, [r7, #12]
 8001c00:	681b      	ldr	r3, [r3, #0]
 8001c02:	691a      	ldr	r2, [r3, #16]
 8001c04:	68fb      	ldr	r3, [r7, #12]
 8001c06:	6a5b      	ldr	r3, [r3, #36]	; 0x24
 8001c08:	b2d2      	uxtb	r2, r2
 8001c0a:	701a      	strb	r2, [r3, #0]

          /* Increment Buffer pointer */
          hi2c->pBuffPtr++;
 8001c0c:	68fb      	ldr	r3, [r7, #12]
 8001c0e:	6a5b      	ldr	r3, [r3, #36]	; 0x24
 8001c10:	1c5a      	adds	r2, r3, #1
 8001c12:	68fb      	ldr	r3, [r7, #12]
 8001c14:	625a      	str	r2, [r3, #36]	; 0x24

          /* Update counter */
          hi2c->XferSize--;
 8001c16:	68fb      	ldr	r3, [r7, #12]
 8001c18:	8d1b      	ldrh	r3, [r3, #40]	; 0x28
 8001c1a:	3b01      	subs	r3, #1
 8001c1c:	b29a      	uxth	r2, r3
 8001c1e:	68fb      	ldr	r3, [r7, #12]
 8001c20:	851a      	strh	r2, [r3, #40]	; 0x28
          hi2c->XferCount--;
 8001c22:	68fb      	ldr	r3, [r7, #12]
 8001c24:	8d5b      	ldrh	r3, [r3, #42]	; 0x2a
 8001c26:	b29b      	uxth	r3, r3
 8001c28:	3b01      	subs	r3, #1
 8001c2a:	b29a      	uxth	r2, r3
 8001c2c:	68fb      	ldr	r3, [r7, #12]
 8001c2e:	855a      	strh	r2, [r3, #42]	; 0x2a
    while (hi2c->XferSize > 0U)
 8001c30:	68fb      	ldr	r3, [r7, #12]
 8001c32:	8d1b      	ldrh	r3, [r3, #40]	; 0x28
 8001c34:	2b00      	cmp	r3, #0
 8001c36:	f47f ae94 	bne.w	8001962 <HAL_I2C_Master_Receive+0x1b6>
        }
      }
    }

    hi2c->State = HAL_I2C_STATE_READY;
 8001c3a:	68fb      	ldr	r3, [r7, #12]
 8001c3c:	2220      	movs	r2, #32
 8001c3e:	f883 203d 	strb.w	r2, [r3, #61]	; 0x3d
    hi2c->Mode = HAL_I2C_MODE_NONE;
 8001c42:	68fb      	ldr	r3, [r7, #12]
 8001c44:	2200      	movs	r2, #0
 8001c46:	f883 203e 	strb.w	r2, [r3, #62]	; 0x3e

    /* Process Unlocked */
    __HAL_UNLOCK(hi2c);
 8001c4a:	68fb      	ldr	r3, [r7, #12]
 8001c4c:	2200      	movs	r2, #0
 8001c4e:	f883 203c 	strb.w	r2, [r3, #60]	; 0x3c

    return HAL_OK;
 8001c52:	2300      	movs	r3, #0
 8001c54:	e000      	b.n	8001c58 <HAL_I2C_Master_Receive+0x4ac>
  }
  else
  {
    return HAL_BUSY;
 8001c56:	2302      	movs	r3, #2
  }
}
 8001c58:	4618      	mov	r0, r3
 8001c5a:	3728      	adds	r7, #40	; 0x28
 8001c5c:	46bd      	mov	sp, r7
 8001c5e:	bd80      	pop	{r7, pc}
 8001c60:	00010004 	.word	0x00010004
 8001c64:	20000000 	.word	0x20000000
 8001c68:	14f8b589 	.word	0x14f8b589

08001c6c <I2C_MasterRequestWrite>:
  * @param  Timeout Timeout duration
  * @param  Tickstart Tick start value
  * @retval HAL status
  */
static HAL_StatusTypeDef I2C_MasterRequestWrite(I2C_HandleTypeDef *hi2c, uint16_t DevAddress, uint32_t Timeout, uint32_t Tickstart)
{
 8001c6c:	b580      	push	{r7, lr}
 8001c6e:	b088      	sub	sp, #32
 8001c70:	af02      	add	r7, sp, #8
 8001c72:	60f8      	str	r0, [r7, #12]
 8001c74:	607a      	str	r2, [r7, #4]
 8001c76:	603b      	str	r3, [r7, #0]
 8001c78:	460b      	mov	r3, r1
 8001c7a:	817b      	strh	r3, [r7, #10]
  /* Declaration of temporary variable to prevent undefined behavior of volatile usage */
  uint32_t CurrentXferOptions = hi2c->XferOptions;
 8001c7c:	68fb      	ldr	r3, [r7, #12]
 8001c7e:	6adb      	ldr	r3, [r3, #44]	; 0x2c
 8001c80:	617b      	str	r3, [r7, #20]

  /* Generate Start condition if first transfer */
  if ((CurrentXferOptions == I2C_FIRST_AND_LAST_FRAME) || (CurrentXferOptions == I2C_FIRST_FRAME) || (CurrentXferOptions == I2C_NO_OPTION_FRAME))
 8001c82:	697b      	ldr	r3, [r7, #20]
 8001c84:	2b08      	cmp	r3, #8
 8001c86:	d006      	beq.n	8001c96 <I2C_MasterRequestWrite+0x2a>
 8001c88:	697b      	ldr	r3, [r7, #20]
 8001c8a:	2b01      	cmp	r3, #1
 8001c8c:	d003      	beq.n	8001c96 <I2C_MasterRequestWrite+0x2a>
 8001c8e:	697b      	ldr	r3, [r7, #20]
 8001c90:	f513 3f80 	cmn.w	r3, #65536	; 0x10000
 8001c94:	d108      	bne.n	8001ca8 <I2C_MasterRequestWrite+0x3c>
  {
    /* Generate Start */
    SET_BIT(hi2c->Instance->CR1, I2C_CR1_START);
 8001c96:	68fb      	ldr	r3, [r7, #12]
 8001c98:	681b      	ldr	r3, [r3, #0]
 8001c9a:	681a      	ldr	r2, [r3, #0]
 8001c9c:	68fb      	ldr	r3, [r7, #12]
 8001c9e:	681b      	ldr	r3, [r3, #0]
 8001ca0:	f442 7280 	orr.w	r2, r2, #256	; 0x100
 8001ca4:	601a      	str	r2, [r3, #0]
 8001ca6:	e00b      	b.n	8001cc0 <I2C_MasterRequestWrite+0x54>
  }
  else if (hi2c->PreviousState == I2C_STATE_MASTER_BUSY_RX)
 8001ca8:	68fb      	ldr	r3, [r7, #12]
 8001caa:	6b1b      	ldr	r3, [r3, #48]	; 0x30
 8001cac:	2b12      	cmp	r3, #18
 8001cae:	d107      	bne.n	8001cc0 <I2C_MasterRequestWrite+0x54>
  {
    /* Generate ReStart */
    SET_BIT(hi2c->Instance->CR1, I2C_CR1_START);
 8001cb0:	68fb      	ldr	r3, [r7, #12]
 8001cb2:	681b      	ldr	r3, [r3, #0]
 8001cb4:	681a      	ldr	r2, [r3, #0]
 8001cb6:	68fb      	ldr	r3, [r7, #12]
 8001cb8:	681b      	ldr	r3, [r3, #0]
 8001cba:	f442 7280 	orr.w	r2, r2, #256	; 0x100
 8001cbe:	601a      	str	r2, [r3, #0]
  {
    /* Do nothing */
  }

  /* Wait until SB flag is set */
  if (I2C_WaitOnFlagUntilTimeout(hi2c, I2C_FLAG_SB, RESET, Timeout, Tickstart) != HAL_OK)
 8001cc0:	683b      	ldr	r3, [r7, #0]
 8001cc2:	9300      	str	r3, [sp, #0]
 8001cc4:	687b      	ldr	r3, [r7, #4]
 8001cc6:	2200      	movs	r2, #0
 8001cc8:	f04f 1101 	mov.w	r1, #65537	; 0x10001
 8001ccc:	68f8      	ldr	r0, [r7, #12]
 8001cce:	f000 f91d 	bl	8001f0c <I2C_WaitOnFlagUntilTimeout>
 8001cd2:	4603      	mov	r3, r0
 8001cd4:	2b00      	cmp	r3, #0
 8001cd6:	d00d      	beq.n	8001cf4 <I2C_MasterRequestWrite+0x88>
  {
    if (READ_BIT(hi2c->Instance->CR1, I2C_CR1_START) == I2C_CR1_START)
 8001cd8:	68fb      	ldr	r3, [r7, #12]
 8001cda:	681b      	ldr	r3, [r3, #0]
 8001cdc:	681b      	ldr	r3, [r3, #0]
 8001cde:	f403 7380 	and.w	r3, r3, #256	; 0x100
 8001ce2:	f5b3 7f80 	cmp.w	r3, #256	; 0x100
 8001ce6:	d103      	bne.n	8001cf0 <I2C_MasterRequestWrite+0x84>
    {
      hi2c->ErrorCode = HAL_I2C_WRONG_START;
 8001ce8:	68fb      	ldr	r3, [r7, #12]
 8001cea:	f44f 7200 	mov.w	r2, #512	; 0x200
 8001cee:	641a      	str	r2, [r3, #64]	; 0x40
    }
    return HAL_TIMEOUT;
 8001cf0:	2303      	movs	r3, #3
 8001cf2:	e035      	b.n	8001d60 <I2C_MasterRequestWrite+0xf4>
  }

  if (hi2c->Init.AddressingMode == I2C_ADDRESSINGMODE_7BIT)
 8001cf4:	68fb      	ldr	r3, [r7, #12]
 8001cf6:	691b      	ldr	r3, [r3, #16]
 8001cf8:	f5b3 4f80 	cmp.w	r3, #16384	; 0x4000
 8001cfc:	d108      	bne.n	8001d10 <I2C_MasterRequestWrite+0xa4>
  {
    /* Send slave address */
    hi2c->Instance->DR = I2C_7BIT_ADD_WRITE(DevAddress);
 8001cfe:	897b      	ldrh	r3, [r7, #10]
 8001d00:	b2db      	uxtb	r3, r3
 8001d02:	461a      	mov	r2, r3
 8001d04:	68fb      	ldr	r3, [r7, #12]
 8001d06:	681b      	ldr	r3, [r3, #0]
 8001d08:	f002 02fe 	and.w	r2, r2, #254	; 0xfe
 8001d0c:	611a      	str	r2, [r3, #16]
 8001d0e:	e01b      	b.n	8001d48 <I2C_MasterRequestWrite+0xdc>
  }
  else
  {
    /* Send header of slave address */
    hi2c->Instance->DR = I2C_10BIT_HEADER_WRITE(DevAddress);
 8001d10:	897b      	ldrh	r3, [r7, #10]
 8001d12:	11db      	asrs	r3, r3, #7
 8001d14:	b2db      	uxtb	r3, r3
 8001d16:	f003 0306 	and.w	r3, r3, #6
 8001d1a:	b2db      	uxtb	r3, r3
 8001d1c:	f063 030f 	orn	r3, r3, #15
 8001d20:	b2da      	uxtb	r2, r3
 8001d22:	68fb      	ldr	r3, [r7, #12]
 8001d24:	681b      	ldr	r3, [r3, #0]
 8001d26:	611a      	str	r2, [r3, #16]

    /* Wait until ADD10 flag is set */
    if (I2C_WaitOnMasterAddressFlagUntilTimeout(hi2c, I2C_FLAG_ADD10, Timeout, Tickstart) != HAL_OK)
 8001d28:	683b      	ldr	r3, [r7, #0]
 8001d2a:	687a      	ldr	r2, [r7, #4]
 8001d2c:	490e      	ldr	r1, [pc, #56]	; (8001d68 <I2C_MasterRequestWrite+0xfc>)
 8001d2e:	68f8      	ldr	r0, [r7, #12]
 8001d30:	f000 f943 	bl	8001fba <I2C_WaitOnMasterAddressFlagUntilTimeout>
 8001d34:	4603      	mov	r3, r0
 8001d36:	2b00      	cmp	r3, #0
 8001d38:	d001      	beq.n	8001d3e <I2C_MasterRequestWrite+0xd2>
    {
      return HAL_ERROR;
 8001d3a:	2301      	movs	r3, #1
 8001d3c:	e010      	b.n	8001d60 <I2C_MasterRequestWrite+0xf4>
    }

    /* Send slave address */
    hi2c->Instance->DR = I2C_10BIT_ADDRESS(DevAddress);
 8001d3e:	897b      	ldrh	r3, [r7, #10]
 8001d40:	b2da      	uxtb	r2, r3
 8001d42:	68fb      	ldr	r3, [r7, #12]
 8001d44:	681b      	ldr	r3, [r3, #0]
 8001d46:	611a      	str	r2, [r3, #16]
  }

  /* Wait until ADDR flag is set */
  if (I2C_WaitOnMasterAddressFlagUntilTimeout(hi2c, I2C_FLAG_ADDR, Timeout, Tickstart) != HAL_OK)
 8001d48:	683b      	ldr	r3, [r7, #0]
 8001d4a:	687a      	ldr	r2, [r7, #4]
 8001d4c:	4907      	ldr	r1, [pc, #28]	; (8001d6c <I2C_MasterRequestWrite+0x100>)
 8001d4e:	68f8      	ldr	r0, [r7, #12]
 8001d50:	f000 f933 	bl	8001fba <I2C_WaitOnMasterAddressFlagUntilTimeout>
 8001d54:	4603      	mov	r3, r0
 8001d56:	2b00      	cmp	r3, #0
 8001d58:	d001      	beq.n	8001d5e <I2C_MasterRequestWrite+0xf2>
  {
    return HAL_ERROR;
 8001d5a:	2301      	movs	r3, #1
 8001d5c:	e000      	b.n	8001d60 <I2C_MasterRequestWrite+0xf4>
  }

  return HAL_OK;
 8001d5e:	2300      	movs	r3, #0
}
 8001d60:	4618      	mov	r0, r3
 8001d62:	3718      	adds	r7, #24
 8001d64:	46bd      	mov	sp, r7
 8001d66:	bd80      	pop	{r7, pc}
 8001d68:	00010008 	.word	0x00010008
 8001d6c:	00010002 	.word	0x00010002

08001d70 <I2C_MasterRequestRead>:
  * @param  Timeout Timeout duration
  * @param  Tickstart Tick start value
  * @retval HAL status
  */
static HAL_StatusTypeDef I2C_MasterRequestRead(I2C_HandleTypeDef *hi2c, uint16_t DevAddress, uint32_t Timeout, uint32_t Tickstart)
{
 8001d70:	b580      	push	{r7, lr}
 8001d72:	b088      	sub	sp, #32
 8001d74:	af02      	add	r7, sp, #8
 8001d76:	60f8      	str	r0, [r7, #12]
 8001d78:	607a      	str	r2, [r7, #4]
 8001d7a:	603b      	str	r3, [r7, #0]
 8001d7c:	460b      	mov	r3, r1
 8001d7e:	817b      	strh	r3, [r7, #10]
  /* Declaration of temporary variable to prevent undefined behavior of volatile usage */
  uint32_t CurrentXferOptions = hi2c->XferOptions;
 8001d80:	68fb      	ldr	r3, [r7, #12]
 8001d82:	6adb      	ldr	r3, [r3, #44]	; 0x2c
 8001d84:	617b      	str	r3, [r7, #20]

  /* Enable Acknowledge */
  SET_BIT(hi2c->Instance->CR1, I2C_CR1_ACK);
 8001d86:	68fb      	ldr	r3, [r7, #12]
 8001d88:	681b      	ldr	r3, [r3, #0]
 8001d8a:	681a      	ldr	r2, [r3, #0]
 8001d8c:	68fb      	ldr	r3, [r7, #12]
 8001d8e:	681b      	ldr	r3, [r3, #0]
 8001d90:	f442 6280 	orr.w	r2, r2, #1024	; 0x400
 8001d94:	601a      	str	r2, [r3, #0]

  /* Generate Start condition if first transfer */
  if ((CurrentXferOptions == I2C_FIRST_AND_LAST_FRAME) || (CurrentXferOptions == I2C_FIRST_FRAME)  || (CurrentXferOptions == I2C_NO_OPTION_FRAME))
 8001d96:	697b      	ldr	r3, [r7, #20]
 8001d98:	2b08      	cmp	r3, #8
 8001d9a:	d006      	beq.n	8001daa <I2C_MasterRequestRead+0x3a>
 8001d9c:	697b      	ldr	r3, [r7, #20]
 8001d9e:	2b01      	cmp	r3, #1
 8001da0:	d003      	beq.n	8001daa <I2C_MasterRequestRead+0x3a>
 8001da2:	697b      	ldr	r3, [r7, #20]
 8001da4:	f513 3f80 	cmn.w	r3, #65536	; 0x10000
 8001da8:	d108      	bne.n	8001dbc <I2C_MasterRequestRead+0x4c>
  {
    /* Generate Start */
    SET_BIT(hi2c->Instance->CR1, I2C_CR1_START);
 8001daa:	68fb      	ldr	r3, [r7, #12]
 8001dac:	681b      	ldr	r3, [r3, #0]
 8001dae:	681a      	ldr	r2, [r3, #0]
 8001db0:	68fb      	ldr	r3, [r7, #12]
 8001db2:	681b      	ldr	r3, [r3, #0]
 8001db4:	f442 7280 	orr.w	r2, r2, #256	; 0x100
 8001db8:	601a      	str	r2, [r3, #0]
 8001dba:	e00b      	b.n	8001dd4 <I2C_MasterRequestRead+0x64>
  }
  else if (hi2c->PreviousState == I2C_STATE_MASTER_BUSY_TX)
 8001dbc:	68fb      	ldr	r3, [r7, #12]
 8001dbe:	6b1b      	ldr	r3, [r3, #48]	; 0x30
 8001dc0:	2b11      	cmp	r3, #17
 8001dc2:	d107      	bne.n	8001dd4 <I2C_MasterRequestRead+0x64>
  {
    /* Generate ReStart */
    SET_BIT(hi2c->Instance->CR1, I2C_CR1_START);
 8001dc4:	68fb      	ldr	r3, [r7, #12]
 8001dc6:	681b      	ldr	r3, [r3, #0]
 8001dc8:	681a      	ldr	r2, [r3, #0]
 8001dca:	68fb      	ldr	r3, [r7, #12]
 8001dcc:	681b      	ldr	r3, [r3, #0]
 8001dce:	f442 7280 	orr.w	r2, r2, #256	; 0x100
 8001dd2:	601a      	str	r2, [r3, #0]
  {
    /* Do nothing */
  }

  /* Wait until SB flag is set */
  if (I2C_WaitOnFlagUntilTimeout(hi2c, I2C_FLAG_SB, RESET, Timeout, Tickstart) != HAL_OK)
 8001dd4:	683b      	ldr	r3, [r7, #0]
 8001dd6:	9300      	str	r3, [sp, #0]
 8001dd8:	687b      	ldr	r3, [r7, #4]
 8001dda:	2200      	movs	r2, #0
 8001ddc:	f04f 1101 	mov.w	r1, #65537	; 0x10001
 8001de0:	68f8      	ldr	r0, [r7, #12]
 8001de2:	f000 f893 	bl	8001f0c <I2C_WaitOnFlagUntilTimeout>
 8001de6:	4603      	mov	r3, r0
 8001de8:	2b00      	cmp	r3, #0
 8001dea:	d00d      	beq.n	8001e08 <I2C_MasterRequestRead+0x98>
  {
    if (READ_BIT(hi2c->Instance->CR1, I2C_CR1_START) == I2C_CR1_START)
 8001dec:	68fb      	ldr	r3, [r7, #12]
 8001dee:	681b      	ldr	r3, [r3, #0]
 8001df0:	681b      	ldr	r3, [r3, #0]
 8001df2:	f403 7380 	and.w	r3, r3, #256	; 0x100
 8001df6:	f5b3 7f80 	cmp.w	r3, #256	; 0x100
 8001dfa:	d103      	bne.n	8001e04 <I2C_MasterRequestRead+0x94>
    {
      hi2c->ErrorCode = HAL_I2C_WRONG_START;
 8001dfc:	68fb      	ldr	r3, [r7, #12]
 8001dfe:	f44f 7200 	mov.w	r2, #512	; 0x200
 8001e02:	641a      	str	r2, [r3, #64]	; 0x40
    }
    return HAL_TIMEOUT;
 8001e04:	2303      	movs	r3, #3
 8001e06:	e079      	b.n	8001efc <I2C_MasterRequestRead+0x18c>
  }

  if (hi2c->Init.AddressingMode == I2C_ADDRESSINGMODE_7BIT)
 8001e08:	68fb      	ldr	r3, [r7, #12]
 8001e0a:	691b      	ldr	r3, [r3, #16]
 8001e0c:	f5b3 4f80 	cmp.w	r3, #16384	; 0x4000
 8001e10:	d108      	bne.n	8001e24 <I2C_MasterRequestRead+0xb4>
  {
    /* Send slave address */
    hi2c->Instance->DR = I2C_7BIT_ADD_READ(DevAddress);
 8001e12:	897b      	ldrh	r3, [r7, #10]
 8001e14:	b2db      	uxtb	r3, r3
 8001e16:	f043 0301 	orr.w	r3, r3, #1
 8001e1a:	b2da      	uxtb	r2, r3
 8001e1c:	68fb      	ldr	r3, [r7, #12]
 8001e1e:	681b      	ldr	r3, [r3, #0]
 8001e20:	611a      	str	r2, [r3, #16]
 8001e22:	e05f      	b.n	8001ee4 <I2C_MasterRequestRead+0x174>
  }
  else
  {
    /* Send header of slave address */
    hi2c->Instance->DR = I2C_10BIT_HEADER_WRITE(DevAddress);
 8001e24:	897b      	ldrh	r3, [r7, #10]
 8001e26:	11db      	asrs	r3, r3, #7
 8001e28:	b2db      	uxtb	r3, r3
 8001e2a:	f003 0306 	and.w	r3, r3, #6
 8001e2e:	b2db      	uxtb	r3, r3
 8001e30:	f063 030f 	orn	r3, r3, #15
 8001e34:	b2da      	uxtb	r2, r3
 8001e36:	68fb      	ldr	r3, [r7, #12]
 8001e38:	681b      	ldr	r3, [r3, #0]
 8001e3a:	611a      	str	r2, [r3, #16]

    /* Wait until ADD10 flag is set */
    if (I2C_WaitOnMasterAddressFlagUntilTimeout(hi2c, I2C_FLAG_ADD10, Timeout, Tickstart) != HAL_OK)
 8001e3c:	683b      	ldr	r3, [r7, #0]
 8001e3e:	687a      	ldr	r2, [r7, #4]
 8001e40:	4930      	ldr	r1, [pc, #192]	; (8001f04 <I2C_MasterRequestRead+0x194>)
 8001e42:	68f8      	ldr	r0, [r7, #12]
 8001e44:	f000 f8b9 	bl	8001fba <I2C_WaitOnMasterAddressFlagUntilTimeout>
 8001e48:	4603      	mov	r3, r0
 8001e4a:	2b00      	cmp	r3, #0
 8001e4c:	d001      	beq.n	8001e52 <I2C_MasterRequestRead+0xe2>
    {
      return HAL_ERROR;
 8001e4e:	2301      	movs	r3, #1
 8001e50:	e054      	b.n	8001efc <I2C_MasterRequestRead+0x18c>
    }

    /* Send slave address */
    hi2c->Instance->DR = I2C_10BIT_ADDRESS(DevAddress);
 8001e52:	897b      	ldrh	r3, [r7, #10]
 8001e54:	b2da      	uxtb	r2, r3
 8001e56:	68fb      	ldr	r3, [r7, #12]
 8001e58:	681b      	ldr	r3, [r3, #0]
 8001e5a:	611a      	str	r2, [r3, #16]

    /* Wait until ADDR flag is set */
    if (I2C_WaitOnMasterAddressFlagUntilTimeout(hi2c, I2C_FLAG_ADDR, Timeout, Tickstart) != HAL_OK)
 8001e5c:	683b      	ldr	r3, [r7, #0]
 8001e5e:	687a      	ldr	r2, [r7, #4]
 8001e60:	4929      	ldr	r1, [pc, #164]	; (8001f08 <I2C_MasterRequestRead+0x198>)
 8001e62:	68f8      	ldr	r0, [r7, #12]
 8001e64:	f000 f8a9 	bl	8001fba <I2C_WaitOnMasterAddressFlagUntilTimeout>
 8001e68:	4603      	mov	r3, r0
 8001e6a:	2b00      	cmp	r3, #0
 8001e6c:	d001      	beq.n	8001e72 <I2C_MasterRequestRead+0x102>
    {
      return HAL_ERROR;
 8001e6e:	2301      	movs	r3, #1
 8001e70:	e044      	b.n	8001efc <I2C_MasterRequestRead+0x18c>
    }

    /* Clear ADDR flag */
    __HAL_I2C_CLEAR_ADDRFLAG(hi2c);
 8001e72:	2300      	movs	r3, #0
 8001e74:	613b      	str	r3, [r7, #16]
 8001e76:	68fb      	ldr	r3, [r7, #12]
 8001e78:	681b      	ldr	r3, [r3, #0]
 8001e7a:	695b      	ldr	r3, [r3, #20]
 8001e7c:	613b      	str	r3, [r7, #16]
 8001e7e:	68fb      	ldr	r3, [r7, #12]
 8001e80:	681b      	ldr	r3, [r3, #0]
 8001e82:	699b      	ldr	r3, [r3, #24]
 8001e84:	613b      	str	r3, [r7, #16]
 8001e86:	693b      	ldr	r3, [r7, #16]

    /* Generate Restart */
    SET_BIT(hi2c->Instance->CR1, I2C_CR1_START);
 8001e88:	68fb      	ldr	r3, [r7, #12]
 8001e8a:	681b      	ldr	r3, [r3, #0]
 8001e8c:	681a      	ldr	r2, [r3, #0]
 8001e8e:	68fb      	ldr	r3, [r7, #12]
 8001e90:	681b      	ldr	r3, [r3, #0]
 8001e92:	f442 7280 	orr.w	r2, r2, #256	; 0x100
 8001e96:	601a      	str	r2, [r3, #0]

    /* Wait until SB flag is set */
    if (I2C_WaitOnFlagUntilTimeout(hi2c, I2C_FLAG_SB, RESET, Timeout, Tickstart) != HAL_OK)
 8001e98:	683b      	ldr	r3, [r7, #0]
 8001e9a:	9300      	str	r3, [sp, #0]
 8001e9c:	687b      	ldr	r3, [r7, #4]
 8001e9e:	2200      	movs	r2, #0
 8001ea0:	f04f 1101 	mov.w	r1, #65537	; 0x10001
 8001ea4:	68f8      	ldr	r0, [r7, #12]
 8001ea6:	f000 f831 	bl	8001f0c <I2C_WaitOnFlagUntilTimeout>
 8001eaa:	4603      	mov	r3, r0
 8001eac:	2b00      	cmp	r3, #0
 8001eae:	d00d      	beq.n	8001ecc <I2C_MasterRequestRead+0x15c>
    {
      if (READ_BIT(hi2c->Instance->CR1, I2C_CR1_START) == I2C_CR1_START)
 8001eb0:	68fb      	ldr	r3, [r7, #12]
 8001eb2:	681b      	ldr	r3, [r3, #0]
 8001eb4:	681b      	ldr	r3, [r3, #0]
 8001eb6:	f403 7380 	and.w	r3, r3, #256	; 0x100
 8001eba:	f5b3 7f80 	cmp.w	r3, #256	; 0x100
 8001ebe:	d103      	bne.n	8001ec8 <I2C_MasterRequestRead+0x158>
      {
        hi2c->ErrorCode = HAL_I2C_WRONG_START;
 8001ec0:	68fb      	ldr	r3, [r7, #12]
 8001ec2:	f44f 7200 	mov.w	r2, #512	; 0x200
 8001ec6:	641a      	str	r2, [r3, #64]	; 0x40
      }
      return HAL_TIMEOUT;
 8001ec8:	2303      	movs	r3, #3
 8001eca:	e017      	b.n	8001efc <I2C_MasterRequestRead+0x18c>
    }

    /* Send header of slave address */
    hi2c->Instance->DR = I2C_10BIT_HEADER_READ(DevAddress);
 8001ecc:	897b      	ldrh	r3, [r7, #10]
 8001ece:	11db      	asrs	r3, r3, #7
 8001ed0:	b2db      	uxtb	r3, r3
 8001ed2:	f003 0306 	and.w	r3, r3, #6
 8001ed6:	b2db      	uxtb	r3, r3
 8001ed8:	f063 030e 	orn	r3, r3, #14
 8001edc:	b2da      	uxtb	r2, r3
 8001ede:	68fb      	ldr	r3, [r7, #12]
 8001ee0:	681b      	ldr	r3, [r3, #0]
 8001ee2:	611a      	str	r2, [r3, #16]
  }

  /* Wait until ADDR flag is set */
  if (I2C_WaitOnMasterAddressFlagUntilTimeout(hi2c, I2C_FLAG_ADDR, Timeout, Tickstart) != HAL_OK)
 8001ee4:	683b      	ldr	r3, [r7, #0]
 8001ee6:	687a      	ldr	r2, [r7, #4]
 8001ee8:	4907      	ldr	r1, [pc, #28]	; (8001f08 <I2C_MasterRequestRead+0x198>)
 8001eea:	68f8      	ldr	r0, [r7, #12]
 8001eec:	f000 f865 	bl	8001fba <I2C_WaitOnMasterAddressFlagUntilTimeout>
 8001ef0:	4603      	mov	r3, r0
 8001ef2:	2b00      	cmp	r3, #0
 8001ef4:	d001      	beq.n	8001efa <I2C_MasterRequestRead+0x18a>
  {
    return HAL_ERROR;
 8001ef6:	2301      	movs	r3, #1
 8001ef8:	e000      	b.n	8001efc <I2C_MasterRequestRead+0x18c>
  }

  return HAL_OK;
 8001efa:	2300      	movs	r3, #0
}
 8001efc:	4618      	mov	r0, r3
 8001efe:	3718      	adds	r7, #24
 8001f00:	46bd      	mov	sp, r7
 8001f02:	bd80      	pop	{r7, pc}
 8001f04:	00010008 	.word	0x00010008
 8001f08:	00010002 	.word	0x00010002

08001f0c <I2C_WaitOnFlagUntilTimeout>:
  * @param  Timeout Timeout duration
  * @param  Tickstart Tick start value
  * @retval HAL status
  */
static HAL_StatusTypeDef I2C_WaitOnFlagUntilTimeout(I2C_HandleTypeDef *hi2c, uint32_t Flag, FlagStatus Status, uint32_t Timeout, uint32_t Tickstart)
{
 8001f0c:	b580      	push	{r7, lr}
 8001f0e:	b084      	sub	sp, #16
 8001f10:	af00      	add	r7, sp, #0
 8001f12:	60f8      	str	r0, [r7, #12]
 8001f14:	60b9      	str	r1, [r7, #8]
 8001f16:	603b      	str	r3, [r7, #0]
 8001f18:	4613      	mov	r3, r2
 8001f1a:	71fb      	strb	r3, [r7, #7]
  /* Wait until flag is set */
  while (__HAL_I2C_GET_FLAG(hi2c, Flag) == Status)
 8001f1c:	e025      	b.n	8001f6a <I2C_WaitOnFlagUntilTimeout+0x5e>
  {
    /* Check for the Timeout */
    if (Timeout != HAL_MAX_DELAY)
 8001f1e:	683b      	ldr	r3, [r7, #0]
 8001f20:	f1b3 3fff 	cmp.w	r3, #4294967295	; 0xffffffff
 8001f24:	d021      	beq.n	8001f6a <I2C_WaitOnFlagUntilTimeout+0x5e>
    {
      if (((HAL_GetTick() - Tickstart) > Timeout) || (Timeout == 0U))
 8001f26:	f7fe fec9 	bl	8000cbc <HAL_GetTick>
 8001f2a:	4602      	mov	r2, r0
 8001f2c:	69bb      	ldr	r3, [r7, #24]
 8001f2e:	1ad3      	subs	r3, r2, r3
 8001f30:	683a      	ldr	r2, [r7, #0]
 8001f32:	429a      	cmp	r2, r3
 8001f34:	d302      	bcc.n	8001f3c <I2C_WaitOnFlagUntilTimeout+0x30>
 8001f36:	683b      	ldr	r3, [r7, #0]
 8001f38:	2b00      	cmp	r3, #0
 8001f3a:	d116      	bne.n	8001f6a <I2C_WaitOnFlagUntilTimeout+0x5e>
      {
        hi2c->PreviousState     = I2C_STATE_NONE;
 8001f3c:	68fb      	ldr	r3, [r7, #12]
 8001f3e:	2200      	movs	r2, #0
 8001f40:	631a      	str	r2, [r3, #48]	; 0x30
        hi2c->State             = HAL_I2C_STATE_READY;
 8001f42:	68fb      	ldr	r3, [r7, #12]
 8001f44:	2220      	movs	r2, #32
 8001f46:	f883 203d 	strb.w	r2, [r3, #61]	; 0x3d
        hi2c->Mode              = HAL_I2C_MODE_NONE;
 8001f4a:	68fb      	ldr	r3, [r7, #12]
 8001f4c:	2200      	movs	r2, #0
 8001f4e:	f883 203e 	strb.w	r2, [r3, #62]	; 0x3e
        hi2c->ErrorCode         |= HAL_I2C_ERROR_TIMEOUT;
 8001f52:	68fb      	ldr	r3, [r7, #12]
 8001f54:	6c1b      	ldr	r3, [r3, #64]	; 0x40
 8001f56:	f043 0220 	orr.w	r2, r3, #32
 8001f5a:	68fb      	ldr	r3, [r7, #12]
 8001f5c:	641a      	str	r2, [r3, #64]	; 0x40

        /* Process Unlocked */
        __HAL_UNLOCK(hi2c);
 8001f5e:	68fb      	ldr	r3, [r7, #12]
 8001f60:	2200      	movs	r2, #0
 8001f62:	f883 203c 	strb.w	r2, [r3, #60]	; 0x3c

        return HAL_ERROR;
 8001f66:	2301      	movs	r3, #1
 8001f68:	e023      	b.n	8001fb2 <I2C_WaitOnFlagUntilTimeout+0xa6>
  while (__HAL_I2C_GET_FLAG(hi2c, Flag) == Status)
 8001f6a:	68bb      	ldr	r3, [r7, #8]
 8001f6c:	0c1b      	lsrs	r3, r3, #16
 8001f6e:	b2db      	uxtb	r3, r3
 8001f70:	2b01      	cmp	r3, #1
 8001f72:	d10d      	bne.n	8001f90 <I2C_WaitOnFlagUntilTimeout+0x84>
 8001f74:	68fb      	ldr	r3, [r7, #12]
 8001f76:	681b      	ldr	r3, [r3, #0]
 8001f78:	695b      	ldr	r3, [r3, #20]
 8001f7a:	43da      	mvns	r2, r3
 8001f7c:	68bb      	ldr	r3, [r7, #8]
 8001f7e:	4013      	ands	r3, r2
 8001f80:	b29b      	uxth	r3, r3
 8001f82:	2b00      	cmp	r3, #0
 8001f84:	bf0c      	ite	eq
 8001f86:	2301      	moveq	r3, #1
 8001f88:	2300      	movne	r3, #0
 8001f8a:	b2db      	uxtb	r3, r3
 8001f8c:	461a      	mov	r2, r3
 8001f8e:	e00c      	b.n	8001faa <I2C_WaitOnFlagUntilTimeout+0x9e>
 8001f90:	68fb      	ldr	r3, [r7, #12]
 8001f92:	681b      	ldr	r3, [r3, #0]
 8001f94:	699b      	ldr	r3, [r3, #24]
 8001f96:	43da      	mvns	r2, r3
 8001f98:	68bb      	ldr	r3, [r7, #8]
 8001f9a:	4013      	ands	r3, r2
 8001f9c:	b29b      	uxth	r3, r3
 8001f9e:	2b00      	cmp	r3, #0
 8001fa0:	bf0c      	ite	eq
 8001fa2:	2301      	moveq	r3, #1
 8001fa4:	2300      	movne	r3, #0
 8001fa6:	b2db      	uxtb	r3, r3
 8001fa8:	461a      	mov	r2, r3
 8001faa:	79fb      	ldrb	r3, [r7, #7]
 8001fac:	429a      	cmp	r2, r3
 8001fae:	d0b6      	beq.n	8001f1e <I2C_WaitOnFlagUntilTimeout+0x12>
      }
    }
  }
  return HAL_OK;
 8001fb0:	2300      	movs	r3, #0
}
 8001fb2:	4618      	mov	r0, r3
 8001fb4:	3710      	adds	r7, #16
 8001fb6:	46bd      	mov	sp, r7
 8001fb8:	bd80      	pop	{r7, pc}

08001fba <I2C_WaitOnMasterAddressFlagUntilTimeout>:
  * @param  Timeout Timeout duration
  * @param  Tickstart Tick start value
  * @retval HAL status
  */
static HAL_StatusTypeDef I2C_WaitOnMasterAddressFlagUntilTimeout(I2C_HandleTypeDef *hi2c, uint32_t Flag, uint32_t Timeout, uint32_t Tickstart)
{
 8001fba:	b580      	push	{r7, lr}
 8001fbc:	b084      	sub	sp, #16
 8001fbe:	af00      	add	r7, sp, #0
 8001fc0:	60f8      	str	r0, [r7, #12]
 8001fc2:	60b9      	str	r1, [r7, #8]
 8001fc4:	607a      	str	r2, [r7, #4]
 8001fc6:	603b      	str	r3, [r7, #0]
  while (__HAL_I2C_GET_FLAG(hi2c, Flag) == RESET)
 8001fc8:	e051      	b.n	800206e <I2C_WaitOnMasterAddressFlagUntilTimeout+0xb4>
  {
    if (__HAL_I2C_GET_FLAG(hi2c, I2C_FLAG_AF) == SET)
 8001fca:	68fb      	ldr	r3, [r7, #12]
 8001fcc:	681b      	ldr	r3, [r3, #0]
 8001fce:	695b      	ldr	r3, [r3, #20]
 8001fd0:	f403 6380 	and.w	r3, r3, #1024	; 0x400
 8001fd4:	f5b3 6f80 	cmp.w	r3, #1024	; 0x400
 8001fd8:	d123      	bne.n	8002022 <I2C_WaitOnMasterAddressFlagUntilTimeout+0x68>
    {
      /* Generate Stop */
      SET_BIT(hi2c->Instance->CR1, I2C_CR1_STOP);
 8001fda:	68fb      	ldr	r3, [r7, #12]
 8001fdc:	681b      	ldr	r3, [r3, #0]
 8001fde:	681a      	ldr	r2, [r3, #0]
 8001fe0:	68fb      	ldr	r3, [r7, #12]
 8001fe2:	681b      	ldr	r3, [r3, #0]
 8001fe4:	f442 7200 	orr.w	r2, r2, #512	; 0x200
 8001fe8:	601a      	str	r2, [r3, #0]

      /* Clear AF Flag */
      __HAL_I2C_CLEAR_FLAG(hi2c, I2C_FLAG_AF);
 8001fea:	68fb      	ldr	r3, [r7, #12]
 8001fec:	681b      	ldr	r3, [r3, #0]
 8001fee:	f46f 6280 	mvn.w	r2, #1024	; 0x400
 8001ff2:	615a      	str	r2, [r3, #20]

      hi2c->PreviousState       = I2C_STATE_NONE;
 8001ff4:	68fb      	ldr	r3, [r7, #12]
 8001ff6:	2200      	movs	r2, #0
 8001ff8:	631a      	str	r2, [r3, #48]	; 0x30
      hi2c->State               = HAL_I2C_STATE_READY;
 8001ffa:	68fb      	ldr	r3, [r7, #12]
 8001ffc:	2220      	movs	r2, #32
 8001ffe:	f883 203d 	strb.w	r2, [r3, #61]	; 0x3d
      hi2c->Mode                = HAL_I2C_MODE_NONE;
 8002002:	68fb      	ldr	r3, [r7, #12]
 8002004:	2200      	movs	r2, #0
 8002006:	f883 203e 	strb.w	r2, [r3, #62]	; 0x3e
      hi2c->ErrorCode           |= HAL_I2C_ERROR_AF;
 800200a:	68fb      	ldr	r3, [r7, #12]
 800200c:	6c1b      	ldr	r3, [r3, #64]	; 0x40
 800200e:	f043 0204 	orr.w	r2, r3, #4
 8002012:	68fb      	ldr	r3, [r7, #12]
 8002014:	641a      	str	r2, [r3, #64]	; 0x40

      /* Process Unlocked */
      __HAL_UNLOCK(hi2c);
 8002016:	68fb      	ldr	r3, [r7, #12]
 8002018:	2200      	movs	r2, #0
 800201a:	f883 203c 	strb.w	r2, [r3, #60]	; 0x3c

      return HAL_ERROR;
 800201e:	2301      	movs	r3, #1
 8002020:	e046      	b.n	80020b0 <I2C_WaitOnMasterAddressFlagUntilTimeout+0xf6>
    }

    /* Check for the Timeout */
    if (Timeout != HAL_MAX_DELAY)
 8002022:	687b      	ldr	r3, [r7, #4]
 8002024:	f1b3 3fff 	cmp.w	r3, #4294967295	; 0xffffffff
 8002028:	d021      	beq.n	800206e <I2C_WaitOnMasterAddressFlagUntilTimeout+0xb4>
    {
      if (((HAL_GetTick() - Tickstart) > Timeout) || (Timeout == 0U))
 800202a:	f7fe fe47 	bl	8000cbc <HAL_GetTick>
 800202e:	4602      	mov	r2, r0
 8002030:	683b      	ldr	r3, [r7, #0]
 8002032:	1ad3      	subs	r3, r2, r3
 8002034:	687a      	ldr	r2, [r7, #4]
 8002036:	429a      	cmp	r2, r3
 8002038:	d302      	bcc.n	8002040 <I2C_WaitOnMasterAddressFlagUntilTimeout+0x86>
 800203a:	687b      	ldr	r3, [r7, #4]
 800203c:	2b00      	cmp	r3, #0
 800203e:	d116      	bne.n	800206e <I2C_WaitOnMasterAddressFlagUntilTimeout+0xb4>
      {
        hi2c->PreviousState       = I2C_STATE_NONE;
 8002040:	68fb      	ldr	r3, [r7, #12]
 8002042:	2200      	movs	r2, #0
 8002044:	631a      	str	r2, [r3, #48]	; 0x30
        hi2c->State               = HAL_I2C_STATE_READY;
 8002046:	68fb      	ldr	r3, [r7, #12]
 8002048:	2220      	movs	r2, #32
 800204a:	f883 203d 	strb.w	r2, [r3, #61]	; 0x3d
        hi2c->Mode                = HAL_I2C_MODE_NONE;
 800204e:	68fb      	ldr	r3, [r7, #12]
 8002050:	2200      	movs	r2, #0
 8002052:	f883 203e 	strb.w	r2, [r3, #62]	; 0x3e
        hi2c->ErrorCode           |= HAL_I2C_ERROR_TIMEOUT;
 8002056:	68fb      	ldr	r3, [r7, #12]
 8002058:	6c1b      	ldr	r3, [r3, #64]	; 0x40
 800205a:	f043 0220 	orr.w	r2, r3, #32
 800205e:	68fb      	ldr	r3, [r7, #12]
 8002060:	641a      	str	r2, [r3, #64]	; 0x40

        /* Process Unlocked */
        __HAL_UNLOCK(hi2c);
 8002062:	68fb      	ldr	r3, [r7, #12]
 8002064:	2200      	movs	r2, #0
 8002066:	f883 203c 	strb.w	r2, [r3, #60]	; 0x3c

        return HAL_ERROR;
 800206a:	2301      	movs	r3, #1
 800206c:	e020      	b.n	80020b0 <I2C_WaitOnMasterAddressFlagUntilTimeout+0xf6>
  while (__HAL_I2C_GET_FLAG(hi2c, Flag) == RESET)
 800206e:	68bb      	ldr	r3, [r7, #8]
 8002070:	0c1b      	lsrs	r3, r3, #16
 8002072:	b2db      	uxtb	r3, r3
 8002074:	2b01      	cmp	r3, #1
 8002076:	d10c      	bne.n	8002092 <I2C_WaitOnMasterAddressFlagUntilTimeout+0xd8>
 8002078:	68fb      	ldr	r3, [r7, #12]
 800207a:	681b      	ldr	r3, [r3, #0]
 800207c:	695b      	ldr	r3, [r3, #20]
 800207e:	43da      	mvns	r2, r3
 8002080:	68bb      	ldr	r3, [r7, #8]
 8002082:	4013      	ands	r3, r2
 8002084:	b29b      	uxth	r3, r3
 8002086:	2b00      	cmp	r3, #0
 8002088:	bf14      	ite	ne
 800208a:	2301      	movne	r3, #1
 800208c:	2300      	moveq	r3, #0
 800208e:	b2db      	uxtb	r3, r3
 8002090:	e00b      	b.n	80020aa <I2C_WaitOnMasterAddressFlagUntilTimeout+0xf0>
 8002092:	68fb      	ldr	r3, [r7, #12]
 8002094:	681b      	ldr	r3, [r3, #0]
 8002096:	699b      	ldr	r3, [r3, #24]
 8002098:	43da      	mvns	r2, r3
 800209a:	68bb      	ldr	r3, [r7, #8]
 800209c:	4013      	ands	r3, r2
 800209e:	b29b      	uxth	r3, r3
 80020a0:	2b00      	cmp	r3, #0
 80020a2:	bf14      	ite	ne
 80020a4:	2301      	movne	r3, #1
 80020a6:	2300      	moveq	r3, #0
 80020a8:	b2db      	uxtb	r3, r3
 80020aa:	2b00      	cmp	r3, #0
 80020ac:	d18d      	bne.n	8001fca <I2C_WaitOnMasterAddressFlagUntilTimeout+0x10>
      }
    }
  }
  return HAL_OK;
 80020ae:	2300      	movs	r3, #0
}
 80020b0:	4618      	mov	r0, r3
 80020b2:	3710      	adds	r7, #16
 80020b4:	46bd      	mov	sp, r7
 80020b6:	bd80      	pop	{r7, pc}

080020b8 <I2C_WaitOnTXEFlagUntilTimeout>:
  * @param  Timeout Timeout duration
  * @param  Tickstart Tick start value
  * @retval HAL status
  */
static HAL_StatusTypeDef I2C_WaitOnTXEFlagUntilTimeout(I2C_HandleTypeDef *hi2c, uint32_t Timeout, uint32_t Tickstart)
{
 80020b8:	b580      	push	{r7, lr}
 80020ba:	b084      	sub	sp, #16
 80020bc:	af00      	add	r7, sp, #0
 80020be:	60f8      	str	r0, [r7, #12]
 80020c0:	60b9      	str	r1, [r7, #8]
 80020c2:	607a      	str	r2, [r7, #4]
  while (__HAL_I2C_GET_FLAG(hi2c, I2C_FLAG_TXE) == RESET)
 80020c4:	e02d      	b.n	8002122 <I2C_WaitOnTXEFlagUntilTimeout+0x6a>
  {
    /* Check if a NACK is detected */
    if (I2C_IsAcknowledgeFailed(hi2c) != HAL_OK)
 80020c6:	68f8      	ldr	r0, [r7, #12]
 80020c8:	f000 f8ce 	bl	8002268 <I2C_IsAcknowledgeFailed>
 80020cc:	4603      	mov	r3, r0
 80020ce:	2b00      	cmp	r3, #0
 80020d0:	d001      	beq.n	80020d6 <I2C_WaitOnTXEFlagUntilTimeout+0x1e>
    {
      return HAL_ERROR;
 80020d2:	2301      	movs	r3, #1
 80020d4:	e02d      	b.n	8002132 <I2C_WaitOnTXEFlagUntilTimeout+0x7a>
    }

    /* Check for the Timeout */
    if (Timeout != HAL_MAX_DELAY)
 80020d6:	68bb      	ldr	r3, [r7, #8]
 80020d8:	f1b3 3fff 	cmp.w	r3, #4294967295	; 0xffffffff
 80020dc:	d021      	beq.n	8002122 <I2C_WaitOnTXEFlagUntilTimeout+0x6a>
    {
      if (((HAL_GetTick() - Tickstart) > Timeout) || (Timeout == 0U))
 80020de:	f7fe fded 	bl	8000cbc <HAL_GetTick>
 80020e2:	4602      	mov	r2, r0
 80020e4:	687b      	ldr	r3, [r7, #4]
 80020e6:	1ad3      	subs	r3, r2, r3
 80020e8:	68ba      	ldr	r2, [r7, #8]
 80020ea:	429a      	cmp	r2, r3
 80020ec:	d302      	bcc.n	80020f4 <I2C_WaitOnTXEFlagUntilTimeout+0x3c>
 80020ee:	68bb      	ldr	r3, [r7, #8]
 80020f0:	2b00      	cmp	r3, #0
 80020f2:	d116      	bne.n	8002122 <I2C_WaitOnTXEFlagUntilTimeout+0x6a>
      {
        hi2c->PreviousState       = I2C_STATE_NONE;
 80020f4:	68fb      	ldr	r3, [r7, #12]
 80020f6:	2200      	movs	r2, #0
 80020f8:	631a      	str	r2, [r3, #48]	; 0x30
        hi2c->State               = HAL_I2C_STATE_READY;
 80020fa:	68fb      	ldr	r3, [r7, #12]
 80020fc:	2220      	movs	r2, #32
 80020fe:	f883 203d 	strb.w	r2, [r3, #61]	; 0x3d
        hi2c->Mode                = HAL_I2C_MODE_NONE;
 8002102:	68fb      	ldr	r3, [r7, #12]
 8002104:	2200      	movs	r2, #0
 8002106:	f883 203e 	strb.w	r2, [r3, #62]	; 0x3e
        hi2c->ErrorCode           |= HAL_I2C_ERROR_TIMEOUT;
 800210a:	68fb      	ldr	r3, [r7, #12]
 800210c:	6c1b      	ldr	r3, [r3, #64]	; 0x40
 800210e:	f043 0220 	orr.w	r2, r3, #32
 8002112:	68fb      	ldr	r3, [r7, #12]
 8002114:	641a      	str	r2, [r3, #64]	; 0x40

        /* Process Unlocked */
        __HAL_UNLOCK(hi2c);
 8002116:	68fb      	ldr	r3, [r7, #12]
 8002118:	2200      	movs	r2, #0
 800211a:	f883 203c 	strb.w	r2, [r3, #60]	; 0x3c

        return HAL_ERROR;
 800211e:	2301      	movs	r3, #1
 8002120:	e007      	b.n	8002132 <I2C_WaitOnTXEFlagUntilTimeout+0x7a>
  while (__HAL_I2C_GET_FLAG(hi2c, I2C_FLAG_TXE) == RESET)
 8002122:	68fb      	ldr	r3, [r7, #12]
 8002124:	681b      	ldr	r3, [r3, #0]
 8002126:	695b      	ldr	r3, [r3, #20]
 8002128:	f003 0380 	and.w	r3, r3, #128	; 0x80
 800212c:	2b80      	cmp	r3, #128	; 0x80
 800212e:	d1ca      	bne.n	80020c6 <I2C_WaitOnTXEFlagUntilTimeout+0xe>
      }
    }
  }
  return HAL_OK;
 8002130:	2300      	movs	r3, #0
}
 8002132:	4618      	mov	r0, r3
 8002134:	3710      	adds	r7, #16
 8002136:	46bd      	mov	sp, r7
 8002138:	bd80      	pop	{r7, pc}

0800213a <I2C_WaitOnBTFFlagUntilTimeout>:
  * @param  Timeout Timeout duration
  * @param  Tickstart Tick start value
  * @retval HAL status
  */
static HAL_StatusTypeDef I2C_WaitOnBTFFlagUntilTimeout(I2C_HandleTypeDef *hi2c, uint32_t Timeout, uint32_t Tickstart)
{
 800213a:	b580      	push	{r7, lr}
 800213c:	b084      	sub	sp, #16
 800213e:	af00      	add	r7, sp, #0
 8002140:	60f8      	str	r0, [r7, #12]
 8002142:	60b9      	str	r1, [r7, #8]
 8002144:	607a      	str	r2, [r7, #4]
  while (__HAL_I2C_GET_FLAG(hi2c, I2C_FLAG_BTF) == RESET)
 8002146:	e02d      	b.n	80021a4 <I2C_WaitOnBTFFlagUntilTimeout+0x6a>
  {
    /* Check if a NACK is detected */
    if (I2C_IsAcknowledgeFailed(hi2c) != HAL_OK)
 8002148:	68f8      	ldr	r0, [r7, #12]
 800214a:	f000 f88d 	bl	8002268 <I2C_IsAcknowledgeFailed>
 800214e:	4603      	mov	r3, r0
 8002150:	2b00      	cmp	r3, #0
 8002152:	d001      	beq.n	8002158 <I2C_WaitOnBTFFlagUntilTimeout+0x1e>
    {
      return HAL_ERROR;
 8002154:	2301      	movs	r3, #1
 8002156:	e02d      	b.n	80021b4 <I2C_WaitOnBTFFlagUntilTimeout+0x7a>
    }

    /* Check for the Timeout */
    if (Timeout != HAL_MAX_DELAY)
 8002158:	68bb      	ldr	r3, [r7, #8]
 800215a:	f1b3 3fff 	cmp.w	r3, #4294967295	; 0xffffffff
 800215e:	d021      	beq.n	80021a4 <I2C_WaitOnBTFFlagUntilTimeout+0x6a>
    {
      if (((HAL_GetTick() - Tickstart) > Timeout) || (Timeout == 0U))
 8002160:	f7fe fdac 	bl	8000cbc <HAL_GetTick>
 8002164:	4602      	mov	r2, r0
 8002166:	687b      	ldr	r3, [r7, #4]
 8002168:	1ad3      	subs	r3, r2, r3
 800216a:	68ba      	ldr	r2, [r7, #8]
 800216c:	429a      	cmp	r2, r3
 800216e:	d302      	bcc.n	8002176 <I2C_WaitOnBTFFlagUntilTimeout+0x3c>
 8002170:	68bb      	ldr	r3, [r7, #8]
 8002172:	2b00      	cmp	r3, #0
 8002174:	d116      	bne.n	80021a4 <I2C_WaitOnBTFFlagUntilTimeout+0x6a>
      {
        hi2c->PreviousState       = I2C_STATE_NONE;
 8002176:	68fb      	ldr	r3, [r7, #12]
 8002178:	2200      	movs	r2, #0
 800217a:	631a      	str	r2, [r3, #48]	; 0x30
        hi2c->State               = HAL_I2C_STATE_READY;
 800217c:	68fb      	ldr	r3, [r7, #12]
 800217e:	2220      	movs	r2, #32
 8002180:	f883 203d 	strb.w	r2, [r3, #61]	; 0x3d
        hi2c->Mode                = HAL_I2C_MODE_NONE;
 8002184:	68fb      	ldr	r3, [r7, #12]
 8002186:	2200      	movs	r2, #0
 8002188:	f883 203e 	strb.w	r2, [r3, #62]	; 0x3e
        hi2c->ErrorCode           |= HAL_I2C_ERROR_TIMEOUT;
 800218c:	68fb      	ldr	r3, [r7, #12]
 800218e:	6c1b      	ldr	r3, [r3, #64]	; 0x40
 8002190:	f043 0220 	orr.w	r2, r3, #32
 8002194:	68fb      	ldr	r3, [r7, #12]
 8002196:	641a      	str	r2, [r3, #64]	; 0x40

        /* Process Unlocked */
        __HAL_UNLOCK(hi2c);
 8002198:	68fb      	ldr	r3, [r7, #12]
 800219a:	2200      	movs	r2, #0
 800219c:	f883 203c 	strb.w	r2, [r3, #60]	; 0x3c

        return HAL_ERROR;
 80021a0:	2301      	movs	r3, #1
 80021a2:	e007      	b.n	80021b4 <I2C_WaitOnBTFFlagUntilTimeout+0x7a>
  while (__HAL_I2C_GET_FLAG(hi2c, I2C_FLAG_BTF) == RESET)
 80021a4:	68fb      	ldr	r3, [r7, #12]
 80021a6:	681b      	ldr	r3, [r3, #0]
 80021a8:	695b      	ldr	r3, [r3, #20]
 80021aa:	f003 0304 	and.w	r3, r3, #4
 80021ae:	2b04      	cmp	r3, #4
 80021b0:	d1ca      	bne.n	8002148 <I2C_WaitOnBTFFlagUntilTimeout+0xe>
      }
    }
  }
  return HAL_OK;
 80021b2:	2300      	movs	r3, #0
}
 80021b4:	4618      	mov	r0, r3
 80021b6:	3710      	adds	r7, #16
 80021b8:	46bd      	mov	sp, r7
 80021ba:	bd80      	pop	{r7, pc}

080021bc <I2C_WaitOnRXNEFlagUntilTimeout>:
  * @param  Timeout Timeout duration
  * @param  Tickstart Tick start value
  * @retval HAL status
  */
static HAL_StatusTypeDef I2C_WaitOnRXNEFlagUntilTimeout(I2C_HandleTypeDef *hi2c, uint32_t Timeout, uint32_t Tickstart)
{
 80021bc:	b580      	push	{r7, lr}
 80021be:	b084      	sub	sp, #16
 80021c0:	af00      	add	r7, sp, #0
 80021c2:	60f8      	str	r0, [r7, #12]
 80021c4:	60b9      	str	r1, [r7, #8]
 80021c6:	607a      	str	r2, [r7, #4]

  while (__HAL_I2C_GET_FLAG(hi2c, I2C_FLAG_RXNE) == RESET)
 80021c8:	e042      	b.n	8002250 <I2C_WaitOnRXNEFlagUntilTimeout+0x94>
  {
    /* Check if a STOPF is detected */
    if (__HAL_I2C_GET_FLAG(hi2c, I2C_FLAG_STOPF) == SET)
 80021ca:	68fb      	ldr	r3, [r7, #12]
 80021cc:	681b      	ldr	r3, [r3, #0]
 80021ce:	695b      	ldr	r3, [r3, #20]
 80021d0:	f003 0310 	and.w	r3, r3, #16
 80021d4:	2b10      	cmp	r3, #16
 80021d6:	d119      	bne.n	800220c <I2C_WaitOnRXNEFlagUntilTimeout+0x50>
    {
      /* Clear STOP Flag */
      __HAL_I2C_CLEAR_FLAG(hi2c, I2C_FLAG_STOPF);
 80021d8:	68fb      	ldr	r3, [r7, #12]
 80021da:	681b      	ldr	r3, [r3, #0]
 80021dc:	f06f 0210 	mvn.w	r2, #16
 80021e0:	615a      	str	r2, [r3, #20]

      hi2c->PreviousState       = I2C_STATE_NONE;
 80021e2:	68fb      	ldr	r3, [r7, #12]
 80021e4:	2200      	movs	r2, #0
 80021e6:	631a      	str	r2, [r3, #48]	; 0x30
      hi2c->State               = HAL_I2C_STATE_READY;
 80021e8:	68fb      	ldr	r3, [r7, #12]
 80021ea:	2220      	movs	r2, #32
 80021ec:	f883 203d 	strb.w	r2, [r3, #61]	; 0x3d
      hi2c->Mode                = HAL_I2C_MODE_NONE;
 80021f0:	68fb      	ldr	r3, [r7, #12]
 80021f2:	2200      	movs	r2, #0
 80021f4:	f883 203e 	strb.w	r2, [r3, #62]	; 0x3e
      hi2c->ErrorCode           |= HAL_I2C_ERROR_NONE;
 80021f8:	68fb      	ldr	r3, [r7, #12]
 80021fa:	6c1a      	ldr	r2, [r3, #64]	; 0x40
 80021fc:	68fb      	ldr	r3, [r7, #12]
 80021fe:	641a      	str	r2, [r3, #64]	; 0x40

      /* Process Unlocked */
      __HAL_UNLOCK(hi2c);
 8002200:	68fb      	ldr	r3, [r7, #12]
 8002202:	2200      	movs	r2, #0
 8002204:	f883 203c 	strb.w	r2, [r3, #60]	; 0x3c

      return HAL_ERROR;
 8002208:	2301      	movs	r3, #1
 800220a:	e029      	b.n	8002260 <I2C_WaitOnRXNEFlagUntilTimeout+0xa4>
    }

    /* Check for the Timeout */
    if (((HAL_GetTick() - Tickstart) > Timeout) || (Timeout == 0U))
 800220c:	f7fe fd56 	bl	8000cbc <HAL_GetTick>
 8002210:	4602      	mov	r2, r0
 8002212:	687b      	ldr	r3, [r7, #4]
 8002214:	1ad3      	subs	r3, r2, r3
 8002216:	68ba      	ldr	r2, [r7, #8]
 8002218:	429a      	cmp	r2, r3
 800221a:	d302      	bcc.n	8002222 <I2C_WaitOnRXNEFlagUntilTimeout+0x66>
 800221c:	68bb      	ldr	r3, [r7, #8]
 800221e:	2b00      	cmp	r3, #0
 8002220:	d116      	bne.n	8002250 <I2C_WaitOnRXNEFlagUntilTimeout+0x94>
    {
      hi2c->PreviousState       = I2C_STATE_NONE;
 8002222:	68fb      	ldr	r3, [r7, #12]
 8002224:	2200      	movs	r2, #0
 8002226:	631a      	str	r2, [r3, #48]	; 0x30
      hi2c->State               = HAL_I2C_STATE_READY;
 8002228:	68fb      	ldr	r3, [r7, #12]
 800222a:	2220      	movs	r2, #32
 800222c:	f883 203d 	strb.w	r2, [r3, #61]	; 0x3d
      hi2c->Mode                = HAL_I2C_MODE_NONE;
 8002230:	68fb      	ldr	r3, [r7, #12]
 8002232:	2200      	movs	r2, #0
 8002234:	f883 203e 	strb.w	r2, [r3, #62]	; 0x3e
      hi2c->ErrorCode           |= HAL_I2C_ERROR_TIMEOUT;
 8002238:	68fb      	ldr	r3, [r7, #12]
 800223a:	6c1b      	ldr	r3, [r3, #64]	; 0x40
 800223c:	f043 0220 	orr.w	r2, r3, #32
 8002240:	68fb      	ldr	r3, [r7, #12]
 8002242:	641a      	str	r2, [r3, #64]	; 0x40

      /* Process Unlocked */
      __HAL_UNLOCK(hi2c);
 8002244:	68fb      	ldr	r3, [r7, #12]
 8002246:	2200      	movs	r2, #0
 8002248:	f883 203c 	strb.w	r2, [r3, #60]	; 0x3c

      return HAL_ERROR;
 800224c:	2301      	movs	r3, #1
 800224e:	e007      	b.n	8002260 <I2C_WaitOnRXNEFlagUntilTimeout+0xa4>
  while (__HAL_I2C_GET_FLAG(hi2c, I2C_FLAG_RXNE) == RESET)
 8002250:	68fb      	ldr	r3, [r7, #12]
 8002252:	681b      	ldr	r3, [r3, #0]
 8002254:	695b      	ldr	r3, [r3, #20]
 8002256:	f003 0340 	and.w	r3, r3, #64	; 0x40
 800225a:	2b40      	cmp	r3, #64	; 0x40
 800225c:	d1b5      	bne.n	80021ca <I2C_WaitOnRXNEFlagUntilTimeout+0xe>
    }
  }
  return HAL_OK;
 800225e:	2300      	movs	r3, #0
}
 8002260:	4618      	mov	r0, r3
 8002262:	3710      	adds	r7, #16
 8002264:	46bd      	mov	sp, r7
 8002266:	bd80      	pop	{r7, pc}

08002268 <I2C_IsAcknowledgeFailed>:
  * @param  hi2c Pointer to a I2C_HandleTypeDef structure that contains
  *                the configuration information for the specified I2C.
  * @retval HAL status
  */
static HAL_StatusTypeDef I2C_IsAcknowledgeFailed(I2C_HandleTypeDef *hi2c)
{
 8002268:	b480      	push	{r7}
 800226a:	b083      	sub	sp, #12
 800226c:	af00      	add	r7, sp, #0
 800226e:	6078      	str	r0, [r7, #4]
  if (__HAL_I2C_GET_FLAG(hi2c, I2C_FLAG_AF) == SET)
 8002270:	687b      	ldr	r3, [r7, #4]
 8002272:	681b      	ldr	r3, [r3, #0]
 8002274:	695b      	ldr	r3, [r3, #20]
 8002276:	f403 6380 	and.w	r3, r3, #1024	; 0x400
 800227a:	f5b3 6f80 	cmp.w	r3, #1024	; 0x400
 800227e:	d11b      	bne.n	80022b8 <I2C_IsAcknowledgeFailed+0x50>
  {
    /* Clear NACKF Flag */
    __HAL_I2C_CLEAR_FLAG(hi2c, I2C_FLAG_AF);
 8002280:	687b      	ldr	r3, [r7, #4]
 8002282:	681b      	ldr	r3, [r3, #0]
 8002284:	f46f 6280 	mvn.w	r2, #1024	; 0x400
 8002288:	615a      	str	r2, [r3, #20]

    hi2c->PreviousState       = I2C_STATE_NONE;
 800228a:	687b      	ldr	r3, [r7, #4]
 800228c:	2200      	movs	r2, #0
 800228e:	631a      	str	r2, [r3, #48]	; 0x30
    hi2c->State               = HAL_I2C_STATE_READY;
 8002290:	687b      	ldr	r3, [r7, #4]
 8002292:	2220      	movs	r2, #32
 8002294:	f883 203d 	strb.w	r2, [r3, #61]	; 0x3d
    hi2c->Mode                = HAL_I2C_MODE_NONE;
 8002298:	687b      	ldr	r3, [r7, #4]
 800229a:	2200      	movs	r2, #0
 800229c:	f883 203e 	strb.w	r2, [r3, #62]	; 0x3e
    hi2c->ErrorCode           |= HAL_I2C_ERROR_AF;
 80022a0:	687b      	ldr	r3, [r7, #4]
 80022a2:	6c1b      	ldr	r3, [r3, #64]	; 0x40
 80022a4:	f043 0204 	orr.w	r2, r3, #4
 80022a8:	687b      	ldr	r3, [r7, #4]
 80022aa:	641a      	str	r2, [r3, #64]	; 0x40

    /* Process Unlocked */
    __HAL_UNLOCK(hi2c);
 80022ac:	687b      	ldr	r3, [r7, #4]
 80022ae:	2200      	movs	r2, #0
 80022b0:	f883 203c 	strb.w	r2, [r3, #60]	; 0x3c

    return HAL_ERROR;
 80022b4:	2301      	movs	r3, #1
 80022b6:	e000      	b.n	80022ba <I2C_IsAcknowledgeFailed+0x52>
  }
  return HAL_OK;
 80022b8:	2300      	movs	r3, #0
}
 80022ba:	4618      	mov	r0, r3
 80022bc:	370c      	adds	r7, #12
 80022be:	46bd      	mov	sp, r7
 80022c0:	bc80      	pop	{r7}
 80022c2:	4770      	bx	lr

080022c4 <HAL_RCC_OscConfig>:
  *         supported by this macro. User should request a transition to HSE Off
  *         first and then HSE On or HSE Bypass.
  * @retval HAL status
  */
HAL_StatusTypeDef HAL_RCC_OscConfig(RCC_OscInitTypeDef  *RCC_OscInitStruct)
{
 80022c4:	b580      	push	{r7, lr}
 80022c6:	b086      	sub	sp, #24
 80022c8:	af00      	add	r7, sp, #0
 80022ca:	6078      	str	r0, [r7, #4]
  uint32_t tickstart;
  uint32_t pll_config;

  /* Check Null pointer */
  if (RCC_OscInitStruct == NULL)
 80022cc:	687b      	ldr	r3, [r7, #4]
 80022ce:	2b00      	cmp	r3, #0
 80022d0:	d101      	bne.n	80022d6 <HAL_RCC_OscConfig+0x12>
  {
    return HAL_ERROR;
 80022d2:	2301      	movs	r3, #1
 80022d4:	e272      	b.n	80027bc <HAL_RCC_OscConfig+0x4f8>

  /* Check the parameters */
  assert_param(IS_RCC_OSCILLATORTYPE(RCC_OscInitStruct->OscillatorType));

  /*------------------------------- HSE Configuration ------------------------*/
  if (((RCC_OscInitStruct->OscillatorType) & RCC_OSCILLATORTYPE_HSE) == RCC_OSCILLATORTYPE_HSE)
 80022d6:	687b      	ldr	r3, [r7, #4]
 80022d8:	681b      	ldr	r3, [r3, #0]
 80022da:	f003 0301 	and.w	r3, r3, #1
 80022de:	2b00      	cmp	r3, #0
 80022e0:	f000 8087 	beq.w	80023f2 <HAL_RCC_OscConfig+0x12e>
  {
    /* Check the parameters */
    assert_param(IS_RCC_HSE(RCC_OscInitStruct->HSEState));

    /* When the HSE is used as system clock or clock source for PLL in these cases it is not allowed to be disabled */
    if ((__HAL_RCC_GET_SYSCLK_SOURCE() == RCC_SYSCLKSOURCE_STATUS_HSE)
 80022e4:	4b92      	ldr	r3, [pc, #584]	; (8002530 <HAL_RCC_OscConfig+0x26c>)
 80022e6:	685b      	ldr	r3, [r3, #4]
 80022e8:	f003 030c 	and.w	r3, r3, #12
 80022ec:	2b04      	cmp	r3, #4
 80022ee:	d00c      	beq.n	800230a <HAL_RCC_OscConfig+0x46>
        || ((__HAL_RCC_GET_SYSCLK_SOURCE() == RCC_SYSCLKSOURCE_STATUS_PLLCLK) && (__HAL_RCC_GET_PLL_OSCSOURCE() == RCC_PLLSOURCE_HSE)))
 80022f0:	4b8f      	ldr	r3, [pc, #572]	; (8002530 <HAL_RCC_OscConfig+0x26c>)
 80022f2:	685b      	ldr	r3, [r3, #4]
 80022f4:	f003 030c 	and.w	r3, r3, #12
 80022f8:	2b08      	cmp	r3, #8
 80022fa:	d112      	bne.n	8002322 <HAL_RCC_OscConfig+0x5e>
 80022fc:	4b8c      	ldr	r3, [pc, #560]	; (8002530 <HAL_RCC_OscConfig+0x26c>)
 80022fe:	685b      	ldr	r3, [r3, #4]
 8002300:	f403 3380 	and.w	r3, r3, #65536	; 0x10000
 8002304:	f5b3 3f80 	cmp.w	r3, #65536	; 0x10000
 8002308:	d10b      	bne.n	8002322 <HAL_RCC_OscConfig+0x5e>
    {
      if ((__HAL_RCC_GET_FLAG(RCC_FLAG_HSERDY) != RESET) && (RCC_OscInitStruct->HSEState == RCC_HSE_OFF))
 800230a:	4b89      	ldr	r3, [pc, #548]	; (8002530 <HAL_RCC_OscConfig+0x26c>)
 800230c:	681b      	ldr	r3, [r3, #0]
 800230e:	f403 3300 	and.w	r3, r3, #131072	; 0x20000
 8002312:	2b00      	cmp	r3, #0
 8002314:	d06c      	beq.n	80023f0 <HAL_RCC_OscConfig+0x12c>
 8002316:	687b      	ldr	r3, [r7, #4]
 8002318:	685b      	ldr	r3, [r3, #4]
 800231a:	2b00      	cmp	r3, #0
 800231c:	d168      	bne.n	80023f0 <HAL_RCC_OscConfig+0x12c>
      {
        return HAL_ERROR;
 800231e:	2301      	movs	r3, #1
 8002320:	e24c      	b.n	80027bc <HAL_RCC_OscConfig+0x4f8>
      }
    }
    else
    {
      /* Set the new HSE configuration ---------------------------------------*/
      __HAL_RCC_HSE_CONFIG(RCC_OscInitStruct->HSEState);
 8002322:	687b      	ldr	r3, [r7, #4]
 8002324:	685b      	ldr	r3, [r3, #4]
 8002326:	f5b3 3f80 	cmp.w	r3, #65536	; 0x10000
 800232a:	d106      	bne.n	800233a <HAL_RCC_OscConfig+0x76>
 800232c:	4b80      	ldr	r3, [pc, #512]	; (8002530 <HAL_RCC_OscConfig+0x26c>)
 800232e:	681b      	ldr	r3, [r3, #0]
 8002330:	4a7f      	ldr	r2, [pc, #508]	; (8002530 <HAL_RCC_OscConfig+0x26c>)
 8002332:	f443 3380 	orr.w	r3, r3, #65536	; 0x10000
 8002336:	6013      	str	r3, [r2, #0]
 8002338:	e02e      	b.n	8002398 <HAL_RCC_OscConfig+0xd4>
 800233a:	687b      	ldr	r3, [r7, #4]
 800233c:	685b      	ldr	r3, [r3, #4]
 800233e:	2b00      	cmp	r3, #0
 8002340:	d10c      	bne.n	800235c <HAL_RCC_OscConfig+0x98>
 8002342:	4b7b      	ldr	r3, [pc, #492]	; (8002530 <HAL_RCC_OscConfig+0x26c>)
 8002344:	681b      	ldr	r3, [r3, #0]
 8002346:	4a7a      	ldr	r2, [pc, #488]	; (8002530 <HAL_RCC_OscConfig+0x26c>)
 8002348:	f423 3380 	bic.w	r3, r3, #65536	; 0x10000
 800234c:	6013      	str	r3, [r2, #0]
 800234e:	4b78      	ldr	r3, [pc, #480]	; (8002530 <HAL_RCC_OscConfig+0x26c>)
 8002350:	681b      	ldr	r3, [r3, #0]
 8002352:	4a77      	ldr	r2, [pc, #476]	; (8002530 <HAL_RCC_OscConfig+0x26c>)
 8002354:	f423 2380 	bic.w	r3, r3, #262144	; 0x40000
 8002358:	6013      	str	r3, [r2, #0]
 800235a:	e01d      	b.n	8002398 <HAL_RCC_OscConfig+0xd4>
 800235c:	687b      	ldr	r3, [r7, #4]
 800235e:	685b      	ldr	r3, [r3, #4]
 8002360:	f5b3 2fa0 	cmp.w	r3, #327680	; 0x50000
 8002364:	d10c      	bne.n	8002380 <HAL_RCC_OscConfig+0xbc>
 8002366:	4b72      	ldr	r3, [pc, #456]	; (8002530 <HAL_RCC_OscConfig+0x26c>)
 8002368:	681b      	ldr	r3, [r3, #0]
 800236a:	4a71      	ldr	r2, [pc, #452]	; (8002530 <HAL_RCC_OscConfig+0x26c>)
 800236c:	f443 2380 	orr.w	r3, r3, #262144	; 0x40000
 8002370:	6013      	str	r3, [r2, #0]
 8002372:	4b6f      	ldr	r3, [pc, #444]	; (8002530 <HAL_RCC_OscConfig+0x26c>)
 8002374:	681b      	ldr	r3, [r3, #0]
 8002376:	4a6e      	ldr	r2, [pc, #440]	; (8002530 <HAL_RCC_OscConfig+0x26c>)
 8002378:	f443 3380 	orr.w	r3, r3, #65536	; 0x10000
 800237c:	6013      	str	r3, [r2, #0]
 800237e:	e00b      	b.n	8002398 <HAL_RCC_OscConfig+0xd4>
 8002380:	4b6b      	ldr	r3, [pc, #428]	; (8002530 <HAL_RCC_OscConfig+0x26c>)
 8002382:	681b      	ldr	r3, [r3, #0]
 8002384:	4a6a      	ldr	r2, [pc, #424]	; (8002530 <HAL_RCC_OscConfig+0x26c>)
 8002386:	f423 3380 	bic.w	r3, r3, #65536	; 0x10000
 800238a:	6013      	str	r3, [r2, #0]
 800238c:	4b68      	ldr	r3, [pc, #416]	; (8002530 <HAL_RCC_OscConfig+0x26c>)
 800238e:	681b      	ldr	r3, [r3, #0]
 8002390:	4a67      	ldr	r2, [pc, #412]	; (8002530 <HAL_RCC_OscConfig+0x26c>)
 8002392:	f423 2380 	bic.w	r3, r3, #262144	; 0x40000
 8002396:	6013      	str	r3, [r2, #0]


      /* Check the HSE State */
      if (RCC_OscInitStruct->HSEState != RCC_HSE_OFF)
 8002398:	687b      	ldr	r3, [r7, #4]
 800239a:	685b      	ldr	r3, [r3, #4]
 800239c:	2b00      	cmp	r3, #0
 800239e:	d013      	beq.n	80023c8 <HAL_RCC_OscConfig+0x104>
      {
        /* Get Start Tick */
        tickstart = HAL_GetTick();
 80023a0:	f7fe fc8c 	bl	8000cbc <HAL_GetTick>
 80023a4:	6138      	str	r0, [r7, #16]

        /* Wait till HSE is ready */
        while (__HAL_RCC_GET_FLAG(RCC_FLAG_HSERDY) == RESET)
 80023a6:	e008      	b.n	80023ba <HAL_RCC_OscConfig+0xf6>
        {
          if ((HAL_GetTick() - tickstart) > HSE_TIMEOUT_VALUE)
 80023a8:	f7fe fc88 	bl	8000cbc <HAL_GetTick>
 80023ac:	4602      	mov	r2, r0
 80023ae:	693b      	ldr	r3, [r7, #16]
 80023b0:	1ad3      	subs	r3, r2, r3
 80023b2:	2b64      	cmp	r3, #100	; 0x64
 80023b4:	d901      	bls.n	80023ba <HAL_RCC_OscConfig+0xf6>
          {
            return HAL_TIMEOUT;
 80023b6:	2303      	movs	r3, #3
 80023b8:	e200      	b.n	80027bc <HAL_RCC_OscConfig+0x4f8>
        while (__HAL_RCC_GET_FLAG(RCC_FLAG_HSERDY) == RESET)
 80023ba:	4b5d      	ldr	r3, [pc, #372]	; (8002530 <HAL_RCC_OscConfig+0x26c>)
 80023bc:	681b      	ldr	r3, [r3, #0]
 80023be:	f403 3300 	and.w	r3, r3, #131072	; 0x20000
 80023c2:	2b00      	cmp	r3, #0
 80023c4:	d0f0      	beq.n	80023a8 <HAL_RCC_OscConfig+0xe4>
 80023c6:	e014      	b.n	80023f2 <HAL_RCC_OscConfig+0x12e>
        }
      }
      else
      {
        /* Get Start Tick */
        tickstart = HAL_GetTick();
 80023c8:	f7fe fc78 	bl	8000cbc <HAL_GetTick>
 80023cc:	6138      	str	r0, [r7, #16]

        /* Wait till HSE is disabled */
        while (__HAL_RCC_GET_FLAG(RCC_FLAG_HSERDY) != RESET)
 80023ce:	e008      	b.n	80023e2 <HAL_RCC_OscConfig+0x11e>
        {
          if ((HAL_GetTick() - tickstart) > HSE_TIMEOUT_VALUE)
 80023d0:	f7fe fc74 	bl	8000cbc <HAL_GetTick>
 80023d4:	4602      	mov	r2, r0
 80023d6:	693b      	ldr	r3, [r7, #16]
 80023d8:	1ad3      	subs	r3, r2, r3
 80023da:	2b64      	cmp	r3, #100	; 0x64
 80023dc:	d901      	bls.n	80023e2 <HAL_RCC_OscConfig+0x11e>
          {
            return HAL_TIMEOUT;
 80023de:	2303      	movs	r3, #3
 80023e0:	e1ec      	b.n	80027bc <HAL_RCC_OscConfig+0x4f8>
        while (__HAL_RCC_GET_FLAG(RCC_FLAG_HSERDY) != RESET)
 80023e2:	4b53      	ldr	r3, [pc, #332]	; (8002530 <HAL_RCC_OscConfig+0x26c>)
 80023e4:	681b      	ldr	r3, [r3, #0]
 80023e6:	f403 3300 	and.w	r3, r3, #131072	; 0x20000
 80023ea:	2b00      	cmp	r3, #0
 80023ec:	d1f0      	bne.n	80023d0 <HAL_RCC_OscConfig+0x10c>
 80023ee:	e000      	b.n	80023f2 <HAL_RCC_OscConfig+0x12e>
      if ((__HAL_RCC_GET_FLAG(RCC_FLAG_HSERDY) != RESET) && (RCC_OscInitStruct->HSEState == RCC_HSE_OFF))
 80023f0:	bf00      	nop
        }
      }
    }
  }
  /*----------------------------- HSI Configuration --------------------------*/
  if (((RCC_OscInitStruct->OscillatorType) & RCC_OSCILLATORTYPE_HSI) == RCC_OSCILLATORTYPE_HSI)
 80023f2:	687b      	ldr	r3, [r7, #4]
 80023f4:	681b      	ldr	r3, [r3, #0]
 80023f6:	f003 0302 	and.w	r3, r3, #2
 80023fa:	2b00      	cmp	r3, #0
 80023fc:	d063      	beq.n	80024c6 <HAL_RCC_OscConfig+0x202>
    /* Check the parameters */
    assert_param(IS_RCC_HSI(RCC_OscInitStruct->HSIState));
    assert_param(IS_RCC_CALIBRATION_VALUE(RCC_OscInitStruct->HSICalibrationValue));

    /* Check if HSI is used as system clock or as PLL source when PLL is selected as system clock */
    if ((__HAL_RCC_GET_SYSCLK_SOURCE() == RCC_SYSCLKSOURCE_STATUS_HSI)
 80023fe:	4b4c      	ldr	r3, [pc, #304]	; (8002530 <HAL_RCC_OscConfig+0x26c>)
 8002400:	685b      	ldr	r3, [r3, #4]
 8002402:	f003 030c 	and.w	r3, r3, #12
 8002406:	2b00      	cmp	r3, #0
 8002408:	d00b      	beq.n	8002422 <HAL_RCC_OscConfig+0x15e>
        || ((__HAL_RCC_GET_SYSCLK_SOURCE() == RCC_SYSCLKSOURCE_STATUS_PLLCLK) && (__HAL_RCC_GET_PLL_OSCSOURCE() == RCC_PLLSOURCE_HSI_DIV2)))
 800240a:	4b49      	ldr	r3, [pc, #292]	; (8002530 <HAL_RCC_OscConfig+0x26c>)
 800240c:	685b      	ldr	r3, [r3, #4]
 800240e:	f003 030c 	and.w	r3, r3, #12
 8002412:	2b08      	cmp	r3, #8
 8002414:	d11c      	bne.n	8002450 <HAL_RCC_OscConfig+0x18c>
 8002416:	4b46      	ldr	r3, [pc, #280]	; (8002530 <HAL_RCC_OscConfig+0x26c>)
 8002418:	685b      	ldr	r3, [r3, #4]
 800241a:	f403 3380 	and.w	r3, r3, #65536	; 0x10000
 800241e:	2b00      	cmp	r3, #0
 8002420:	d116      	bne.n	8002450 <HAL_RCC_OscConfig+0x18c>
    {
      /* When HSI is used as system clock it will not disabled */
      if ((__HAL_RCC_GET_FLAG(RCC_FLAG_HSIRDY) != RESET) && (RCC_OscInitStruct->HSIState != RCC_HSI_ON))
 8002422:	4b43      	ldr	r3, [pc, #268]	; (8002530 <HAL_RCC_OscConfig+0x26c>)
 8002424:	681b      	ldr	r3, [r3, #0]
 8002426:	f003 0302 	and.w	r3, r3, #2
 800242a:	2b00      	cmp	r3, #0
 800242c:	d005      	beq.n	800243a <HAL_RCC_OscConfig+0x176>
 800242e:	687b      	ldr	r3, [r7, #4]
 8002430:	691b      	ldr	r3, [r3, #16]
 8002432:	2b01      	cmp	r3, #1
 8002434:	d001      	beq.n	800243a <HAL_RCC_OscConfig+0x176>
      {
        return HAL_ERROR;
 8002436:	2301      	movs	r3, #1
 8002438:	e1c0      	b.n	80027bc <HAL_RCC_OscConfig+0x4f8>
      }
      /* Otherwise, just the calibration is allowed */
      else
      {
        /* Adjusts the Internal High Speed oscillator (HSI) calibration value.*/
        __HAL_RCC_HSI_CALIBRATIONVALUE_ADJUST(RCC_OscInitStruct->HSICalibrationValue);
 800243a:	4b3d      	ldr	r3, [pc, #244]	; (8002530 <HAL_RCC_OscConfig+0x26c>)
 800243c:	681b      	ldr	r3, [r3, #0]
 800243e:	f023 02f8 	bic.w	r2, r3, #248	; 0xf8
 8002442:	687b      	ldr	r3, [r7, #4]
 8002444:	695b      	ldr	r3, [r3, #20]
 8002446:	00db      	lsls	r3, r3, #3
 8002448:	4939      	ldr	r1, [pc, #228]	; (8002530 <HAL_RCC_OscConfig+0x26c>)
 800244a:	4313      	orrs	r3, r2
 800244c:	600b      	str	r3, [r1, #0]
      if ((__HAL_RCC_GET_FLAG(RCC_FLAG_HSIRDY) != RESET) && (RCC_OscInitStruct->HSIState != RCC_HSI_ON))
 800244e:	e03a      	b.n	80024c6 <HAL_RCC_OscConfig+0x202>
      }
    }
    else
    {
      /* Check the HSI State */
      if (RCC_OscInitStruct->HSIState != RCC_HSI_OFF)
 8002450:	687b      	ldr	r3, [r7, #4]
 8002452:	691b      	ldr	r3, [r3, #16]
 8002454:	2b00      	cmp	r3, #0
 8002456:	d020      	beq.n	800249a <HAL_RCC_OscConfig+0x1d6>
      {
        /* Enable the Internal High Speed oscillator (HSI). */
        __HAL_RCC_HSI_ENABLE();
 8002458:	4b36      	ldr	r3, [pc, #216]	; (8002534 <HAL_RCC_OscConfig+0x270>)
 800245a:	2201      	movs	r2, #1
 800245c:	601a      	str	r2, [r3, #0]

        /* Get Start Tick */
        tickstart = HAL_GetTick();
 800245e:	f7fe fc2d 	bl	8000cbc <HAL_GetTick>
 8002462:	6138      	str	r0, [r7, #16]

        /* Wait till HSI is ready */
        while (__HAL_RCC_GET_FLAG(RCC_FLAG_HSIRDY) == RESET)
 8002464:	e008      	b.n	8002478 <HAL_RCC_OscConfig+0x1b4>
        {
          if ((HAL_GetTick() - tickstart) > HSI_TIMEOUT_VALUE)
 8002466:	f7fe fc29 	bl	8000cbc <HAL_GetTick>
 800246a:	4602      	mov	r2, r0
 800246c:	693b      	ldr	r3, [r7, #16]
 800246e:	1ad3      	subs	r3, r2, r3
 8002470:	2b02      	cmp	r3, #2
 8002472:	d901      	bls.n	8002478 <HAL_RCC_OscConfig+0x1b4>
          {
            return HAL_TIMEOUT;
 8002474:	2303      	movs	r3, #3
 8002476:	e1a1      	b.n	80027bc <HAL_RCC_OscConfig+0x4f8>
        while (__HAL_RCC_GET_FLAG(RCC_FLAG_HSIRDY) == RESET)
 8002478:	4b2d      	ldr	r3, [pc, #180]	; (8002530 <HAL_RCC_OscConfig+0x26c>)
 800247a:	681b      	ldr	r3, [r3, #0]
 800247c:	f003 0302 	and.w	r3, r3, #2
 8002480:	2b00      	cmp	r3, #0
 8002482:	d0f0      	beq.n	8002466 <HAL_RCC_OscConfig+0x1a2>
          }
        }

        /* Adjusts the Internal High Speed oscillator (HSI) calibration value.*/
        __HAL_RCC_HSI_CALIBRATIONVALUE_ADJUST(RCC_OscInitStruct->HSICalibrationValue);
 8002484:	4b2a      	ldr	r3, [pc, #168]	; (8002530 <HAL_RCC_OscConfig+0x26c>)
 8002486:	681b      	ldr	r3, [r3, #0]
 8002488:	f023 02f8 	bic.w	r2, r3, #248	; 0xf8
 800248c:	687b      	ldr	r3, [r7, #4]
 800248e:	695b      	ldr	r3, [r3, #20]
 8002490:	00db      	lsls	r3, r3, #3
 8002492:	4927      	ldr	r1, [pc, #156]	; (8002530 <HAL_RCC_OscConfig+0x26c>)
 8002494:	4313      	orrs	r3, r2
 8002496:	600b      	str	r3, [r1, #0]
 8002498:	e015      	b.n	80024c6 <HAL_RCC_OscConfig+0x202>
      }
      else
      {
        /* Disable the Internal High Speed oscillator (HSI). */
        __HAL_RCC_HSI_DISABLE();
 800249a:	4b26      	ldr	r3, [pc, #152]	; (8002534 <HAL_RCC_OscConfig+0x270>)
 800249c:	2200      	movs	r2, #0
 800249e:	601a      	str	r2, [r3, #0]

        /* Get Start Tick */
        tickstart = HAL_GetTick();
 80024a0:	f7fe fc0c 	bl	8000cbc <HAL_GetTick>
 80024a4:	6138      	str	r0, [r7, #16]

        /* Wait till HSI is disabled */
        while (__HAL_RCC_GET_FLAG(RCC_FLAG_HSIRDY) != RESET)
 80024a6:	e008      	b.n	80024ba <HAL_RCC_OscConfig+0x1f6>
        {
          if ((HAL_GetTick() - tickstart) > HSI_TIMEOUT_VALUE)
 80024a8:	f7fe fc08 	bl	8000cbc <HAL_GetTick>
 80024ac:	4602      	mov	r2, r0
 80024ae:	693b      	ldr	r3, [r7, #16]
 80024b0:	1ad3      	subs	r3, r2, r3
 80024b2:	2b02      	cmp	r3, #2
 80024b4:	d901      	bls.n	80024ba <HAL_RCC_OscConfig+0x1f6>
          {
            return HAL_TIMEOUT;
 80024b6:	2303      	movs	r3, #3
 80024b8:	e180      	b.n	80027bc <HAL_RCC_OscConfig+0x4f8>
        while (__HAL_RCC_GET_FLAG(RCC_FLAG_HSIRDY) != RESET)
 80024ba:	4b1d      	ldr	r3, [pc, #116]	; (8002530 <HAL_RCC_OscConfig+0x26c>)
 80024bc:	681b      	ldr	r3, [r3, #0]
 80024be:	f003 0302 	and.w	r3, r3, #2
 80024c2:	2b00      	cmp	r3, #0
 80024c4:	d1f0      	bne.n	80024a8 <HAL_RCC_OscConfig+0x1e4>
        }
      }
    }
  }
  /*------------------------------ LSI Configuration -------------------------*/
  if (((RCC_OscInitStruct->OscillatorType) & RCC_OSCILLATORTYPE_LSI) == RCC_OSCILLATORTYPE_LSI)
 80024c6:	687b      	ldr	r3, [r7, #4]
 80024c8:	681b      	ldr	r3, [r3, #0]
 80024ca:	f003 0308 	and.w	r3, r3, #8
 80024ce:	2b00      	cmp	r3, #0
 80024d0:	d03a      	beq.n	8002548 <HAL_RCC_OscConfig+0x284>
  {
    /* Check the parameters */
    assert_param(IS_RCC_LSI(RCC_OscInitStruct->LSIState));

    /* Check the LSI State */
    if (RCC_OscInitStruct->LSIState != RCC_LSI_OFF)
 80024d2:	687b      	ldr	r3, [r7, #4]
 80024d4:	699b      	ldr	r3, [r3, #24]
 80024d6:	2b00      	cmp	r3, #0
 80024d8:	d019      	beq.n	800250e <HAL_RCC_OscConfig+0x24a>
    {
      /* Enable the Internal Low Speed oscillator (LSI). */
      __HAL_RCC_LSI_ENABLE();
 80024da:	4b17      	ldr	r3, [pc, #92]	; (8002538 <HAL_RCC_OscConfig+0x274>)
 80024dc:	2201      	movs	r2, #1
 80024de:	601a      	str	r2, [r3, #0]

      /* Get Start Tick */
      tickstart = HAL_GetTick();
 80024e0:	f7fe fbec 	bl	8000cbc <HAL_GetTick>
 80024e4:	6138      	str	r0, [r7, #16]

      /* Wait till LSI is ready */
      while (__HAL_RCC_GET_FLAG(RCC_FLAG_LSIRDY) == RESET)
 80024e6:	e008      	b.n	80024fa <HAL_RCC_OscConfig+0x236>
      {
        if ((HAL_GetTick() - tickstart) > LSI_TIMEOUT_VALUE)
 80024e8:	f7fe fbe8 	bl	8000cbc <HAL_GetTick>
 80024ec:	4602      	mov	r2, r0
 80024ee:	693b      	ldr	r3, [r7, #16]
 80024f0:	1ad3      	subs	r3, r2, r3
 80024f2:	2b02      	cmp	r3, #2
 80024f4:	d901      	bls.n	80024fa <HAL_RCC_OscConfig+0x236>
        {
          return HAL_TIMEOUT;
 80024f6:	2303      	movs	r3, #3
 80024f8:	e160      	b.n	80027bc <HAL_RCC_OscConfig+0x4f8>
      while (__HAL_RCC_GET_FLAG(RCC_FLAG_LSIRDY) == RESET)
 80024fa:	4b0d      	ldr	r3, [pc, #52]	; (8002530 <HAL_RCC_OscConfig+0x26c>)
 80024fc:	6a5b      	ldr	r3, [r3, #36]	; 0x24
 80024fe:	f003 0302 	and.w	r3, r3, #2
 8002502:	2b00      	cmp	r3, #0
 8002504:	d0f0      	beq.n	80024e8 <HAL_RCC_OscConfig+0x224>
        }
      }
      /*  To have a fully stabilized clock in the specified range, a software delay of 1ms
          should be added.*/
      RCC_Delay(1);
 8002506:	2001      	movs	r0, #1
 8002508:	f000 fad8 	bl	8002abc <RCC_Delay>
 800250c:	e01c      	b.n	8002548 <HAL_RCC_OscConfig+0x284>
    }
    else
    {
      /* Disable the Internal Low Speed oscillator (LSI). */
      __HAL_RCC_LSI_DISABLE();
 800250e:	4b0a      	ldr	r3, [pc, #40]	; (8002538 <HAL_RCC_OscConfig+0x274>)
 8002510:	2200      	movs	r2, #0
 8002512:	601a      	str	r2, [r3, #0]

      /* Get Start Tick */
      tickstart = HAL_GetTick();
 8002514:	f7fe fbd2 	bl	8000cbc <HAL_GetTick>
 8002518:	6138      	str	r0, [r7, #16]

      /* Wait till LSI is disabled */
      while (__HAL_RCC_GET_FLAG(RCC_FLAG_LSIRDY) != RESET)
 800251a:	e00f      	b.n	800253c <HAL_RCC_OscConfig+0x278>
      {
        if ((HAL_GetTick() - tickstart) > LSI_TIMEOUT_VALUE)
 800251c:	f7fe fbce 	bl	8000cbc <HAL_GetTick>
 8002520:	4602      	mov	r2, r0
 8002522:	693b      	ldr	r3, [r7, #16]
 8002524:	1ad3      	subs	r3, r2, r3
 8002526:	2b02      	cmp	r3, #2
 8002528:	d908      	bls.n	800253c <HAL_RCC_OscConfig+0x278>
        {
          return HAL_TIMEOUT;
 800252a:	2303      	movs	r3, #3
 800252c:	e146      	b.n	80027bc <HAL_RCC_OscConfig+0x4f8>
 800252e:	bf00      	nop
 8002530:	40021000 	.word	0x40021000
 8002534:	42420000 	.word	0x42420000
 8002538:	42420480 	.word	0x42420480
      while (__HAL_RCC_GET_FLAG(RCC_FLAG_LSIRDY) != RESET)
 800253c:	4b92      	ldr	r3, [pc, #584]	; (8002788 <HAL_RCC_OscConfig+0x4c4>)
 800253e:	6a5b      	ldr	r3, [r3, #36]	; 0x24
 8002540:	f003 0302 	and.w	r3, r3, #2
 8002544:	2b00      	cmp	r3, #0
 8002546:	d1e9      	bne.n	800251c <HAL_RCC_OscConfig+0x258>
        }
      }
    }
  }
  /*------------------------------ LSE Configuration -------------------------*/
  if (((RCC_OscInitStruct->OscillatorType) & RCC_OSCILLATORTYPE_LSE) == RCC_OSCILLATORTYPE_LSE)
 8002548:	687b      	ldr	r3, [r7, #4]
 800254a:	681b      	ldr	r3, [r3, #0]
 800254c:	f003 0304 	and.w	r3, r3, #4
 8002550:	2b00      	cmp	r3, #0
 8002552:	f000 80a6 	beq.w	80026a2 <HAL_RCC_OscConfig+0x3de>
  {
    FlagStatus       pwrclkchanged = RESET;
 8002556:	2300      	movs	r3, #0
 8002558:	75fb      	strb	r3, [r7, #23]
    /* Check the parameters */
    assert_param(IS_RCC_LSE(RCC_OscInitStruct->LSEState));

    /* Update LSE configuration in Backup Domain control register    */
    /* Requires to enable write access to Backup Domain of necessary */
    if (__HAL_RCC_PWR_IS_CLK_DISABLED())
 800255a:	4b8b      	ldr	r3, [pc, #556]	; (8002788 <HAL_RCC_OscConfig+0x4c4>)
 800255c:	69db      	ldr	r3, [r3, #28]
 800255e:	f003 5380 	and.w	r3, r3, #268435456	; 0x10000000
 8002562:	2b00      	cmp	r3, #0
 8002564:	d10d      	bne.n	8002582 <HAL_RCC_OscConfig+0x2be>
    {
      __HAL_RCC_PWR_CLK_ENABLE();
 8002566:	4b88      	ldr	r3, [pc, #544]	; (8002788 <HAL_RCC_OscConfig+0x4c4>)
 8002568:	69db      	ldr	r3, [r3, #28]
 800256a:	4a87      	ldr	r2, [pc, #540]	; (8002788 <HAL_RCC_OscConfig+0x4c4>)
 800256c:	f043 5380 	orr.w	r3, r3, #268435456	; 0x10000000
 8002570:	61d3      	str	r3, [r2, #28]
 8002572:	4b85      	ldr	r3, [pc, #532]	; (8002788 <HAL_RCC_OscConfig+0x4c4>)
 8002574:	69db      	ldr	r3, [r3, #28]
 8002576:	f003 5380 	and.w	r3, r3, #268435456	; 0x10000000
 800257a:	60bb      	str	r3, [r7, #8]
 800257c:	68bb      	ldr	r3, [r7, #8]
      pwrclkchanged = SET;
 800257e:	2301      	movs	r3, #1
 8002580:	75fb      	strb	r3, [r7, #23]
    }

    if (HAL_IS_BIT_CLR(PWR->CR, PWR_CR_DBP))
 8002582:	4b82      	ldr	r3, [pc, #520]	; (800278c <HAL_RCC_OscConfig+0x4c8>)
 8002584:	681b      	ldr	r3, [r3, #0]
 8002586:	f403 7380 	and.w	r3, r3, #256	; 0x100
 800258a:	2b00      	cmp	r3, #0
 800258c:	d118      	bne.n	80025c0 <HAL_RCC_OscConfig+0x2fc>
    {
      /* Enable write access to Backup domain */
      SET_BIT(PWR->CR, PWR_CR_DBP);
 800258e:	4b7f      	ldr	r3, [pc, #508]	; (800278c <HAL_RCC_OscConfig+0x4c8>)
 8002590:	681b      	ldr	r3, [r3, #0]
 8002592:	4a7e      	ldr	r2, [pc, #504]	; (800278c <HAL_RCC_OscConfig+0x4c8>)
 8002594:	f443 7380 	orr.w	r3, r3, #256	; 0x100
 8002598:	6013      	str	r3, [r2, #0]

      /* Wait for Backup domain Write protection disable */
      tickstart = HAL_GetTick();
 800259a:	f7fe fb8f 	bl	8000cbc <HAL_GetTick>
 800259e:	6138      	str	r0, [r7, #16]

      while (HAL_IS_BIT_CLR(PWR->CR, PWR_CR_DBP))
 80025a0:	e008      	b.n	80025b4 <HAL_RCC_OscConfig+0x2f0>
      {
        if ((HAL_GetTick() - tickstart) > RCC_DBP_TIMEOUT_VALUE)
 80025a2:	f7fe fb8b 	bl	8000cbc <HAL_GetTick>
 80025a6:	4602      	mov	r2, r0
 80025a8:	693b      	ldr	r3, [r7, #16]
 80025aa:	1ad3      	subs	r3, r2, r3
 80025ac:	2b64      	cmp	r3, #100	; 0x64
 80025ae:	d901      	bls.n	80025b4 <HAL_RCC_OscConfig+0x2f0>
        {
          return HAL_TIMEOUT;
 80025b0:	2303      	movs	r3, #3
 80025b2:	e103      	b.n	80027bc <HAL_RCC_OscConfig+0x4f8>
      while (HAL_IS_BIT_CLR(PWR->CR, PWR_CR_DBP))
 80025b4:	4b75      	ldr	r3, [pc, #468]	; (800278c <HAL_RCC_OscConfig+0x4c8>)
 80025b6:	681b      	ldr	r3, [r3, #0]
 80025b8:	f403 7380 	and.w	r3, r3, #256	; 0x100
 80025bc:	2b00      	cmp	r3, #0
 80025be:	d0f0      	beq.n	80025a2 <HAL_RCC_OscConfig+0x2de>
        }
      }
    }

    /* Set the new LSE configuration -----------------------------------------*/
    __HAL_RCC_LSE_CONFIG(RCC_OscInitStruct->LSEState);
 80025c0:	687b      	ldr	r3, [r7, #4]
 80025c2:	68db      	ldr	r3, [r3, #12]
 80025c4:	2b01      	cmp	r3, #1
 80025c6:	d106      	bne.n	80025d6 <HAL_RCC_OscConfig+0x312>
 80025c8:	4b6f      	ldr	r3, [pc, #444]	; (8002788 <HAL_RCC_OscConfig+0x4c4>)
 80025ca:	6a1b      	ldr	r3, [r3, #32]
 80025cc:	4a6e      	ldr	r2, [pc, #440]	; (8002788 <HAL_RCC_OscConfig+0x4c4>)
 80025ce:	f043 0301 	orr.w	r3, r3, #1
 80025d2:	6213      	str	r3, [r2, #32]
 80025d4:	e02d      	b.n	8002632 <HAL_RCC_OscConfig+0x36e>
 80025d6:	687b      	ldr	r3, [r7, #4]
 80025d8:	68db      	ldr	r3, [r3, #12]
 80025da:	2b00      	cmp	r3, #0
 80025dc:	d10c      	bne.n	80025f8 <HAL_RCC_OscConfig+0x334>
 80025de:	4b6a      	ldr	r3, [pc, #424]	; (8002788 <HAL_RCC_OscConfig+0x4c4>)
 80025e0:	6a1b      	ldr	r3, [r3, #32]
 80025e2:	4a69      	ldr	r2, [pc, #420]	; (8002788 <HAL_RCC_OscConfig+0x4c4>)
 80025e4:	f023 0301 	bic.w	r3, r3, #1
 80025e8:	6213      	str	r3, [r2, #32]
 80025ea:	4b67      	ldr	r3, [pc, #412]	; (8002788 <HAL_RCC_OscConfig+0x4c4>)
 80025ec:	6a1b      	ldr	r3, [r3, #32]
 80025ee:	4a66      	ldr	r2, [pc, #408]	; (8002788 <HAL_RCC_OscConfig+0x4c4>)
 80025f0:	f023 0304 	bic.w	r3, r3, #4
 80025f4:	6213      	str	r3, [r2, #32]
 80025f6:	e01c      	b.n	8002632 <HAL_RCC_OscConfig+0x36e>
 80025f8:	687b      	ldr	r3, [r7, #4]
 80025fa:	68db      	ldr	r3, [r3, #12]
 80025fc:	2b05      	cmp	r3, #5
 80025fe:	d10c      	bne.n	800261a <HAL_RCC_OscConfig+0x356>
 8002600:	4b61      	ldr	r3, [pc, #388]	; (8002788 <HAL_RCC_OscConfig+0x4c4>)
 8002602:	6a1b      	ldr	r3, [r3, #32]
 8002604:	4a60      	ldr	r2, [pc, #384]	; (8002788 <HAL_RCC_OscConfig+0x4c4>)
 8002606:	f043 0304 	orr.w	r3, r3, #4
 800260a:	6213      	str	r3, [r2, #32]
 800260c:	4b5e      	ldr	r3, [pc, #376]	; (8002788 <HAL_RCC_OscConfig+0x4c4>)
 800260e:	6a1b      	ldr	r3, [r3, #32]
 8002610:	4a5d      	ldr	r2, [pc, #372]	; (8002788 <HAL_RCC_OscConfig+0x4c4>)
 8002612:	f043 0301 	orr.w	r3, r3, #1
 8002616:	6213      	str	r3, [r2, #32]
 8002618:	e00b      	b.n	8002632 <HAL_RCC_OscConfig+0x36e>
 800261a:	4b5b      	ldr	r3, [pc, #364]	; (8002788 <HAL_RCC_OscConfig+0x4c4>)
 800261c:	6a1b      	ldr	r3, [r3, #32]
 800261e:	4a5a      	ldr	r2, [pc, #360]	; (8002788 <HAL_RCC_OscConfig+0x4c4>)
 8002620:	f023 0301 	bic.w	r3, r3, #1
 8002624:	6213      	str	r3, [r2, #32]
 8002626:	4b58      	ldr	r3, [pc, #352]	; (8002788 <HAL_RCC_OscConfig+0x4c4>)
 8002628:	6a1b      	ldr	r3, [r3, #32]
 800262a:	4a57      	ldr	r2, [pc, #348]	; (8002788 <HAL_RCC_OscConfig+0x4c4>)
 800262c:	f023 0304 	bic.w	r3, r3, #4
 8002630:	6213      	str	r3, [r2, #32]
    /* Check the LSE State */
    if (RCC_OscInitStruct->LSEState != RCC_LSE_OFF)
 8002632:	687b      	ldr	r3, [r7, #4]
 8002634:	68db      	ldr	r3, [r3, #12]
 8002636:	2b00      	cmp	r3, #0
 8002638:	d015      	beq.n	8002666 <HAL_RCC_OscConfig+0x3a2>
    {
      /* Get Start Tick */
      tickstart = HAL_GetTick();
 800263a:	f7fe fb3f 	bl	8000cbc <HAL_GetTick>
 800263e:	6138      	str	r0, [r7, #16]

      /* Wait till LSE is ready */
      while (__HAL_RCC_GET_FLAG(RCC_FLAG_LSERDY) == RESET)
 8002640:	e00a      	b.n	8002658 <HAL_RCC_OscConfig+0x394>
      {
        if ((HAL_GetTick() - tickstart) > RCC_LSE_TIMEOUT_VALUE)
 8002642:	f7fe fb3b 	bl	8000cbc <HAL_GetTick>
 8002646:	4602      	mov	r2, r0
 8002648:	693b      	ldr	r3, [r7, #16]
 800264a:	1ad3      	subs	r3, r2, r3
 800264c:	f241 3288 	movw	r2, #5000	; 0x1388
 8002650:	4293      	cmp	r3, r2
 8002652:	d901      	bls.n	8002658 <HAL_RCC_OscConfig+0x394>
        {
          return HAL_TIMEOUT;
 8002654:	2303      	movs	r3, #3
 8002656:	e0b1      	b.n	80027bc <HAL_RCC_OscConfig+0x4f8>
      while (__HAL_RCC_GET_FLAG(RCC_FLAG_LSERDY) == RESET)
 8002658:	4b4b      	ldr	r3, [pc, #300]	; (8002788 <HAL_RCC_OscConfig+0x4c4>)
 800265a:	6a1b      	ldr	r3, [r3, #32]
 800265c:	f003 0302 	and.w	r3, r3, #2
 8002660:	2b00      	cmp	r3, #0
 8002662:	d0ee      	beq.n	8002642 <HAL_RCC_OscConfig+0x37e>
 8002664:	e014      	b.n	8002690 <HAL_RCC_OscConfig+0x3cc>
      }
    }
    else
    {
      /* Get Start Tick */
      tickstart = HAL_GetTick();
 8002666:	f7fe fb29 	bl	8000cbc <HAL_GetTick>
 800266a:	6138      	str	r0, [r7, #16]

      /* Wait till LSE is disabled */
      while (__HAL_RCC_GET_FLAG(RCC_FLAG_LSERDY) != RESET)
 800266c:	e00a      	b.n	8002684 <HAL_RCC_OscConfig+0x3c0>
      {
        if ((HAL_GetTick() - tickstart) > RCC_LSE_TIMEOUT_VALUE)
 800266e:	f7fe fb25 	bl	8000cbc <HAL_GetTick>
 8002672:	4602      	mov	r2, r0
 8002674:	693b      	ldr	r3, [r7, #16]
 8002676:	1ad3      	subs	r3, r2, r3
 8002678:	f241 3288 	movw	r2, #5000	; 0x1388
 800267c:	4293      	cmp	r3, r2
 800267e:	d901      	bls.n	8002684 <HAL_RCC_OscConfig+0x3c0>
        {
          return HAL_TIMEOUT;
 8002680:	2303      	movs	r3, #3
 8002682:	e09b      	b.n	80027bc <HAL_RCC_OscConfig+0x4f8>
      while (__HAL_RCC_GET_FLAG(RCC_FLAG_LSERDY) != RESET)
 8002684:	4b40      	ldr	r3, [pc, #256]	; (8002788 <HAL_RCC_OscConfig+0x4c4>)
 8002686:	6a1b      	ldr	r3, [r3, #32]
 8002688:	f003 0302 	and.w	r3, r3, #2
 800268c:	2b00      	cmp	r3, #0
 800268e:	d1ee      	bne.n	800266e <HAL_RCC_OscConfig+0x3aa>
        }
      }
    }

    /* Require to disable power clock if necessary */
    if (pwrclkchanged == SET)
 8002690:	7dfb      	ldrb	r3, [r7, #23]
 8002692:	2b01      	cmp	r3, #1
 8002694:	d105      	bne.n	80026a2 <HAL_RCC_OscConfig+0x3de>
    {
      __HAL_RCC_PWR_CLK_DISABLE();
 8002696:	4b3c      	ldr	r3, [pc, #240]	; (8002788 <HAL_RCC_OscConfig+0x4c4>)
 8002698:	69db      	ldr	r3, [r3, #28]
 800269a:	4a3b      	ldr	r2, [pc, #236]	; (8002788 <HAL_RCC_OscConfig+0x4c4>)
 800269c:	f023 5380 	bic.w	r3, r3, #268435456	; 0x10000000
 80026a0:	61d3      	str	r3, [r2, #28]

#endif /* RCC_CR_PLL2ON */
  /*-------------------------------- PLL Configuration -----------------------*/
  /* Check the parameters */
  assert_param(IS_RCC_PLL(RCC_OscInitStruct->PLL.PLLState));
  if ((RCC_OscInitStruct->PLL.PLLState) != RCC_PLL_NONE)
 80026a2:	687b      	ldr	r3, [r7, #4]
 80026a4:	69db      	ldr	r3, [r3, #28]
 80026a6:	2b00      	cmp	r3, #0
 80026a8:	f000 8087 	beq.w	80027ba <HAL_RCC_OscConfig+0x4f6>
  {
    /* Check if the PLL is used as system clock or not */
    if (__HAL_RCC_GET_SYSCLK_SOURCE() != RCC_SYSCLKSOURCE_STATUS_PLLCLK)
 80026ac:	4b36      	ldr	r3, [pc, #216]	; (8002788 <HAL_RCC_OscConfig+0x4c4>)
 80026ae:	685b      	ldr	r3, [r3, #4]
 80026b0:	f003 030c 	and.w	r3, r3, #12
 80026b4:	2b08      	cmp	r3, #8
 80026b6:	d061      	beq.n	800277c <HAL_RCC_OscConfig+0x4b8>
    {
      if ((RCC_OscInitStruct->PLL.PLLState) == RCC_PLL_ON)
 80026b8:	687b      	ldr	r3, [r7, #4]
 80026ba:	69db      	ldr	r3, [r3, #28]
 80026bc:	2b02      	cmp	r3, #2
 80026be:	d146      	bne.n	800274e <HAL_RCC_OscConfig+0x48a>
        /* Check the parameters */
        assert_param(IS_RCC_PLLSOURCE(RCC_OscInitStruct->PLL.PLLSource));
        assert_param(IS_RCC_PLL_MUL(RCC_OscInitStruct->PLL.PLLMUL));

        /* Disable the main PLL. */
        __HAL_RCC_PLL_DISABLE();
 80026c0:	4b33      	ldr	r3, [pc, #204]	; (8002790 <HAL_RCC_OscConfig+0x4cc>)
 80026c2:	2200      	movs	r2, #0
 80026c4:	601a      	str	r2, [r3, #0]

        /* Get Start Tick */
        tickstart = HAL_GetTick();
 80026c6:	f7fe faf9 	bl	8000cbc <HAL_GetTick>
 80026ca:	6138      	str	r0, [r7, #16]

        /* Wait till PLL is disabled */
        while (__HAL_RCC_GET_FLAG(RCC_FLAG_PLLRDY)  != RESET)
 80026cc:	e008      	b.n	80026e0 <HAL_RCC_OscConfig+0x41c>
        {
          if ((HAL_GetTick() - tickstart) > PLL_TIMEOUT_VALUE)
 80026ce:	f7fe faf5 	bl	8000cbc <HAL_GetTick>
 80026d2:	4602      	mov	r2, r0
 80026d4:	693b      	ldr	r3, [r7, #16]
 80026d6:	1ad3      	subs	r3, r2, r3
 80026d8:	2b02      	cmp	r3, #2
 80026da:	d901      	bls.n	80026e0 <HAL_RCC_OscConfig+0x41c>
          {
            return HAL_TIMEOUT;
 80026dc:	2303      	movs	r3, #3
 80026de:	e06d      	b.n	80027bc <HAL_RCC_OscConfig+0x4f8>
        while (__HAL_RCC_GET_FLAG(RCC_FLAG_PLLRDY)  != RESET)
 80026e0:	4b29      	ldr	r3, [pc, #164]	; (8002788 <HAL_RCC_OscConfig+0x4c4>)
 80026e2:	681b      	ldr	r3, [r3, #0]
 80026e4:	f003 7300 	and.w	r3, r3, #33554432	; 0x2000000
 80026e8:	2b00      	cmp	r3, #0
 80026ea:	d1f0      	bne.n	80026ce <HAL_RCC_OscConfig+0x40a>
          }
        }

        /* Configure the HSE prediv factor --------------------------------*/
        /* It can be written only when the PLL is disabled. Not used in PLL source is different than HSE */
        if (RCC_OscInitStruct->PLL.PLLSource == RCC_PLLSOURCE_HSE)
 80026ec:	687b      	ldr	r3, [r7, #4]
 80026ee:	6a1b      	ldr	r3, [r3, #32]
 80026f0:	f5b3 3f80 	cmp.w	r3, #65536	; 0x10000
 80026f4:	d108      	bne.n	8002708 <HAL_RCC_OscConfig+0x444>
          /* Set PREDIV1 source */
          SET_BIT(RCC->CFGR2, RCC_OscInitStruct->Prediv1Source);
#endif /* RCC_CFGR2_PREDIV1SRC */

          /* Set PREDIV1 Value */
          __HAL_RCC_HSE_PREDIV_CONFIG(RCC_OscInitStruct->HSEPredivValue);
 80026f6:	4b24      	ldr	r3, [pc, #144]	; (8002788 <HAL_RCC_OscConfig+0x4c4>)
 80026f8:	685b      	ldr	r3, [r3, #4]
 80026fa:	f423 3200 	bic.w	r2, r3, #131072	; 0x20000
 80026fe:	687b      	ldr	r3, [r7, #4]
 8002700:	689b      	ldr	r3, [r3, #8]
 8002702:	4921      	ldr	r1, [pc, #132]	; (8002788 <HAL_RCC_OscConfig+0x4c4>)
 8002704:	4313      	orrs	r3, r2
 8002706:	604b      	str	r3, [r1, #4]
        }

        /* Configure the main PLL clock source and multiplication factors. */
        __HAL_RCC_PLL_CONFIG(RCC_OscInitStruct->PLL.PLLSource,
 8002708:	4b1f      	ldr	r3, [pc, #124]	; (8002788 <HAL_RCC_OscConfig+0x4c4>)
 800270a:	685b      	ldr	r3, [r3, #4]
 800270c:	f423 1274 	bic.w	r2, r3, #3997696	; 0x3d0000
 8002710:	687b      	ldr	r3, [r7, #4]
 8002712:	6a19      	ldr	r1, [r3, #32]
 8002714:	687b      	ldr	r3, [r7, #4]
 8002716:	6a5b      	ldr	r3, [r3, #36]	; 0x24
 8002718:	430b      	orrs	r3, r1
 800271a:	491b      	ldr	r1, [pc, #108]	; (8002788 <HAL_RCC_OscConfig+0x4c4>)
 800271c:	4313      	orrs	r3, r2
 800271e:	604b      	str	r3, [r1, #4]
                             RCC_OscInitStruct->PLL.PLLMUL);
        /* Enable the main PLL. */
        __HAL_RCC_PLL_ENABLE();
 8002720:	4b1b      	ldr	r3, [pc, #108]	; (8002790 <HAL_RCC_OscConfig+0x4cc>)
 8002722:	2201      	movs	r2, #1
 8002724:	601a      	str	r2, [r3, #0]

        /* Get Start Tick */
        tickstart = HAL_GetTick();
 8002726:	f7fe fac9 	bl	8000cbc <HAL_GetTick>
 800272a:	6138      	str	r0, [r7, #16]

        /* Wait till PLL is ready */
        while (__HAL_RCC_GET_FLAG(RCC_FLAG_PLLRDY)  == RESET)
 800272c:	e008      	b.n	8002740 <HAL_RCC_OscConfig+0x47c>
        {
          if ((HAL_GetTick() - tickstart) > PLL_TIMEOUT_VALUE)
 800272e:	f7fe fac5 	bl	8000cbc <HAL_GetTick>
 8002732:	4602      	mov	r2, r0
 8002734:	693b      	ldr	r3, [r7, #16]
 8002736:	1ad3      	subs	r3, r2, r3
 8002738:	2b02      	cmp	r3, #2
 800273a:	d901      	bls.n	8002740 <HAL_RCC_OscConfig+0x47c>
          {
            return HAL_TIMEOUT;
 800273c:	2303      	movs	r3, #3
 800273e:	e03d      	b.n	80027bc <HAL_RCC_OscConfig+0x4f8>
        while (__HAL_RCC_GET_FLAG(RCC_FLAG_PLLRDY)  == RESET)
 8002740:	4b11      	ldr	r3, [pc, #68]	; (8002788 <HAL_RCC_OscConfig+0x4c4>)
 8002742:	681b      	ldr	r3, [r3, #0]
 8002744:	f003 7300 	and.w	r3, r3, #33554432	; 0x2000000
 8002748:	2b00      	cmp	r3, #0
 800274a:	d0f0      	beq.n	800272e <HAL_RCC_OscConfig+0x46a>
 800274c:	e035      	b.n	80027ba <HAL_RCC_OscConfig+0x4f6>
        }
      }
      else
      {
        /* Disable the main PLL. */
        __HAL_RCC_PLL_DISABLE();
 800274e:	4b10      	ldr	r3, [pc, #64]	; (8002790 <HAL_RCC_OscConfig+0x4cc>)
 8002750:	2200      	movs	r2, #0
 8002752:	601a      	str	r2, [r3, #0]

        /* Get Start Tick */
        tickstart = HAL_GetTick();
 8002754:	f7fe fab2 	bl	8000cbc <HAL_GetTick>
 8002758:	6138      	str	r0, [r7, #16]

        /* Wait till PLL is disabled */
        while (__HAL_RCC_GET_FLAG(RCC_FLAG_PLLRDY)  != RESET)
 800275a:	e008      	b.n	800276e <HAL_RCC_OscConfig+0x4aa>
        {
          if ((HAL_GetTick() - tickstart) > PLL_TIMEOUT_VALUE)
 800275c:	f7fe faae 	bl	8000cbc <HAL_GetTick>
 8002760:	4602      	mov	r2, r0
 8002762:	693b      	ldr	r3, [r7, #16]
 8002764:	1ad3      	subs	r3, r2, r3
 8002766:	2b02      	cmp	r3, #2
 8002768:	d901      	bls.n	800276e <HAL_RCC_OscConfig+0x4aa>
          {
            return HAL_TIMEOUT;
 800276a:	2303      	movs	r3, #3
 800276c:	e026      	b.n	80027bc <HAL_RCC_OscConfig+0x4f8>
        while (__HAL_RCC_GET_FLAG(RCC_FLAG_PLLRDY)  != RESET)
 800276e:	4b06      	ldr	r3, [pc, #24]	; (8002788 <HAL_RCC_OscConfig+0x4c4>)
 8002770:	681b      	ldr	r3, [r3, #0]
 8002772:	f003 7300 	and.w	r3, r3, #33554432	; 0x2000000
 8002776:	2b00      	cmp	r3, #0
 8002778:	d1f0      	bne.n	800275c <HAL_RCC_OscConfig+0x498>
 800277a:	e01e      	b.n	80027ba <HAL_RCC_OscConfig+0x4f6>
      }
    }
    else
    {
      /* Check if there is a request to disable the PLL used as System clock source */
      if ((RCC_OscInitStruct->PLL.PLLState) == RCC_PLL_OFF)
 800277c:	687b      	ldr	r3, [r7, #4]
 800277e:	69db      	ldr	r3, [r3, #28]
 8002780:	2b01      	cmp	r3, #1
 8002782:	d107      	bne.n	8002794 <HAL_RCC_OscConfig+0x4d0>
      {
        return HAL_ERROR;
 8002784:	2301      	movs	r3, #1
 8002786:	e019      	b.n	80027bc <HAL_RCC_OscConfig+0x4f8>
 8002788:	40021000 	.word	0x40021000
 800278c:	40007000 	.word	0x40007000
 8002790:	42420060 	.word	0x42420060
      }
      else
      {
        /* Do not return HAL_ERROR if request repeats the current configuration */
        pll_config = RCC->CFGR;
 8002794:	4b0b      	ldr	r3, [pc, #44]	; (80027c4 <HAL_RCC_OscConfig+0x500>)
 8002796:	685b      	ldr	r3, [r3, #4]
 8002798:	60fb      	str	r3, [r7, #12]
        if ((READ_BIT(pll_config, RCC_CFGR_PLLSRC) != RCC_OscInitStruct->PLL.PLLSource) ||
 800279a:	68fb      	ldr	r3, [r7, #12]
 800279c:	f403 3280 	and.w	r2, r3, #65536	; 0x10000
 80027a0:	687b      	ldr	r3, [r7, #4]
 80027a2:	6a1b      	ldr	r3, [r3, #32]
 80027a4:	429a      	cmp	r2, r3
 80027a6:	d106      	bne.n	80027b6 <HAL_RCC_OscConfig+0x4f2>
            (READ_BIT(pll_config, RCC_CFGR_PLLMULL) != RCC_OscInitStruct->PLL.PLLMUL))
 80027a8:	68fb      	ldr	r3, [r7, #12]
 80027aa:	f403 1270 	and.w	r2, r3, #3932160	; 0x3c0000
 80027ae:	687b      	ldr	r3, [r7, #4]
 80027b0:	6a5b      	ldr	r3, [r3, #36]	; 0x24
        if ((READ_BIT(pll_config, RCC_CFGR_PLLSRC) != RCC_OscInitStruct->PLL.PLLSource) ||
 80027b2:	429a      	cmp	r2, r3
 80027b4:	d001      	beq.n	80027ba <HAL_RCC_OscConfig+0x4f6>
        {
          return HAL_ERROR;
 80027b6:	2301      	movs	r3, #1
 80027b8:	e000      	b.n	80027bc <HAL_RCC_OscConfig+0x4f8>
        }
      }
    }
  }

  return HAL_OK;
 80027ba:	2300      	movs	r3, #0
}
 80027bc:	4618      	mov	r0, r3
 80027be:	3718      	adds	r7, #24
 80027c0:	46bd      	mov	sp, r7
 80027c2:	bd80      	pop	{r7, pc}
 80027c4:	40021000 	.word	0x40021000

080027c8 <HAL_RCC_ClockConfig>:
  *         You can use @ref HAL_RCC_GetClockConfig() function to know which clock is
  *         currently used as system clock source.
  * @retval HAL status
  */
HAL_StatusTypeDef HAL_RCC_ClockConfig(RCC_ClkInitTypeDef  *RCC_ClkInitStruct, uint32_t FLatency)
{
 80027c8:	b580      	push	{r7, lr}
 80027ca:	b084      	sub	sp, #16
 80027cc:	af00      	add	r7, sp, #0
 80027ce:	6078      	str	r0, [r7, #4]
 80027d0:	6039      	str	r1, [r7, #0]
  uint32_t tickstart;

  /* Check Null pointer */
  if (RCC_ClkInitStruct == NULL)
 80027d2:	687b      	ldr	r3, [r7, #4]
 80027d4:	2b00      	cmp	r3, #0
 80027d6:	d101      	bne.n	80027dc <HAL_RCC_ClockConfig+0x14>
  {
    return HAL_ERROR;
 80027d8:	2301      	movs	r3, #1
 80027da:	e0d0      	b.n	800297e <HAL_RCC_ClockConfig+0x1b6>
  must be correctly programmed according to the frequency of the CPU clock
    (HCLK) of the device. */

#if defined(FLASH_ACR_LATENCY)
  /* Increasing the number of wait states because of higher CPU frequency */
  if (FLatency > __HAL_FLASH_GET_LATENCY())
 80027dc:	4b6a      	ldr	r3, [pc, #424]	; (8002988 <HAL_RCC_ClockConfig+0x1c0>)
 80027de:	681b      	ldr	r3, [r3, #0]
 80027e0:	f003 0307 	and.w	r3, r3, #7
 80027e4:	683a      	ldr	r2, [r7, #0]
 80027e6:	429a      	cmp	r2, r3
 80027e8:	d910      	bls.n	800280c <HAL_RCC_ClockConfig+0x44>
  {
    /* Program the new number of wait states to the LATENCY bits in the FLASH_ACR register */
    __HAL_FLASH_SET_LATENCY(FLatency);
 80027ea:	4b67      	ldr	r3, [pc, #412]	; (8002988 <HAL_RCC_ClockConfig+0x1c0>)
 80027ec:	681b      	ldr	r3, [r3, #0]
 80027ee:	f023 0207 	bic.w	r2, r3, #7
 80027f2:	4965      	ldr	r1, [pc, #404]	; (8002988 <HAL_RCC_ClockConfig+0x1c0>)
 80027f4:	683b      	ldr	r3, [r7, #0]
 80027f6:	4313      	orrs	r3, r2
 80027f8:	600b      	str	r3, [r1, #0]

    /* Check that the new number of wait states is taken into account to access the Flash
    memory by reading the FLASH_ACR register */
    if (__HAL_FLASH_GET_LATENCY() != FLatency)
 80027fa:	4b63      	ldr	r3, [pc, #396]	; (8002988 <HAL_RCC_ClockConfig+0x1c0>)
 80027fc:	681b      	ldr	r3, [r3, #0]
 80027fe:	f003 0307 	and.w	r3, r3, #7
 8002802:	683a      	ldr	r2, [r7, #0]
 8002804:	429a      	cmp	r2, r3
 8002806:	d001      	beq.n	800280c <HAL_RCC_ClockConfig+0x44>
  {
    return HAL_ERROR;
 8002808:	2301      	movs	r3, #1
 800280a:	e0b8      	b.n	800297e <HAL_RCC_ClockConfig+0x1b6>
  }
}

#endif /* FLASH_ACR_LATENCY */
/*-------------------------- HCLK Configuration --------------------------*/
if (((RCC_ClkInitStruct->ClockType) & RCC_CLOCKTYPE_HCLK) == RCC_CLOCKTYPE_HCLK)
 800280c:	687b      	ldr	r3, [r7, #4]
 800280e:	681b      	ldr	r3, [r3, #0]
 8002810:	f003 0302 	and.w	r3, r3, #2
 8002814:	2b00      	cmp	r3, #0
 8002816:	d020      	beq.n	800285a <HAL_RCC_ClockConfig+0x92>
  {
    /* Set the highest APBx dividers in order to ensure that we do not go through
    a non-spec phase whatever we decrease or increase HCLK. */
    if (((RCC_ClkInitStruct->ClockType) & RCC_CLOCKTYPE_PCLK1) == RCC_CLOCKTYPE_PCLK1)
 8002818:	687b      	ldr	r3, [r7, #4]
 800281a:	681b      	ldr	r3, [r3, #0]
 800281c:	f003 0304 	and.w	r3, r3, #4
 8002820:	2b00      	cmp	r3, #0
 8002822:	d005      	beq.n	8002830 <HAL_RCC_ClockConfig+0x68>
    {
      MODIFY_REG(RCC->CFGR, RCC_CFGR_PPRE1, RCC_HCLK_DIV16);
 8002824:	4b59      	ldr	r3, [pc, #356]	; (800298c <HAL_RCC_ClockConfig+0x1c4>)
 8002826:	685b      	ldr	r3, [r3, #4]
 8002828:	4a58      	ldr	r2, [pc, #352]	; (800298c <HAL_RCC_ClockConfig+0x1c4>)
 800282a:	f443 63e0 	orr.w	r3, r3, #1792	; 0x700
 800282e:	6053      	str	r3, [r2, #4]
    }

    if (((RCC_ClkInitStruct->ClockType) & RCC_CLOCKTYPE_PCLK2) == RCC_CLOCKTYPE_PCLK2)
 8002830:	687b      	ldr	r3, [r7, #4]
 8002832:	681b      	ldr	r3, [r3, #0]
 8002834:	f003 0308 	and.w	r3, r3, #8
 8002838:	2b00      	cmp	r3, #0
 800283a:	d005      	beq.n	8002848 <HAL_RCC_ClockConfig+0x80>
    {
      MODIFY_REG(RCC->CFGR, RCC_CFGR_PPRE2, (RCC_HCLK_DIV16 << 3));
 800283c:	4b53      	ldr	r3, [pc, #332]	; (800298c <HAL_RCC_ClockConfig+0x1c4>)
 800283e:	685b      	ldr	r3, [r3, #4]
 8002840:	4a52      	ldr	r2, [pc, #328]	; (800298c <HAL_RCC_ClockConfig+0x1c4>)
 8002842:	f443 5360 	orr.w	r3, r3, #14336	; 0x3800
 8002846:	6053      	str	r3, [r2, #4]
    }

    /* Set the new HCLK clock divider */
    assert_param(IS_RCC_HCLK(RCC_ClkInitStruct->AHBCLKDivider));
    MODIFY_REG(RCC->CFGR, RCC_CFGR_HPRE, RCC_ClkInitStruct->AHBCLKDivider);
 8002848:	4b50      	ldr	r3, [pc, #320]	; (800298c <HAL_RCC_ClockConfig+0x1c4>)
 800284a:	685b      	ldr	r3, [r3, #4]
 800284c:	f023 02f0 	bic.w	r2, r3, #240	; 0xf0
 8002850:	687b      	ldr	r3, [r7, #4]
 8002852:	689b      	ldr	r3, [r3, #8]
 8002854:	494d      	ldr	r1, [pc, #308]	; (800298c <HAL_RCC_ClockConfig+0x1c4>)
 8002856:	4313      	orrs	r3, r2
 8002858:	604b      	str	r3, [r1, #4]
  }

  /*------------------------- SYSCLK Configuration ---------------------------*/
  if (((RCC_ClkInitStruct->ClockType) & RCC_CLOCKTYPE_SYSCLK) == RCC_CLOCKTYPE_SYSCLK)
 800285a:	687b      	ldr	r3, [r7, #4]
 800285c:	681b      	ldr	r3, [r3, #0]
 800285e:	f003 0301 	and.w	r3, r3, #1
 8002862:	2b00      	cmp	r3, #0
 8002864:	d040      	beq.n	80028e8 <HAL_RCC_ClockConfig+0x120>
  {
    assert_param(IS_RCC_SYSCLKSOURCE(RCC_ClkInitStruct->SYSCLKSource));

    /* HSE is selected as System Clock Source */
    if (RCC_ClkInitStruct->SYSCLKSource == RCC_SYSCLKSOURCE_HSE)
 8002866:	687b      	ldr	r3, [r7, #4]
 8002868:	685b      	ldr	r3, [r3, #4]
 800286a:	2b01      	cmp	r3, #1
 800286c:	d107      	bne.n	800287e <HAL_RCC_ClockConfig+0xb6>
    {
      /* Check the HSE ready flag */
      if (__HAL_RCC_GET_FLAG(RCC_FLAG_HSERDY) == RESET)
 800286e:	4b47      	ldr	r3, [pc, #284]	; (800298c <HAL_RCC_ClockConfig+0x1c4>)
 8002870:	681b      	ldr	r3, [r3, #0]
 8002872:	f403 3300 	and.w	r3, r3, #131072	; 0x20000
 8002876:	2b00      	cmp	r3, #0
 8002878:	d115      	bne.n	80028a6 <HAL_RCC_ClockConfig+0xde>
      {
        return HAL_ERROR;
 800287a:	2301      	movs	r3, #1
 800287c:	e07f      	b.n	800297e <HAL_RCC_ClockConfig+0x1b6>
      }
    }
    /* PLL is selected as System Clock Source */
    else if (RCC_ClkInitStruct->SYSCLKSource == RCC_SYSCLKSOURCE_PLLCLK)
 800287e:	687b      	ldr	r3, [r7, #4]
 8002880:	685b      	ldr	r3, [r3, #4]
 8002882:	2b02      	cmp	r3, #2
 8002884:	d107      	bne.n	8002896 <HAL_RCC_ClockConfig+0xce>
    {
      /* Check the PLL ready flag */
      if (__HAL_RCC_GET_FLAG(RCC_FLAG_PLLRDY) == RESET)
 8002886:	4b41      	ldr	r3, [pc, #260]	; (800298c <HAL_RCC_ClockConfig+0x1c4>)
 8002888:	681b      	ldr	r3, [r3, #0]
 800288a:	f003 7300 	and.w	r3, r3, #33554432	; 0x2000000
 800288e:	2b00      	cmp	r3, #0
 8002890:	d109      	bne.n	80028a6 <HAL_RCC_ClockConfig+0xde>
      {
        return HAL_ERROR;
 8002892:	2301      	movs	r3, #1
 8002894:	e073      	b.n	800297e <HAL_RCC_ClockConfig+0x1b6>
    }
    /* HSI is selected as System Clock Source */
    else
    {
      /* Check the HSI ready flag */
      if (__HAL_RCC_GET_FLAG(RCC_FLAG_HSIRDY) == RESET)
 8002896:	4b3d      	ldr	r3, [pc, #244]	; (800298c <HAL_RCC_ClockConfig+0x1c4>)
 8002898:	681b      	ldr	r3, [r3, #0]
 800289a:	f003 0302 	and.w	r3, r3, #2
 800289e:	2b00      	cmp	r3, #0
 80028a0:	d101      	bne.n	80028a6 <HAL_RCC_ClockConfig+0xde>
      {
        return HAL_ERROR;
 80028a2:	2301      	movs	r3, #1
 80028a4:	e06b      	b.n	800297e <HAL_RCC_ClockConfig+0x1b6>
      }
    }
    __HAL_RCC_SYSCLK_CONFIG(RCC_ClkInitStruct->SYSCLKSource);
 80028a6:	4b39      	ldr	r3, [pc, #228]	; (800298c <HAL_RCC_ClockConfig+0x1c4>)
 80028a8:	685b      	ldr	r3, [r3, #4]
 80028aa:	f023 0203 	bic.w	r2, r3, #3
 80028ae:	687b      	ldr	r3, [r7, #4]
 80028b0:	685b      	ldr	r3, [r3, #4]
 80028b2:	4936      	ldr	r1, [pc, #216]	; (800298c <HAL_RCC_ClockConfig+0x1c4>)
 80028b4:	4313      	orrs	r3, r2
 80028b6:	604b      	str	r3, [r1, #4]

    /* Get Start Tick */
    tickstart = HAL_GetTick();
 80028b8:	f7fe fa00 	bl	8000cbc <HAL_GetTick>
 80028bc:	60f8      	str	r0, [r7, #12]

    while (__HAL_RCC_GET_SYSCLK_SOURCE() != (RCC_ClkInitStruct->SYSCLKSource << RCC_CFGR_SWS_Pos))
 80028be:	e00a      	b.n	80028d6 <HAL_RCC_ClockConfig+0x10e>
    {
      if ((HAL_GetTick() - tickstart) > CLOCKSWITCH_TIMEOUT_VALUE)
 80028c0:	f7fe f9fc 	bl	8000cbc <HAL_GetTick>
 80028c4:	4602      	mov	r2, r0
 80028c6:	68fb      	ldr	r3, [r7, #12]
 80028c8:	1ad3      	subs	r3, r2, r3
 80028ca:	f241 3288 	movw	r2, #5000	; 0x1388
 80028ce:	4293      	cmp	r3, r2
 80028d0:	d901      	bls.n	80028d6 <HAL_RCC_ClockConfig+0x10e>
      {
        return HAL_TIMEOUT;
 80028d2:	2303      	movs	r3, #3
 80028d4:	e053      	b.n	800297e <HAL_RCC_ClockConfig+0x1b6>
    while (__HAL_RCC_GET_SYSCLK_SOURCE() != (RCC_ClkInitStruct->SYSCLKSource << RCC_CFGR_SWS_Pos))
 80028d6:	4b2d      	ldr	r3, [pc, #180]	; (800298c <HAL_RCC_ClockConfig+0x1c4>)
 80028d8:	685b      	ldr	r3, [r3, #4]
 80028da:	f003 020c 	and.w	r2, r3, #12
 80028de:	687b      	ldr	r3, [r7, #4]
 80028e0:	685b      	ldr	r3, [r3, #4]
 80028e2:	009b      	lsls	r3, r3, #2
 80028e4:	429a      	cmp	r2, r3
 80028e6:	d1eb      	bne.n	80028c0 <HAL_RCC_ClockConfig+0xf8>
    }
  }

#if defined(FLASH_ACR_LATENCY)
  /* Decreasing the number of wait states because of lower CPU frequency */
  if (FLatency < __HAL_FLASH_GET_LATENCY())
 80028e8:	4b27      	ldr	r3, [pc, #156]	; (8002988 <HAL_RCC_ClockConfig+0x1c0>)
 80028ea:	681b      	ldr	r3, [r3, #0]
 80028ec:	f003 0307 	and.w	r3, r3, #7
 80028f0:	683a      	ldr	r2, [r7, #0]
 80028f2:	429a      	cmp	r2, r3
 80028f4:	d210      	bcs.n	8002918 <HAL_RCC_ClockConfig+0x150>
  {
    /* Program the new number of wait states to the LATENCY bits in the FLASH_ACR register */
    __HAL_FLASH_SET_LATENCY(FLatency);
 80028f6:	4b24      	ldr	r3, [pc, #144]	; (8002988 <HAL_RCC_ClockConfig+0x1c0>)
 80028f8:	681b      	ldr	r3, [r3, #0]
 80028fa:	f023 0207 	bic.w	r2, r3, #7
 80028fe:	4922      	ldr	r1, [pc, #136]	; (8002988 <HAL_RCC_ClockConfig+0x1c0>)
 8002900:	683b      	ldr	r3, [r7, #0]
 8002902:	4313      	orrs	r3, r2
 8002904:	600b      	str	r3, [r1, #0]

    /* Check that the new number of wait states is taken into account to access the Flash
    memory by reading the FLASH_ACR register */
    if (__HAL_FLASH_GET_LATENCY() != FLatency)
 8002906:	4b20      	ldr	r3, [pc, #128]	; (8002988 <HAL_RCC_ClockConfig+0x1c0>)
 8002908:	681b      	ldr	r3, [r3, #0]
 800290a:	f003 0307 	and.w	r3, r3, #7
 800290e:	683a      	ldr	r2, [r7, #0]
 8002910:	429a      	cmp	r2, r3
 8002912:	d001      	beq.n	8002918 <HAL_RCC_ClockConfig+0x150>
  {
    return HAL_ERROR;
 8002914:	2301      	movs	r3, #1
 8002916:	e032      	b.n	800297e <HAL_RCC_ClockConfig+0x1b6>
  }
}
#endif /* FLASH_ACR_LATENCY */

/*-------------------------- PCLK1 Configuration ---------------------------*/
if (((RCC_ClkInitStruct->ClockType) & RCC_CLOCKTYPE_PCLK1) == RCC_CLOCKTYPE_PCLK1)
 8002918:	687b      	ldr	r3, [r7, #4]
 800291a:	681b      	ldr	r3, [r3, #0]
 800291c:	f003 0304 	and.w	r3, r3, #4
 8002920:	2b00      	cmp	r3, #0
 8002922:	d008      	beq.n	8002936 <HAL_RCC_ClockConfig+0x16e>
  {
    assert_param(IS_RCC_PCLK(RCC_ClkInitStruct->APB1CLKDivider));
    MODIFY_REG(RCC->CFGR, RCC_CFGR_PPRE1, RCC_ClkInitStruct->APB1CLKDivider);
 8002924:	4b19      	ldr	r3, [pc, #100]	; (800298c <HAL_RCC_ClockConfig+0x1c4>)
 8002926:	685b      	ldr	r3, [r3, #4]
 8002928:	f423 62e0 	bic.w	r2, r3, #1792	; 0x700
 800292c:	687b      	ldr	r3, [r7, #4]
 800292e:	68db      	ldr	r3, [r3, #12]
 8002930:	4916      	ldr	r1, [pc, #88]	; (800298c <HAL_RCC_ClockConfig+0x1c4>)
 8002932:	4313      	orrs	r3, r2
 8002934:	604b      	str	r3, [r1, #4]
  }

  /*-------------------------- PCLK2 Configuration ---------------------------*/
  if (((RCC_ClkInitStruct->ClockType) & RCC_CLOCKTYPE_PCLK2) == RCC_CLOCKTYPE_PCLK2)
 8002936:	687b      	ldr	r3, [r7, #4]
 8002938:	681b      	ldr	r3, [r3, #0]
 800293a:	f003 0308 	and.w	r3, r3, #8
 800293e:	2b00      	cmp	r3, #0
 8002940:	d009      	beq.n	8002956 <HAL_RCC_ClockConfig+0x18e>
  {
    assert_param(IS_RCC_PCLK(RCC_ClkInitStruct->APB2CLKDivider));
    MODIFY_REG(RCC->CFGR, RCC_CFGR_PPRE2, ((RCC_ClkInitStruct->APB2CLKDivider) << 3));
 8002942:	4b12      	ldr	r3, [pc, #72]	; (800298c <HAL_RCC_ClockConfig+0x1c4>)
 8002944:	685b      	ldr	r3, [r3, #4]
 8002946:	f423 5260 	bic.w	r2, r3, #14336	; 0x3800
 800294a:	687b      	ldr	r3, [r7, #4]
 800294c:	691b      	ldr	r3, [r3, #16]
 800294e:	00db      	lsls	r3, r3, #3
 8002950:	490e      	ldr	r1, [pc, #56]	; (800298c <HAL_RCC_ClockConfig+0x1c4>)
 8002952:	4313      	orrs	r3, r2
 8002954:	604b      	str	r3, [r1, #4]
  }

  /* Update the SystemCoreClock global variable */
  SystemCoreClock = HAL_RCC_GetSysClockFreq() >> AHBPrescTable[(RCC->CFGR & RCC_CFGR_HPRE) >> RCC_CFGR_HPRE_Pos];
 8002956:	f000 f821 	bl	800299c <HAL_RCC_GetSysClockFreq>
 800295a:	4602      	mov	r2, r0
 800295c:	4b0b      	ldr	r3, [pc, #44]	; (800298c <HAL_RCC_ClockConfig+0x1c4>)
 800295e:	685b      	ldr	r3, [r3, #4]
 8002960:	091b      	lsrs	r3, r3, #4
 8002962:	f003 030f 	and.w	r3, r3, #15
 8002966:	490a      	ldr	r1, [pc, #40]	; (8002990 <HAL_RCC_ClockConfig+0x1c8>)
 8002968:	5ccb      	ldrb	r3, [r1, r3]
 800296a:	fa22 f303 	lsr.w	r3, r2, r3
 800296e:	4a09      	ldr	r2, [pc, #36]	; (8002994 <HAL_RCC_ClockConfig+0x1cc>)
 8002970:	6013      	str	r3, [r2, #0]

  /* Configure the source of time base considering new system clocks settings*/
  HAL_InitTick(uwTickPrio);
 8002972:	4b09      	ldr	r3, [pc, #36]	; (8002998 <HAL_RCC_ClockConfig+0x1d0>)
 8002974:	681b      	ldr	r3, [r3, #0]
 8002976:	4618      	mov	r0, r3
 8002978:	f7fe f95e 	bl	8000c38 <HAL_InitTick>

  return HAL_OK;
 800297c:	2300      	movs	r3, #0
}
 800297e:	4618      	mov	r0, r3
 8002980:	3710      	adds	r7, #16
 8002982:	46bd      	mov	sp, r7
 8002984:	bd80      	pop	{r7, pc}
 8002986:	bf00      	nop
 8002988:	40022000 	.word	0x40022000
 800298c:	40021000 	.word	0x40021000
 8002990:	08003900 	.word	0x08003900
 8002994:	20000000 	.word	0x20000000
 8002998:	20000004 	.word	0x20000004

0800299c <HAL_RCC_GetSysClockFreq>:
  *         right SYSCLK value. Otherwise, any configuration based on this function will be incorrect.
  *
  * @retval SYSCLK frequency
  */
uint32_t HAL_RCC_GetSysClockFreq(void)
{
 800299c:	b490      	push	{r4, r7}
 800299e:	b08a      	sub	sp, #40	; 0x28
 80029a0:	af00      	add	r7, sp, #0
#if defined(RCC_CFGR2_PREDIV1SRC)
  const uint8_t aPLLMULFactorTable[14] = {0, 0, 4, 5, 6, 7, 8, 9, 0, 0, 0, 0, 0, 13};
  const uint8_t aPredivFactorTable[16] = {1, 2, 3, 4, 5, 6, 7, 8, 9, 10, 11, 12, 13, 14, 15, 16};
#else
  const uint8_t aPLLMULFactorTable[16] = {2, 3, 4, 5, 6, 7, 8, 9, 10, 11, 12, 13, 14, 15, 16, 16};
 80029a2:	4b29      	ldr	r3, [pc, #164]	; (8002a48 <HAL_RCC_GetSysClockFreq+0xac>)
 80029a4:	1d3c      	adds	r4, r7, #4
 80029a6:	cb0f      	ldmia	r3, {r0, r1, r2, r3}
 80029a8:	e884 000f 	stmia.w	r4, {r0, r1, r2, r3}
#if defined(RCC_CFGR2_PREDIV1)
  const uint8_t aPredivFactorTable[16] = {1, 2, 3, 4, 5, 6, 7, 8, 9, 10, 11, 12, 13, 14, 15, 16};
#else
  const uint8_t aPredivFactorTable[2] = {1, 2};
 80029ac:	f240 2301 	movw	r3, #513	; 0x201
 80029b0:	803b      	strh	r3, [r7, #0]
#endif /*RCC_CFGR2_PREDIV1*/

#endif
  uint32_t tmpreg = 0U, prediv = 0U, pllclk = 0U, pllmul = 0U;
 80029b2:	2300      	movs	r3, #0
 80029b4:	61fb      	str	r3, [r7, #28]
 80029b6:	2300      	movs	r3, #0
 80029b8:	61bb      	str	r3, [r7, #24]
 80029ba:	2300      	movs	r3, #0
 80029bc:	627b      	str	r3, [r7, #36]	; 0x24
 80029be:	2300      	movs	r3, #0
 80029c0:	617b      	str	r3, [r7, #20]
  uint32_t sysclockfreq = 0U;
 80029c2:	2300      	movs	r3, #0
 80029c4:	623b      	str	r3, [r7, #32]
#if defined(RCC_CFGR2_PREDIV1SRC)
  uint32_t prediv2 = 0U, pll2mul = 0U;
#endif /*RCC_CFGR2_PREDIV1SRC*/

  tmpreg = RCC->CFGR;
 80029c6:	4b21      	ldr	r3, [pc, #132]	; (8002a4c <HAL_RCC_GetSysClockFreq+0xb0>)
 80029c8:	685b      	ldr	r3, [r3, #4]
 80029ca:	61fb      	str	r3, [r7, #28]

  /* Get SYSCLK source -------------------------------------------------------*/
  switch (tmpreg & RCC_CFGR_SWS)
 80029cc:	69fb      	ldr	r3, [r7, #28]
 80029ce:	f003 030c 	and.w	r3, r3, #12
 80029d2:	2b04      	cmp	r3, #4
 80029d4:	d002      	beq.n	80029dc <HAL_RCC_GetSysClockFreq+0x40>
 80029d6:	2b08      	cmp	r3, #8
 80029d8:	d003      	beq.n	80029e2 <HAL_RCC_GetSysClockFreq+0x46>
 80029da:	e02b      	b.n	8002a34 <HAL_RCC_GetSysClockFreq+0x98>
  {
    case RCC_SYSCLKSOURCE_STATUS_HSE:  /* HSE used as system clock */
    {
      sysclockfreq = HSE_VALUE;
 80029dc:	4b1c      	ldr	r3, [pc, #112]	; (8002a50 <HAL_RCC_GetSysClockFreq+0xb4>)
 80029de:	623b      	str	r3, [r7, #32]
      break;
 80029e0:	e02b      	b.n	8002a3a <HAL_RCC_GetSysClockFreq+0x9e>
    }
    case RCC_SYSCLKSOURCE_STATUS_PLLCLK:  /* PLL used as system clock */
    {
      pllmul = aPLLMULFactorTable[(uint32_t)(tmpreg & RCC_CFGR_PLLMULL) >> RCC_CFGR_PLLMULL_Pos];
 80029e2:	69fb      	ldr	r3, [r7, #28]
 80029e4:	0c9b      	lsrs	r3, r3, #18
 80029e6:	f003 030f 	and.w	r3, r3, #15
 80029ea:	3328      	adds	r3, #40	; 0x28
 80029ec:	443b      	add	r3, r7
 80029ee:	f813 3c24 	ldrb.w	r3, [r3, #-36]
 80029f2:	617b      	str	r3, [r7, #20]
      if ((tmpreg & RCC_CFGR_PLLSRC) != RCC_PLLSOURCE_HSI_DIV2)
 80029f4:	69fb      	ldr	r3, [r7, #28]
 80029f6:	f403 3380 	and.w	r3, r3, #65536	; 0x10000
 80029fa:	2b00      	cmp	r3, #0
 80029fc:	d012      	beq.n	8002a24 <HAL_RCC_GetSysClockFreq+0x88>
      {
#if defined(RCC_CFGR2_PREDIV1)
        prediv = aPredivFactorTable[(uint32_t)(RCC->CFGR2 & RCC_CFGR2_PREDIV1) >> RCC_CFGR2_PREDIV1_Pos];
#else
        prediv = aPredivFactorTable[(uint32_t)(RCC->CFGR & RCC_CFGR_PLLXTPRE) >> RCC_CFGR_PLLXTPRE_Pos];
 80029fe:	4b13      	ldr	r3, [pc, #76]	; (8002a4c <HAL_RCC_GetSysClockFreq+0xb0>)
 8002a00:	685b      	ldr	r3, [r3, #4]
 8002a02:	0c5b      	lsrs	r3, r3, #17
 8002a04:	f003 0301 	and.w	r3, r3, #1
 8002a08:	3328      	adds	r3, #40	; 0x28
 8002a0a:	443b      	add	r3, r7
 8002a0c:	f813 3c28 	ldrb.w	r3, [r3, #-40]
 8002a10:	61bb      	str	r3, [r7, #24]
        {
          pllclk = pllclk / 2;
        }
#else
        /* HSE used as PLL clock source : PLLCLK = HSE/PREDIV1 * PLLMUL */
        pllclk = (uint32_t)((HSE_VALUE  * pllmul) / prediv);
 8002a12:	697b      	ldr	r3, [r7, #20]
 8002a14:	4a0e      	ldr	r2, [pc, #56]	; (8002a50 <HAL_RCC_GetSysClockFreq+0xb4>)
 8002a16:	fb03 f202 	mul.w	r2, r3, r2
 8002a1a:	69bb      	ldr	r3, [r7, #24]
 8002a1c:	fbb2 f3f3 	udiv	r3, r2, r3
 8002a20:	627b      	str	r3, [r7, #36]	; 0x24
 8002a22:	e004      	b.n	8002a2e <HAL_RCC_GetSysClockFreq+0x92>
#endif /*RCC_CFGR2_PREDIV1SRC*/
      }
      else
      {
        /* HSI used as PLL clock source : PLLCLK = HSI/2 * PLLMUL */
        pllclk = (uint32_t)((HSI_VALUE >> 1) * pllmul);
 8002a24:	697b      	ldr	r3, [r7, #20]
 8002a26:	4a0b      	ldr	r2, [pc, #44]	; (8002a54 <HAL_RCC_GetSysClockFreq+0xb8>)
 8002a28:	fb02 f303 	mul.w	r3, r2, r3
 8002a2c:	627b      	str	r3, [r7, #36]	; 0x24
      }
      sysclockfreq = pllclk;
 8002a2e:	6a7b      	ldr	r3, [r7, #36]	; 0x24
 8002a30:	623b      	str	r3, [r7, #32]
      break;
 8002a32:	e002      	b.n	8002a3a <HAL_RCC_GetSysClockFreq+0x9e>
    }
    case RCC_SYSCLKSOURCE_STATUS_HSI:  /* HSI used as system clock source */
    default: /* HSI used as system clock */
    {
      sysclockfreq = HSI_VALUE;
 8002a34:	4b06      	ldr	r3, [pc, #24]	; (8002a50 <HAL_RCC_GetSysClockFreq+0xb4>)
 8002a36:	623b      	str	r3, [r7, #32]
      break;
 8002a38:	bf00      	nop
    }
  }
  return sysclockfreq;
 8002a3a:	6a3b      	ldr	r3, [r7, #32]
}
 8002a3c:	4618      	mov	r0, r3
 8002a3e:	3728      	adds	r7, #40	; 0x28
 8002a40:	46bd      	mov	sp, r7
 8002a42:	bc90      	pop	{r4, r7}
 8002a44:	4770      	bx	lr
 8002a46:	bf00      	nop
 8002a48:	080038f0 	.word	0x080038f0
 8002a4c:	40021000 	.word	0x40021000
 8002a50:	007a1200 	.word	0x007a1200
 8002a54:	003d0900 	.word	0x003d0900

08002a58 <HAL_RCC_GetHCLKFreq>:
  * @note   The SystemCoreClock CMSIS variable is used to store System Clock Frequency
  *         and updated within this function
  * @retval HCLK frequency
  */
uint32_t HAL_RCC_GetHCLKFreq(void)
{
 8002a58:	b480      	push	{r7}
 8002a5a:	af00      	add	r7, sp, #0
  return SystemCoreClock;
 8002a5c:	4b02      	ldr	r3, [pc, #8]	; (8002a68 <HAL_RCC_GetHCLKFreq+0x10>)
 8002a5e:	681b      	ldr	r3, [r3, #0]
}
 8002a60:	4618      	mov	r0, r3
 8002a62:	46bd      	mov	sp, r7
 8002a64:	bc80      	pop	{r7}
 8002a66:	4770      	bx	lr
 8002a68:	20000000 	.word	0x20000000

08002a6c <HAL_RCC_GetPCLK1Freq>:
  * @note   Each time PCLK1 changes, this function must be called to update the
  *         right PCLK1 value. Otherwise, any configuration based on this function will be incorrect.
  * @retval PCLK1 frequency
  */
uint32_t HAL_RCC_GetPCLK1Freq(void)
{
 8002a6c:	b580      	push	{r7, lr}
 8002a6e:	af00      	add	r7, sp, #0
  /* Get HCLK source and Compute PCLK1 frequency ---------------------------*/
  return (HAL_RCC_GetHCLKFreq() >> APBPrescTable[(RCC->CFGR & RCC_CFGR_PPRE1) >> RCC_CFGR_PPRE1_Pos]);
 8002a70:	f7ff fff2 	bl	8002a58 <HAL_RCC_GetHCLKFreq>
 8002a74:	4602      	mov	r2, r0
 8002a76:	4b05      	ldr	r3, [pc, #20]	; (8002a8c <HAL_RCC_GetPCLK1Freq+0x20>)
 8002a78:	685b      	ldr	r3, [r3, #4]
 8002a7a:	0a1b      	lsrs	r3, r3, #8
 8002a7c:	f003 0307 	and.w	r3, r3, #7
 8002a80:	4903      	ldr	r1, [pc, #12]	; (8002a90 <HAL_RCC_GetPCLK1Freq+0x24>)
 8002a82:	5ccb      	ldrb	r3, [r1, r3]
 8002a84:	fa22 f303 	lsr.w	r3, r2, r3
}
 8002a88:	4618      	mov	r0, r3
 8002a8a:	bd80      	pop	{r7, pc}
 8002a8c:	40021000 	.word	0x40021000
 8002a90:	08003910 	.word	0x08003910

08002a94 <HAL_RCC_GetPCLK2Freq>:
  * @note   Each time PCLK2 changes, this function must be called to update the
  *         right PCLK2 value. Otherwise, any configuration based on this function will be incorrect.
  * @retval PCLK2 frequency
  */
uint32_t HAL_RCC_GetPCLK2Freq(void)
{
 8002a94:	b580      	push	{r7, lr}
 8002a96:	af00      	add	r7, sp, #0
  /* Get HCLK source and Compute PCLK2 frequency ---------------------------*/
  return (HAL_RCC_GetHCLKFreq() >> APBPrescTable[(RCC->CFGR & RCC_CFGR_PPRE2) >> RCC_CFGR_PPRE2_Pos]);
 8002a98:	f7ff ffde 	bl	8002a58 <HAL_RCC_GetHCLKFreq>
 8002a9c:	4602      	mov	r2, r0
 8002a9e:	4b05      	ldr	r3, [pc, #20]	; (8002ab4 <HAL_RCC_GetPCLK2Freq+0x20>)
 8002aa0:	685b      	ldr	r3, [r3, #4]
 8002aa2:	0adb      	lsrs	r3, r3, #11
 8002aa4:	f003 0307 	and.w	r3, r3, #7
 8002aa8:	4903      	ldr	r1, [pc, #12]	; (8002ab8 <HAL_RCC_GetPCLK2Freq+0x24>)
 8002aaa:	5ccb      	ldrb	r3, [r1, r3]
 8002aac:	fa22 f303 	lsr.w	r3, r2, r3
}
 8002ab0:	4618      	mov	r0, r3
 8002ab2:	bd80      	pop	{r7, pc}
 8002ab4:	40021000 	.word	0x40021000
 8002ab8:	08003910 	.word	0x08003910

08002abc <RCC_Delay>:
  * @brief  This function provides delay (in milliseconds) based on CPU cycles method.
  * @param  mdelay: specifies the delay time length, in milliseconds.
  * @retval None
  */
static void RCC_Delay(uint32_t mdelay)
{
 8002abc:	b480      	push	{r7}
 8002abe:	b085      	sub	sp, #20
 8002ac0:	af00      	add	r7, sp, #0
 8002ac2:	6078      	str	r0, [r7, #4]
  __IO uint32_t Delay = mdelay * (SystemCoreClock / 8U / 1000U);
 8002ac4:	4b0a      	ldr	r3, [pc, #40]	; (8002af0 <RCC_Delay+0x34>)
 8002ac6:	681b      	ldr	r3, [r3, #0]
 8002ac8:	4a0a      	ldr	r2, [pc, #40]	; (8002af4 <RCC_Delay+0x38>)
 8002aca:	fba2 2303 	umull	r2, r3, r2, r3
 8002ace:	0a5b      	lsrs	r3, r3, #9
 8002ad0:	687a      	ldr	r2, [r7, #4]
 8002ad2:	fb02 f303 	mul.w	r3, r2, r3
 8002ad6:	60fb      	str	r3, [r7, #12]
  do
  {
    __NOP();
 8002ad8:	bf00      	nop
  }
  while (Delay --);
 8002ada:	68fb      	ldr	r3, [r7, #12]
 8002adc:	1e5a      	subs	r2, r3, #1
 8002ade:	60fa      	str	r2, [r7, #12]
 8002ae0:	2b00      	cmp	r3, #0
 8002ae2:	d1f9      	bne.n	8002ad8 <RCC_Delay+0x1c>
}
 8002ae4:	bf00      	nop
 8002ae6:	bf00      	nop
 8002ae8:	3714      	adds	r7, #20
 8002aea:	46bd      	mov	sp, r7
 8002aec:	bc80      	pop	{r7}
 8002aee:	4770      	bx	lr
 8002af0:	20000000 	.word	0x20000000
 8002af4:	10624dd3 	.word	0x10624dd3

08002af8 <HAL_USART_Init>:
  * @param  husart Pointer to a USART_HandleTypeDef structure that contains
  *                the configuration information for the specified USART module.
  * @retval HAL status
  */
HAL_StatusTypeDef HAL_USART_Init(USART_HandleTypeDef *husart)
{
 8002af8:	b580      	push	{r7, lr}
 8002afa:	b082      	sub	sp, #8
 8002afc:	af00      	add	r7, sp, #0
 8002afe:	6078      	str	r0, [r7, #4]
  /* Check the USART handle allocation */
  if (husart == NULL)
 8002b00:	687b      	ldr	r3, [r7, #4]
 8002b02:	2b00      	cmp	r3, #0
 8002b04:	d101      	bne.n	8002b0a <HAL_USART_Init+0x12>
  {
    return HAL_ERROR;
 8002b06:	2301      	movs	r3, #1
 8002b08:	e033      	b.n	8002b72 <HAL_USART_Init+0x7a>
  }

  /* Check the parameters */
  assert_param(IS_USART_INSTANCE(husart->Instance));

  if (husart->State == HAL_USART_STATE_RESET)
 8002b0a:	687b      	ldr	r3, [r7, #4]
 8002b0c:	f893 303d 	ldrb.w	r3, [r3, #61]	; 0x3d
 8002b10:	b2db      	uxtb	r3, r3
 8002b12:	2b00      	cmp	r3, #0
 8002b14:	d106      	bne.n	8002b24 <HAL_USART_Init+0x2c>
  {
    /* Allocate lock resource and initialize it */
    husart->Lock = HAL_UNLOCKED;
 8002b16:	687b      	ldr	r3, [r7, #4]
 8002b18:	2200      	movs	r2, #0
 8002b1a:	f883 203c 	strb.w	r2, [r3, #60]	; 0x3c

    /* Init the low level hardware */
    husart->MspInitCallback(husart);
#else
    /* Init the low level hardware : GPIO, CLOCK */
    HAL_USART_MspInit(husart);
 8002b1e:	6878      	ldr	r0, [r7, #4]
 8002b20:	f7fd ffc2 	bl	8000aa8 <HAL_USART_MspInit>
#endif /* USE_HAL_USART_REGISTER_CALLBACKS */
  }

  husart->State = HAL_USART_STATE_BUSY;
 8002b24:	687b      	ldr	r3, [r7, #4]
 8002b26:	2202      	movs	r2, #2
 8002b28:	f883 203d 	strb.w	r2, [r3, #61]	; 0x3d

  /* Set the USART Communication parameters */
  USART_SetConfig(husart);
 8002b2c:	6878      	ldr	r0, [r7, #4]
 8002b2e:	f000 fb61 	bl	80031f4 <USART_SetConfig>

  /* In USART mode, the following bits must be kept cleared:
     - LINEN bit in the USART_CR2 register
     - HDSEL, SCEN and IREN bits in the USART_CR3 register */
  CLEAR_BIT(husart->Instance->CR2, USART_CR2_LINEN);
 8002b32:	687b      	ldr	r3, [r7, #4]
 8002b34:	681b      	ldr	r3, [r3, #0]
 8002b36:	691a      	ldr	r2, [r3, #16]
 8002b38:	687b      	ldr	r3, [r7, #4]
 8002b3a:	681b      	ldr	r3, [r3, #0]
 8002b3c:	f422 4280 	bic.w	r2, r2, #16384	; 0x4000
 8002b40:	611a      	str	r2, [r3, #16]
  CLEAR_BIT(husart->Instance->CR3, (USART_CR3_SCEN | USART_CR3_HDSEL | USART_CR3_IREN));
 8002b42:	687b      	ldr	r3, [r7, #4]
 8002b44:	681b      	ldr	r3, [r3, #0]
 8002b46:	695a      	ldr	r2, [r3, #20]
 8002b48:	687b      	ldr	r3, [r7, #4]
 8002b4a:	681b      	ldr	r3, [r3, #0]
 8002b4c:	f022 022a 	bic.w	r2, r2, #42	; 0x2a
 8002b50:	615a      	str	r2, [r3, #20]

  /* Enable the Peripheral */
  __HAL_USART_ENABLE(husart);
 8002b52:	687b      	ldr	r3, [r7, #4]
 8002b54:	681b      	ldr	r3, [r3, #0]
 8002b56:	68da      	ldr	r2, [r3, #12]
 8002b58:	687b      	ldr	r3, [r7, #4]
 8002b5a:	681b      	ldr	r3, [r3, #0]
 8002b5c:	f442 5200 	orr.w	r2, r2, #8192	; 0x2000
 8002b60:	60da      	str	r2, [r3, #12]

  /* Initialize the USART state */
  husart->ErrorCode = HAL_USART_ERROR_NONE;
 8002b62:	687b      	ldr	r3, [r7, #4]
 8002b64:	2200      	movs	r2, #0
 8002b66:	641a      	str	r2, [r3, #64]	; 0x40
  husart->State = HAL_USART_STATE_READY;
 8002b68:	687b      	ldr	r3, [r7, #4]
 8002b6a:	2201      	movs	r2, #1
 8002b6c:	f883 203d 	strb.w	r2, [r3, #61]	; 0x3d

  return HAL_OK;
 8002b70:	2300      	movs	r3, #0
}
 8002b72:	4618      	mov	r0, r3
 8002b74:	3708      	adds	r7, #8
 8002b76:	46bd      	mov	sp, r7
 8002b78:	bd80      	pop	{r7, pc}
	...

08002b7c <HAL_USART_IRQHandler>:
  * @param  husart Pointer to a USART_HandleTypeDef structure that contains
  *                the configuration information for the specified USART module.
  * @retval None
  */
void HAL_USART_IRQHandler(USART_HandleTypeDef *husart)
{
 8002b7c:	b580      	push	{r7, lr}
 8002b7e:	b088      	sub	sp, #32
 8002b80:	af00      	add	r7, sp, #0
 8002b82:	6078      	str	r0, [r7, #4]
  uint32_t isrflags = READ_REG(husart->Instance->SR);
 8002b84:	687b      	ldr	r3, [r7, #4]
 8002b86:	681b      	ldr	r3, [r3, #0]
 8002b88:	681b      	ldr	r3, [r3, #0]
 8002b8a:	61fb      	str	r3, [r7, #28]
  uint32_t cr1its   = READ_REG(husart->Instance->CR1);
 8002b8c:	687b      	ldr	r3, [r7, #4]
 8002b8e:	681b      	ldr	r3, [r3, #0]
 8002b90:	68db      	ldr	r3, [r3, #12]
 8002b92:	61bb      	str	r3, [r7, #24]
  uint32_t cr3its   = READ_REG(husart->Instance->CR3);
 8002b94:	687b      	ldr	r3, [r7, #4]
 8002b96:	681b      	ldr	r3, [r3, #0]
 8002b98:	695b      	ldr	r3, [r3, #20]
 8002b9a:	617b      	str	r3, [r7, #20]
  uint32_t errorflags = 0x00U;
 8002b9c:	2300      	movs	r3, #0
 8002b9e:	613b      	str	r3, [r7, #16]
  uint32_t dmarequest = 0x00U;
 8002ba0:	2300      	movs	r3, #0
 8002ba2:	60fb      	str	r3, [r7, #12]

  /* If no error occurs */
  errorflags = (isrflags & (uint32_t)(USART_SR_PE | USART_SR_FE | USART_SR_ORE | USART_SR_NE));
 8002ba4:	69fb      	ldr	r3, [r7, #28]
 8002ba6:	f003 030f 	and.w	r3, r3, #15
 8002baa:	613b      	str	r3, [r7, #16]
  if (errorflags == RESET)
 8002bac:	693b      	ldr	r3, [r7, #16]
 8002bae:	2b00      	cmp	r3, #0
 8002bb0:	d117      	bne.n	8002be2 <HAL_USART_IRQHandler+0x66>
  {
    /* USART in mode Receiver -------------------------------------------------*/
    if (((isrflags & USART_SR_RXNE) != RESET) && ((cr1its & USART_CR1_RXNEIE) != RESET))
 8002bb2:	69fb      	ldr	r3, [r7, #28]
 8002bb4:	f003 0320 	and.w	r3, r3, #32
 8002bb8:	2b00      	cmp	r3, #0
 8002bba:	d012      	beq.n	8002be2 <HAL_USART_IRQHandler+0x66>
 8002bbc:	69bb      	ldr	r3, [r7, #24]
 8002bbe:	f003 0320 	and.w	r3, r3, #32
 8002bc2:	2b00      	cmp	r3, #0
 8002bc4:	d00d      	beq.n	8002be2 <HAL_USART_IRQHandler+0x66>
    {
      if (husart->State == HAL_USART_STATE_BUSY_RX)
 8002bc6:	687b      	ldr	r3, [r7, #4]
 8002bc8:	f893 303d 	ldrb.w	r3, [r3, #61]	; 0x3d
 8002bcc:	b2db      	uxtb	r3, r3
 8002bce:	2b22      	cmp	r3, #34	; 0x22
 8002bd0:	d103      	bne.n	8002bda <HAL_USART_IRQHandler+0x5e>
      {
        USART_Receive_IT(husart);
 8002bd2:	6878      	ldr	r0, [r7, #4]
 8002bd4:	f000 f9b4 	bl	8002f40 <USART_Receive_IT>
      }
      else
      {
        USART_TransmitReceive_IT(husart);
      }
      return;
 8002bd8:	e0e9      	b.n	8002dae <HAL_USART_IRQHandler+0x232>
        USART_TransmitReceive_IT(husart);
 8002bda:	6878      	ldr	r0, [r7, #4]
 8002bdc:	f000 fa36 	bl	800304c <USART_TransmitReceive_IT>
      return;
 8002be0:	e0e5      	b.n	8002dae <HAL_USART_IRQHandler+0x232>
    }
  }
  /* If some errors occur */
  if ((errorflags != RESET) && (((cr3its & USART_CR3_EIE) != RESET) || ((cr1its & (USART_CR1_RXNEIE | USART_CR1_PEIE)) != RESET)))
 8002be2:	693b      	ldr	r3, [r7, #16]
 8002be4:	2b00      	cmp	r3, #0
 8002be6:	f000 80bb 	beq.w	8002d60 <HAL_USART_IRQHandler+0x1e4>
 8002bea:	697b      	ldr	r3, [r7, #20]
 8002bec:	f003 0301 	and.w	r3, r3, #1
 8002bf0:	2b00      	cmp	r3, #0
 8002bf2:	d105      	bne.n	8002c00 <HAL_USART_IRQHandler+0x84>
 8002bf4:	69bb      	ldr	r3, [r7, #24]
 8002bf6:	f403 7390 	and.w	r3, r3, #288	; 0x120
 8002bfa:	2b00      	cmp	r3, #0
 8002bfc:	f000 80b0 	beq.w	8002d60 <HAL_USART_IRQHandler+0x1e4>
  {
    /* USART parity error interrupt occurred ----------------------------------*/
    if (((isrflags & USART_SR_PE) != RESET) && ((cr1its & USART_CR1_PEIE) != RESET))
 8002c00:	69fb      	ldr	r3, [r7, #28]
 8002c02:	f003 0301 	and.w	r3, r3, #1
 8002c06:	2b00      	cmp	r3, #0
 8002c08:	d00a      	beq.n	8002c20 <HAL_USART_IRQHandler+0xa4>
 8002c0a:	69bb      	ldr	r3, [r7, #24]
 8002c0c:	f403 7380 	and.w	r3, r3, #256	; 0x100
 8002c10:	2b00      	cmp	r3, #0
 8002c12:	d005      	beq.n	8002c20 <HAL_USART_IRQHandler+0xa4>
    {
      husart->ErrorCode |= HAL_USART_ERROR_PE;
 8002c14:	687b      	ldr	r3, [r7, #4]
 8002c16:	6c1b      	ldr	r3, [r3, #64]	; 0x40
 8002c18:	f043 0201 	orr.w	r2, r3, #1
 8002c1c:	687b      	ldr	r3, [r7, #4]
 8002c1e:	641a      	str	r2, [r3, #64]	; 0x40
    }

    /* USART noise error interrupt occurred --------------------------------*/
    if (((isrflags & USART_SR_NE) != RESET) && ((cr3its & USART_CR3_EIE) != RESET))
 8002c20:	69fb      	ldr	r3, [r7, #28]
 8002c22:	f003 0304 	and.w	r3, r3, #4
 8002c26:	2b00      	cmp	r3, #0
 8002c28:	d00a      	beq.n	8002c40 <HAL_USART_IRQHandler+0xc4>
 8002c2a:	697b      	ldr	r3, [r7, #20]
 8002c2c:	f003 0301 	and.w	r3, r3, #1
 8002c30:	2b00      	cmp	r3, #0
 8002c32:	d005      	beq.n	8002c40 <HAL_USART_IRQHandler+0xc4>
    {
      husart->ErrorCode |= HAL_USART_ERROR_NE;
 8002c34:	687b      	ldr	r3, [r7, #4]
 8002c36:	6c1b      	ldr	r3, [r3, #64]	; 0x40
 8002c38:	f043 0202 	orr.w	r2, r3, #2
 8002c3c:	687b      	ldr	r3, [r7, #4]
 8002c3e:	641a      	str	r2, [r3, #64]	; 0x40
    }

    /* USART frame error interrupt occurred --------------------------------*/
    if (((isrflags & USART_SR_FE) != RESET) && ((cr3its & USART_CR3_EIE) != RESET))
 8002c40:	69fb      	ldr	r3, [r7, #28]
 8002c42:	f003 0302 	and.w	r3, r3, #2
 8002c46:	2b00      	cmp	r3, #0
 8002c48:	d00a      	beq.n	8002c60 <HAL_USART_IRQHandler+0xe4>
 8002c4a:	697b      	ldr	r3, [r7, #20]
 8002c4c:	f003 0301 	and.w	r3, r3, #1
 8002c50:	2b00      	cmp	r3, #0
 8002c52:	d005      	beq.n	8002c60 <HAL_USART_IRQHandler+0xe4>
    {
      husart->ErrorCode |= HAL_USART_ERROR_FE;
 8002c54:	687b      	ldr	r3, [r7, #4]
 8002c56:	6c1b      	ldr	r3, [r3, #64]	; 0x40
 8002c58:	f043 0204 	orr.w	r2, r3, #4
 8002c5c:	687b      	ldr	r3, [r7, #4]
 8002c5e:	641a      	str	r2, [r3, #64]	; 0x40
    }

    /* USART Over-Run interrupt occurred -----------------------------------*/
    if (((isrflags & USART_SR_ORE) != RESET) && (((cr1its & USART_CR1_RXNEIE) != RESET) || ((cr3its & USART_CR3_EIE) != RESET)))
 8002c60:	69fb      	ldr	r3, [r7, #28]
 8002c62:	f003 0308 	and.w	r3, r3, #8
 8002c66:	2b00      	cmp	r3, #0
 8002c68:	d00f      	beq.n	8002c8a <HAL_USART_IRQHandler+0x10e>
 8002c6a:	69bb      	ldr	r3, [r7, #24]
 8002c6c:	f003 0320 	and.w	r3, r3, #32
 8002c70:	2b00      	cmp	r3, #0
 8002c72:	d104      	bne.n	8002c7e <HAL_USART_IRQHandler+0x102>
 8002c74:	697b      	ldr	r3, [r7, #20]
 8002c76:	f003 0301 	and.w	r3, r3, #1
 8002c7a:	2b00      	cmp	r3, #0
 8002c7c:	d005      	beq.n	8002c8a <HAL_USART_IRQHandler+0x10e>
    {
      husart->ErrorCode |= HAL_USART_ERROR_ORE;
 8002c7e:	687b      	ldr	r3, [r7, #4]
 8002c80:	6c1b      	ldr	r3, [r3, #64]	; 0x40
 8002c82:	f043 0208 	orr.w	r2, r3, #8
 8002c86:	687b      	ldr	r3, [r7, #4]
 8002c88:	641a      	str	r2, [r3, #64]	; 0x40
    }

    if (husart->ErrorCode != HAL_USART_ERROR_NONE)
 8002c8a:	687b      	ldr	r3, [r7, #4]
 8002c8c:	6c1b      	ldr	r3, [r3, #64]	; 0x40
 8002c8e:	2b00      	cmp	r3, #0
 8002c90:	f000 808c 	beq.w	8002dac <HAL_USART_IRQHandler+0x230>
    {
      /* USART in mode Receiver -----------------------------------------------*/
      if (((isrflags & USART_SR_RXNE) != RESET) && ((cr1its & USART_CR1_RXNEIE) != RESET))
 8002c94:	69fb      	ldr	r3, [r7, #28]
 8002c96:	f003 0320 	and.w	r3, r3, #32
 8002c9a:	2b00      	cmp	r3, #0
 8002c9c:	d011      	beq.n	8002cc2 <HAL_USART_IRQHandler+0x146>
 8002c9e:	69bb      	ldr	r3, [r7, #24]
 8002ca0:	f003 0320 	and.w	r3, r3, #32
 8002ca4:	2b00      	cmp	r3, #0
 8002ca6:	d00c      	beq.n	8002cc2 <HAL_USART_IRQHandler+0x146>
      {
        if (husart->State == HAL_USART_STATE_BUSY_RX)
 8002ca8:	687b      	ldr	r3, [r7, #4]
 8002caa:	f893 303d 	ldrb.w	r3, [r3, #61]	; 0x3d
 8002cae:	b2db      	uxtb	r3, r3
 8002cb0:	2b22      	cmp	r3, #34	; 0x22
 8002cb2:	d103      	bne.n	8002cbc <HAL_USART_IRQHandler+0x140>
        {
          USART_Receive_IT(husart);
 8002cb4:	6878      	ldr	r0, [r7, #4]
 8002cb6:	f000 f943 	bl	8002f40 <USART_Receive_IT>
 8002cba:	e002      	b.n	8002cc2 <HAL_USART_IRQHandler+0x146>
        }
        else
        {
          USART_TransmitReceive_IT(husart);
 8002cbc:	6878      	ldr	r0, [r7, #4]
 8002cbe:	f000 f9c5 	bl	800304c <USART_TransmitReceive_IT>
        }
      }
      /* If Overrun error occurs, or if any error occurs in DMA mode reception,
      consider error as blocking */
      dmarequest = HAL_IS_BIT_SET(husart->Instance->CR3, USART_CR3_DMAR);
 8002cc2:	687b      	ldr	r3, [r7, #4]
 8002cc4:	681b      	ldr	r3, [r3, #0]
 8002cc6:	695b      	ldr	r3, [r3, #20]
 8002cc8:	f003 0340 	and.w	r3, r3, #64	; 0x40
 8002ccc:	2b00      	cmp	r3, #0
 8002cce:	bf14      	ite	ne
 8002cd0:	2301      	movne	r3, #1
 8002cd2:	2300      	moveq	r3, #0
 8002cd4:	b2db      	uxtb	r3, r3
 8002cd6:	60fb      	str	r3, [r7, #12]
      if (((husart->ErrorCode & HAL_USART_ERROR_ORE) != RESET) || dmarequest)
 8002cd8:	687b      	ldr	r3, [r7, #4]
 8002cda:	6c1b      	ldr	r3, [r3, #64]	; 0x40
 8002cdc:	f003 0308 	and.w	r3, r3, #8
 8002ce0:	2b00      	cmp	r3, #0
 8002ce2:	d102      	bne.n	8002cea <HAL_USART_IRQHandler+0x16e>
 8002ce4:	68fb      	ldr	r3, [r7, #12]
 8002ce6:	2b00      	cmp	r3, #0
 8002ce8:	d031      	beq.n	8002d4e <HAL_USART_IRQHandler+0x1d2>
      {
        /* Set the USART state ready to be able to start again the process,
        Disable Rx Interrupts, and disable Rx DMA request, if ongoing */
        USART_EndRxTransfer(husart);
 8002cea:	6878      	ldr	r0, [r7, #4]
 8002cec:	f000 f888 	bl	8002e00 <USART_EndRxTransfer>

        /* Disable the USART DMA Rx request if enabled */
        if (HAL_IS_BIT_SET(husart->Instance->CR3, USART_CR3_DMAR))
 8002cf0:	687b      	ldr	r3, [r7, #4]
 8002cf2:	681b      	ldr	r3, [r3, #0]
 8002cf4:	695b      	ldr	r3, [r3, #20]
 8002cf6:	f003 0340 	and.w	r3, r3, #64	; 0x40
 8002cfa:	2b00      	cmp	r3, #0
 8002cfc:	d023      	beq.n	8002d46 <HAL_USART_IRQHandler+0x1ca>
        {
          CLEAR_BIT(husart->Instance->CR3, USART_CR3_DMAR);
 8002cfe:	687b      	ldr	r3, [r7, #4]
 8002d00:	681b      	ldr	r3, [r3, #0]
 8002d02:	695a      	ldr	r2, [r3, #20]
 8002d04:	687b      	ldr	r3, [r7, #4]
 8002d06:	681b      	ldr	r3, [r3, #0]
 8002d08:	f022 0240 	bic.w	r2, r2, #64	; 0x40
 8002d0c:	615a      	str	r2, [r3, #20]

          /* Abort the USART DMA Rx channel */
          if (husart->hdmarx != NULL)
 8002d0e:	687b      	ldr	r3, [r7, #4]
 8002d10:	6b9b      	ldr	r3, [r3, #56]	; 0x38
 8002d12:	2b00      	cmp	r3, #0
 8002d14:	d013      	beq.n	8002d3e <HAL_USART_IRQHandler+0x1c2>
          {
            /* Set the USART DMA Abort callback :
            will lead to call HAL_USART_ErrorCallback() at end of DMA abort procedure */
            husart->hdmarx->XferAbortCallback = USART_DMAAbortOnError;
 8002d16:	687b      	ldr	r3, [r7, #4]
 8002d18:	6b9b      	ldr	r3, [r3, #56]	; 0x38
 8002d1a:	4a26      	ldr	r2, [pc, #152]	; (8002db4 <HAL_USART_IRQHandler+0x238>)
 8002d1c:	635a      	str	r2, [r3, #52]	; 0x34

            if (HAL_DMA_Abort_IT(husart->hdmarx) != HAL_OK)
 8002d1e:	687b      	ldr	r3, [r7, #4]
 8002d20:	6b9b      	ldr	r3, [r3, #56]	; 0x38
 8002d22:	4618      	mov	r0, r3
 8002d24:	f7fe f906 	bl	8000f34 <HAL_DMA_Abort_IT>
 8002d28:	4603      	mov	r3, r0
 8002d2a:	2b00      	cmp	r3, #0
 8002d2c:	d016      	beq.n	8002d5c <HAL_USART_IRQHandler+0x1e0>
            {
              /* Call Directly XferAbortCallback function in case of error */
              husart->hdmarx->XferAbortCallback(husart->hdmarx);
 8002d2e:	687b      	ldr	r3, [r7, #4]
 8002d30:	6b9b      	ldr	r3, [r3, #56]	; 0x38
 8002d32:	6b5b      	ldr	r3, [r3, #52]	; 0x34
 8002d34:	687a      	ldr	r2, [r7, #4]
 8002d36:	6b92      	ldr	r2, [r2, #56]	; 0x38
 8002d38:	4610      	mov	r0, r2
 8002d3a:	4798      	blx	r3
        if (HAL_IS_BIT_SET(husart->Instance->CR3, USART_CR3_DMAR))
 8002d3c:	e00e      	b.n	8002d5c <HAL_USART_IRQHandler+0x1e0>
#if (USE_HAL_USART_REGISTER_CALLBACKS == 1)
            /* Call registered Error Callback */
            husart->ErrorCallback(husart);
#else
            /* Call legacy weak Error Callback */
            HAL_USART_ErrorCallback(husart);
 8002d3e:	6878      	ldr	r0, [r7, #4]
 8002d40:	f000 f855 	bl	8002dee <HAL_USART_ErrorCallback>
        if (HAL_IS_BIT_SET(husart->Instance->CR3, USART_CR3_DMAR))
 8002d44:	e00a      	b.n	8002d5c <HAL_USART_IRQHandler+0x1e0>
#if (USE_HAL_USART_REGISTER_CALLBACKS == 1)
          /* Call registered Error Callback */
          husart->ErrorCallback(husart);
#else
          /* Call legacy weak Error Callback */
          HAL_USART_ErrorCallback(husart);
 8002d46:	6878      	ldr	r0, [r7, #4]
 8002d48:	f000 f851 	bl	8002dee <HAL_USART_ErrorCallback>
        if (HAL_IS_BIT_SET(husart->Instance->CR3, USART_CR3_DMAR))
 8002d4c:	e006      	b.n	8002d5c <HAL_USART_IRQHandler+0x1e0>
#if (USE_HAL_USART_REGISTER_CALLBACKS == 1)
        /* Call registered Error Callback */
        husart->ErrorCallback(husart);
#else
        /* Call legacy weak Error Callback */
        HAL_USART_ErrorCallback(husart);
 8002d4e:	6878      	ldr	r0, [r7, #4]
 8002d50:	f000 f84d 	bl	8002dee <HAL_USART_ErrorCallback>
#endif /* USE_HAL_USART_REGISTER_CALLBACKS */
        husart->ErrorCode = HAL_USART_ERROR_NONE;
 8002d54:	687b      	ldr	r3, [r7, #4]
 8002d56:	2200      	movs	r2, #0
 8002d58:	641a      	str	r2, [r3, #64]	; 0x40
      }
    }
    return;
 8002d5a:	e027      	b.n	8002dac <HAL_USART_IRQHandler+0x230>
        if (HAL_IS_BIT_SET(husart->Instance->CR3, USART_CR3_DMAR))
 8002d5c:	bf00      	nop
    return;
 8002d5e:	e025      	b.n	8002dac <HAL_USART_IRQHandler+0x230>
  }

  /* USART in mode Transmitter -----------------------------------------------*/
  if (((isrflags & USART_SR_TXE) != RESET) && ((cr1its & USART_CR1_TXEIE) != RESET))
 8002d60:	69fb      	ldr	r3, [r7, #28]
 8002d62:	f003 0380 	and.w	r3, r3, #128	; 0x80
 8002d66:	2b00      	cmp	r3, #0
 8002d68:	d012      	beq.n	8002d90 <HAL_USART_IRQHandler+0x214>
 8002d6a:	69bb      	ldr	r3, [r7, #24]
 8002d6c:	f003 0380 	and.w	r3, r3, #128	; 0x80
 8002d70:	2b00      	cmp	r3, #0
 8002d72:	d00d      	beq.n	8002d90 <HAL_USART_IRQHandler+0x214>
  {
    if (husart->State == HAL_USART_STATE_BUSY_TX)
 8002d74:	687b      	ldr	r3, [r7, #4]
 8002d76:	f893 303d 	ldrb.w	r3, [r3, #61]	; 0x3d
 8002d7a:	b2db      	uxtb	r3, r3
 8002d7c:	2b12      	cmp	r3, #18
 8002d7e:	d103      	bne.n	8002d88 <HAL_USART_IRQHandler+0x20c>
    {
      USART_Transmit_IT(husart);
 8002d80:	6878      	ldr	r0, [r7, #4]
 8002d82:	f000 f86e 	bl	8002e62 <USART_Transmit_IT>
    }
    else
    {
      USART_TransmitReceive_IT(husart);
    }
    return;
 8002d86:	e012      	b.n	8002dae <HAL_USART_IRQHandler+0x232>
      USART_TransmitReceive_IT(husart);
 8002d88:	6878      	ldr	r0, [r7, #4]
 8002d8a:	f000 f95f 	bl	800304c <USART_TransmitReceive_IT>
    return;
 8002d8e:	e00e      	b.n	8002dae <HAL_USART_IRQHandler+0x232>
  }

  /* USART in mode Transmitter (transmission end) ----------------------------*/
  if (((isrflags & USART_SR_TC) != RESET) && ((cr1its & USART_CR1_TCIE) != RESET))
 8002d90:	69fb      	ldr	r3, [r7, #28]
 8002d92:	f003 0340 	and.w	r3, r3, #64	; 0x40
 8002d96:	2b00      	cmp	r3, #0
 8002d98:	d009      	beq.n	8002dae <HAL_USART_IRQHandler+0x232>
 8002d9a:	69bb      	ldr	r3, [r7, #24]
 8002d9c:	f003 0340 	and.w	r3, r3, #64	; 0x40
 8002da0:	2b00      	cmp	r3, #0
 8002da2:	d004      	beq.n	8002dae <HAL_USART_IRQHandler+0x232>
  {
    USART_EndTransmit_IT(husart);
 8002da4:	6878      	ldr	r0, [r7, #4]
 8002da6:	f000 f8ab 	bl	8002f00 <USART_EndTransmit_IT>
    return;
 8002daa:	e000      	b.n	8002dae <HAL_USART_IRQHandler+0x232>
    return;
 8002dac:	bf00      	nop
  }
}
 8002dae:	3720      	adds	r7, #32
 8002db0:	46bd      	mov	sp, r7
 8002db2:	bd80      	pop	{r7, pc}
 8002db4:	08002e3b 	.word	0x08002e3b

08002db8 <HAL_USART_TxCpltCallback>:
  * @param  husart Pointer to a USART_HandleTypeDef structure that contains
  *                the configuration information for the specified USART module.
  * @retval None
  */
__weak void HAL_USART_TxCpltCallback(USART_HandleTypeDef *husart)
{
 8002db8:	b480      	push	{r7}
 8002dba:	b083      	sub	sp, #12
 8002dbc:	af00      	add	r7, sp, #0
 8002dbe:	6078      	str	r0, [r7, #4]
  /* Prevent unused argument(s) compilation warning */
  UNUSED(husart);
  /* NOTE: This function should not be modified, when the callback is needed,
           the HAL_USART_TxCpltCallback could be implemented in the user file
   */
}
 8002dc0:	bf00      	nop
 8002dc2:	370c      	adds	r7, #12
 8002dc4:	46bd      	mov	sp, r7
 8002dc6:	bc80      	pop	{r7}
 8002dc8:	4770      	bx	lr

08002dca <HAL_USART_RxCpltCallback>:
  * @param  husart Pointer to a USART_HandleTypeDef structure that contains
  *                the configuration information for the specified USART module.
  * @retval None
  */
__weak void HAL_USART_RxCpltCallback(USART_HandleTypeDef *husart)
{
 8002dca:	b480      	push	{r7}
 8002dcc:	b083      	sub	sp, #12
 8002dce:	af00      	add	r7, sp, #0
 8002dd0:	6078      	str	r0, [r7, #4]
  /* Prevent unused argument(s) compilation warning */
  UNUSED(husart);
  /* NOTE: This function should not be modified, when the callback is needed,
           the HAL_USART_RxCpltCallback could be implemented in the user file
   */
}
 8002dd2:	bf00      	nop
 8002dd4:	370c      	adds	r7, #12
 8002dd6:	46bd      	mov	sp, r7
 8002dd8:	bc80      	pop	{r7}
 8002dda:	4770      	bx	lr

08002ddc <HAL_USART_TxRxCpltCallback>:
  * @param  husart Pointer to a USART_HandleTypeDef structure that contains
  *                the configuration information for the specified USART module.
  * @retval None
  */
__weak void HAL_USART_TxRxCpltCallback(USART_HandleTypeDef *husart)
{
 8002ddc:	b480      	push	{r7}
 8002dde:	b083      	sub	sp, #12
 8002de0:	af00      	add	r7, sp, #0
 8002de2:	6078      	str	r0, [r7, #4]
  /* Prevent unused argument(s) compilation warning */
  UNUSED(husart);
  /* NOTE: This function should not be modified, when the callback is needed,
           the HAL_USART_TxRxCpltCallback could be implemented in the user file
   */
}
 8002de4:	bf00      	nop
 8002de6:	370c      	adds	r7, #12
 8002de8:	46bd      	mov	sp, r7
 8002dea:	bc80      	pop	{r7}
 8002dec:	4770      	bx	lr

08002dee <HAL_USART_ErrorCallback>:
  * @param  husart Pointer to a USART_HandleTypeDef structure that contains
  *                the configuration information for the specified USART module.
  * @retval None
  */
__weak void HAL_USART_ErrorCallback(USART_HandleTypeDef *husart)
{
 8002dee:	b480      	push	{r7}
 8002df0:	b083      	sub	sp, #12
 8002df2:	af00      	add	r7, sp, #0
 8002df4:	6078      	str	r0, [r7, #4]
  /* Prevent unused argument(s) compilation warning */
  UNUSED(husart);
  /* NOTE: This function should not be modified, when the callback is needed,
           the HAL_USART_ErrorCallback could be implemented in the user file
   */
}
 8002df6:	bf00      	nop
 8002df8:	370c      	adds	r7, #12
 8002dfa:	46bd      	mov	sp, r7
 8002dfc:	bc80      	pop	{r7}
 8002dfe:	4770      	bx	lr

08002e00 <USART_EndRxTransfer>:
  * @brief  End ongoing Rx transfer on USART peripheral (following error detection or Reception completion).
  * @param  husart USART handle.
  * @retval None
  */
static void USART_EndRxTransfer(USART_HandleTypeDef *husart)
{
 8002e00:	b480      	push	{r7}
 8002e02:	b083      	sub	sp, #12
 8002e04:	af00      	add	r7, sp, #0
 8002e06:	6078      	str	r0, [r7, #4]
  /* Disable RXNE, PE and ERR interrupts */
  CLEAR_BIT(husart->Instance->CR1, (USART_CR1_RXNEIE | USART_CR1_PEIE));
 8002e08:	687b      	ldr	r3, [r7, #4]
 8002e0a:	681b      	ldr	r3, [r3, #0]
 8002e0c:	68da      	ldr	r2, [r3, #12]
 8002e0e:	687b      	ldr	r3, [r7, #4]
 8002e10:	681b      	ldr	r3, [r3, #0]
 8002e12:	f422 7290 	bic.w	r2, r2, #288	; 0x120
 8002e16:	60da      	str	r2, [r3, #12]
  CLEAR_BIT(husart->Instance->CR3, USART_CR3_EIE);
 8002e18:	687b      	ldr	r3, [r7, #4]
 8002e1a:	681b      	ldr	r3, [r3, #0]
 8002e1c:	695a      	ldr	r2, [r3, #20]
 8002e1e:	687b      	ldr	r3, [r7, #4]
 8002e20:	681b      	ldr	r3, [r3, #0]
 8002e22:	f022 0201 	bic.w	r2, r2, #1
 8002e26:	615a      	str	r2, [r3, #20]

  /* At end of Rx process, restore husart->State to Ready */
  husart->State = HAL_USART_STATE_READY;
 8002e28:	687b      	ldr	r3, [r7, #4]
 8002e2a:	2201      	movs	r2, #1
 8002e2c:	f883 203d 	strb.w	r2, [r3, #61]	; 0x3d
}
 8002e30:	bf00      	nop
 8002e32:	370c      	adds	r7, #12
 8002e34:	46bd      	mov	sp, r7
 8002e36:	bc80      	pop	{r7}
 8002e38:	4770      	bx	lr

08002e3a <USART_DMAAbortOnError>:
  *         (To be called at end of DMA Abort procedure following error occurrence).
  * @param  hdma DMA handle.
  * @retval None
  */
static void USART_DMAAbortOnError(DMA_HandleTypeDef *hdma)
{
 8002e3a:	b580      	push	{r7, lr}
 8002e3c:	b084      	sub	sp, #16
 8002e3e:	af00      	add	r7, sp, #0
 8002e40:	6078      	str	r0, [r7, #4]
  USART_HandleTypeDef *husart = (USART_HandleTypeDef *)((DMA_HandleTypeDef *)hdma)->Parent;
 8002e42:	687b      	ldr	r3, [r7, #4]
 8002e44:	6a5b      	ldr	r3, [r3, #36]	; 0x24
 8002e46:	60fb      	str	r3, [r7, #12]
  husart->RxXferCount = 0x00U;
 8002e48:	68fb      	ldr	r3, [r7, #12]
 8002e4a:	2200      	movs	r2, #0
 8002e4c:	865a      	strh	r2, [r3, #50]	; 0x32
  husart->TxXferCount = 0x00U;
 8002e4e:	68fb      	ldr	r3, [r7, #12]
 8002e50:	2200      	movs	r2, #0
 8002e52:	855a      	strh	r2, [r3, #42]	; 0x2a
#if (USE_HAL_USART_REGISTER_CALLBACKS == 1)
  /* Call registered Error Callback */
  husart->ErrorCallback(husart);
#else
  /* Call legacy weak Error Callback */
  HAL_USART_ErrorCallback(husart);
 8002e54:	68f8      	ldr	r0, [r7, #12]
 8002e56:	f7ff ffca 	bl	8002dee <HAL_USART_ErrorCallback>
#endif /* USE_HAL_USART_REGISTER_CALLBACKS */
}
 8002e5a:	bf00      	nop
 8002e5c:	3710      	adds	r7, #16
 8002e5e:	46bd      	mov	sp, r7
 8002e60:	bd80      	pop	{r7, pc}

08002e62 <USART_Transmit_IT>:
  *                the configuration information for the specified USART module.
  * @retval HAL status
  * @note   The USART errors are not managed to avoid the overrun error.
  */
static HAL_StatusTypeDef USART_Transmit_IT(USART_HandleTypeDef *husart)
{
 8002e62:	b480      	push	{r7}
 8002e64:	b085      	sub	sp, #20
 8002e66:	af00      	add	r7, sp, #0
 8002e68:	6078      	str	r0, [r7, #4]
  uint16_t *tmp;

  if (husart->State == HAL_USART_STATE_BUSY_TX)
 8002e6a:	687b      	ldr	r3, [r7, #4]
 8002e6c:	f893 303d 	ldrb.w	r3, [r3, #61]	; 0x3d
 8002e70:	b2db      	uxtb	r3, r3
 8002e72:	2b12      	cmp	r3, #18
 8002e74:	d13e      	bne.n	8002ef4 <USART_Transmit_IT+0x92>
  {
    if ((husart->Init.WordLength == USART_WORDLENGTH_9B) && (husart->Init.Parity == USART_PARITY_NONE))
 8002e76:	687b      	ldr	r3, [r7, #4]
 8002e78:	689b      	ldr	r3, [r3, #8]
 8002e7a:	f5b3 5f80 	cmp.w	r3, #4096	; 0x1000
 8002e7e:	d114      	bne.n	8002eaa <USART_Transmit_IT+0x48>
 8002e80:	687b      	ldr	r3, [r7, #4]
 8002e82:	691b      	ldr	r3, [r3, #16]
 8002e84:	2b00      	cmp	r3, #0
 8002e86:	d110      	bne.n	8002eaa <USART_Transmit_IT+0x48>
    {
      tmp = (uint16_t *) husart->pTxBuffPtr;
 8002e88:	687b      	ldr	r3, [r7, #4]
 8002e8a:	6a5b      	ldr	r3, [r3, #36]	; 0x24
 8002e8c:	60fb      	str	r3, [r7, #12]
      husart->Instance->DR = (uint16_t)(*tmp & (uint16_t)0x01FF);
 8002e8e:	68fb      	ldr	r3, [r7, #12]
 8002e90:	881b      	ldrh	r3, [r3, #0]
 8002e92:	461a      	mov	r2, r3
 8002e94:	687b      	ldr	r3, [r7, #4]
 8002e96:	681b      	ldr	r3, [r3, #0]
 8002e98:	f3c2 0208 	ubfx	r2, r2, #0, #9
 8002e9c:	605a      	str	r2, [r3, #4]
      husart->pTxBuffPtr += 2U;
 8002e9e:	687b      	ldr	r3, [r7, #4]
 8002ea0:	6a5b      	ldr	r3, [r3, #36]	; 0x24
 8002ea2:	1c9a      	adds	r2, r3, #2
 8002ea4:	687b      	ldr	r3, [r7, #4]
 8002ea6:	625a      	str	r2, [r3, #36]	; 0x24
 8002ea8:	e008      	b.n	8002ebc <USART_Transmit_IT+0x5a>
    }
    else
    {
      husart->Instance->DR = (uint8_t)(*husart->pTxBuffPtr++ & (uint8_t)0x00FF);
 8002eaa:	687b      	ldr	r3, [r7, #4]
 8002eac:	6a5b      	ldr	r3, [r3, #36]	; 0x24
 8002eae:	1c59      	adds	r1, r3, #1
 8002eb0:	687a      	ldr	r2, [r7, #4]
 8002eb2:	6251      	str	r1, [r2, #36]	; 0x24
 8002eb4:	781a      	ldrb	r2, [r3, #0]
 8002eb6:	687b      	ldr	r3, [r7, #4]
 8002eb8:	681b      	ldr	r3, [r3, #0]
 8002eba:	605a      	str	r2, [r3, #4]
    }

    if (--husart->TxXferCount == 0U)
 8002ebc:	687b      	ldr	r3, [r7, #4]
 8002ebe:	8d5b      	ldrh	r3, [r3, #42]	; 0x2a
 8002ec0:	b29b      	uxth	r3, r3
 8002ec2:	3b01      	subs	r3, #1
 8002ec4:	b29b      	uxth	r3, r3
 8002ec6:	687a      	ldr	r2, [r7, #4]
 8002ec8:	4619      	mov	r1, r3
 8002eca:	8551      	strh	r1, [r2, #42]	; 0x2a
 8002ecc:	2b00      	cmp	r3, #0
 8002ece:	d10f      	bne.n	8002ef0 <USART_Transmit_IT+0x8e>
    {
      /* Disable the USART Transmit data register empty Interrupt */
      CLEAR_BIT(husart->Instance->CR1, USART_CR1_TXEIE);
 8002ed0:	687b      	ldr	r3, [r7, #4]
 8002ed2:	681b      	ldr	r3, [r3, #0]
 8002ed4:	68da      	ldr	r2, [r3, #12]
 8002ed6:	687b      	ldr	r3, [r7, #4]
 8002ed8:	681b      	ldr	r3, [r3, #0]
 8002eda:	f022 0280 	bic.w	r2, r2, #128	; 0x80
 8002ede:	60da      	str	r2, [r3, #12]

      /* Enable the USART Transmit Complete Interrupt */
      SET_BIT(husart->Instance->CR1, USART_CR1_TCIE);
 8002ee0:	687b      	ldr	r3, [r7, #4]
 8002ee2:	681b      	ldr	r3, [r3, #0]
 8002ee4:	68da      	ldr	r2, [r3, #12]
 8002ee6:	687b      	ldr	r3, [r7, #4]
 8002ee8:	681b      	ldr	r3, [r3, #0]
 8002eea:	f042 0240 	orr.w	r2, r2, #64	; 0x40
 8002eee:	60da      	str	r2, [r3, #12]
    }
    return HAL_OK;
 8002ef0:	2300      	movs	r3, #0
 8002ef2:	e000      	b.n	8002ef6 <USART_Transmit_IT+0x94>
  }
  else
  {
    return HAL_BUSY;
 8002ef4:	2302      	movs	r3, #2
  }
}
 8002ef6:	4618      	mov	r0, r3
 8002ef8:	3714      	adds	r7, #20
 8002efa:	46bd      	mov	sp, r7
 8002efc:	bc80      	pop	{r7}
 8002efe:	4770      	bx	lr

08002f00 <USART_EndTransmit_IT>:
  * @param  husart Pointer to a USART_HandleTypeDef structure that contains
  *                the configuration information for the specified USART module.
  * @retval HAL status
  */
static HAL_StatusTypeDef USART_EndTransmit_IT(USART_HandleTypeDef *husart)
{
 8002f00:	b580      	push	{r7, lr}
 8002f02:	b082      	sub	sp, #8
 8002f04:	af00      	add	r7, sp, #0
 8002f06:	6078      	str	r0, [r7, #4]
  /* Disable the USART Transmit Complete Interrupt */
  CLEAR_BIT(husart->Instance->CR1, USART_CR1_TCIE);
 8002f08:	687b      	ldr	r3, [r7, #4]
 8002f0a:	681b      	ldr	r3, [r3, #0]
 8002f0c:	68da      	ldr	r2, [r3, #12]
 8002f0e:	687b      	ldr	r3, [r7, #4]
 8002f10:	681b      	ldr	r3, [r3, #0]
 8002f12:	f022 0240 	bic.w	r2, r2, #64	; 0x40
 8002f16:	60da      	str	r2, [r3, #12]

  /* Disable the USART Error Interrupt: (Frame error, noise error, overrun error) */
  CLEAR_BIT(husart->Instance->CR3, USART_CR3_EIE);
 8002f18:	687b      	ldr	r3, [r7, #4]
 8002f1a:	681b      	ldr	r3, [r3, #0]
 8002f1c:	695a      	ldr	r2, [r3, #20]
 8002f1e:	687b      	ldr	r3, [r7, #4]
 8002f20:	681b      	ldr	r3, [r3, #0]
 8002f22:	f022 0201 	bic.w	r2, r2, #1
 8002f26:	615a      	str	r2, [r3, #20]

  husart->State = HAL_USART_STATE_READY;
 8002f28:	687b      	ldr	r3, [r7, #4]
 8002f2a:	2201      	movs	r2, #1
 8002f2c:	f883 203d 	strb.w	r2, [r3, #61]	; 0x3d
#if (USE_HAL_USART_REGISTER_CALLBACKS == 1)
  /* Call registered Tx Complete Callback */
  husart->TxCpltCallback(husart);
#else
  /* Call legacy weak Tx Complete Callback */
  HAL_USART_TxCpltCallback(husart);
 8002f30:	6878      	ldr	r0, [r7, #4]
 8002f32:	f7ff ff41 	bl	8002db8 <HAL_USART_TxCpltCallback>
#endif /* USE_HAL_USART_REGISTER_CALLBACKS */

  return HAL_OK;
 8002f36:	2300      	movs	r3, #0
}
 8002f38:	4618      	mov	r0, r3
 8002f3a:	3708      	adds	r7, #8
 8002f3c:	46bd      	mov	sp, r7
 8002f3e:	bd80      	pop	{r7, pc}

08002f40 <USART_Receive_IT>:
  * @param  husart Pointer to a USART_HandleTypeDef structure that contains
  *                the configuration information for the specified USART module.
  * @retval HAL status
  */
static HAL_StatusTypeDef USART_Receive_IT(USART_HandleTypeDef *husart)
{
 8002f40:	b580      	push	{r7, lr}
 8002f42:	b084      	sub	sp, #16
 8002f44:	af00      	add	r7, sp, #0
 8002f46:	6078      	str	r0, [r7, #4]
  uint8_t  *pdata8bits;
  uint16_t *pdata16bits;

  if (husart->State == HAL_USART_STATE_BUSY_RX)
 8002f48:	687b      	ldr	r3, [r7, #4]
 8002f4a:	f893 303d 	ldrb.w	r3, [r3, #61]	; 0x3d
 8002f4e:	b2db      	uxtb	r3, r3
 8002f50:	2b22      	cmp	r3, #34	; 0x22
 8002f52:	d176      	bne.n	8003042 <USART_Receive_IT+0x102>
  {
    if ((husart->Init.WordLength == USART_WORDLENGTH_9B) && (husart->Init.Parity == USART_PARITY_NONE))
 8002f54:	687b      	ldr	r3, [r7, #4]
 8002f56:	689b      	ldr	r3, [r3, #8]
 8002f58:	f5b3 5f80 	cmp.w	r3, #4096	; 0x1000
 8002f5c:	d117      	bne.n	8002f8e <USART_Receive_IT+0x4e>
 8002f5e:	687b      	ldr	r3, [r7, #4]
 8002f60:	691b      	ldr	r3, [r3, #16]
 8002f62:	2b00      	cmp	r3, #0
 8002f64:	d113      	bne.n	8002f8e <USART_Receive_IT+0x4e>
    {
      pdata8bits  = NULL;
 8002f66:	2300      	movs	r3, #0
 8002f68:	60fb      	str	r3, [r7, #12]
      pdata16bits = (uint16_t *) husart->pRxBuffPtr;
 8002f6a:	687b      	ldr	r3, [r7, #4]
 8002f6c:	6adb      	ldr	r3, [r3, #44]	; 0x2c
 8002f6e:	60bb      	str	r3, [r7, #8]
      *pdata16bits = (uint16_t)(husart->Instance->DR & (uint16_t)0x01FF);
 8002f70:	687b      	ldr	r3, [r7, #4]
 8002f72:	681b      	ldr	r3, [r3, #0]
 8002f74:	685b      	ldr	r3, [r3, #4]
 8002f76:	b29b      	uxth	r3, r3
 8002f78:	f3c3 0308 	ubfx	r3, r3, #0, #9
 8002f7c:	b29a      	uxth	r2, r3
 8002f7e:	68bb      	ldr	r3, [r7, #8]
 8002f80:	801a      	strh	r2, [r3, #0]
      husart->pRxBuffPtr += 2U;
 8002f82:	687b      	ldr	r3, [r7, #4]
 8002f84:	6adb      	ldr	r3, [r3, #44]	; 0x2c
 8002f86:	1c9a      	adds	r2, r3, #2
 8002f88:	687b      	ldr	r3, [r7, #4]
 8002f8a:	62da      	str	r2, [r3, #44]	; 0x2c
 8002f8c:	e026      	b.n	8002fdc <USART_Receive_IT+0x9c>
    }
    else
    {
      pdata8bits = (uint8_t *) husart->pRxBuffPtr;
 8002f8e:	687b      	ldr	r3, [r7, #4]
 8002f90:	6adb      	ldr	r3, [r3, #44]	; 0x2c
 8002f92:	60fb      	str	r3, [r7, #12]
      pdata16bits  = NULL;
 8002f94:	2300      	movs	r3, #0
 8002f96:	60bb      	str	r3, [r7, #8]

      if ((husart->Init.WordLength == USART_WORDLENGTH_9B) || ((husart->Init.WordLength == USART_WORDLENGTH_8B) && (husart->Init.Parity == USART_PARITY_NONE)))
 8002f98:	687b      	ldr	r3, [r7, #4]
 8002f9a:	689b      	ldr	r3, [r3, #8]
 8002f9c:	f5b3 5f80 	cmp.w	r3, #4096	; 0x1000
 8002fa0:	d007      	beq.n	8002fb2 <USART_Receive_IT+0x72>
 8002fa2:	687b      	ldr	r3, [r7, #4]
 8002fa4:	689b      	ldr	r3, [r3, #8]
 8002fa6:	2b00      	cmp	r3, #0
 8002fa8:	d10a      	bne.n	8002fc0 <USART_Receive_IT+0x80>
 8002faa:	687b      	ldr	r3, [r7, #4]
 8002fac:	691b      	ldr	r3, [r3, #16]
 8002fae:	2b00      	cmp	r3, #0
 8002fb0:	d106      	bne.n	8002fc0 <USART_Receive_IT+0x80>
      {
        *pdata8bits = (uint8_t)(husart->Instance->DR & (uint8_t)0x00FF);
 8002fb2:	687b      	ldr	r3, [r7, #4]
 8002fb4:	681b      	ldr	r3, [r3, #0]
 8002fb6:	685b      	ldr	r3, [r3, #4]
 8002fb8:	b2da      	uxtb	r2, r3
 8002fba:	68fb      	ldr	r3, [r7, #12]
 8002fbc:	701a      	strb	r2, [r3, #0]
 8002fbe:	e008      	b.n	8002fd2 <USART_Receive_IT+0x92>
      }
      else
      {
        *pdata8bits = (uint8_t)(husart->Instance->DR & (uint8_t)0x007F);
 8002fc0:	687b      	ldr	r3, [r7, #4]
 8002fc2:	681b      	ldr	r3, [r3, #0]
 8002fc4:	685b      	ldr	r3, [r3, #4]
 8002fc6:	b2db      	uxtb	r3, r3
 8002fc8:	f003 037f 	and.w	r3, r3, #127	; 0x7f
 8002fcc:	b2da      	uxtb	r2, r3
 8002fce:	68fb      	ldr	r3, [r7, #12]
 8002fd0:	701a      	strb	r2, [r3, #0]
      }

      husart->pRxBuffPtr += 1U;
 8002fd2:	687b      	ldr	r3, [r7, #4]
 8002fd4:	6adb      	ldr	r3, [r3, #44]	; 0x2c
 8002fd6:	1c5a      	adds	r2, r3, #1
 8002fd8:	687b      	ldr	r3, [r7, #4]
 8002fda:	62da      	str	r2, [r3, #44]	; 0x2c
    }

    husart->RxXferCount--;
 8002fdc:	687b      	ldr	r3, [r7, #4]
 8002fde:	8e5b      	ldrh	r3, [r3, #50]	; 0x32
 8002fe0:	b29b      	uxth	r3, r3
 8002fe2:	3b01      	subs	r3, #1
 8002fe4:	b29a      	uxth	r2, r3
 8002fe6:	687b      	ldr	r3, [r7, #4]
 8002fe8:	865a      	strh	r2, [r3, #50]	; 0x32

    if (husart->RxXferCount == 0U)
 8002fea:	687b      	ldr	r3, [r7, #4]
 8002fec:	8e5b      	ldrh	r3, [r3, #50]	; 0x32
 8002fee:	b29b      	uxth	r3, r3
 8002ff0:	2b00      	cmp	r3, #0
 8002ff2:	d120      	bne.n	8003036 <USART_Receive_IT+0xf6>
    {
      /* Disable the USART RXNE Interrupt */
      CLEAR_BIT(husart->Instance->CR1, USART_CR1_RXNEIE);
 8002ff4:	687b      	ldr	r3, [r7, #4]
 8002ff6:	681b      	ldr	r3, [r3, #0]
 8002ff8:	68da      	ldr	r2, [r3, #12]
 8002ffa:	687b      	ldr	r3, [r7, #4]
 8002ffc:	681b      	ldr	r3, [r3, #0]
 8002ffe:	f022 0220 	bic.w	r2, r2, #32
 8003002:	60da      	str	r2, [r3, #12]

      /* Disable the USART Parity Error Interrupt */
      CLEAR_BIT(husart->Instance->CR1, USART_CR1_PEIE);
 8003004:	687b      	ldr	r3, [r7, #4]
 8003006:	681b      	ldr	r3, [r3, #0]
 8003008:	68da      	ldr	r2, [r3, #12]
 800300a:	687b      	ldr	r3, [r7, #4]
 800300c:	681b      	ldr	r3, [r3, #0]
 800300e:	f422 7280 	bic.w	r2, r2, #256	; 0x100
 8003012:	60da      	str	r2, [r3, #12]

      /* Disable the USART Error Interrupt: (Frame error, noise error, overrun error) */
      CLEAR_BIT(husart->Instance->CR3, USART_CR3_EIE);
 8003014:	687b      	ldr	r3, [r7, #4]
 8003016:	681b      	ldr	r3, [r3, #0]
 8003018:	695a      	ldr	r2, [r3, #20]
 800301a:	687b      	ldr	r3, [r7, #4]
 800301c:	681b      	ldr	r3, [r3, #0]
 800301e:	f022 0201 	bic.w	r2, r2, #1
 8003022:	615a      	str	r2, [r3, #20]

      husart->State = HAL_USART_STATE_READY;
 8003024:	687b      	ldr	r3, [r7, #4]
 8003026:	2201      	movs	r2, #1
 8003028:	f883 203d 	strb.w	r2, [r3, #61]	; 0x3d
#if (USE_HAL_USART_REGISTER_CALLBACKS == 1)
      /* Call registered Rx Complete Callback */
      husart->RxCpltCallback(husart);
#else
      /* Call legacy weak Rx Complete Callback */
      HAL_USART_RxCpltCallback(husart);
 800302c:	6878      	ldr	r0, [r7, #4]
 800302e:	f7ff fecc 	bl	8002dca <HAL_USART_RxCpltCallback>
#endif /* USE_HAL_USART_REGISTER_CALLBACKS */

      return HAL_OK;
 8003032:	2300      	movs	r3, #0
 8003034:	e006      	b.n	8003044 <USART_Receive_IT+0x104>
    else
    {
      /* Send dummy byte in order to generate the clock for the slave to send the next data.
      * Whatever the frame length (7, 8 or 9-bit long), the same dummy value
      * can be written for all the cases. */
      husart->Instance->DR = (DUMMY_DATA & (uint16_t)0x0FF);
 8003036:	687b      	ldr	r3, [r7, #4]
 8003038:	681b      	ldr	r3, [r3, #0]
 800303a:	22ff      	movs	r2, #255	; 0xff
 800303c:	605a      	str	r2, [r3, #4]
    }
    return HAL_OK;
 800303e:	2300      	movs	r3, #0
 8003040:	e000      	b.n	8003044 <USART_Receive_IT+0x104>
  }
  else
  {
    return HAL_BUSY;
 8003042:	2302      	movs	r3, #2
  }
}
 8003044:	4618      	mov	r0, r3
 8003046:	3710      	adds	r7, #16
 8003048:	46bd      	mov	sp, r7
 800304a:	bd80      	pop	{r7, pc}

0800304c <USART_TransmitReceive_IT>:
  * @param  husart Pointer to a USART_HandleTypeDef structure that contains
  *                the configuration information for the specified USART module.
  * @retval HAL status
  */
static HAL_StatusTypeDef USART_TransmitReceive_IT(USART_HandleTypeDef *husart)
{
 800304c:	b580      	push	{r7, lr}
 800304e:	b084      	sub	sp, #16
 8003050:	af00      	add	r7, sp, #0
 8003052:	6078      	str	r0, [r7, #4]
  uint8_t  *pdata8bits;
  uint16_t *pdata16bits;

  if (husart->State == HAL_USART_STATE_BUSY_TX_RX)
 8003054:	687b      	ldr	r3, [r7, #4]
 8003056:	f893 303d 	ldrb.w	r3, [r3, #61]	; 0x3d
 800305a:	b2db      	uxtb	r3, r3
 800305c:	2b32      	cmp	r3, #50	; 0x32
 800305e:	f040 80c4 	bne.w	80031ea <USART_TransmitReceive_IT+0x19e>
  {
    if (husart->TxXferCount != 0x00U)
 8003062:	687b      	ldr	r3, [r7, #4]
 8003064:	8d5b      	ldrh	r3, [r3, #42]	; 0x2a
 8003066:	b29b      	uxth	r3, r3
 8003068:	2b00      	cmp	r3, #0
 800306a:	d03f      	beq.n	80030ec <USART_TransmitReceive_IT+0xa0>
    {
      if (__HAL_USART_GET_FLAG(husart, USART_FLAG_TXE) != RESET)
 800306c:	687b      	ldr	r3, [r7, #4]
 800306e:	681b      	ldr	r3, [r3, #0]
 8003070:	681b      	ldr	r3, [r3, #0]
 8003072:	f003 0380 	and.w	r3, r3, #128	; 0x80
 8003076:	2b80      	cmp	r3, #128	; 0x80
 8003078:	d138      	bne.n	80030ec <USART_TransmitReceive_IT+0xa0>
      {
        if ((husart->Init.WordLength == USART_WORDLENGTH_9B) && (husart->Init.Parity == USART_PARITY_NONE))
 800307a:	687b      	ldr	r3, [r7, #4]
 800307c:	689b      	ldr	r3, [r3, #8]
 800307e:	f5b3 5f80 	cmp.w	r3, #4096	; 0x1000
 8003082:	d116      	bne.n	80030b2 <USART_TransmitReceive_IT+0x66>
 8003084:	687b      	ldr	r3, [r7, #4]
 8003086:	691b      	ldr	r3, [r3, #16]
 8003088:	2b00      	cmp	r3, #0
 800308a:	d112      	bne.n	80030b2 <USART_TransmitReceive_IT+0x66>
        {
          pdata8bits  = NULL;
 800308c:	2300      	movs	r3, #0
 800308e:	60fb      	str	r3, [r7, #12]
          pdata16bits = (uint16_t *) husart->pTxBuffPtr;
 8003090:	687b      	ldr	r3, [r7, #4]
 8003092:	6a5b      	ldr	r3, [r3, #36]	; 0x24
 8003094:	60bb      	str	r3, [r7, #8]
          husart->Instance->DR = (uint16_t)(*pdata16bits & (uint16_t)0x01FF);
 8003096:	68bb      	ldr	r3, [r7, #8]
 8003098:	881b      	ldrh	r3, [r3, #0]
 800309a:	461a      	mov	r2, r3
 800309c:	687b      	ldr	r3, [r7, #4]
 800309e:	681b      	ldr	r3, [r3, #0]
 80030a0:	f3c2 0208 	ubfx	r2, r2, #0, #9
 80030a4:	605a      	str	r2, [r3, #4]
          husart->pTxBuffPtr += 2U;
 80030a6:	687b      	ldr	r3, [r7, #4]
 80030a8:	6a5b      	ldr	r3, [r3, #36]	; 0x24
 80030aa:	1c9a      	adds	r2, r3, #2
 80030ac:	687b      	ldr	r3, [r7, #4]
 80030ae:	625a      	str	r2, [r3, #36]	; 0x24
 80030b0:	e008      	b.n	80030c4 <USART_TransmitReceive_IT+0x78>
        }
        else
        {
          husart->Instance->DR = (uint8_t)(*husart->pTxBuffPtr++ & (uint8_t)0x00FF);
 80030b2:	687b      	ldr	r3, [r7, #4]
 80030b4:	6a5b      	ldr	r3, [r3, #36]	; 0x24
 80030b6:	1c59      	adds	r1, r3, #1
 80030b8:	687a      	ldr	r2, [r7, #4]
 80030ba:	6251      	str	r1, [r2, #36]	; 0x24
 80030bc:	781a      	ldrb	r2, [r3, #0]
 80030be:	687b      	ldr	r3, [r7, #4]
 80030c0:	681b      	ldr	r3, [r3, #0]
 80030c2:	605a      	str	r2, [r3, #4]
        }

        husart->TxXferCount--;
 80030c4:	687b      	ldr	r3, [r7, #4]
 80030c6:	8d5b      	ldrh	r3, [r3, #42]	; 0x2a
 80030c8:	b29b      	uxth	r3, r3
 80030ca:	3b01      	subs	r3, #1
 80030cc:	b29a      	uxth	r2, r3
 80030ce:	687b      	ldr	r3, [r7, #4]
 80030d0:	855a      	strh	r2, [r3, #42]	; 0x2a

        /* Check the latest data transmitted */
        if (husart->TxXferCount == 0U)
 80030d2:	687b      	ldr	r3, [r7, #4]
 80030d4:	8d5b      	ldrh	r3, [r3, #42]	; 0x2a
 80030d6:	b29b      	uxth	r3, r3
 80030d8:	2b00      	cmp	r3, #0
 80030da:	d107      	bne.n	80030ec <USART_TransmitReceive_IT+0xa0>
        {
          CLEAR_BIT(husart->Instance->CR1, USART_CR1_TXEIE);
 80030dc:	687b      	ldr	r3, [r7, #4]
 80030de:	681b      	ldr	r3, [r3, #0]
 80030e0:	68da      	ldr	r2, [r3, #12]
 80030e2:	687b      	ldr	r3, [r7, #4]
 80030e4:	681b      	ldr	r3, [r3, #0]
 80030e6:	f022 0280 	bic.w	r2, r2, #128	; 0x80
 80030ea:	60da      	str	r2, [r3, #12]
        }
      }
    }

    if (husart->RxXferCount != 0x00U)
 80030ec:	687b      	ldr	r3, [r7, #4]
 80030ee:	8e5b      	ldrh	r3, [r3, #50]	; 0x32
 80030f0:	b29b      	uxth	r3, r3
 80030f2:	2b00      	cmp	r3, #0
 80030f4:	d051      	beq.n	800319a <USART_TransmitReceive_IT+0x14e>
    {
      if (__HAL_USART_GET_FLAG(husart, USART_FLAG_RXNE) != RESET)
 80030f6:	687b      	ldr	r3, [r7, #4]
 80030f8:	681b      	ldr	r3, [r3, #0]
 80030fa:	681b      	ldr	r3, [r3, #0]
 80030fc:	f003 0320 	and.w	r3, r3, #32
 8003100:	2b20      	cmp	r3, #32
 8003102:	d14a      	bne.n	800319a <USART_TransmitReceive_IT+0x14e>
      {
        if ((husart->Init.WordLength == USART_WORDLENGTH_9B) && (husart->Init.Parity == USART_PARITY_NONE))
 8003104:	687b      	ldr	r3, [r7, #4]
 8003106:	689b      	ldr	r3, [r3, #8]
 8003108:	f5b3 5f80 	cmp.w	r3, #4096	; 0x1000
 800310c:	d117      	bne.n	800313e <USART_TransmitReceive_IT+0xf2>
 800310e:	687b      	ldr	r3, [r7, #4]
 8003110:	691b      	ldr	r3, [r3, #16]
 8003112:	2b00      	cmp	r3, #0
 8003114:	d113      	bne.n	800313e <USART_TransmitReceive_IT+0xf2>
        {
           pdata8bits  = NULL;
 8003116:	2300      	movs	r3, #0
 8003118:	60fb      	str	r3, [r7, #12]
           pdata16bits = (uint16_t *) husart->pRxBuffPtr;
 800311a:	687b      	ldr	r3, [r7, #4]
 800311c:	6adb      	ldr	r3, [r3, #44]	; 0x2c
 800311e:	60bb      	str	r3, [r7, #8]
           *pdata16bits = (uint16_t)(husart->Instance->DR & (uint16_t)0x01FF);
 8003120:	687b      	ldr	r3, [r7, #4]
 8003122:	681b      	ldr	r3, [r3, #0]
 8003124:	685b      	ldr	r3, [r3, #4]
 8003126:	b29b      	uxth	r3, r3
 8003128:	f3c3 0308 	ubfx	r3, r3, #0, #9
 800312c:	b29a      	uxth	r2, r3
 800312e:	68bb      	ldr	r3, [r7, #8]
 8003130:	801a      	strh	r2, [r3, #0]
           husart->pRxBuffPtr += 2U;
 8003132:	687b      	ldr	r3, [r7, #4]
 8003134:	6adb      	ldr	r3, [r3, #44]	; 0x2c
 8003136:	1c9a      	adds	r2, r3, #2
 8003138:	687b      	ldr	r3, [r7, #4]
 800313a:	62da      	str	r2, [r3, #44]	; 0x2c
 800313c:	e026      	b.n	800318c <USART_TransmitReceive_IT+0x140>
        }
        else
        {
          pdata8bits = (uint8_t *) husart->pRxBuffPtr;
 800313e:	687b      	ldr	r3, [r7, #4]
 8003140:	6adb      	ldr	r3, [r3, #44]	; 0x2c
 8003142:	60fb      	str	r3, [r7, #12]
          pdata16bits  = NULL;
 8003144:	2300      	movs	r3, #0
 8003146:	60bb      	str	r3, [r7, #8]
          if ((husart->Init.WordLength == USART_WORDLENGTH_9B) || ((husart->Init.WordLength == USART_WORDLENGTH_8B) && (husart->Init.Parity == USART_PARITY_NONE)))
 8003148:	687b      	ldr	r3, [r7, #4]
 800314a:	689b      	ldr	r3, [r3, #8]
 800314c:	f5b3 5f80 	cmp.w	r3, #4096	; 0x1000
 8003150:	d007      	beq.n	8003162 <USART_TransmitReceive_IT+0x116>
 8003152:	687b      	ldr	r3, [r7, #4]
 8003154:	689b      	ldr	r3, [r3, #8]
 8003156:	2b00      	cmp	r3, #0
 8003158:	d10a      	bne.n	8003170 <USART_TransmitReceive_IT+0x124>
 800315a:	687b      	ldr	r3, [r7, #4]
 800315c:	691b      	ldr	r3, [r3, #16]
 800315e:	2b00      	cmp	r3, #0
 8003160:	d106      	bne.n	8003170 <USART_TransmitReceive_IT+0x124>
          {
            *pdata8bits = (uint8_t)(husart->Instance->DR & (uint8_t)0x00FF);
 8003162:	687b      	ldr	r3, [r7, #4]
 8003164:	681b      	ldr	r3, [r3, #0]
 8003166:	685b      	ldr	r3, [r3, #4]
 8003168:	b2da      	uxtb	r2, r3
 800316a:	68fb      	ldr	r3, [r7, #12]
 800316c:	701a      	strb	r2, [r3, #0]
 800316e:	e008      	b.n	8003182 <USART_TransmitReceive_IT+0x136>
          }
          else
          {
            *pdata8bits = (uint8_t)(husart->Instance->DR & (uint8_t)0x007F);
 8003170:	687b      	ldr	r3, [r7, #4]
 8003172:	681b      	ldr	r3, [r3, #0]
 8003174:	685b      	ldr	r3, [r3, #4]
 8003176:	b2db      	uxtb	r3, r3
 8003178:	f003 037f 	and.w	r3, r3, #127	; 0x7f
 800317c:	b2da      	uxtb	r2, r3
 800317e:	68fb      	ldr	r3, [r7, #12]
 8003180:	701a      	strb	r2, [r3, #0]
          }
          husart->pRxBuffPtr += 1U;
 8003182:	687b      	ldr	r3, [r7, #4]
 8003184:	6adb      	ldr	r3, [r3, #44]	; 0x2c
 8003186:	1c5a      	adds	r2, r3, #1
 8003188:	687b      	ldr	r3, [r7, #4]
 800318a:	62da      	str	r2, [r3, #44]	; 0x2c
        }

        husart->RxXferCount--;
 800318c:	687b      	ldr	r3, [r7, #4]
 800318e:	8e5b      	ldrh	r3, [r3, #50]	; 0x32
 8003190:	b29b      	uxth	r3, r3
 8003192:	3b01      	subs	r3, #1
 8003194:	b29a      	uxth	r2, r3
 8003196:	687b      	ldr	r3, [r7, #4]
 8003198:	865a      	strh	r2, [r3, #50]	; 0x32
      }
    }

    /* Check the latest data received */
    if (husart->RxXferCount == 0U)
 800319a:	687b      	ldr	r3, [r7, #4]
 800319c:	8e5b      	ldrh	r3, [r3, #50]	; 0x32
 800319e:	b29b      	uxth	r3, r3
 80031a0:	2b00      	cmp	r3, #0
 80031a2:	d120      	bne.n	80031e6 <USART_TransmitReceive_IT+0x19a>
    {
      /* Disable the USART RXNE Interrupt */
      CLEAR_BIT(husart->Instance->CR1, USART_CR1_RXNEIE);
 80031a4:	687b      	ldr	r3, [r7, #4]
 80031a6:	681b      	ldr	r3, [r3, #0]
 80031a8:	68da      	ldr	r2, [r3, #12]
 80031aa:	687b      	ldr	r3, [r7, #4]
 80031ac:	681b      	ldr	r3, [r3, #0]
 80031ae:	f022 0220 	bic.w	r2, r2, #32
 80031b2:	60da      	str	r2, [r3, #12]

      /* Disable the USART Parity Error Interrupt */
      CLEAR_BIT(husart->Instance->CR1, USART_CR1_PEIE);
 80031b4:	687b      	ldr	r3, [r7, #4]
 80031b6:	681b      	ldr	r3, [r3, #0]
 80031b8:	68da      	ldr	r2, [r3, #12]
 80031ba:	687b      	ldr	r3, [r7, #4]
 80031bc:	681b      	ldr	r3, [r3, #0]
 80031be:	f422 7280 	bic.w	r2, r2, #256	; 0x100
 80031c2:	60da      	str	r2, [r3, #12]

      /* Disable the USART Error Interrupt: (Frame error, noise error, overrun error) */
      CLEAR_BIT(husart->Instance->CR3, USART_CR3_EIE);
 80031c4:	687b      	ldr	r3, [r7, #4]
 80031c6:	681b      	ldr	r3, [r3, #0]
 80031c8:	695a      	ldr	r2, [r3, #20]
 80031ca:	687b      	ldr	r3, [r7, #4]
 80031cc:	681b      	ldr	r3, [r3, #0]
 80031ce:	f022 0201 	bic.w	r2, r2, #1
 80031d2:	615a      	str	r2, [r3, #20]

      husart->State = HAL_USART_STATE_READY;
 80031d4:	687b      	ldr	r3, [r7, #4]
 80031d6:	2201      	movs	r2, #1
 80031d8:	f883 203d 	strb.w	r2, [r3, #61]	; 0x3d
#if (USE_HAL_USART_REGISTER_CALLBACKS == 1)
      /* Call registered Tx Rx Complete Callback */
      husart->TxRxCpltCallback(husart);
#else
      /* Call legacy weak Tx Rx Complete Callback */
      HAL_USART_TxRxCpltCallback(husart);
 80031dc:	6878      	ldr	r0, [r7, #4]
 80031de:	f7ff fdfd 	bl	8002ddc <HAL_USART_TxRxCpltCallback>
#endif /* USE_HAL_USART_REGISTER_CALLBACKS */

      return HAL_OK;
 80031e2:	2300      	movs	r3, #0
 80031e4:	e002      	b.n	80031ec <USART_TransmitReceive_IT+0x1a0>
    }

    return HAL_OK;
 80031e6:	2300      	movs	r3, #0
 80031e8:	e000      	b.n	80031ec <USART_TransmitReceive_IT+0x1a0>
  }
  else
  {
    return HAL_BUSY;
 80031ea:	2302      	movs	r3, #2
  }
}
 80031ec:	4618      	mov	r0, r3
 80031ee:	3710      	adds	r7, #16
 80031f0:	46bd      	mov	sp, r7
 80031f2:	bd80      	pop	{r7, pc}

080031f4 <USART_SetConfig>:
  * @param  husart Pointer to a USART_HandleTypeDef structure that contains
  *                the configuration information for the specified USART module.
  * @retval None
  */
static void USART_SetConfig(USART_HandleTypeDef *husart)
{
 80031f4:	b580      	push	{r7, lr}
 80031f6:	b084      	sub	sp, #16
 80031f8:	af00      	add	r7, sp, #0
 80031fa:	6078      	str	r0, [r7, #4]
  uint32_t tmpreg = 0x00U;
 80031fc:	2300      	movs	r3, #0
 80031fe:	60fb      	str	r3, [r7, #12]
  assert_param(IS_USART_PARITY(husart->Init.Parity));
  assert_param(IS_USART_MODE(husart->Init.Mode));

  /* The LBCL, CPOL and CPHA bits have to be selected when both the transmitter and the
     receiver are disabled (TE=RE=0) to ensure that the clock pulses function correctly. */
  CLEAR_BIT(husart->Instance->CR1, (USART_CR1_TE | USART_CR1_RE));
 8003200:	687b      	ldr	r3, [r7, #4]
 8003202:	681b      	ldr	r3, [r3, #0]
 8003204:	68da      	ldr	r2, [r3, #12]
 8003206:	687b      	ldr	r3, [r7, #4]
 8003208:	681b      	ldr	r3, [r3, #0]
 800320a:	f022 020c 	bic.w	r2, r2, #12
 800320e:	60da      	str	r2, [r3, #12]

  /*---------------------------- USART CR2 Configuration ---------------------*/
  tmpreg = husart->Instance->CR2;
 8003210:	687b      	ldr	r3, [r7, #4]
 8003212:	681b      	ldr	r3, [r3, #0]
 8003214:	691b      	ldr	r3, [r3, #16]
 8003216:	60fb      	str	r3, [r7, #12]
  /* Clear CLKEN, CPOL, CPHA and LBCL bits */
  tmpreg &= (uint32_t)~((uint32_t)(USART_CR2_CPHA | USART_CR2_CPOL | USART_CR2_CLKEN | USART_CR2_LBCL | USART_CR2_STOP));
 8003218:	68fb      	ldr	r3, [r7, #12]
 800321a:	f423 537c 	bic.w	r3, r3, #16128	; 0x3f00
 800321e:	60fb      	str	r3, [r7, #12]
  /* Configure the USART Clock, CPOL, CPHA and LastBit -----------------------*/
  /* Set CPOL bit according to husart->Init.CLKPolarity value */
  /* Set CPHA bit according to husart->Init.CLKPhase value */
  /* Set LBCL bit according to husart->Init.CLKLastBit value */
  /* Set Stop Bits: Set STOP[13:12] bits according to husart->Init.StopBits value */
  tmpreg |= (uint32_t)(USART_CLOCK_ENABLE | husart->Init.CLKPolarity |
 8003220:	687b      	ldr	r3, [r7, #4]
 8003222:	699a      	ldr	r2, [r3, #24]
                       husart->Init.CLKPhase | husart->Init.CLKLastBit | husart->Init.StopBits);
 8003224:	687b      	ldr	r3, [r7, #4]
 8003226:	69db      	ldr	r3, [r3, #28]
  tmpreg |= (uint32_t)(USART_CLOCK_ENABLE | husart->Init.CLKPolarity |
 8003228:	431a      	orrs	r2, r3
                       husart->Init.CLKPhase | husart->Init.CLKLastBit | husart->Init.StopBits);
 800322a:	687b      	ldr	r3, [r7, #4]
 800322c:	6a1b      	ldr	r3, [r3, #32]
 800322e:	431a      	orrs	r2, r3
 8003230:	687b      	ldr	r3, [r7, #4]
 8003232:	68db      	ldr	r3, [r3, #12]
  tmpreg |= (uint32_t)(USART_CLOCK_ENABLE | husart->Init.CLKPolarity |
 8003234:	431a      	orrs	r2, r3
 8003236:	68fb      	ldr	r3, [r7, #12]
 8003238:	4313      	orrs	r3, r2
 800323a:	f443 6300 	orr.w	r3, r3, #2048	; 0x800
 800323e:	60fb      	str	r3, [r7, #12]
  /* Write to USART CR2 */
  WRITE_REG(husart->Instance->CR2, (uint32_t)tmpreg);
 8003240:	687b      	ldr	r3, [r7, #4]
 8003242:	681b      	ldr	r3, [r3, #0]
 8003244:	68fa      	ldr	r2, [r7, #12]
 8003246:	611a      	str	r2, [r3, #16]

  /*-------------------------- USART CR1 Configuration -----------------------*/
  tmpreg = husart->Instance->CR1;
 8003248:	687b      	ldr	r3, [r7, #4]
 800324a:	681b      	ldr	r3, [r3, #0]
 800324c:	68db      	ldr	r3, [r3, #12]
 800324e:	60fb      	str	r3, [r7, #12]

  /* Clear M, PCE, PS, TE and RE bits */
  tmpreg &= (uint32_t)~((uint32_t)(USART_CR1_M | USART_CR1_PCE | USART_CR1_PS | USART_CR1_TE | USART_CR1_RE));
 8003250:	68fb      	ldr	r3, [r7, #12]
 8003252:	f423 53b0 	bic.w	r3, r3, #5632	; 0x1600
 8003256:	f023 030c 	bic.w	r3, r3, #12
 800325a:	60fb      	str	r3, [r7, #12]
  /* Configure the USART Word Length, Parity and mode:
     Set the M bits according to husart->Init.WordLength value
     Set PCE and PS bits according to husart->Init.Parity value
     Set TE and RE bits according to husart->Init.Mode value
   */
  tmpreg |= (uint32_t)husart->Init.WordLength | husart->Init.Parity | husart->Init.Mode;
 800325c:	687b      	ldr	r3, [r7, #4]
 800325e:	689a      	ldr	r2, [r3, #8]
 8003260:	687b      	ldr	r3, [r7, #4]
 8003262:	691b      	ldr	r3, [r3, #16]
 8003264:	431a      	orrs	r2, r3
 8003266:	687b      	ldr	r3, [r7, #4]
 8003268:	695b      	ldr	r3, [r3, #20]
 800326a:	4313      	orrs	r3, r2
 800326c:	68fa      	ldr	r2, [r7, #12]
 800326e:	4313      	orrs	r3, r2
 8003270:	60fb      	str	r3, [r7, #12]

  /* Write to USART CR1 */
  WRITE_REG(husart->Instance->CR1, (uint32_t)tmpreg);
 8003272:	687b      	ldr	r3, [r7, #4]
 8003274:	681b      	ldr	r3, [r3, #0]
 8003276:	68fa      	ldr	r2, [r7, #12]
 8003278:	60da      	str	r2, [r3, #12]

  /*-------------------------- USART CR3 Configuration -----------------------*/
  /* Clear CTSE and RTSE bits */
  CLEAR_BIT(husart->Instance->CR3, (USART_CR3_RTSE | USART_CR3_CTSE));
 800327a:	687b      	ldr	r3, [r7, #4]
 800327c:	681b      	ldr	r3, [r3, #0]
 800327e:	695a      	ldr	r2, [r3, #20]
 8003280:	687b      	ldr	r3, [r7, #4]
 8003282:	681b      	ldr	r3, [r3, #0]
 8003284:	f422 7240 	bic.w	r2, r2, #768	; 0x300
 8003288:	615a      	str	r2, [r3, #20]

  /*-------------------------- USART BRR Configuration -----------------------*/
  if((husart->Instance == USART1))
 800328a:	687b      	ldr	r3, [r7, #4]
 800328c:	681b      	ldr	r3, [r3, #0]
 800328e:	4a53      	ldr	r2, [pc, #332]	; (80033dc <USART_SetConfig+0x1e8>)
 8003290:	4293      	cmp	r3, r2
 8003292:	d14f      	bne.n	8003334 <USART_SetConfig+0x140>
  {
    pclk = HAL_RCC_GetPCLK2Freq();
 8003294:	f7ff fbfe 	bl	8002a94 <HAL_RCC_GetPCLK2Freq>
 8003298:	60b8      	str	r0, [r7, #8]
    husart->Instance->BRR = USART_BRR(pclk, husart->Init.BaudRate);
 800329a:	68ba      	ldr	r2, [r7, #8]
 800329c:	4613      	mov	r3, r2
 800329e:	009b      	lsls	r3, r3, #2
 80032a0:	4413      	add	r3, r2
 80032a2:	009a      	lsls	r2, r3, #2
 80032a4:	441a      	add	r2, r3
 80032a6:	687b      	ldr	r3, [r7, #4]
 80032a8:	685b      	ldr	r3, [r3, #4]
 80032aa:	009b      	lsls	r3, r3, #2
 80032ac:	fbb2 f3f3 	udiv	r3, r2, r3
 80032b0:	4a4b      	ldr	r2, [pc, #300]	; (80033e0 <USART_SetConfig+0x1ec>)
 80032b2:	fba2 2303 	umull	r2, r3, r2, r3
 80032b6:	095b      	lsrs	r3, r3, #5
 80032b8:	0119      	lsls	r1, r3, #4
 80032ba:	68ba      	ldr	r2, [r7, #8]
 80032bc:	4613      	mov	r3, r2
 80032be:	009b      	lsls	r3, r3, #2
 80032c0:	4413      	add	r3, r2
 80032c2:	009a      	lsls	r2, r3, #2
 80032c4:	441a      	add	r2, r3
 80032c6:	687b      	ldr	r3, [r7, #4]
 80032c8:	685b      	ldr	r3, [r3, #4]
 80032ca:	009b      	lsls	r3, r3, #2
 80032cc:	fbb2 f2f3 	udiv	r2, r2, r3
 80032d0:	4b43      	ldr	r3, [pc, #268]	; (80033e0 <USART_SetConfig+0x1ec>)
 80032d2:	fba3 0302 	umull	r0, r3, r3, r2
 80032d6:	095b      	lsrs	r3, r3, #5
 80032d8:	2064      	movs	r0, #100	; 0x64
 80032da:	fb00 f303 	mul.w	r3, r0, r3
 80032de:	1ad3      	subs	r3, r2, r3
 80032e0:	011b      	lsls	r3, r3, #4
 80032e2:	3332      	adds	r3, #50	; 0x32
 80032e4:	4a3e      	ldr	r2, [pc, #248]	; (80033e0 <USART_SetConfig+0x1ec>)
 80032e6:	fba2 2303 	umull	r2, r3, r2, r3
 80032ea:	095b      	lsrs	r3, r3, #5
 80032ec:	005b      	lsls	r3, r3, #1
 80032ee:	f403 73f0 	and.w	r3, r3, #480	; 0x1e0
 80032f2:	4419      	add	r1, r3
 80032f4:	68ba      	ldr	r2, [r7, #8]
 80032f6:	4613      	mov	r3, r2
 80032f8:	009b      	lsls	r3, r3, #2
 80032fa:	4413      	add	r3, r2
 80032fc:	009a      	lsls	r2, r3, #2
 80032fe:	441a      	add	r2, r3
 8003300:	687b      	ldr	r3, [r7, #4]
 8003302:	685b      	ldr	r3, [r3, #4]
 8003304:	009b      	lsls	r3, r3, #2
 8003306:	fbb2 f2f3 	udiv	r2, r2, r3
 800330a:	4b35      	ldr	r3, [pc, #212]	; (80033e0 <USART_SetConfig+0x1ec>)
 800330c:	fba3 0302 	umull	r0, r3, r3, r2
 8003310:	095b      	lsrs	r3, r3, #5
 8003312:	2064      	movs	r0, #100	; 0x64
 8003314:	fb00 f303 	mul.w	r3, r0, r3
 8003318:	1ad3      	subs	r3, r2, r3
 800331a:	011b      	lsls	r3, r3, #4
 800331c:	3332      	adds	r3, #50	; 0x32
 800331e:	4a30      	ldr	r2, [pc, #192]	; (80033e0 <USART_SetConfig+0x1ec>)
 8003320:	fba2 2303 	umull	r2, r3, r2, r3
 8003324:	095b      	lsrs	r3, r3, #5
 8003326:	f003 020f 	and.w	r2, r3, #15
 800332a:	687b      	ldr	r3, [r7, #4]
 800332c:	681b      	ldr	r3, [r3, #0]
 800332e:	440a      	add	r2, r1
 8003330:	609a      	str	r2, [r3, #8]
  else
  {
    pclk = HAL_RCC_GetPCLK1Freq();
    husart->Instance->BRR = USART_BRR(pclk, husart->Init.BaudRate);
  }
}
 8003332:	e04e      	b.n	80033d2 <USART_SetConfig+0x1de>
    pclk = HAL_RCC_GetPCLK1Freq();
 8003334:	f7ff fb9a 	bl	8002a6c <HAL_RCC_GetPCLK1Freq>
 8003338:	60b8      	str	r0, [r7, #8]
    husart->Instance->BRR = USART_BRR(pclk, husart->Init.BaudRate);
 800333a:	68ba      	ldr	r2, [r7, #8]
 800333c:	4613      	mov	r3, r2
 800333e:	009b      	lsls	r3, r3, #2
 8003340:	4413      	add	r3, r2
 8003342:	009a      	lsls	r2, r3, #2
 8003344:	441a      	add	r2, r3
 8003346:	687b      	ldr	r3, [r7, #4]
 8003348:	685b      	ldr	r3, [r3, #4]
 800334a:	009b      	lsls	r3, r3, #2
 800334c:	fbb2 f3f3 	udiv	r3, r2, r3
 8003350:	4a23      	ldr	r2, [pc, #140]	; (80033e0 <USART_SetConfig+0x1ec>)
 8003352:	fba2 2303 	umull	r2, r3, r2, r3
 8003356:	095b      	lsrs	r3, r3, #5
 8003358:	0119      	lsls	r1, r3, #4
 800335a:	68ba      	ldr	r2, [r7, #8]
 800335c:	4613      	mov	r3, r2
 800335e:	009b      	lsls	r3, r3, #2
 8003360:	4413      	add	r3, r2
 8003362:	009a      	lsls	r2, r3, #2
 8003364:	441a      	add	r2, r3
 8003366:	687b      	ldr	r3, [r7, #4]
 8003368:	685b      	ldr	r3, [r3, #4]
 800336a:	009b      	lsls	r3, r3, #2
 800336c:	fbb2 f2f3 	udiv	r2, r2, r3
 8003370:	4b1b      	ldr	r3, [pc, #108]	; (80033e0 <USART_SetConfig+0x1ec>)
 8003372:	fba3 0302 	umull	r0, r3, r3, r2
 8003376:	095b      	lsrs	r3, r3, #5
 8003378:	2064      	movs	r0, #100	; 0x64
 800337a:	fb00 f303 	mul.w	r3, r0, r3
 800337e:	1ad3      	subs	r3, r2, r3
 8003380:	011b      	lsls	r3, r3, #4
 8003382:	3332      	adds	r3, #50	; 0x32
 8003384:	4a16      	ldr	r2, [pc, #88]	; (80033e0 <USART_SetConfig+0x1ec>)
 8003386:	fba2 2303 	umull	r2, r3, r2, r3
 800338a:	095b      	lsrs	r3, r3, #5
 800338c:	005b      	lsls	r3, r3, #1
 800338e:	f403 73f0 	and.w	r3, r3, #480	; 0x1e0
 8003392:	4419      	add	r1, r3
 8003394:	68ba      	ldr	r2, [r7, #8]
 8003396:	4613      	mov	r3, r2
 8003398:	009b      	lsls	r3, r3, #2
 800339a:	4413      	add	r3, r2
 800339c:	009a      	lsls	r2, r3, #2
 800339e:	441a      	add	r2, r3
 80033a0:	687b      	ldr	r3, [r7, #4]
 80033a2:	685b      	ldr	r3, [r3, #4]
 80033a4:	009b      	lsls	r3, r3, #2
 80033a6:	fbb2 f2f3 	udiv	r2, r2, r3
 80033aa:	4b0d      	ldr	r3, [pc, #52]	; (80033e0 <USART_SetConfig+0x1ec>)
 80033ac:	fba3 0302 	umull	r0, r3, r3, r2
 80033b0:	095b      	lsrs	r3, r3, #5
 80033b2:	2064      	movs	r0, #100	; 0x64
 80033b4:	fb00 f303 	mul.w	r3, r0, r3
 80033b8:	1ad3      	subs	r3, r2, r3
 80033ba:	011b      	lsls	r3, r3, #4
 80033bc:	3332      	adds	r3, #50	; 0x32
 80033be:	4a08      	ldr	r2, [pc, #32]	; (80033e0 <USART_SetConfig+0x1ec>)
 80033c0:	fba2 2303 	umull	r2, r3, r2, r3
 80033c4:	095b      	lsrs	r3, r3, #5
 80033c6:	f003 020f 	and.w	r2, r3, #15
 80033ca:	687b      	ldr	r3, [r7, #4]
 80033cc:	681b      	ldr	r3, [r3, #0]
 80033ce:	440a      	add	r2, r1
 80033d0:	609a      	str	r2, [r3, #8]
}
 80033d2:	bf00      	nop
 80033d4:	3710      	adds	r7, #16
 80033d6:	46bd      	mov	sp, r7
 80033d8:	bd80      	pop	{r7, pc}
 80033da:	bf00      	nop
 80033dc:	40013800 	.word	0x40013800
 80033e0:	51eb851f 	.word	0x51eb851f

080033e4 <__libc_init_array>:
 80033e4:	b570      	push	{r4, r5, r6, lr}
 80033e6:	2600      	movs	r6, #0
 80033e8:	4d0c      	ldr	r5, [pc, #48]	; (800341c <__libc_init_array+0x38>)
 80033ea:	4c0d      	ldr	r4, [pc, #52]	; (8003420 <__libc_init_array+0x3c>)
 80033ec:	1b64      	subs	r4, r4, r5
 80033ee:	10a4      	asrs	r4, r4, #2
 80033f0:	42a6      	cmp	r6, r4
 80033f2:	d109      	bne.n	8003408 <__libc_init_array+0x24>
 80033f4:	f000 f822 	bl	800343c <_init>
 80033f8:	2600      	movs	r6, #0
 80033fa:	4d0a      	ldr	r5, [pc, #40]	; (8003424 <__libc_init_array+0x40>)
 80033fc:	4c0a      	ldr	r4, [pc, #40]	; (8003428 <__libc_init_array+0x44>)
 80033fe:	1b64      	subs	r4, r4, r5
 8003400:	10a4      	asrs	r4, r4, #2
 8003402:	42a6      	cmp	r6, r4
 8003404:	d105      	bne.n	8003412 <__libc_init_array+0x2e>
 8003406:	bd70      	pop	{r4, r5, r6, pc}
 8003408:	f855 3b04 	ldr.w	r3, [r5], #4
 800340c:	4798      	blx	r3
 800340e:	3601      	adds	r6, #1
 8003410:	e7ee      	b.n	80033f0 <__libc_init_array+0xc>
 8003412:	f855 3b04 	ldr.w	r3, [r5], #4
 8003416:	4798      	blx	r3
 8003418:	3601      	adds	r6, #1
 800341a:	e7f2      	b.n	8003402 <__libc_init_array+0x1e>
 800341c:	08003918 	.word	0x08003918
 8003420:	08003918 	.word	0x08003918
 8003424:	08003918 	.word	0x08003918
 8003428:	0800391c 	.word	0x0800391c

0800342c <memset>:
 800342c:	4603      	mov	r3, r0
 800342e:	4402      	add	r2, r0
 8003430:	4293      	cmp	r3, r2
 8003432:	d100      	bne.n	8003436 <memset+0xa>
 8003434:	4770      	bx	lr
 8003436:	f803 1b01 	strb.w	r1, [r3], #1
 800343a:	e7f9      	b.n	8003430 <memset+0x4>

0800343c <_init>:
 800343c:	b5f8      	push	{r3, r4, r5, r6, r7, lr}
 800343e:	bf00      	nop
 8003440:	bcf8      	pop	{r3, r4, r5, r6, r7}
 8003442:	bc08      	pop	{r3}
 8003444:	469e      	mov	lr, r3
 8003446:	4770      	bx	lr

08003448 <_fini>:
 8003448:	b5f8      	push	{r3, r4, r5, r6, r7, lr}
 800344a:	bf00      	nop
 800344c:	bcf8      	pop	{r3, r4, r5, r6, r7}
 800344e:	bc08      	pop	{r3}
 8003450:	469e      	mov	lr, r3
 8003452:	4770      	bx	lr
