
Encrypt_M3.elf:     file format elf32-littlearm

Sections:
Idx Name          Size      VMA       LMA       File off  Algn
  0 .isr_vector   0000010c  08000000  08000000  00010000  2**0
                  CONTENTS, ALLOC, LOAD, READONLY, DATA
  1 .text         000034c0  0800010c  0800010c  0001010c  2**2
                  CONTENTS, ALLOC, LOAD, READONLY, CODE
  2 .rodata       00000378  080035cc  080035cc  000135cc  2**2
                  CONTENTS, ALLOC, LOAD, READONLY, DATA
  3 .ARM.extab    00000000  08003944  08003944  0002000c  2**0
                  CONTENTS
  4 .ARM          00000000  08003944  08003944  0002000c  2**0
                  CONTENTS
  5 .preinit_array 00000000  08003944  08003944  0002000c  2**0
                  CONTENTS, ALLOC, LOAD, DATA
  6 .init_array   00000004  08003944  08003944  00013944  2**2
                  CONTENTS, ALLOC, LOAD, DATA
  7 .fini_array   00000004  08003948  08003948  00013948  2**2
                  CONTENTS, ALLOC, LOAD, DATA
  8 .data         0000000c  20000000  0800394c  00020000  2**2
                  CONTENTS, ALLOC, LOAD, DATA
  9 .bss          000000b8  2000000c  08003958  0002000c  2**2
                  ALLOC
 10 ._user_heap_stack 00000604  200000c4  08003958  000200c4  2**0
                  ALLOC
 11 .ARM.attributes 00000029  00000000  00000000  0002000c  2**0
                  CONTENTS, READONLY
 12 .comment      00000043  00000000  00000000  00020035  2**0
                  CONTENTS, READONLY
 13 .debug_info   00008e08  00000000  00000000  00020078  2**0
                  CONTENTS, READONLY, DEBUGGING, OCTETS
 14 .debug_abbrev 000019f9  00000000  00000000  00028e80  2**0
                  CONTENTS, READONLY, DEBUGGING, OCTETS
 15 .debug_aranges 00000948  00000000  00000000  0002a880  2**3
                  CONTENTS, READONLY, DEBUGGING, OCTETS
 16 .debug_rnglists 00000737  00000000  00000000  0002b1c8  2**0
                  CONTENTS, READONLY, DEBUGGING, OCTETS
 17 .debug_macro  00016737  00000000  00000000  0002b8ff  2**0
                  CONTENTS, READONLY, DEBUGGING, OCTETS
 18 .debug_line   0000bade  00000000  00000000  00042036  2**0
                  CONTENTS, READONLY, DEBUGGING, OCTETS
 19 .debug_str    000809bb  00000000  00000000  0004db14  2**0
                  CONTENTS, READONLY, DEBUGGING, OCTETS
 20 .debug_frame  000025fc  00000000  00000000  000ce4d0  2**2
                  CONTENTS, READONLY, DEBUGGING, OCTETS
 21 .debug_line_str 0000006e  00000000  00000000  000d0acc  2**0
                  CONTENTS, READONLY, DEBUGGING, OCTETS

Disassembly of section .text:

0800010c <__do_global_dtors_aux>:
 800010c:	b510      	push	{r4, lr}
 800010e:	4c05      	ldr	r4, [pc, #20]	; (8000124 <__do_global_dtors_aux+0x18>)
 8000110:	7823      	ldrb	r3, [r4, #0]
 8000112:	b933      	cbnz	r3, 8000122 <__do_global_dtors_aux+0x16>
 8000114:	4b04      	ldr	r3, [pc, #16]	; (8000128 <__do_global_dtors_aux+0x1c>)
 8000116:	b113      	cbz	r3, 800011e <__do_global_dtors_aux+0x12>
 8000118:	4804      	ldr	r0, [pc, #16]	; (800012c <__do_global_dtors_aux+0x20>)
 800011a:	f3af 8000 	nop.w
 800011e:	2301      	movs	r3, #1
 8000120:	7023      	strb	r3, [r4, #0]
 8000122:	bd10      	pop	{r4, pc}
 8000124:	2000000c 	.word	0x2000000c
 8000128:	00000000 	.word	0x00000000
 800012c:	080035b4 	.word	0x080035b4

08000130 <frame_dummy>:
 8000130:	b508      	push	{r3, lr}
 8000132:	4b03      	ldr	r3, [pc, #12]	; (8000140 <frame_dummy+0x10>)
 8000134:	b11b      	cbz	r3, 800013e <frame_dummy+0xe>
 8000136:	4903      	ldr	r1, [pc, #12]	; (8000144 <frame_dummy+0x14>)
 8000138:	4803      	ldr	r0, [pc, #12]	; (8000148 <frame_dummy+0x18>)
 800013a:	f3af 8000 	nop.w
 800013e:	bd08      	pop	{r3, pc}
 8000140:	00000000 	.word	0x00000000
 8000144:	20000010 	.word	0x20000010
 8000148:	080035b4 	.word	0x080035b4

0800014c <atCRC>:
uint8_t CRC_LSB = 0x00;
uint8_t CRC_MSB = 0x00;


void atCRC(uint8_t *data, uint8_t size, uint8_t *crc_le)
{
 800014c:	b480      	push	{r7}
 800014e:	b089      	sub	sp, #36	; 0x24
 8000150:	af00      	add	r7, sp, #0
 8000152:	60f8      	str	r0, [r7, #12]
 8000154:	460b      	mov	r3, r1
 8000156:	607a      	str	r2, [r7, #4]
 8000158:	72fb      	strb	r3, [r7, #11]
    uint8_t counter;
    uint16_t crc_register = 0;
 800015a:	2300      	movs	r3, #0
 800015c:	83bb      	strh	r3, [r7, #28]
    uint16_t polynom = 0x8005;
 800015e:	f248 0305 	movw	r3, #32773	; 0x8005
 8000162:	833b      	strh	r3, [r7, #24]
    uint8_t shift_register;
    uint8_t data_bit, crc_bit;

    for (counter = 1; counter < (size - 2); counter++)
 8000164:	2301      	movs	r3, #1
 8000166:	77fb      	strb	r3, [r7, #31]
 8000168:	e027      	b.n	80001ba <atCRC+0x6e>
    {
        for (shift_register = 0x01; shift_register > 0x00; shift_register <<= 1)
 800016a:	2301      	movs	r3, #1
 800016c:	76fb      	strb	r3, [r7, #27]
 800016e:	e01e      	b.n	80001ae <atCRC+0x62>
        {
            data_bit = (data[counter] & shift_register) ? 1 : 0;
 8000170:	7ffb      	ldrb	r3, [r7, #31]
 8000172:	68fa      	ldr	r2, [r7, #12]
 8000174:	4413      	add	r3, r2
 8000176:	781a      	ldrb	r2, [r3, #0]
 8000178:	7efb      	ldrb	r3, [r7, #27]
 800017a:	4013      	ands	r3, r2
 800017c:	b2db      	uxtb	r3, r3
 800017e:	2b00      	cmp	r3, #0
 8000180:	bf14      	ite	ne
 8000182:	2301      	movne	r3, #1
 8000184:	2300      	moveq	r3, #0
 8000186:	b2db      	uxtb	r3, r3
 8000188:	75fb      	strb	r3, [r7, #23]
            crc_bit = crc_register >> 15;
 800018a:	8bbb      	ldrh	r3, [r7, #28]
 800018c:	0bdb      	lsrs	r3, r3, #15
 800018e:	b29b      	uxth	r3, r3
 8000190:	75bb      	strb	r3, [r7, #22]
            crc_register <<= 1;
 8000192:	8bbb      	ldrh	r3, [r7, #28]
 8000194:	005b      	lsls	r3, r3, #1
 8000196:	83bb      	strh	r3, [r7, #28]
            if (data_bit != crc_bit)
 8000198:	7dfa      	ldrb	r2, [r7, #23]
 800019a:	7dbb      	ldrb	r3, [r7, #22]
 800019c:	429a      	cmp	r2, r3
 800019e:	d003      	beq.n	80001a8 <atCRC+0x5c>
            {
                crc_register ^= polynom;
 80001a0:	8bba      	ldrh	r2, [r7, #28]
 80001a2:	8b3b      	ldrh	r3, [r7, #24]
 80001a4:	4053      	eors	r3, r2
 80001a6:	83bb      	strh	r3, [r7, #28]
        for (shift_register = 0x01; shift_register > 0x00; shift_register <<= 1)
 80001a8:	7efb      	ldrb	r3, [r7, #27]
 80001aa:	005b      	lsls	r3, r3, #1
 80001ac:	76fb      	strb	r3, [r7, #27]
 80001ae:	7efb      	ldrb	r3, [r7, #27]
 80001b0:	2b00      	cmp	r3, #0
 80001b2:	d1dd      	bne.n	8000170 <atCRC+0x24>
    for (counter = 1; counter < (size - 2); counter++)
 80001b4:	7ffb      	ldrb	r3, [r7, #31]
 80001b6:	3301      	adds	r3, #1
 80001b8:	77fb      	strb	r3, [r7, #31]
 80001ba:	7ffa      	ldrb	r2, [r7, #31]
 80001bc:	7afb      	ldrb	r3, [r7, #11]
 80001be:	3b02      	subs	r3, #2
 80001c0:	429a      	cmp	r2, r3
 80001c2:	dbd2      	blt.n	800016a <atCRC+0x1e>
            }
        }
    }
    crc_le[0] = (uint8_t)(crc_register & 0x00FF);
 80001c4:	8bbb      	ldrh	r3, [r7, #28]
 80001c6:	b2da      	uxtb	r2, r3
 80001c8:	687b      	ldr	r3, [r7, #4]
 80001ca:	701a      	strb	r2, [r3, #0]
    crc_le[1] = (uint8_t)(crc_register >> 8);
 80001cc:	8bbb      	ldrh	r3, [r7, #28]
 80001ce:	0a1b      	lsrs	r3, r3, #8
 80001d0:	b29a      	uxth	r2, r3
 80001d2:	687b      	ldr	r3, [r7, #4]
 80001d4:	3301      	adds	r3, #1
 80001d6:	b2d2      	uxtb	r2, r2
 80001d8:	701a      	strb	r2, [r3, #0]
}
 80001da:	bf00      	nop
 80001dc:	3724      	adds	r7, #36	; 0x24
 80001de:	46bd      	mov	sp, r7
 80001e0:	bc80      	pop	{r7}
 80001e2:	4770      	bx	lr

080001e4 <WakeUp>:


void WakeUp(uint8_t *receiv){
 80001e4:	b580      	push	{r7, lr}
 80001e6:	b086      	sub	sp, #24
 80001e8:	af02      	add	r7, sp, #8
 80001ea:	6078      	str	r0, [r7, #4]

	uint8_t data = 0;
 80001ec:	2300      	movs	r3, #0
 80001ee:	73fb      	strb	r3, [r7, #15]

	HAL_I2C_Master_Receive(&hi2c2, 0xFE, &data, sizeof(data), 1000);
 80001f0:	f107 020f 	add.w	r2, r7, #15
 80001f4:	f44f 737a 	mov.w	r3, #1000	; 0x3e8
 80001f8:	9300      	str	r3, [sp, #0]
 80001fa:	2301      	movs	r3, #1
 80001fc:	21fe      	movs	r1, #254	; 0xfe
 80001fe:	4818      	ldr	r0, [pc, #96]	; (8000260 <WakeUp+0x7c>)
 8000200:	f001 fb90 	bl	8001924 <HAL_I2C_Master_Receive>
	HAL_Delay(5); // 2.5 ms para acordar; 45 ms para entrar em sleep
 8000204:	2005      	movs	r0, #5
 8000206:	f000 fe1f 	bl	8000e48 <HAL_Delay>
	// first read: 0 byte read - should receive an ACK

	HAL_I2C_Master_Receive(&hi2c2, I2C_ADDRESS, &data, 1, 1000);
 800020a:	f107 020f 	add.w	r2, r7, #15
 800020e:	f44f 737a 	mov.w	r3, #1000	; 0x3e8
 8000212:	9300      	str	r3, [sp, #0]
 8000214:	2301      	movs	r3, #1
 8000216:	21c8      	movs	r1, #200	; 0xc8
 8000218:	4811      	ldr	r0, [pc, #68]	; (8000260 <WakeUp+0x7c>)
 800021a:	f001 fb83 	bl	8001924 <HAL_I2C_Master_Receive>
	HAL_Delay(5);
 800021e:	2005      	movs	r0, #5
 8000220:	f000 fe12 	bl	8000e48 <HAL_Delay>

	// Read 88bytes
	HAL_I2C_Master_Transmit(&hi2c2, I2C_ADDRESS, &data, sizeof(data), 1000);	// Send 1 byte
 8000224:	f107 020f 	add.w	r2, r7, #15
 8000228:	f44f 737a 	mov.w	r3, #1000	; 0x3e8
 800022c:	9300      	str	r3, [sp, #0]
 800022e:	2301      	movs	r3, #1
 8000230:	21c8      	movs	r1, #200	; 0xc8
 8000232:	480b      	ldr	r0, [pc, #44]	; (8000260 <WakeUp+0x7c>)
 8000234:	f001 fa78 	bl	8001728 <HAL_I2C_Master_Transmit>
	HAL_Delay(5);
 8000238:	2005      	movs	r0, #5
 800023a:	f000 fe05 	bl	8000e48 <HAL_Delay>
	HAL_I2C_Master_Receive(&hi2c2, I2C_ADDRESS, receiv, 4, 1000); 		    	// Receiv: 0x04, 0x11, 0x33, 0x43.
 800023e:	f44f 737a 	mov.w	r3, #1000	; 0x3e8
 8000242:	9300      	str	r3, [sp, #0]
 8000244:	2304      	movs	r3, #4
 8000246:	687a      	ldr	r2, [r7, #4]
 8000248:	21c8      	movs	r1, #200	; 0xc8
 800024a:	4805      	ldr	r0, [pc, #20]	; (8000260 <WakeUp+0x7c>)
 800024c:	f001 fb6a 	bl	8001924 <HAL_I2C_Master_Receive>
	HAL_Delay(5);
 8000250:	2005      	movs	r0, #5
 8000252:	f000 fdf9 	bl	8000e48 <HAL_Delay>
}
 8000256:	bf00      	nop
 8000258:	3710      	adds	r7, #16
 800025a:	46bd      	mov	sp, r7
 800025c:	bd80      	pop	{r7, pc}
 800025e:	bf00      	nop
 8000260:	20000028 	.word	0x20000028

08000264 <ReadConfig>:


void ReadConfig(uint8_t *data, uint16_t size, uint8_t *receiv) {
 8000264:	b580      	push	{r7, lr}
 8000266:	b086      	sub	sp, #24
 8000268:	af02      	add	r7, sp, #8
 800026a:	60f8      	str	r0, [r7, #12]
 800026c:	460b      	mov	r3, r1
 800026e:	607a      	str	r2, [r7, #4]
 8000270:	817b      	strh	r3, [r7, #10]

	HAL_I2C_Master_Transmit(&hi2c2, I2C_ADDRESS, data, 8, 1000); 		    // Send read command
 8000272:	f44f 737a 	mov.w	r3, #1000	; 0x3e8
 8000276:	9300      	str	r3, [sp, #0]
 8000278:	2308      	movs	r3, #8
 800027a:	68fa      	ldr	r2, [r7, #12]
 800027c:	21c8      	movs	r1, #200	; 0xc8
 800027e:	480b      	ldr	r0, [pc, #44]	; (80002ac <ReadConfig+0x48>)
 8000280:	f001 fa52 	bl	8001728 <HAL_I2C_Master_Transmit>
	HAL_Delay(5);
 8000284:	2005      	movs	r0, #5
 8000286:	f000 fddf 	bl	8000e48 <HAL_Delay>
	HAL_I2C_Master_Receive(&hi2c2, I2C_ADDRESS, receiv, size, 1000); 	    // Receive: data packet size, 0x01 0x23..., CRC_LSB, CRC_MSB
 800028a:	897b      	ldrh	r3, [r7, #10]
 800028c:	f44f 727a 	mov.w	r2, #1000	; 0x3e8
 8000290:	9200      	str	r2, [sp, #0]
 8000292:	687a      	ldr	r2, [r7, #4]
 8000294:	21c8      	movs	r1, #200	; 0xc8
 8000296:	4805      	ldr	r0, [pc, #20]	; (80002ac <ReadConfig+0x48>)
 8000298:	f001 fb44 	bl	8001924 <HAL_I2C_Master_Receive>
	HAL_Delay(5);
 800029c:	2005      	movs	r0, #5
 800029e:	f000 fdd3 	bl	8000e48 <HAL_Delay>
}
 80002a2:	bf00      	nop
 80002a4:	3710      	adds	r7, #16
 80002a6:	46bd      	mov	sp, r7
 80002a8:	bd80      	pop	{r7, pc}
 80002aa:	bf00      	nop
 80002ac:	20000028 	.word	0x20000028

080002b0 <CommandNonce>:
	HAL_I2C_Master_Receive(&hi2c2, I2C_ADDRESS, receiv, size, 1000);
	HAL_Delay(5);
}


void CommandNonce(uint8_t *NumIn, uint16_t size, uint8_t *receiv){ //OK
 80002b0:	b580      	push	{r7, lr}
 80002b2:	b090      	sub	sp, #64	; 0x40
 80002b4:	af02      	add	r7, sp, #8
 80002b6:	60f8      	str	r0, [r7, #12]
 80002b8:	460b      	mov	r3, r1
 80002ba:	607a      	str	r2, [r7, #4]
 80002bc:	817b      	strh	r3, [r7, #10]

	// NONCE command: {COMMAND, COUNT, OPCODE, Param1_mode, 0x00, 0x00, NumIn[20], CRC_LSB, CRC_MSB}
	uint8_t noncecommand[28]; //40
	uint8_t CRC_receiv[2];

    noncecommand[0] = COMMAND;
 80002be:	2303      	movs	r3, #3
 80002c0:	763b      	strb	r3, [r7, #24]
    noncecommand[1] = SIZE_WRITE_NONCE20; //SIZE_WRITE_NONCE32;
 80002c2:	231b      	movs	r3, #27
 80002c4:	767b      	strb	r3, [r7, #25]
    noncecommand[2] = COMMAND_NONCE;
 80002c6:	2316      	movs	r3, #22
 80002c8:	76bb      	strb	r3, [r7, #26]
    noncecommand[3] = 0x00; // modo3
 80002ca:	2300      	movs	r3, #0
 80002cc:	76fb      	strb	r3, [r7, #27]
    noncecommand[4] = 0x00;
 80002ce:	2300      	movs	r3, #0
 80002d0:	773b      	strb	r3, [r7, #28]
    noncecommand[5] = 0x00;
 80002d2:	2300      	movs	r3, #0
 80002d4:	777b      	strb	r3, [r7, #29]

	for(uint8_t i = 0; i <= 20; i++){  // <=32
 80002d6:	2300      	movs	r3, #0
 80002d8:	f887 3037 	strb.w	r3, [r7, #55]	; 0x37
 80002dc:	e010      	b.n	8000300 <CommandNonce+0x50>
		 noncecommand[6 + i] = NumIn[i];
 80002de:	f897 3037 	ldrb.w	r3, [r7, #55]	; 0x37
 80002e2:	68fa      	ldr	r2, [r7, #12]
 80002e4:	441a      	add	r2, r3
 80002e6:	f897 3037 	ldrb.w	r3, [r7, #55]	; 0x37
 80002ea:	3306      	adds	r3, #6
 80002ec:	7812      	ldrb	r2, [r2, #0]
 80002ee:	3338      	adds	r3, #56	; 0x38
 80002f0:	443b      	add	r3, r7
 80002f2:	f803 2c20 	strb.w	r2, [r3, #-32]
	for(uint8_t i = 0; i <= 20; i++){  // <=32
 80002f6:	f897 3037 	ldrb.w	r3, [r7, #55]	; 0x37
 80002fa:	3301      	adds	r3, #1
 80002fc:	f887 3037 	strb.w	r3, [r7, #55]	; 0x37
 8000300:	f897 3037 	ldrb.w	r3, [r7, #55]	; 0x37
 8000304:	2b14      	cmp	r3, #20
 8000306:	d9ea      	bls.n	80002de <CommandNonce+0x2e>
	}

	atCRC(noncecommand,sizeof(noncecommand), CRC_receiv);
 8000308:	f107 0214 	add.w	r2, r7, #20
 800030c:	f107 0318 	add.w	r3, r7, #24
 8000310:	211c      	movs	r1, #28
 8000312:	4618      	mov	r0, r3
 8000314:	f7ff ff1a 	bl	800014c <atCRC>
	noncecommand[sizeof(noncecommand) - 2] = CRC_receiv[0] ;
 8000318:	7d3b      	ldrb	r3, [r7, #20]
 800031a:	f887 3032 	strb.w	r3, [r7, #50]	; 0x32
	noncecommand[sizeof(noncecommand) - 1] = CRC_receiv[1] ;
 800031e:	7d7b      	ldrb	r3, [r7, #21]
 8000320:	f887 3033 	strb.w	r3, [r7, #51]	; 0x33

	HAL_I2C_Master_Transmit(&hi2c2, I2C_ADDRESS, noncecommand, sizeof(noncecommand), 1000);
 8000324:	f107 0218 	add.w	r2, r7, #24
 8000328:	f44f 737a 	mov.w	r3, #1000	; 0x3e8
 800032c:	9300      	str	r3, [sp, #0]
 800032e:	231c      	movs	r3, #28
 8000330:	21c8      	movs	r1, #200	; 0xc8
 8000332:	480b      	ldr	r0, [pc, #44]	; (8000360 <CommandNonce+0xb0>)
 8000334:	f001 f9f8 	bl	8001728 <HAL_I2C_Master_Transmit>
	HAL_Delay(40);
 8000338:	2028      	movs	r0, #40	; 0x28
 800033a:	f000 fd85 	bl	8000e48 <HAL_Delay>
	HAL_I2C_Master_Receive(&hi2c2, I2C_ADDRESS, receiv, size, 1000);
 800033e:	897b      	ldrh	r3, [r7, #10]
 8000340:	f44f 727a 	mov.w	r2, #1000	; 0x3e8
 8000344:	9200      	str	r2, [sp, #0]
 8000346:	687a      	ldr	r2, [r7, #4]
 8000348:	21c8      	movs	r1, #200	; 0xc8
 800034a:	4805      	ldr	r0, [pc, #20]	; (8000360 <CommandNonce+0xb0>)
 800034c:	f001 faea 	bl	8001924 <HAL_I2C_Master_Receive>
	HAL_Delay(10);
 8000350:	200a      	movs	r0, #10
 8000352:	f000 fd79 	bl	8000e48 <HAL_Delay>
}
 8000356:	bf00      	nop
 8000358:	3738      	adds	r7, #56	; 0x38
 800035a:	46bd      	mov	sp, r7
 800035c:	bd80      	pop	{r7, pc}
 800035e:	bf00      	nop
 8000360:	20000028 	.word	0x20000028

08000364 <GendigCommand>:


void GendigCommand(uint8_t SlotID_LSB, uint8_t SlotID_MSB, uint8_t size, uint8_t *receiv){
 8000364:	b580      	push	{r7, lr}
 8000366:	b088      	sub	sp, #32
 8000368:	af02      	add	r7, sp, #8
 800036a:	603b      	str	r3, [r7, #0]
 800036c:	4603      	mov	r3, r0
 800036e:	71fb      	strb	r3, [r7, #7]
 8000370:	460b      	mov	r3, r1
 8000372:	71bb      	strb	r3, [r7, #6]
 8000374:	4613      	mov	r3, r2
 8000376:	717b      	strb	r3, [r7, #5]
	uint8_t GenDig[8];
	uint8_t CRC_receiv[2];
	//{COMMAND, SIZE_WRITE_GENDIG, COMMAND_GENDIG, ZONE_DATA, SlotID_LSB, SlotID_MSB, /*0x33, 0xe8*/ 0x00, 0x00};
	//atCRC(GenDig,sizeof(GenDig));

	GenDig[0] = COMMAND;
 8000378:	2303      	movs	r3, #3
 800037a:	743b      	strb	r3, [r7, #16]
	GenDig[1] = SIZE_WRITE_GENDIG;
 800037c:	2307      	movs	r3, #7
 800037e:	747b      	strb	r3, [r7, #17]
	GenDig[2] = COMMAND_GENDIG;
 8000380:	2315      	movs	r3, #21
 8000382:	74bb      	strb	r3, [r7, #18]
	GenDig[3] = ZONE_DATA;
 8000384:	2302      	movs	r3, #2
 8000386:	74fb      	strb	r3, [r7, #19]
	GenDig[4] = SlotID_LSB;
 8000388:	79fb      	ldrb	r3, [r7, #7]
 800038a:	753b      	strb	r3, [r7, #20]
	GenDig[5] = SlotID_MSB;
 800038c:	79bb      	ldrb	r3, [r7, #6]
 800038e:	757b      	strb	r3, [r7, #21]

	atCRC(GenDig,sizeof(GenDig), CRC_receiv);
 8000390:	f107 020c 	add.w	r2, r7, #12
 8000394:	f107 0310 	add.w	r3, r7, #16
 8000398:	2108      	movs	r1, #8
 800039a:	4618      	mov	r0, r3
 800039c:	f7ff fed6 	bl	800014c <atCRC>
	GenDig[6] = CRC_receiv[0] ;
 80003a0:	7b3b      	ldrb	r3, [r7, #12]
 80003a2:	75bb      	strb	r3, [r7, #22]
	GenDig[7] = CRC_receiv[1] ;
 80003a4:	7b7b      	ldrb	r3, [r7, #13]
 80003a6:	75fb      	strb	r3, [r7, #23]

	HAL_I2C_Master_Transmit(&hi2c2, I2C_ADDRESS, GenDig, sizeof(GenDig), 1000);
 80003a8:	f107 0210 	add.w	r2, r7, #16
 80003ac:	f44f 737a 	mov.w	r3, #1000	; 0x3e8
 80003b0:	9300      	str	r3, [sp, #0]
 80003b2:	2308      	movs	r3, #8
 80003b4:	21c8      	movs	r1, #200	; 0xc8
 80003b6:	480b      	ldr	r0, [pc, #44]	; (80003e4 <GendigCommand+0x80>)
 80003b8:	f001 f9b6 	bl	8001728 <HAL_I2C_Master_Transmit>
	HAL_Delay(40);
 80003bc:	2028      	movs	r0, #40	; 0x28
 80003be:	f000 fd43 	bl	8000e48 <HAL_Delay>
	HAL_I2C_Master_Receive(&hi2c2, I2C_ADDRESS, receiv, size, 1000);
 80003c2:	797b      	ldrb	r3, [r7, #5]
 80003c4:	b29b      	uxth	r3, r3
 80003c6:	f44f 727a 	mov.w	r2, #1000	; 0x3e8
 80003ca:	9200      	str	r2, [sp, #0]
 80003cc:	683a      	ldr	r2, [r7, #0]
 80003ce:	21c8      	movs	r1, #200	; 0xc8
 80003d0:	4804      	ldr	r0, [pc, #16]	; (80003e4 <GendigCommand+0x80>)
 80003d2:	f001 faa7 	bl	8001924 <HAL_I2C_Master_Receive>
	HAL_Delay(5);
 80003d6:	2005      	movs	r0, #5
 80003d8:	f000 fd36 	bl	8000e48 <HAL_Delay>
}
 80003dc:	bf00      	nop
 80003de:	3718      	adds	r7, #24
 80003e0:	46bd      	mov	sp, r7
 80003e2:	bd80      	pop	{r7, pc}
 80003e4:	20000028 	.word	0x20000028

080003e8 <MacCommand>:

void MacCommand(uint8_t SlotID_LSB, uint8_t SlotID_MSB, uint16_t size, uint8_t *receiv){
 80003e8:	b580      	push	{r7, lr}
 80003ea:	b088      	sub	sp, #32
 80003ec:	af02      	add	r7, sp, #8
 80003ee:	603b      	str	r3, [r7, #0]
 80003f0:	4603      	mov	r3, r0
 80003f2:	71fb      	strb	r3, [r7, #7]
 80003f4:	460b      	mov	r3, r1
 80003f6:	71bb      	strb	r3, [r7, #6]
 80003f8:	4613      	mov	r3, r2
 80003fa:	80bb      	strh	r3, [r7, #4]
	uint8_t  MAC[8];
	uint8_t CRC_receiv[2];

	//uint8_t Challenge [32] = {0x00};

	 MAC[0]= COMMAND;
 80003fc:	2303      	movs	r3, #3
 80003fe:	743b      	strb	r3, [r7, #16]
	 MAC[1]= 0x07; 	//size 0x27
 8000400:	2307      	movs	r3, #7
 8000402:	747b      	strb	r3, [r7, #17]
	 MAC[2]= COMMAND_MAC;
 8000404:	2308      	movs	r3, #8
 8000406:	74bb      	strb	r3, [r7, #18]
	 MAC[3]= 0x01 ; 	//mode
 8000408:	2301      	movs	r3, #1
 800040a:	74fb      	strb	r3, [r7, #19]
	 MAC[4]= SlotID_LSB;
 800040c:	79fb      	ldrb	r3, [r7, #7]
 800040e:	753b      	strb	r3, [r7, #20]
	 MAC[5]= SlotID_MSB;
 8000410:	79bb      	ldrb	r3, [r7, #6]
 8000412:	757b      	strb	r3, [r7, #21]
/*
	for(uint8_t i = 0; i <= 32; i++){
		MAC[6 + i] = Challenge[i];
	}
*/
	atCRC(MAC, sizeof(MAC), CRC_receiv);
 8000414:	f107 020c 	add.w	r2, r7, #12
 8000418:	f107 0310 	add.w	r3, r7, #16
 800041c:	2108      	movs	r1, #8
 800041e:	4618      	mov	r0, r3
 8000420:	f7ff fe94 	bl	800014c <atCRC>
	MAC[sizeof(MAC) - 2] = CRC_receiv[0] ;
 8000424:	7b3b      	ldrb	r3, [r7, #12]
 8000426:	75bb      	strb	r3, [r7, #22]
	MAC[sizeof(MAC) - 1] = CRC_receiv[1] ;
 8000428:	7b7b      	ldrb	r3, [r7, #13]
 800042a:	75fb      	strb	r3, [r7, #23]

	HAL_I2C_Master_Transmit(&hi2c2, I2C_ADDRESS, MAC, sizeof(MAC), 1000);
 800042c:	f107 0210 	add.w	r2, r7, #16
 8000430:	f44f 737a 	mov.w	r3, #1000	; 0x3e8
 8000434:	9300      	str	r3, [sp, #0]
 8000436:	2308      	movs	r3, #8
 8000438:	21c8      	movs	r1, #200	; 0xc8
 800043a:	480b      	ldr	r0, [pc, #44]	; (8000468 <MacCommand+0x80>)
 800043c:	f001 f974 	bl	8001728 <HAL_I2C_Master_Transmit>
	HAL_Delay(45);
 8000440:	202d      	movs	r0, #45	; 0x2d
 8000442:	f000 fd01 	bl	8000e48 <HAL_Delay>
	HAL_I2C_Master_Receive(&hi2c2, I2C_ADDRESS, receiv, size, 1000);
 8000446:	88bb      	ldrh	r3, [r7, #4]
 8000448:	f44f 727a 	mov.w	r2, #1000	; 0x3e8
 800044c:	9200      	str	r2, [sp, #0]
 800044e:	683a      	ldr	r2, [r7, #0]
 8000450:	21c8      	movs	r1, #200	; 0xc8
 8000452:	4805      	ldr	r0, [pc, #20]	; (8000468 <MacCommand+0x80>)
 8000454:	f001 fa66 	bl	8001924 <HAL_I2C_Master_Receive>
	HAL_Delay(5);
 8000458:	2005      	movs	r0, #5
 800045a:	f000 fcf5 	bl	8000e48 <HAL_Delay>
}
 800045e:	bf00      	nop
 8000460:	3718      	adds	r7, #24
 8000462:	46bd      	mov	sp, r7
 8000464:	bd80      	pop	{r7, pc}
 8000466:	bf00      	nop
 8000468:	20000028 	.word	0x20000028

0800046c <CheckMacCommand>:


void CheckMacCommand(uint8_t SlotID_LSB, uint8_t SlotID_MSB, uint8_t *ClientResp, uint16_t size, uint8_t *receiv) {
 800046c:	b590      	push	{r4, r7, lr}
 800046e:	b0a9      	sub	sp, #164	; 0xa4
 8000470:	af02      	add	r7, sp, #8
 8000472:	603a      	str	r2, [r7, #0]
 8000474:	461a      	mov	r2, r3
 8000476:	4603      	mov	r3, r0
 8000478:	71fb      	strb	r3, [r7, #7]
 800047a:	460b      	mov	r3, r1
 800047c:	71bb      	strb	r3, [r7, #6]
 800047e:	4613      	mov	r3, r2
 8000480:	80bb      	strh	r3, [r7, #4]
    uint8_t CheckMAC[85] = {0};
 8000482:	2300      	movs	r3, #0
 8000484:	643b      	str	r3, [r7, #64]	; 0x40
 8000486:	f107 0344 	add.w	r3, r7, #68	; 0x44
 800048a:	2251      	movs	r2, #81	; 0x51
 800048c:	2100      	movs	r1, #0
 800048e:	4618      	mov	r0, r3
 8000490:	f003 f864 	bl	800355c <memset>
    uint8_t CRC_receiv[2];
    uint8_t size_att = 0; // Inicializado para 0
 8000494:	2300      	movs	r3, #0
 8000496:	f887 3097 	strb.w	r3, [r7, #151]	; 0x97

    uint8_t ClientChal[32] = {0};
 800049a:	2300      	movs	r3, #0
 800049c:	61fb      	str	r3, [r7, #28]
 800049e:	f107 0320 	add.w	r3, r7, #32
 80004a2:	2200      	movs	r2, #0
 80004a4:	601a      	str	r2, [r3, #0]
 80004a6:	605a      	str	r2, [r3, #4]
 80004a8:	609a      	str	r2, [r3, #8]
 80004aa:	60da      	str	r2, [r3, #12]
 80004ac:	611a      	str	r2, [r3, #16]
 80004ae:	615a      	str	r2, [r3, #20]
 80004b0:	619a      	str	r2, [r3, #24]
    uint8_t OtherData[13] = {0x08, 0x01, 0x04, 0x00, 0x00, 0x00, 0x00, 0x00, 0x00, 0x00, 0x00, 0x00, 0x00};
 80004b2:	4b4f      	ldr	r3, [pc, #316]	; (80005f0 <CheckMacCommand+0x184>)
 80004b4:	f107 040c 	add.w	r4, r7, #12
 80004b8:	cb0f      	ldmia	r3, {r0, r1, r2, r3}
 80004ba:	c407      	stmia	r4!, {r0, r1, r2}
 80004bc:	7023      	strb	r3, [r4, #0]

    CheckMAC[0] = 0x03;
 80004be:	2303      	movs	r3, #3
 80004c0:	f887 3040 	strb.w	r3, [r7, #64]	; 0x40
    CheckMAC[1] = 0x54;
 80004c4:	2354      	movs	r3, #84	; 0x54
 80004c6:	f887 3041 	strb.w	r3, [r7, #65]	; 0x41
    CheckMAC[2] = COMMAND_CHECKMAC;
 80004ca:	2328      	movs	r3, #40	; 0x28
 80004cc:	f887 3042 	strb.w	r3, [r7, #66]	; 0x42
    CheckMAC[3] = 0x01;    // mode
 80004d0:	2301      	movs	r3, #1
 80004d2:	f887 3043 	strb.w	r3, [r7, #67]	; 0x43
    CheckMAC[4] = SlotID_LSB;
 80004d6:	79fb      	ldrb	r3, [r7, #7]
 80004d8:	f887 3044 	strb.w	r3, [r7, #68]	; 0x44
    CheckMAC[5] = SlotID_MSB;
 80004dc:	79bb      	ldrb	r3, [r7, #6]
 80004de:	f887 3045 	strb.w	r3, [r7, #69]	; 0x45

    for (uint8_t i = 0; i <= 77; i++) {
 80004e2:	2300      	movs	r3, #0
 80004e4:	f887 3096 	strb.w	r3, [r7, #150]	; 0x96
 80004e8:	e050      	b.n	800058c <CheckMacCommand+0x120>
        if (i <= 32) {
 80004ea:	f897 3096 	ldrb.w	r3, [r7, #150]	; 0x96
 80004ee:	2b20      	cmp	r3, #32
 80004f0:	d812      	bhi.n	8000518 <CheckMacCommand+0xac>
            CheckMAC[6 + i] = ClientChal[i];
 80004f2:	f897 2096 	ldrb.w	r2, [r7, #150]	; 0x96
 80004f6:	f897 3096 	ldrb.w	r3, [r7, #150]	; 0x96
 80004fa:	3306      	adds	r3, #6
 80004fc:	3298      	adds	r2, #152	; 0x98
 80004fe:	443a      	add	r2, r7
 8000500:	f812 2c7c 	ldrb.w	r2, [r2, #-124]
 8000504:	3398      	adds	r3, #152	; 0x98
 8000506:	443b      	add	r3, r7
 8000508:	f803 2c58 	strb.w	r2, [r3, #-88]
            size_att = 6 + i;
 800050c:	f897 3096 	ldrb.w	r3, [r7, #150]	; 0x96
 8000510:	3306      	adds	r3, #6
 8000512:	f887 3097 	strb.w	r3, [r7, #151]	; 0x97
 8000516:	e034      	b.n	8000582 <CheckMacCommand+0x116>
        } else if (i > 32 && i <= 64) {
 8000518:	f897 3096 	ldrb.w	r3, [r7, #150]	; 0x96
 800051c:	2b20      	cmp	r3, #32
 800051e:	d915      	bls.n	800054c <CheckMacCommand+0xe0>
 8000520:	f897 3096 	ldrb.w	r3, [r7, #150]	; 0x96
 8000524:	2b40      	cmp	r3, #64	; 0x40
 8000526:	d811      	bhi.n	800054c <CheckMacCommand+0xe0>
            CheckMAC[size_att] = ClientResp[i - 32];
 8000528:	f897 3096 	ldrb.w	r3, [r7, #150]	; 0x96
 800052c:	3b20      	subs	r3, #32
 800052e:	683a      	ldr	r2, [r7, #0]
 8000530:	441a      	add	r2, r3
 8000532:	f897 3097 	ldrb.w	r3, [r7, #151]	; 0x97
 8000536:	7812      	ldrb	r2, [r2, #0]
 8000538:	3398      	adds	r3, #152	; 0x98
 800053a:	443b      	add	r3, r7
 800053c:	f803 2c58 	strb.w	r2, [r3, #-88]
            size_att++;
 8000540:	f897 3097 	ldrb.w	r3, [r7, #151]	; 0x97
 8000544:	3301      	adds	r3, #1
 8000546:	f887 3097 	strb.w	r3, [r7, #151]	; 0x97
 800054a:	e01a      	b.n	8000582 <CheckMacCommand+0x116>
        } else if (i > 63 && i <= 77) {
 800054c:	f897 3096 	ldrb.w	r3, [r7, #150]	; 0x96
 8000550:	2b3f      	cmp	r3, #63	; 0x3f
 8000552:	d916      	bls.n	8000582 <CheckMacCommand+0x116>
 8000554:	f897 3096 	ldrb.w	r3, [r7, #150]	; 0x96
 8000558:	2b4d      	cmp	r3, #77	; 0x4d
 800055a:	d812      	bhi.n	8000582 <CheckMacCommand+0x116>
            CheckMAC[size_att] = OtherData[i - 65];
 800055c:	f897 3096 	ldrb.w	r3, [r7, #150]	; 0x96
 8000560:	f1a3 0241 	sub.w	r2, r3, #65	; 0x41
 8000564:	f897 3097 	ldrb.w	r3, [r7, #151]	; 0x97
 8000568:	3298      	adds	r2, #152	; 0x98
 800056a:	443a      	add	r2, r7
 800056c:	f812 2c8c 	ldrb.w	r2, [r2, #-140]
 8000570:	3398      	adds	r3, #152	; 0x98
 8000572:	443b      	add	r3, r7
 8000574:	f803 2c58 	strb.w	r2, [r3, #-88]
            size_att++;
 8000578:	f897 3097 	ldrb.w	r3, [r7, #151]	; 0x97
 800057c:	3301      	adds	r3, #1
 800057e:	f887 3097 	strb.w	r3, [r7, #151]	; 0x97
    for (uint8_t i = 0; i <= 77; i++) {
 8000582:	f897 3096 	ldrb.w	r3, [r7, #150]	; 0x96
 8000586:	3301      	adds	r3, #1
 8000588:	f887 3096 	strb.w	r3, [r7, #150]	; 0x96
 800058c:	f897 3096 	ldrb.w	r3, [r7, #150]	; 0x96
 8000590:	2b4d      	cmp	r3, #77	; 0x4d
 8000592:	d9aa      	bls.n	80004ea <CheckMacCommand+0x7e>
        }
    }

    atCRC(CheckMAC, sizeof(CheckMAC), CRC_receiv);
 8000594:	f107 023c 	add.w	r2, r7, #60	; 0x3c
 8000598:	f107 0340 	add.w	r3, r7, #64	; 0x40
 800059c:	2155      	movs	r1, #85	; 0x55
 800059e:	4618      	mov	r0, r3
 80005a0:	f7ff fdd4 	bl	800014c <atCRC>
    CheckMAC[sizeof(CheckMAC) - 2] = CRC_receiv[0];
 80005a4:	f897 303c 	ldrb.w	r3, [r7, #60]	; 0x3c
 80005a8:	f887 3093 	strb.w	r3, [r7, #147]	; 0x93
    CheckMAC[sizeof(CheckMAC) - 1] = CRC_receiv[1];
 80005ac:	f897 303d 	ldrb.w	r3, [r7, #61]	; 0x3d
 80005b0:	f887 3094 	strb.w	r3, [r7, #148]	; 0x94

    HAL_I2C_Master_Transmit(&hi2c2, I2C_ADDRESS, CheckMAC, sizeof(CheckMAC), 1000);
 80005b4:	f107 0240 	add.w	r2, r7, #64	; 0x40
 80005b8:	f44f 737a 	mov.w	r3, #1000	; 0x3e8
 80005bc:	9300      	str	r3, [sp, #0]
 80005be:	2355      	movs	r3, #85	; 0x55
 80005c0:	21c8      	movs	r1, #200	; 0xc8
 80005c2:	480c      	ldr	r0, [pc, #48]	; (80005f4 <CheckMacCommand+0x188>)
 80005c4:	f001 f8b0 	bl	8001728 <HAL_I2C_Master_Transmit>
    HAL_Delay(40);
 80005c8:	2028      	movs	r0, #40	; 0x28
 80005ca:	f000 fc3d 	bl	8000e48 <HAL_Delay>
    HAL_I2C_Master_Receive(&hi2c2, I2C_ADDRESS, receiv, size, 1000);
 80005ce:	88bb      	ldrh	r3, [r7, #4]
 80005d0:	f44f 727a 	mov.w	r2, #1000	; 0x3e8
 80005d4:	9200      	str	r2, [sp, #0]
 80005d6:	f8d7 20a8 	ldr.w	r2, [r7, #168]	; 0xa8
 80005da:	21c8      	movs	r1, #200	; 0xc8
 80005dc:	4805      	ldr	r0, [pc, #20]	; (80005f4 <CheckMacCommand+0x188>)
 80005de:	f001 f9a1 	bl	8001924 <HAL_I2C_Master_Receive>
    HAL_Delay(5);
 80005e2:	2005      	movs	r0, #5
 80005e4:	f000 fc30 	bl	8000e48 <HAL_Delay>
}
 80005e8:	bf00      	nop
 80005ea:	379c      	adds	r7, #156	; 0x9c
 80005ec:	46bd      	mov	sp, r7
 80005ee:	bd90      	pop	{r4, r7, pc}
 80005f0:	08003870 	.word	0x08003870
 80005f4:	20000028 	.word	0x20000028

080005f8 <main>:
/**
  * @brief  The application entry point.
  * @retval int
  */
int main(void)
{
 80005f8:	b5b0      	push	{r4, r5, r7, lr}
 80005fa:	f5ad 7d0c 	sub.w	sp, sp, #560	; 0x230
 80005fe:	af02      	add	r7, sp, #8

  /* MCU Configuration--------------------------------------------------------*/

  /* Reset of all peripherals, Initializes the Flash interface and the Systick. */

	HAL_Init();
 8000600:	f000 fbc0 	bl	8000d84 <HAL_Init>
  /* USER CODE BEGIN Init */

  /* USER CODE END Init */

  /* Configure the system clock */
  SystemClock_Config();
 8000604:	f000 f9ba 	bl	800097c <SystemClock_Config>
  /* USER CODE BEGIN SysInit */

  /* USER CODE END SysInit */

  /* Initialize all configured peripherals */
  MX_GPIO_Init();
 8000608:	f000 fa58 	bl	8000abc <MX_GPIO_Init>
  MX_USART1_Init();
 800060c:	f000 fa2a 	bl	8000a64 <MX_USART1_Init>
  MX_I2C2_Init();
 8000610:	f000 f9fa 	bl	8000a08 <MX_I2C2_Init>
  /* USER CODE BEGIN 2 */

  // read configuration zone: {COMMAND, COUNT, OPCODE, ZONE, ADDRESS_1, ADDRESS_2, CRC_LSB, CRC_MSB}
  uint8_t readCommand0[8] = {0x03, 0x07, 0x02, 0x80, 0x00, 0x00, 0x09, 0xAD};
 8000614:	4acc      	ldr	r2, [pc, #816]	; (8000948 <main+0x350>)
 8000616:	f507 7308 	add.w	r3, r7, #544	; 0x220
 800061a:	e892 0003 	ldmia.w	r2, {r0, r1}
 800061e:	e883 0003 	stmia.w	r3, {r0, r1}
  uint8_t readCommand1[8] = {0x03, 0x07, 0x02, 0x80, 0x08, 0x00, 0x0a, 0x4d};
 8000622:	4aca      	ldr	r2, [pc, #808]	; (800094c <main+0x354>)
 8000624:	f507 7306 	add.w	r3, r7, #536	; 0x218
 8000628:	e892 0003 	ldmia.w	r2, {r0, r1}
 800062c:	e883 0003 	stmia.w	r3, {r0, r1}
  uint8_t readCommand2[8] = {0x03, 0x07, 0x02, 0x00, 0x10, 0x00, 0x1d, 0x9d};
 8000630:	4ac7      	ldr	r2, [pc, #796]	; (8000950 <main+0x358>)
 8000632:	f507 7304 	add.w	r3, r7, #528	; 0x210
 8000636:	e892 0003 	ldmia.w	r2, {r0, r1}
 800063a:	e883 0003 	stmia.w	r3, {r0, r1}
  uint8_t readCommand3[8] = {0x03, 0x07, 0x02, 0x00, 0x11, 0x00, 0x14, 0x1d};
 800063e:	4ac5      	ldr	r2, [pc, #788]	; (8000954 <main+0x35c>)
 8000640:	f507 7302 	add.w	r3, r7, #520	; 0x208
 8000644:	e892 0003 	ldmia.w	r2, {r0, r1}
 8000648:	e883 0003 	stmia.w	r3, {r0, r1}
  uint8_t readCommand4[8] = {0x03, 0x07, 0x02, 0x00, 0x12, 0x00, 0x1b, 0x1d};
 800064c:	4ac2      	ldr	r2, [pc, #776]	; (8000958 <main+0x360>)
 800064e:	f507 7300 	add.w	r3, r7, #512	; 0x200
 8000652:	e892 0003 	ldmia.w	r2, {r0, r1}
 8000656:	e883 0003 	stmia.w	r3, {r0, r1}
  uint8_t readCommand5[8] = {0x03, 0x07, 0x02, 0x00, 0x13, 0x00, 0x12, 0x9d};
 800065a:	4ac0      	ldr	r2, [pc, #768]	; (800095c <main+0x364>)
 800065c:	f507 73fc 	add.w	r3, r7, #504	; 0x1f8
 8000660:	e892 0003 	ldmia.w	r2, {r0, r1}
 8000664:	e883 0003 	stmia.w	r3, {r0, r1}
  uint8_t readCommand6[8] = {0x03, 0x07, 0x02, 0x00, 0x14, 0x00, 0x1e, 0xdd};
 8000668:	4abd      	ldr	r2, [pc, #756]	; (8000960 <main+0x368>)
 800066a:	f507 73f8 	add.w	r3, r7, #496	; 0x1f0
 800066e:	e892 0003 	ldmia.w	r2, {r0, r1}
 8000672:	e883 0003 	stmia.w	r3, {r0, r1}
  uint8_t readCommand7[8] = {0x03, 0x07, 0x02, 0x00, 0x15, 0x00, 0x17, 0x5d};
 8000676:	4abb      	ldr	r2, [pc, #748]	; (8000964 <main+0x36c>)
 8000678:	f507 73f4 	add.w	r3, r7, #488	; 0x1e8
 800067c:	e892 0003 	ldmia.w	r2, {r0, r1}
 8000680:	e883 0003 	stmia.w	r3, {r0, r1}

  uint8_t readMASTERKEY[8] = {0x03, 0x07, 0x02, 0x82, 0x70, 0x00, 0x09, 0x8c};
 8000684:	4ab8      	ldr	r2, [pc, #736]	; (8000968 <main+0x370>)
 8000686:	f507 73f0 	add.w	r3, r7, #480	; 0x1e0
 800068a:	e892 0003 	ldmia.w	r2, {r0, r1}
 800068e:	e883 0003 	stmia.w	r3, {r0, r1}
  uint8_t readDATA2[8] = {0x03, 0x07, 0x02, 0x82, 0x50, 0x00, 0x0a, 0x14};
 8000692:	4ab6      	ldr	r2, [pc, #728]	; (800096c <main+0x374>)
 8000694:	f507 73ec 	add.w	r3, r7, #472	; 0x1d8
 8000698:	e892 0003 	ldmia.w	r2, {r0, r1}
 800069c:	e883 0003 	stmia.w	r3, {r0, r1}

  uint8_t WritePwd2[8] =  {0x03, 0x07, 0x02, 0x82, 0x48, 0x00, 0x0a, 0x44};
 80006a0:	4ab3      	ldr	r2, [pc, #716]	; (8000970 <main+0x378>)
 80006a2:	f507 73e8 	add.w	r3, r7, #464	; 0x1d0
 80006a6:	e892 0003 	ldmia.w	r2, {r0, r1}
 80006aa:	e883 0003 	stmia.w	r3, {r0, r1}
  uint8_t LOBBYKEY_2[8] = {0x03, 0x07, 0x02,  0x82, 0x20, 0x00, 0x09, 0xb0};
 80006ae:	4ab1      	ldr	r2, [pc, #708]	; (8000974 <main+0x37c>)
 80006b0:	f507 73e4 	add.w	r3, r7, #456	; 0x1c8
 80006b4:	e892 0003 	ldmia.w	r2, {r0, r1}
 80006b8:	e883 0003 	stmia.w	r3, {r0, r1}

  uint8_t temp_nonce[] = {};

  uint8_t receiv_MASTERKEY[35] = {0};
 80006bc:	2300      	movs	r3, #0
 80006be:	f8c7 31a4 	str.w	r3, [r7, #420]	; 0x1a4
 80006c2:	f507 73d4 	add.w	r3, r7, #424	; 0x1a8
 80006c6:	221f      	movs	r2, #31
 80006c8:	2100      	movs	r1, #0
 80006ca:	4618      	mov	r0, r3
 80006cc:	f002 ff46 	bl	800355c <memset>


  // NONCE
  uint8_t NumIn[20] = { 0x00, 0x01, 0x02, 0x03, 0x04, 0x05, 0x06, 0x07, 0x08, 0x09,
 80006d0:	4ba9      	ldr	r3, [pc, #676]	; (8000978 <main+0x380>)
 80006d2:	f507 74c8 	add.w	r4, r7, #400	; 0x190
 80006d6:	461d      	mov	r5, r3
 80006d8:	cd0f      	ldmia	r5!, {r0, r1, r2, r3}
 80006da:	c40f      	stmia	r4!, {r0, r1, r2, r3}
 80006dc:	682b      	ldr	r3, [r5, #0]
 80006de:	6023      	str	r3, [r4, #0]
		  	  	  	  	0x00, 0x01, 0x02, 0x03, 0x04, 0x05, 0x06, 0x07, 0x08, 0x09};
						// 0x00, 0x01, 0x02, 0x03, 0x04, 0x05, 0x06, 0x07, 0x08, 0x09,
						//  0x00, 0x01};

  uint8_t aux[35] = {0};
 80006e0:	2300      	movs	r3, #0
 80006e2:	f8c7 316c 	str.w	r3, [r7, #364]	; 0x16c
 80006e6:	f507 73b8 	add.w	r3, r7, #368	; 0x170
 80006ea:	221f      	movs	r2, #31
 80006ec:	2100      	movs	r1, #0
 80006ee:	4618      	mov	r0, r3
 80006f0:	f002 ff34 	bl	800355c <memset>
  uint8_t nonce_receiv[35] = {0};
 80006f4:	2300      	movs	r3, #0
 80006f6:	f8c7 3148 	str.w	r3, [r7, #328]	; 0x148
 80006fa:	f507 73a6 	add.w	r3, r7, #332	; 0x14c
 80006fe:	221f      	movs	r2, #31
 8000700:	2100      	movs	r1, #0
 8000702:	4618      	mov	r0, r3
 8000704:	f002 ff2a 	bl	800355c <memset>
  uint8_t tempnonce[35] = {0};
 8000708:	f507 730a 	add.w	r3, r7, #552	; 0x228
 800070c:	f5a3 7382 	sub.w	r3, r3, #260	; 0x104
 8000710:	2200      	movs	r2, #0
 8000712:	601a      	str	r2, [r3, #0]
 8000714:	3304      	adds	r3, #4
 8000716:	221f      	movs	r2, #31
 8000718:	2100      	movs	r1, #0
 800071a:	4618      	mov	r0, r3
 800071c:	f002 ff1e 	bl	800355c <memset>

  uint8_t LOBBYKEY_rec[35];

  // SHA-256
  uint8_t sha_init[1] = {0};
 8000720:	f507 730a 	add.w	r3, r7, #552	; 0x228
 8000724:	f5a3 7396 	sub.w	r3, r3, #300	; 0x12c
 8000728:	2200      	movs	r2, #0
 800072a:	701a      	strb	r2, [r3, #0]
  uint8_t SHA_receiv[35] = {0};
 800072c:	f507 730a 	add.w	r3, r7, #552	; 0x228
 8000730:	f5a3 73a8 	sub.w	r3, r3, #336	; 0x150
 8000734:	2200      	movs	r2, #0
 8000736:	601a      	str	r2, [r3, #0]
 8000738:	3304      	adds	r3, #4
 800073a:	221f      	movs	r2, #31
 800073c:	2100      	movs	r1, #0
 800073e:	4618      	mov	r0, r3
 8000740:	f002 ff0c 	bl	800355c <memset>

  // GENDIG
  uint8_t gendig_receiv[4] = {0};
 8000744:	f507 730a 	add.w	r3, r7, #552	; 0x228
 8000748:	f5a3 73aa 	sub.w	r3, r3, #340	; 0x154
 800074c:	2200      	movs	r2, #0
 800074e:	601a      	str	r2, [r3, #0]


  //MAC
  uint8_t MAC_receiv[35] = {0};
 8000750:	f507 730a 	add.w	r3, r7, #552	; 0x228
 8000754:	f5a3 73bc 	sub.w	r3, r3, #376	; 0x178
 8000758:	2200      	movs	r2, #0
 800075a:	601a      	str	r2, [r3, #0]
 800075c:	3304      	adds	r3, #4
 800075e:	221f      	movs	r2, #31
 8000760:	2100      	movs	r1, #0
 8000762:	4618      	mov	r0, r3
 8000764:	f002 fefa 	bl	800355c <memset>
  uint8_t CheckMAC_receiv[4] = {0};
 8000768:	f507 730a 	add.w	r3, r7, #552	; 0x228
 800076c:	f5a3 73be 	sub.w	r3, r3, #380	; 0x17c
 8000770:	2200      	movs	r2, #0
 8000772:	601a      	str	r2, [r3, #0]
  uint8_t dado[32] = {0};
 8000774:	f507 730a 	add.w	r3, r7, #552	; 0x228
 8000778:	f5a3 73ce 	sub.w	r3, r3, #412	; 0x19c
 800077c:	2200      	movs	r2, #0
 800077e:	601a      	str	r2, [r3, #0]
 8000780:	3304      	adds	r3, #4
 8000782:	2200      	movs	r2, #0
 8000784:	601a      	str	r2, [r3, #0]
 8000786:	605a      	str	r2, [r3, #4]
 8000788:	609a      	str	r2, [r3, #8]
 800078a:	60da      	str	r2, [r3, #12]
 800078c:	611a      	str	r2, [r3, #16]
 800078e:	615a      	str	r2, [r3, #20]
 8000790:	619a      	str	r2, [r3, #24]


  uint8_t read_byte[4];
  uint8_t receiv_ack[4] = {0};
 8000792:	f507 730a 	add.w	r3, r7, #552	; 0x228
 8000796:	f5a3 73d2 	sub.w	r3, r3, #420	; 0x1a4
 800079a:	2200      	movs	r2, #0
 800079c:	601a      	str	r2, [r3, #0]

  //uint8_t read_config[32] = {0};
  uint8_t read_config0[35] = {0};
 800079e:	f507 730a 	add.w	r3, r7, #552	; 0x228
 80007a2:	f5a3 73e4 	sub.w	r3, r3, #456	; 0x1c8
 80007a6:	2200      	movs	r2, #0
 80007a8:	601a      	str	r2, [r3, #0]
 80007aa:	3304      	adds	r3, #4
 80007ac:	221f      	movs	r2, #31
 80007ae:	2100      	movs	r1, #0
 80007b0:	4618      	mov	r0, r3
 80007b2:	f002 fed3 	bl	800355c <memset>
  uint8_t read_config1[35] = {0};
 80007b6:	f507 730a 	add.w	r3, r7, #552	; 0x228
 80007ba:	f5a3 73f6 	sub.w	r3, r3, #492	; 0x1ec
 80007be:	2200      	movs	r2, #0
 80007c0:	601a      	str	r2, [r3, #0]
 80007c2:	3304      	adds	r3, #4
 80007c4:	221f      	movs	r2, #31
 80007c6:	2100      	movs	r1, #0
 80007c8:	4618      	mov	r0, r3
 80007ca:	f002 fec7 	bl	800355c <memset>
  uint8_t read_config2[7] = {0};
 80007ce:	f507 730a 	add.w	r3, r7, #552	; 0x228
 80007d2:	f5a3 73fa 	sub.w	r3, r3, #500	; 0x1f4
 80007d6:	2200      	movs	r2, #0
 80007d8:	601a      	str	r2, [r3, #0]
 80007da:	3304      	adds	r3, #4
 80007dc:	2100      	movs	r1, #0
 80007de:	460a      	mov	r2, r1
 80007e0:	801a      	strh	r2, [r3, #0]
 80007e2:	460a      	mov	r2, r1
 80007e4:	709a      	strb	r2, [r3, #2]
  uint8_t read_config3[7] = {0};
 80007e6:	f507 730a 	add.w	r3, r7, #552	; 0x228
 80007ea:	f5a3 73fe 	sub.w	r3, r3, #508	; 0x1fc
 80007ee:	2200      	movs	r2, #0
 80007f0:	601a      	str	r2, [r3, #0]
 80007f2:	3304      	adds	r3, #4
 80007f4:	2100      	movs	r1, #0
 80007f6:	460a      	mov	r2, r1
 80007f8:	801a      	strh	r2, [r3, #0]
 80007fa:	460a      	mov	r2, r1
 80007fc:	709a      	strb	r2, [r3, #2]
  uint8_t read_config4[7] = {0};
 80007fe:	f507 730a 	add.w	r3, r7, #552	; 0x228
 8000802:	f5a3 7301 	sub.w	r3, r3, #516	; 0x204
 8000806:	2200      	movs	r2, #0
 8000808:	601a      	str	r2, [r3, #0]
 800080a:	3304      	adds	r3, #4
 800080c:	2100      	movs	r1, #0
 800080e:	460a      	mov	r2, r1
 8000810:	801a      	strh	r2, [r3, #0]
 8000812:	460a      	mov	r2, r1
 8000814:	709a      	strb	r2, [r3, #2]
  uint8_t read_config5[7] = {0};
 8000816:	f507 730a 	add.w	r3, r7, #552	; 0x228
 800081a:	f5a3 7303 	sub.w	r3, r3, #524	; 0x20c
 800081e:	2200      	movs	r2, #0
 8000820:	601a      	str	r2, [r3, #0]
 8000822:	3304      	adds	r3, #4
 8000824:	2100      	movs	r1, #0
 8000826:	460a      	mov	r2, r1
 8000828:	801a      	strh	r2, [r3, #0]
 800082a:	460a      	mov	r2, r1
 800082c:	709a      	strb	r2, [r3, #2]
  uint8_t read_config6[7] = {0};
 800082e:	f507 730a 	add.w	r3, r7, #552	; 0x228
 8000832:	f5a3 7305 	sub.w	r3, r3, #532	; 0x214
 8000836:	2200      	movs	r2, #0
 8000838:	601a      	str	r2, [r3, #0]
 800083a:	3304      	adds	r3, #4
 800083c:	2100      	movs	r1, #0
 800083e:	460a      	mov	r2, r1
 8000840:	801a      	strh	r2, [r3, #0]
 8000842:	460a      	mov	r2, r1
 8000844:	709a      	strb	r2, [r3, #2]
  uint8_t read_config7[7] = {0};
 8000846:	f507 730a 	add.w	r3, r7, #552	; 0x228
 800084a:	f5a3 7307 	sub.w	r3, r3, #540	; 0x21c
 800084e:	2200      	movs	r2, #0
 8000850:	601a      	str	r2, [r3, #0]
 8000852:	3304      	adds	r3, #4
 8000854:	2100      	movs	r1, #0
 8000856:	460a      	mov	r2, r1
 8000858:	801a      	strh	r2, [r3, #0]
 800085a:	460a      	mov	r2, r1
 800085c:	709a      	strb	r2, [r3, #2]
  uint8_t read_config8[7] = {0};
 800085e:	f507 730a 	add.w	r3, r7, #552	; 0x228
 8000862:	f5a3 7309 	sub.w	r3, r3, #548	; 0x224
 8000866:	2200      	movs	r2, #0
 8000868:	601a      	str	r2, [r3, #0]
 800086a:	3304      	adds	r3, #4
 800086c:	2100      	movs	r1, #0
 800086e:	460a      	mov	r2, r1
 8000870:	801a      	strh	r2, [r3, #0]
 8000872:	460a      	mov	r2, r1
 8000874:	709a      	strb	r2, [r3, #2]

  /* Infinite loop */
  /* USER CODE BEGIN WHILE */
  while (1)
  {
	  WakeUp(read_byte);
 8000876:	f107 0388 	add.w	r3, r7, #136	; 0x88
 800087a:	4618      	mov	r0, r3
 800087c:	f7ff fcb2 	bl	80001e4 <WakeUp>
	  //BlockConfigZone(receiv_ack);
	  //WriteDataZone();
	  //WriteOTPZone();
	  //BlockDataZone();

	  ReadConfig(readCommand0, 35, read_config0);
 8000880:	f107 0260 	add.w	r2, r7, #96	; 0x60
 8000884:	f507 7308 	add.w	r3, r7, #544	; 0x220
 8000888:	2123      	movs	r1, #35	; 0x23
 800088a:	4618      	mov	r0, r3
 800088c:	f7ff fcea 	bl	8000264 <ReadConfig>
	  ReadConfig(readCommand1, 35, read_config1);
 8000890:	f107 023c 	add.w	r2, r7, #60	; 0x3c
 8000894:	f507 7306 	add.w	r3, r7, #536	; 0x218
 8000898:	2123      	movs	r1, #35	; 0x23
 800089a:	4618      	mov	r0, r3
 800089c:	f7ff fce2 	bl	8000264 <ReadConfig>
	  ReadConfig(readCommand2, 7, read_config2);
 80008a0:	f107 0234 	add.w	r2, r7, #52	; 0x34
 80008a4:	f507 7304 	add.w	r3, r7, #528	; 0x210
 80008a8:	2107      	movs	r1, #7
 80008aa:	4618      	mov	r0, r3
 80008ac:	f7ff fcda 	bl	8000264 <ReadConfig>
	  ReadConfig(readCommand3, 7, read_config3);
 80008b0:	f107 022c 	add.w	r2, r7, #44	; 0x2c
 80008b4:	f507 7302 	add.w	r3, r7, #520	; 0x208
 80008b8:	2107      	movs	r1, #7
 80008ba:	4618      	mov	r0, r3
 80008bc:	f7ff fcd2 	bl	8000264 <ReadConfig>
	  ReadConfig(readCommand4, 7, read_config4);
 80008c0:	f107 0224 	add.w	r2, r7, #36	; 0x24
 80008c4:	f507 7300 	add.w	r3, r7, #512	; 0x200
 80008c8:	2107      	movs	r1, #7
 80008ca:	4618      	mov	r0, r3
 80008cc:	f7ff fcca 	bl	8000264 <ReadConfig>
	  ReadConfig(readCommand5, 7, read_config5);
 80008d0:	f107 021c 	add.w	r2, r7, #28
 80008d4:	f507 73fc 	add.w	r3, r7, #504	; 0x1f8
 80008d8:	2107      	movs	r1, #7
 80008da:	4618      	mov	r0, r3
 80008dc:	f7ff fcc2 	bl	8000264 <ReadConfig>
	  ReadConfig(readCommand6, 7, read_config6);
 80008e0:	f107 0214 	add.w	r2, r7, #20
 80008e4:	f507 73f8 	add.w	r3, r7, #496	; 0x1f0
 80008e8:	2107      	movs	r1, #7
 80008ea:	4618      	mov	r0, r3
 80008ec:	f7ff fcba 	bl	8000264 <ReadConfig>
	  ReadConfig(readCommand7, 7, read_config7);
 80008f0:	f107 020c 	add.w	r2, r7, #12
 80008f4:	f507 73f4 	add.w	r3, r7, #488	; 0x1e8
 80008f8:	2107      	movs	r1, #7
 80008fa:	4618      	mov	r0, r3
 80008fc:	f7ff fcb2 	bl	8000264 <ReadConfig>

	  CommandNonce(NumIn, 35, nonce_receiv);
 8000900:	f507 72a4 	add.w	r2, r7, #328	; 0x148
 8000904:	f507 73c8 	add.w	r3, r7, #400	; 0x190
 8000908:	2123      	movs	r1, #35	; 0x23
 800090a:	4618      	mov	r0, r3
 800090c:	f7ff fcd0 	bl	80002b0 <CommandNonce>
	  //TempKeyGen(nonce_receiv, NumIn, 0, 55, 35, tempnonce);
	  GendigCommand(0x02, 0x00, 4, gendig_receiv);
 8000910:	f107 03d4 	add.w	r3, r7, #212	; 0xd4
 8000914:	2204      	movs	r2, #4
 8000916:	2100      	movs	r1, #0
 8000918:	2002      	movs	r0, #2
 800091a:	f7ff fd23 	bl	8000364 <GendigCommand>
	  //ReadDataZone(readMASTERKEY, 35, receiv_MASTERKEY);
	  //SHACommandInit(1, sha_init);
	  //SHACommandCompute(35, SHA_receiv);
	  MacCommand(0x04, 0x00, 35, MAC_receiv);
 800091e:	f107 03b0 	add.w	r3, r7, #176	; 0xb0
 8000922:	2223      	movs	r2, #35	; 0x23
 8000924:	2100      	movs	r1, #0
 8000926:	2004      	movs	r0, #4
 8000928:	f7ff fd5e 	bl	80003e8 <MacCommand>

	  CheckMacCommand(0x04, 0x00, MAC_receiv, 4, CheckMAC_receiv);
 800092c:	f107 02b0 	add.w	r2, r7, #176	; 0xb0
 8000930:	f107 03ac 	add.w	r3, r7, #172	; 0xac
 8000934:	9300      	str	r3, [sp, #0]
 8000936:	2304      	movs	r3, #4
 8000938:	2100      	movs	r1, #0
 800093a:	2004      	movs	r0, #4
 800093c:	f7ff fd96 	bl	800046c <CheckMacCommand>

	  //ReadEncript(LOBBYKEY_2, 35, LOBBYKEY_rec);

	  HAL_Delay(10);
 8000940:	200a      	movs	r0, #10
 8000942:	f000 fa81 	bl	8000e48 <HAL_Delay>
	  WakeUp(read_byte);
 8000946:	e796      	b.n	8000876 <main+0x27e>
 8000948:	080038a8 	.word	0x080038a8
 800094c:	080038b0 	.word	0x080038b0
 8000950:	080038b8 	.word	0x080038b8
 8000954:	080038c0 	.word	0x080038c0
 8000958:	080038c8 	.word	0x080038c8
 800095c:	080038d0 	.word	0x080038d0
 8000960:	080038d8 	.word	0x080038d8
 8000964:	080038e0 	.word	0x080038e0
 8000968:	080038e8 	.word	0x080038e8
 800096c:	080038f0 	.word	0x080038f0
 8000970:	080038f8 	.word	0x080038f8
 8000974:	08003900 	.word	0x08003900
 8000978:	08003908 	.word	0x08003908

0800097c <SystemClock_Config>:
/**
  * @brief System Clock Configuration
  * @retval None
  */
void SystemClock_Config(void)
{
 800097c:	b580      	push	{r7, lr}
 800097e:	b090      	sub	sp, #64	; 0x40
 8000980:	af00      	add	r7, sp, #0
  RCC_OscInitTypeDef RCC_OscInitStruct = {0};
 8000982:	f107 0318 	add.w	r3, r7, #24
 8000986:	2228      	movs	r2, #40	; 0x28
 8000988:	2100      	movs	r1, #0
 800098a:	4618      	mov	r0, r3
 800098c:	f002 fde6 	bl	800355c <memset>
  RCC_ClkInitTypeDef RCC_ClkInitStruct = {0};
 8000990:	1d3b      	adds	r3, r7, #4
 8000992:	2200      	movs	r2, #0
 8000994:	601a      	str	r2, [r3, #0]
 8000996:	605a      	str	r2, [r3, #4]
 8000998:	609a      	str	r2, [r3, #8]
 800099a:	60da      	str	r2, [r3, #12]
 800099c:	611a      	str	r2, [r3, #16]

  /** Initializes the RCC Oscillators according to the specified parameters
  * in the RCC_OscInitTypeDef structure.
  */
  RCC_OscInitStruct.OscillatorType = RCC_OSCILLATORTYPE_HSE;
 800099e:	2301      	movs	r3, #1
 80009a0:	61bb      	str	r3, [r7, #24]
  RCC_OscInitStruct.HSEState = RCC_HSE_ON;
 80009a2:	f44f 3380 	mov.w	r3, #65536	; 0x10000
 80009a6:	61fb      	str	r3, [r7, #28]
  RCC_OscInitStruct.HSEPredivValue = RCC_HSE_PREDIV_DIV1;
 80009a8:	2300      	movs	r3, #0
 80009aa:	623b      	str	r3, [r7, #32]
  RCC_OscInitStruct.HSIState = RCC_HSI_ON;
 80009ac:	2301      	movs	r3, #1
 80009ae:	62bb      	str	r3, [r7, #40]	; 0x28
  RCC_OscInitStruct.PLL.PLLState = RCC_PLL_ON;
 80009b0:	2302      	movs	r3, #2
 80009b2:	637b      	str	r3, [r7, #52]	; 0x34
  RCC_OscInitStruct.PLL.PLLSource = RCC_PLLSOURCE_HSE;
 80009b4:	f44f 3380 	mov.w	r3, #65536	; 0x10000
 80009b8:	63bb      	str	r3, [r7, #56]	; 0x38
  RCC_OscInitStruct.PLL.PLLMUL = RCC_PLL_MUL9;
 80009ba:	f44f 13e0 	mov.w	r3, #1835008	; 0x1c0000
 80009be:	63fb      	str	r3, [r7, #60]	; 0x3c
  if (HAL_RCC_OscConfig(&RCC_OscInitStruct) != HAL_OK)
 80009c0:	f107 0318 	add.w	r3, r7, #24
 80009c4:	4618      	mov	r0, r3
 80009c6:	f001 fd39 	bl	800243c <HAL_RCC_OscConfig>
 80009ca:	4603      	mov	r3, r0
 80009cc:	2b00      	cmp	r3, #0
 80009ce:	d001      	beq.n	80009d4 <SystemClock_Config+0x58>
  {
    Error_Handler();
 80009d0:	f000 f8ae 	bl	8000b30 <Error_Handler>
  }

  /** Initializes the CPU, AHB and APB buses clocks
  */
  RCC_ClkInitStruct.ClockType = RCC_CLOCKTYPE_HCLK|RCC_CLOCKTYPE_SYSCLK
 80009d4:	230f      	movs	r3, #15
 80009d6:	607b      	str	r3, [r7, #4]
                              |RCC_CLOCKTYPE_PCLK1|RCC_CLOCKTYPE_PCLK2;
  RCC_ClkInitStruct.SYSCLKSource = RCC_SYSCLKSOURCE_PLLCLK;
 80009d8:	2302      	movs	r3, #2
 80009da:	60bb      	str	r3, [r7, #8]
  RCC_ClkInitStruct.AHBCLKDivider = RCC_SYSCLK_DIV1;
 80009dc:	2300      	movs	r3, #0
 80009de:	60fb      	str	r3, [r7, #12]
  RCC_ClkInitStruct.APB1CLKDivider = RCC_HCLK_DIV2;
 80009e0:	f44f 6380 	mov.w	r3, #1024	; 0x400
 80009e4:	613b      	str	r3, [r7, #16]
  RCC_ClkInitStruct.APB2CLKDivider = RCC_HCLK_DIV1;
 80009e6:	2300      	movs	r3, #0
 80009e8:	617b      	str	r3, [r7, #20]

  if (HAL_RCC_ClockConfig(&RCC_ClkInitStruct, FLASH_LATENCY_2) != HAL_OK)
 80009ea:	1d3b      	adds	r3, r7, #4
 80009ec:	2102      	movs	r1, #2
 80009ee:	4618      	mov	r0, r3
 80009f0:	f001 ffa6 	bl	8002940 <HAL_RCC_ClockConfig>
 80009f4:	4603      	mov	r3, r0
 80009f6:	2b00      	cmp	r3, #0
 80009f8:	d001      	beq.n	80009fe <SystemClock_Config+0x82>
  {
    Error_Handler();
 80009fa:	f000 f899 	bl	8000b30 <Error_Handler>
  }
}
 80009fe:	bf00      	nop
 8000a00:	3740      	adds	r7, #64	; 0x40
 8000a02:	46bd      	mov	sp, r7
 8000a04:	bd80      	pop	{r7, pc}
	...

08000a08 <MX_I2C2_Init>:
  * @brief I2C2 Initialization Function
  * @param None
  * @retval None
  */
static void MX_I2C2_Init(void)
{
 8000a08:	b580      	push	{r7, lr}
 8000a0a:	af00      	add	r7, sp, #0
  /* USER CODE END I2C2_Init 0 */

  /* USER CODE BEGIN I2C2_Init 1 */

  /* USER CODE END I2C2_Init 1 */
  hi2c2.Instance = I2C2;
 8000a0c:	4b12      	ldr	r3, [pc, #72]	; (8000a58 <MX_I2C2_Init+0x50>)
 8000a0e:	4a13      	ldr	r2, [pc, #76]	; (8000a5c <MX_I2C2_Init+0x54>)
 8000a10:	601a      	str	r2, [r3, #0]
  hi2c2.Init.ClockSpeed = 100000;
 8000a12:	4b11      	ldr	r3, [pc, #68]	; (8000a58 <MX_I2C2_Init+0x50>)
 8000a14:	4a12      	ldr	r2, [pc, #72]	; (8000a60 <MX_I2C2_Init+0x58>)
 8000a16:	605a      	str	r2, [r3, #4]
  hi2c2.Init.DutyCycle = I2C_DUTYCYCLE_2;
 8000a18:	4b0f      	ldr	r3, [pc, #60]	; (8000a58 <MX_I2C2_Init+0x50>)
 8000a1a:	2200      	movs	r2, #0
 8000a1c:	609a      	str	r2, [r3, #8]
  hi2c2.Init.OwnAddress1 = 0;
 8000a1e:	4b0e      	ldr	r3, [pc, #56]	; (8000a58 <MX_I2C2_Init+0x50>)
 8000a20:	2200      	movs	r2, #0
 8000a22:	60da      	str	r2, [r3, #12]
  hi2c2.Init.AddressingMode = I2C_ADDRESSINGMODE_7BIT;
 8000a24:	4b0c      	ldr	r3, [pc, #48]	; (8000a58 <MX_I2C2_Init+0x50>)
 8000a26:	f44f 4280 	mov.w	r2, #16384	; 0x4000
 8000a2a:	611a      	str	r2, [r3, #16]
  hi2c2.Init.DualAddressMode = I2C_DUALADDRESS_DISABLE;
 8000a2c:	4b0a      	ldr	r3, [pc, #40]	; (8000a58 <MX_I2C2_Init+0x50>)
 8000a2e:	2200      	movs	r2, #0
 8000a30:	615a      	str	r2, [r3, #20]
  hi2c2.Init.OwnAddress2 = 0;
 8000a32:	4b09      	ldr	r3, [pc, #36]	; (8000a58 <MX_I2C2_Init+0x50>)
 8000a34:	2200      	movs	r2, #0
 8000a36:	619a      	str	r2, [r3, #24]
  hi2c2.Init.GeneralCallMode = I2C_GENERALCALL_DISABLE;
 8000a38:	4b07      	ldr	r3, [pc, #28]	; (8000a58 <MX_I2C2_Init+0x50>)
 8000a3a:	2200      	movs	r2, #0
 8000a3c:	61da      	str	r2, [r3, #28]
  hi2c2.Init.NoStretchMode = I2C_NOSTRETCH_DISABLE;
 8000a3e:	4b06      	ldr	r3, [pc, #24]	; (8000a58 <MX_I2C2_Init+0x50>)
 8000a40:	2200      	movs	r2, #0
 8000a42:	621a      	str	r2, [r3, #32]
  if (HAL_I2C_Init(&hi2c2) != HAL_OK)
 8000a44:	4804      	ldr	r0, [pc, #16]	; (8000a58 <MX_I2C2_Init+0x50>)
 8000a46:	f000 fd2b 	bl	80014a0 <HAL_I2C_Init>
 8000a4a:	4603      	mov	r3, r0
 8000a4c:	2b00      	cmp	r3, #0
 8000a4e:	d001      	beq.n	8000a54 <MX_I2C2_Init+0x4c>
  {
    Error_Handler();
 8000a50:	f000 f86e 	bl	8000b30 <Error_Handler>
  }
  /* USER CODE BEGIN I2C2_Init 2 */

  /* USER CODE END I2C2_Init 2 */

}
 8000a54:	bf00      	nop
 8000a56:	bd80      	pop	{r7, pc}
 8000a58:	20000028 	.word	0x20000028
 8000a5c:	40005800 	.word	0x40005800
 8000a60:	000186a0 	.word	0x000186a0

08000a64 <MX_USART1_Init>:
  * @brief USART1 Initialization Function
  * @param None
  * @retval None
  */
static void MX_USART1_Init(void)
{
 8000a64:	b580      	push	{r7, lr}
 8000a66:	af00      	add	r7, sp, #0
  /* USER CODE END USART1_Init 0 */

  /* USER CODE BEGIN USART1_Init 1 */

  /* USER CODE END USART1_Init 1 */
  husart1.Instance = USART1;
 8000a68:	4b12      	ldr	r3, [pc, #72]	; (8000ab4 <MX_USART1_Init+0x50>)
 8000a6a:	4a13      	ldr	r2, [pc, #76]	; (8000ab8 <MX_USART1_Init+0x54>)
 8000a6c:	601a      	str	r2, [r3, #0]
  husart1.Init.BaudRate = 115200;
 8000a6e:	4b11      	ldr	r3, [pc, #68]	; (8000ab4 <MX_USART1_Init+0x50>)
 8000a70:	f44f 32e1 	mov.w	r2, #115200	; 0x1c200
 8000a74:	605a      	str	r2, [r3, #4]
  husart1.Init.WordLength = USART_WORDLENGTH_8B;
 8000a76:	4b0f      	ldr	r3, [pc, #60]	; (8000ab4 <MX_USART1_Init+0x50>)
 8000a78:	2200      	movs	r2, #0
 8000a7a:	609a      	str	r2, [r3, #8]
  husart1.Init.StopBits = USART_STOPBITS_1;
 8000a7c:	4b0d      	ldr	r3, [pc, #52]	; (8000ab4 <MX_USART1_Init+0x50>)
 8000a7e:	2200      	movs	r2, #0
 8000a80:	60da      	str	r2, [r3, #12]
  husart1.Init.Parity = USART_PARITY_NONE;
 8000a82:	4b0c      	ldr	r3, [pc, #48]	; (8000ab4 <MX_USART1_Init+0x50>)
 8000a84:	2200      	movs	r2, #0
 8000a86:	611a      	str	r2, [r3, #16]
  husart1.Init.Mode = USART_MODE_TX_RX;
 8000a88:	4b0a      	ldr	r3, [pc, #40]	; (8000ab4 <MX_USART1_Init+0x50>)
 8000a8a:	220c      	movs	r2, #12
 8000a8c:	615a      	str	r2, [r3, #20]
  husart1.Init.CLKPolarity = USART_POLARITY_LOW;
 8000a8e:	4b09      	ldr	r3, [pc, #36]	; (8000ab4 <MX_USART1_Init+0x50>)
 8000a90:	2200      	movs	r2, #0
 8000a92:	619a      	str	r2, [r3, #24]
  husart1.Init.CLKPhase = USART_PHASE_1EDGE;
 8000a94:	4b07      	ldr	r3, [pc, #28]	; (8000ab4 <MX_USART1_Init+0x50>)
 8000a96:	2200      	movs	r2, #0
 8000a98:	61da      	str	r2, [r3, #28]
  husart1.Init.CLKLastBit = USART_LASTBIT_DISABLE;
 8000a9a:	4b06      	ldr	r3, [pc, #24]	; (8000ab4 <MX_USART1_Init+0x50>)
 8000a9c:	2200      	movs	r2, #0
 8000a9e:	621a      	str	r2, [r3, #32]
  if (HAL_USART_Init(&husart1) != HAL_OK)
 8000aa0:	4804      	ldr	r0, [pc, #16]	; (8000ab4 <MX_USART1_Init+0x50>)
 8000aa2:	f002 f8e5 	bl	8002c70 <HAL_USART_Init>
 8000aa6:	4603      	mov	r3, r0
 8000aa8:	2b00      	cmp	r3, #0
 8000aaa:	d001      	beq.n	8000ab0 <MX_USART1_Init+0x4c>
  {
    Error_Handler();
 8000aac:	f000 f840 	bl	8000b30 <Error_Handler>
  }
  /* USER CODE BEGIN USART1_Init 2 */

  /* USER CODE END USART1_Init 2 */

}
 8000ab0:	bf00      	nop
 8000ab2:	bd80      	pop	{r7, pc}
 8000ab4:	2000007c 	.word	0x2000007c
 8000ab8:	40013800 	.word	0x40013800

08000abc <MX_GPIO_Init>:
  * @brief GPIO Initialization Function
  * @param None
  * @retval None
  */
static void MX_GPIO_Init(void)
{
 8000abc:	b480      	push	{r7}
 8000abe:	b085      	sub	sp, #20
 8000ac0:	af00      	add	r7, sp, #0

  /* GPIO Ports Clock Enable */
  __HAL_RCC_GPIOC_CLK_ENABLE();
 8000ac2:	4b1a      	ldr	r3, [pc, #104]	; (8000b2c <MX_GPIO_Init+0x70>)
 8000ac4:	699b      	ldr	r3, [r3, #24]
 8000ac6:	4a19      	ldr	r2, [pc, #100]	; (8000b2c <MX_GPIO_Init+0x70>)
 8000ac8:	f043 0310 	orr.w	r3, r3, #16
 8000acc:	6193      	str	r3, [r2, #24]
 8000ace:	4b17      	ldr	r3, [pc, #92]	; (8000b2c <MX_GPIO_Init+0x70>)
 8000ad0:	699b      	ldr	r3, [r3, #24]
 8000ad2:	f003 0310 	and.w	r3, r3, #16
 8000ad6:	60fb      	str	r3, [r7, #12]
 8000ad8:	68fb      	ldr	r3, [r7, #12]
  __HAL_RCC_GPIOD_CLK_ENABLE();
 8000ada:	4b14      	ldr	r3, [pc, #80]	; (8000b2c <MX_GPIO_Init+0x70>)
 8000adc:	699b      	ldr	r3, [r3, #24]
 8000ade:	4a13      	ldr	r2, [pc, #76]	; (8000b2c <MX_GPIO_Init+0x70>)
 8000ae0:	f043 0320 	orr.w	r3, r3, #32
 8000ae4:	6193      	str	r3, [r2, #24]
 8000ae6:	4b11      	ldr	r3, [pc, #68]	; (8000b2c <MX_GPIO_Init+0x70>)
 8000ae8:	699b      	ldr	r3, [r3, #24]
 8000aea:	f003 0320 	and.w	r3, r3, #32
 8000aee:	60bb      	str	r3, [r7, #8]
 8000af0:	68bb      	ldr	r3, [r7, #8]
  __HAL_RCC_GPIOB_CLK_ENABLE();
 8000af2:	4b0e      	ldr	r3, [pc, #56]	; (8000b2c <MX_GPIO_Init+0x70>)
 8000af4:	699b      	ldr	r3, [r3, #24]
 8000af6:	4a0d      	ldr	r2, [pc, #52]	; (8000b2c <MX_GPIO_Init+0x70>)
 8000af8:	f043 0308 	orr.w	r3, r3, #8
 8000afc:	6193      	str	r3, [r2, #24]
 8000afe:	4b0b      	ldr	r3, [pc, #44]	; (8000b2c <MX_GPIO_Init+0x70>)
 8000b00:	699b      	ldr	r3, [r3, #24]
 8000b02:	f003 0308 	and.w	r3, r3, #8
 8000b06:	607b      	str	r3, [r7, #4]
 8000b08:	687b      	ldr	r3, [r7, #4]
  __HAL_RCC_GPIOA_CLK_ENABLE();
 8000b0a:	4b08      	ldr	r3, [pc, #32]	; (8000b2c <MX_GPIO_Init+0x70>)
 8000b0c:	699b      	ldr	r3, [r3, #24]
 8000b0e:	4a07      	ldr	r2, [pc, #28]	; (8000b2c <MX_GPIO_Init+0x70>)
 8000b10:	f043 0304 	orr.w	r3, r3, #4
 8000b14:	6193      	str	r3, [r2, #24]
 8000b16:	4b05      	ldr	r3, [pc, #20]	; (8000b2c <MX_GPIO_Init+0x70>)
 8000b18:	699b      	ldr	r3, [r3, #24]
 8000b1a:	f003 0304 	and.w	r3, r3, #4
 8000b1e:	603b      	str	r3, [r7, #0]
 8000b20:	683b      	ldr	r3, [r7, #0]

}
 8000b22:	bf00      	nop
 8000b24:	3714      	adds	r7, #20
 8000b26:	46bd      	mov	sp, r7
 8000b28:	bc80      	pop	{r7}
 8000b2a:	4770      	bx	lr
 8000b2c:	40021000 	.word	0x40021000

08000b30 <Error_Handler>:
/**
  * @brief  This function is executed in case of error occurrence.
  * @retval None
  */
void Error_Handler(void)
{
 8000b30:	b480      	push	{r7}
 8000b32:	af00      	add	r7, sp, #0
  \details Disables IRQ interrupts by setting the I-bit in the CPSR.
           Can only be executed in Privileged modes.
 */
__STATIC_FORCEINLINE void __disable_irq(void)
{
  __ASM volatile ("cpsid i" : : : "memory");
 8000b34:	b672      	cpsid	i
}
 8000b36:	bf00      	nop
  /* USER CODE BEGIN Error_Handler_Debug */
  /* User can add his own implementation to report the HAL error return state */
  __disable_irq();
  while (1)
 8000b38:	e7fe      	b.n	8000b38 <Error_Handler+0x8>
	...

08000b3c <HAL_MspInit>:
/* USER CODE END 0 */
/**
  * Initializes the Global MSP.
  */
void HAL_MspInit(void)
{
 8000b3c:	b480      	push	{r7}
 8000b3e:	b085      	sub	sp, #20
 8000b40:	af00      	add	r7, sp, #0
  /* USER CODE BEGIN MspInit 0 */

  /* USER CODE END MspInit 0 */

  __HAL_RCC_AFIO_CLK_ENABLE();
 8000b42:	4b15      	ldr	r3, [pc, #84]	; (8000b98 <HAL_MspInit+0x5c>)
 8000b44:	699b      	ldr	r3, [r3, #24]
 8000b46:	4a14      	ldr	r2, [pc, #80]	; (8000b98 <HAL_MspInit+0x5c>)
 8000b48:	f043 0301 	orr.w	r3, r3, #1
 8000b4c:	6193      	str	r3, [r2, #24]
 8000b4e:	4b12      	ldr	r3, [pc, #72]	; (8000b98 <HAL_MspInit+0x5c>)
 8000b50:	699b      	ldr	r3, [r3, #24]
 8000b52:	f003 0301 	and.w	r3, r3, #1
 8000b56:	60bb      	str	r3, [r7, #8]
 8000b58:	68bb      	ldr	r3, [r7, #8]
  __HAL_RCC_PWR_CLK_ENABLE();
 8000b5a:	4b0f      	ldr	r3, [pc, #60]	; (8000b98 <HAL_MspInit+0x5c>)
 8000b5c:	69db      	ldr	r3, [r3, #28]
 8000b5e:	4a0e      	ldr	r2, [pc, #56]	; (8000b98 <HAL_MspInit+0x5c>)
 8000b60:	f043 5380 	orr.w	r3, r3, #268435456	; 0x10000000
 8000b64:	61d3      	str	r3, [r2, #28]
 8000b66:	4b0c      	ldr	r3, [pc, #48]	; (8000b98 <HAL_MspInit+0x5c>)
 8000b68:	69db      	ldr	r3, [r3, #28]
 8000b6a:	f003 5380 	and.w	r3, r3, #268435456	; 0x10000000
 8000b6e:	607b      	str	r3, [r7, #4]
 8000b70:	687b      	ldr	r3, [r7, #4]

  /* System interrupt init*/

  /** NOJTAG: JTAG-DP Disabled and SW-DP Enabled
  */
  __HAL_AFIO_REMAP_SWJ_NOJTAG();
 8000b72:	4b0a      	ldr	r3, [pc, #40]	; (8000b9c <HAL_MspInit+0x60>)
 8000b74:	685b      	ldr	r3, [r3, #4]
 8000b76:	60fb      	str	r3, [r7, #12]
 8000b78:	68fb      	ldr	r3, [r7, #12]
 8000b7a:	f023 63e0 	bic.w	r3, r3, #117440512	; 0x7000000
 8000b7e:	60fb      	str	r3, [r7, #12]
 8000b80:	68fb      	ldr	r3, [r7, #12]
 8000b82:	f043 7300 	orr.w	r3, r3, #33554432	; 0x2000000
 8000b86:	60fb      	str	r3, [r7, #12]
 8000b88:	4a04      	ldr	r2, [pc, #16]	; (8000b9c <HAL_MspInit+0x60>)
 8000b8a:	68fb      	ldr	r3, [r7, #12]
 8000b8c:	6053      	str	r3, [r2, #4]

  /* USER CODE BEGIN MspInit 1 */

  /* USER CODE END MspInit 1 */
}
 8000b8e:	bf00      	nop
 8000b90:	3714      	adds	r7, #20
 8000b92:	46bd      	mov	sp, r7
 8000b94:	bc80      	pop	{r7}
 8000b96:	4770      	bx	lr
 8000b98:	40021000 	.word	0x40021000
 8000b9c:	40010000 	.word	0x40010000

08000ba0 <HAL_I2C_MspInit>:
* This function configures the hardware resources used in this example
* @param hi2c: I2C handle pointer
* @retval None
*/
void HAL_I2C_MspInit(I2C_HandleTypeDef* hi2c)
{
 8000ba0:	b580      	push	{r7, lr}
 8000ba2:	b088      	sub	sp, #32
 8000ba4:	af00      	add	r7, sp, #0
 8000ba6:	6078      	str	r0, [r7, #4]
  GPIO_InitTypeDef GPIO_InitStruct = {0};
 8000ba8:	f107 0310 	add.w	r3, r7, #16
 8000bac:	2200      	movs	r2, #0
 8000bae:	601a      	str	r2, [r3, #0]
 8000bb0:	605a      	str	r2, [r3, #4]
 8000bb2:	609a      	str	r2, [r3, #8]
 8000bb4:	60da      	str	r2, [r3, #12]
  if(hi2c->Instance==I2C2)
 8000bb6:	687b      	ldr	r3, [r7, #4]
 8000bb8:	681b      	ldr	r3, [r3, #0]
 8000bba:	4a16      	ldr	r2, [pc, #88]	; (8000c14 <HAL_I2C_MspInit+0x74>)
 8000bbc:	4293      	cmp	r3, r2
 8000bbe:	d124      	bne.n	8000c0a <HAL_I2C_MspInit+0x6a>
  {
  /* USER CODE BEGIN I2C2_MspInit 0 */

  /* USER CODE END I2C2_MspInit 0 */

    __HAL_RCC_GPIOB_CLK_ENABLE();
 8000bc0:	4b15      	ldr	r3, [pc, #84]	; (8000c18 <HAL_I2C_MspInit+0x78>)
 8000bc2:	699b      	ldr	r3, [r3, #24]
 8000bc4:	4a14      	ldr	r2, [pc, #80]	; (8000c18 <HAL_I2C_MspInit+0x78>)
 8000bc6:	f043 0308 	orr.w	r3, r3, #8
 8000bca:	6193      	str	r3, [r2, #24]
 8000bcc:	4b12      	ldr	r3, [pc, #72]	; (8000c18 <HAL_I2C_MspInit+0x78>)
 8000bce:	699b      	ldr	r3, [r3, #24]
 8000bd0:	f003 0308 	and.w	r3, r3, #8
 8000bd4:	60fb      	str	r3, [r7, #12]
 8000bd6:	68fb      	ldr	r3, [r7, #12]
    /**I2C2 GPIO Configuration
    PB10     ------> I2C2_SCL
    PB11     ------> I2C2_SDA
    */
    GPIO_InitStruct.Pin = GPIO_PIN_10|GPIO_PIN_11;
 8000bd8:	f44f 6340 	mov.w	r3, #3072	; 0xc00
 8000bdc:	613b      	str	r3, [r7, #16]
    GPIO_InitStruct.Mode = GPIO_MODE_AF_OD;
 8000bde:	2312      	movs	r3, #18
 8000be0:	617b      	str	r3, [r7, #20]
    GPIO_InitStruct.Speed = GPIO_SPEED_FREQ_HIGH;
 8000be2:	2303      	movs	r3, #3
 8000be4:	61fb      	str	r3, [r7, #28]
    HAL_GPIO_Init(GPIOB, &GPIO_InitStruct);
 8000be6:	f107 0310 	add.w	r3, r7, #16
 8000bea:	4619      	mov	r1, r3
 8000bec:	480b      	ldr	r0, [pc, #44]	; (8000c1c <HAL_I2C_MspInit+0x7c>)
 8000bee:	f000 fad3 	bl	8001198 <HAL_GPIO_Init>

    /* Peripheral clock enable */
    __HAL_RCC_I2C2_CLK_ENABLE();
 8000bf2:	4b09      	ldr	r3, [pc, #36]	; (8000c18 <HAL_I2C_MspInit+0x78>)
 8000bf4:	69db      	ldr	r3, [r3, #28]
 8000bf6:	4a08      	ldr	r2, [pc, #32]	; (8000c18 <HAL_I2C_MspInit+0x78>)
 8000bf8:	f443 0380 	orr.w	r3, r3, #4194304	; 0x400000
 8000bfc:	61d3      	str	r3, [r2, #28]
 8000bfe:	4b06      	ldr	r3, [pc, #24]	; (8000c18 <HAL_I2C_MspInit+0x78>)
 8000c00:	69db      	ldr	r3, [r3, #28]
 8000c02:	f403 0380 	and.w	r3, r3, #4194304	; 0x400000
 8000c06:	60bb      	str	r3, [r7, #8]
 8000c08:	68bb      	ldr	r3, [r7, #8]
  /* USER CODE BEGIN I2C2_MspInit 1 */

  /* USER CODE END I2C2_MspInit 1 */
  }

}
 8000c0a:	bf00      	nop
 8000c0c:	3720      	adds	r7, #32
 8000c0e:	46bd      	mov	sp, r7
 8000c10:	bd80      	pop	{r7, pc}
 8000c12:	bf00      	nop
 8000c14:	40005800 	.word	0x40005800
 8000c18:	40021000 	.word	0x40021000
 8000c1c:	40010c00 	.word	0x40010c00

08000c20 <HAL_USART_MspInit>:
* This function configures the hardware resources used in this example
* @param husart: USART handle pointer
* @retval None
*/
void HAL_USART_MspInit(USART_HandleTypeDef* husart)
{
 8000c20:	b580      	push	{r7, lr}
 8000c22:	b088      	sub	sp, #32
 8000c24:	af00      	add	r7, sp, #0
 8000c26:	6078      	str	r0, [r7, #4]
  GPIO_InitTypeDef GPIO_InitStruct = {0};
 8000c28:	f107 0310 	add.w	r3, r7, #16
 8000c2c:	2200      	movs	r2, #0
 8000c2e:	601a      	str	r2, [r3, #0]
 8000c30:	605a      	str	r2, [r3, #4]
 8000c32:	609a      	str	r2, [r3, #8]
 8000c34:	60da      	str	r2, [r3, #12]
  if(husart->Instance==USART1)
 8000c36:	687b      	ldr	r3, [r7, #4]
 8000c38:	681b      	ldr	r3, [r3, #0]
 8000c3a:	4a20      	ldr	r2, [pc, #128]	; (8000cbc <HAL_USART_MspInit+0x9c>)
 8000c3c:	4293      	cmp	r3, r2
 8000c3e:	d139      	bne.n	8000cb4 <HAL_USART_MspInit+0x94>
  {
  /* USER CODE BEGIN USART1_MspInit 0 */

  /* USER CODE END USART1_MspInit 0 */
    /* Peripheral clock enable */
    __HAL_RCC_USART1_CLK_ENABLE();
 8000c40:	4b1f      	ldr	r3, [pc, #124]	; (8000cc0 <HAL_USART_MspInit+0xa0>)
 8000c42:	699b      	ldr	r3, [r3, #24]
 8000c44:	4a1e      	ldr	r2, [pc, #120]	; (8000cc0 <HAL_USART_MspInit+0xa0>)
 8000c46:	f443 4380 	orr.w	r3, r3, #16384	; 0x4000
 8000c4a:	6193      	str	r3, [r2, #24]
 8000c4c:	4b1c      	ldr	r3, [pc, #112]	; (8000cc0 <HAL_USART_MspInit+0xa0>)
 8000c4e:	699b      	ldr	r3, [r3, #24]
 8000c50:	f403 4380 	and.w	r3, r3, #16384	; 0x4000
 8000c54:	60fb      	str	r3, [r7, #12]
 8000c56:	68fb      	ldr	r3, [r7, #12]

    __HAL_RCC_GPIOA_CLK_ENABLE();
 8000c58:	4b19      	ldr	r3, [pc, #100]	; (8000cc0 <HAL_USART_MspInit+0xa0>)
 8000c5a:	699b      	ldr	r3, [r3, #24]
 8000c5c:	4a18      	ldr	r2, [pc, #96]	; (8000cc0 <HAL_USART_MspInit+0xa0>)
 8000c5e:	f043 0304 	orr.w	r3, r3, #4
 8000c62:	6193      	str	r3, [r2, #24]
 8000c64:	4b16      	ldr	r3, [pc, #88]	; (8000cc0 <HAL_USART_MspInit+0xa0>)
 8000c66:	699b      	ldr	r3, [r3, #24]
 8000c68:	f003 0304 	and.w	r3, r3, #4
 8000c6c:	60bb      	str	r3, [r7, #8]
 8000c6e:	68bb      	ldr	r3, [r7, #8]
    /**USART1 GPIO Configuration
    PA8     ------> USART1_CK
    PA9     ------> USART1_TX
    PA10     ------> USART1_RX
    */
    GPIO_InitStruct.Pin = GPIO_PIN_8|GPIO_PIN_9;
 8000c70:	f44f 7340 	mov.w	r3, #768	; 0x300
 8000c74:	613b      	str	r3, [r7, #16]
    GPIO_InitStruct.Mode = GPIO_MODE_AF_PP;
 8000c76:	2302      	movs	r3, #2
 8000c78:	617b      	str	r3, [r7, #20]
    GPIO_InitStruct.Speed = GPIO_SPEED_FREQ_HIGH;
 8000c7a:	2303      	movs	r3, #3
 8000c7c:	61fb      	str	r3, [r7, #28]
    HAL_GPIO_Init(GPIOA, &GPIO_InitStruct);
 8000c7e:	f107 0310 	add.w	r3, r7, #16
 8000c82:	4619      	mov	r1, r3
 8000c84:	480f      	ldr	r0, [pc, #60]	; (8000cc4 <HAL_USART_MspInit+0xa4>)
 8000c86:	f000 fa87 	bl	8001198 <HAL_GPIO_Init>

    GPIO_InitStruct.Pin = GPIO_PIN_10;
 8000c8a:	f44f 6380 	mov.w	r3, #1024	; 0x400
 8000c8e:	613b      	str	r3, [r7, #16]
    GPIO_InitStruct.Mode = GPIO_MODE_INPUT;
 8000c90:	2300      	movs	r3, #0
 8000c92:	617b      	str	r3, [r7, #20]
    GPIO_InitStruct.Pull = GPIO_NOPULL;
 8000c94:	2300      	movs	r3, #0
 8000c96:	61bb      	str	r3, [r7, #24]
    HAL_GPIO_Init(GPIOA, &GPIO_InitStruct);
 8000c98:	f107 0310 	add.w	r3, r7, #16
 8000c9c:	4619      	mov	r1, r3
 8000c9e:	4809      	ldr	r0, [pc, #36]	; (8000cc4 <HAL_USART_MspInit+0xa4>)
 8000ca0:	f000 fa7a 	bl	8001198 <HAL_GPIO_Init>

    /* USART1 interrupt Init */
    HAL_NVIC_SetPriority(USART1_IRQn, 0, 0);
 8000ca4:	2200      	movs	r2, #0
 8000ca6:	2100      	movs	r1, #0
 8000ca8:	2025      	movs	r0, #37	; 0x25
 8000caa:	f000 f9c8 	bl	800103e <HAL_NVIC_SetPriority>
    HAL_NVIC_EnableIRQ(USART1_IRQn);
 8000cae:	2025      	movs	r0, #37	; 0x25
 8000cb0:	f000 f9e1 	bl	8001076 <HAL_NVIC_EnableIRQ>
  /* USER CODE BEGIN USART1_MspInit 1 */

  /* USER CODE END USART1_MspInit 1 */
  }

}
 8000cb4:	bf00      	nop
 8000cb6:	3720      	adds	r7, #32
 8000cb8:	46bd      	mov	sp, r7
 8000cba:	bd80      	pop	{r7, pc}
 8000cbc:	40013800 	.word	0x40013800
 8000cc0:	40021000 	.word	0x40021000
 8000cc4:	40010800 	.word	0x40010800

08000cc8 <NMI_Handler>:
/******************************************************************************/
/**
  * @brief This function handles Non maskable interrupt.
  */
void NMI_Handler(void)
{
 8000cc8:	b480      	push	{r7}
 8000cca:	af00      	add	r7, sp, #0
  /* USER CODE BEGIN NonMaskableInt_IRQn 0 */

  /* USER CODE END NonMaskableInt_IRQn 0 */
  /* USER CODE BEGIN NonMaskableInt_IRQn 1 */
  while (1)
 8000ccc:	e7fe      	b.n	8000ccc <NMI_Handler+0x4>

08000cce <HardFault_Handler>:

/**
  * @brief This function handles Hard fault interrupt.
  */
void HardFault_Handler(void)
{
 8000cce:	b480      	push	{r7}
 8000cd0:	af00      	add	r7, sp, #0
  /* USER CODE BEGIN HardFault_IRQn 0 */

  /* USER CODE END HardFault_IRQn 0 */
  while (1)
 8000cd2:	e7fe      	b.n	8000cd2 <HardFault_Handler+0x4>

08000cd4 <MemManage_Handler>:

/**
  * @brief This function handles Memory management fault.
  */
void MemManage_Handler(void)
{
 8000cd4:	b480      	push	{r7}
 8000cd6:	af00      	add	r7, sp, #0
  /* USER CODE BEGIN MemoryManagement_IRQn 0 */

  /* USER CODE END MemoryManagement_IRQn 0 */
  while (1)
 8000cd8:	e7fe      	b.n	8000cd8 <MemManage_Handler+0x4>

08000cda <BusFault_Handler>:

/**
  * @brief This function handles Prefetch fault, memory access fault.
  */
void BusFault_Handler(void)
{
 8000cda:	b480      	push	{r7}
 8000cdc:	af00      	add	r7, sp, #0
  /* USER CODE BEGIN BusFault_IRQn 0 */

  /* USER CODE END BusFault_IRQn 0 */
  while (1)
 8000cde:	e7fe      	b.n	8000cde <BusFault_Handler+0x4>

08000ce0 <UsageFault_Handler>:

/**
  * @brief This function handles Undefined instruction or illegal state.
  */
void UsageFault_Handler(void)
{
 8000ce0:	b480      	push	{r7}
 8000ce2:	af00      	add	r7, sp, #0
  /* USER CODE BEGIN UsageFault_IRQn 0 */

  /* USER CODE END UsageFault_IRQn 0 */
  while (1)
 8000ce4:	e7fe      	b.n	8000ce4 <UsageFault_Handler+0x4>

08000ce6 <SVC_Handler>:

/**
  * @brief This function handles System service call via SWI instruction.
  */
void SVC_Handler(void)
{
 8000ce6:	b480      	push	{r7}
 8000ce8:	af00      	add	r7, sp, #0

  /* USER CODE END SVCall_IRQn 0 */
  /* USER CODE BEGIN SVCall_IRQn 1 */

  /* USER CODE END SVCall_IRQn 1 */
}
 8000cea:	bf00      	nop
 8000cec:	46bd      	mov	sp, r7
 8000cee:	bc80      	pop	{r7}
 8000cf0:	4770      	bx	lr

08000cf2 <DebugMon_Handler>:

/**
  * @brief This function handles Debug monitor.
  */
void DebugMon_Handler(void)
{
 8000cf2:	b480      	push	{r7}
 8000cf4:	af00      	add	r7, sp, #0

  /* USER CODE END DebugMonitor_IRQn 0 */
  /* USER CODE BEGIN DebugMonitor_IRQn 1 */

  /* USER CODE END DebugMonitor_IRQn 1 */
}
 8000cf6:	bf00      	nop
 8000cf8:	46bd      	mov	sp, r7
 8000cfa:	bc80      	pop	{r7}
 8000cfc:	4770      	bx	lr

08000cfe <PendSV_Handler>:

/**
  * @brief This function handles Pendable request for system service.
  */
void PendSV_Handler(void)
{
 8000cfe:	b480      	push	{r7}
 8000d00:	af00      	add	r7, sp, #0

  /* USER CODE END PendSV_IRQn 0 */
  /* USER CODE BEGIN PendSV_IRQn 1 */

  /* USER CODE END PendSV_IRQn 1 */
}
 8000d02:	bf00      	nop
 8000d04:	46bd      	mov	sp, r7
 8000d06:	bc80      	pop	{r7}
 8000d08:	4770      	bx	lr

08000d0a <SysTick_Handler>:

/**
  * @brief This function handles System tick timer.
  */
void SysTick_Handler(void)
{
 8000d0a:	b580      	push	{r7, lr}
 8000d0c:	af00      	add	r7, sp, #0
  /* USER CODE BEGIN SysTick_IRQn 0 */

  /* USER CODE END SysTick_IRQn 0 */
  HAL_IncTick();
 8000d0e:	f000 f87f 	bl	8000e10 <HAL_IncTick>
  /* USER CODE BEGIN SysTick_IRQn 1 */

  /* USER CODE END SysTick_IRQn 1 */
}
 8000d12:	bf00      	nop
 8000d14:	bd80      	pop	{r7, pc}
	...

08000d18 <USART1_IRQHandler>:

/**
  * @brief This function handles USART1 global interrupt.
  */
void USART1_IRQHandler(void)
{
 8000d18:	b580      	push	{r7, lr}
 8000d1a:	af00      	add	r7, sp, #0
  /* USER CODE BEGIN USART1_IRQn 0 */

  /* USER CODE END USART1_IRQn 0 */
  HAL_USART_IRQHandler(&husart1);
 8000d1c:	4802      	ldr	r0, [pc, #8]	; (8000d28 <USART1_IRQHandler+0x10>)
 8000d1e:	f001 ffe9 	bl	8002cf4 <HAL_USART_IRQHandler>
  /* USER CODE BEGIN USART1_IRQn 1 */

  /* USER CODE END USART1_IRQn 1 */
}
 8000d22:	bf00      	nop
 8000d24:	bd80      	pop	{r7, pc}
 8000d26:	bf00      	nop
 8000d28:	2000007c 	.word	0x2000007c

08000d2c <SystemInit>:
  * @note   This function should be used only after reset.
  * @param  None
  * @retval None
  */
void SystemInit (void)
{
 8000d2c:	b480      	push	{r7}
 8000d2e:	af00      	add	r7, sp, #0

  /* Configure the Vector Table location -------------------------------------*/
#if defined(USER_VECT_TAB_ADDRESS)
  SCB->VTOR = VECT_TAB_BASE_ADDRESS | VECT_TAB_OFFSET; /* Vector Table Relocation in Internal SRAM. */
#endif /* USER_VECT_TAB_ADDRESS */
}
 8000d30:	bf00      	nop
 8000d32:	46bd      	mov	sp, r7
 8000d34:	bc80      	pop	{r7}
 8000d36:	4770      	bx	lr

08000d38 <Reset_Handler>:
  .weak Reset_Handler
  .type Reset_Handler, %function
Reset_Handler:

/* Copy the data segment initializers from flash to SRAM */
  ldr r0, =_sdata
 8000d38:	480c      	ldr	r0, [pc, #48]	; (8000d6c <LoopFillZerobss+0x12>)
  ldr r1, =_edata
 8000d3a:	490d      	ldr	r1, [pc, #52]	; (8000d70 <LoopFillZerobss+0x16>)
  ldr r2, =_sidata
 8000d3c:	4a0d      	ldr	r2, [pc, #52]	; (8000d74 <LoopFillZerobss+0x1a>)
  movs r3, #0
 8000d3e:	2300      	movs	r3, #0
  b LoopCopyDataInit
 8000d40:	e002      	b.n	8000d48 <LoopCopyDataInit>

08000d42 <CopyDataInit>:

CopyDataInit:
  ldr r4, [r2, r3]
 8000d42:	58d4      	ldr	r4, [r2, r3]
  str r4, [r0, r3]
 8000d44:	50c4      	str	r4, [r0, r3]
  adds r3, r3, #4
 8000d46:	3304      	adds	r3, #4

08000d48 <LoopCopyDataInit>:

LoopCopyDataInit:
  adds r4, r0, r3
 8000d48:	18c4      	adds	r4, r0, r3
  cmp r4, r1
 8000d4a:	428c      	cmp	r4, r1
  bcc CopyDataInit
 8000d4c:	d3f9      	bcc.n	8000d42 <CopyDataInit>
  
/* Zero fill the bss segment. */
  ldr r2, =_sbss
 8000d4e:	4a0a      	ldr	r2, [pc, #40]	; (8000d78 <LoopFillZerobss+0x1e>)
  ldr r4, =_ebss
 8000d50:	4c0a      	ldr	r4, [pc, #40]	; (8000d7c <LoopFillZerobss+0x22>)
  movs r3, #0
 8000d52:	2300      	movs	r3, #0
  b LoopFillZerobss
 8000d54:	e001      	b.n	8000d5a <LoopFillZerobss>

08000d56 <FillZerobss>:

FillZerobss:
  str  r3, [r2]
 8000d56:	6013      	str	r3, [r2, #0]
  adds r2, r2, #4
 8000d58:	3204      	adds	r2, #4

08000d5a <LoopFillZerobss>:

LoopFillZerobss:
  cmp r2, r4
 8000d5a:	42a2      	cmp	r2, r4
  bcc FillZerobss
 8000d5c:	d3fb      	bcc.n	8000d56 <FillZerobss>

/* Call the clock system intitialization function.*/
    bl  SystemInit
 8000d5e:	f7ff ffe5 	bl	8000d2c <SystemInit>
/* Call static constructors */
    bl __libc_init_array
 8000d62:	f002 fc03 	bl	800356c <__libc_init_array>
/* Call the application's entry point.*/
  bl main
 8000d66:	f7ff fc47 	bl	80005f8 <main>
  bx lr
 8000d6a:	4770      	bx	lr
  ldr r0, =_sdata
 8000d6c:	20000000 	.word	0x20000000
  ldr r1, =_edata
 8000d70:	2000000c 	.word	0x2000000c
  ldr r2, =_sidata
 8000d74:	0800394c 	.word	0x0800394c
  ldr r2, =_sbss
 8000d78:	2000000c 	.word	0x2000000c
  ldr r4, =_ebss
 8000d7c:	200000c4 	.word	0x200000c4

08000d80 <ADC1_2_IRQHandler>:
 * @retval : None
*/
    .section .text.Default_Handler,"ax",%progbits
Default_Handler:
Infinite_Loop:
  b Infinite_Loop
 8000d80:	e7fe      	b.n	8000d80 <ADC1_2_IRQHandler>
	...

08000d84 <HAL_Init>:
  *         need to ensure that the SysTick time base is always set to 1 millisecond
  *         to have correct HAL operation.
  * @retval HAL status
  */
HAL_StatusTypeDef HAL_Init(void)
{
 8000d84:	b580      	push	{r7, lr}
 8000d86:	af00      	add	r7, sp, #0
    defined(STM32F102x6) || defined(STM32F102xB) || \
    defined(STM32F103x6) || defined(STM32F103xB) || defined(STM32F103xE) || defined(STM32F103xG) || \
    defined(STM32F105xC) || defined(STM32F107xC)

  /* Prefetch buffer is not available on value line devices */
  __HAL_FLASH_PREFETCH_BUFFER_ENABLE();
 8000d88:	4b08      	ldr	r3, [pc, #32]	; (8000dac <HAL_Init+0x28>)
 8000d8a:	681b      	ldr	r3, [r3, #0]
 8000d8c:	4a07      	ldr	r2, [pc, #28]	; (8000dac <HAL_Init+0x28>)
 8000d8e:	f043 0310 	orr.w	r3, r3, #16
 8000d92:	6013      	str	r3, [r2, #0]
#endif
#endif /* PREFETCH_ENABLE */

  /* Set Interrupt Group Priority */
  HAL_NVIC_SetPriorityGrouping(NVIC_PRIORITYGROUP_4);
 8000d94:	2003      	movs	r0, #3
 8000d96:	f000 f947 	bl	8001028 <HAL_NVIC_SetPriorityGrouping>

  /* Use systick as time base source and configure 1ms tick (default clock after Reset is HSI) */
  HAL_InitTick(TICK_INT_PRIORITY);
 8000d9a:	200f      	movs	r0, #15
 8000d9c:	f000 f808 	bl	8000db0 <HAL_InitTick>

  /* Init the low level hardware */
  HAL_MspInit();
 8000da0:	f7ff fecc 	bl	8000b3c <HAL_MspInit>

  /* Return function status */
  return HAL_OK;
 8000da4:	2300      	movs	r3, #0
}
 8000da6:	4618      	mov	r0, r3
 8000da8:	bd80      	pop	{r7, pc}
 8000daa:	bf00      	nop
 8000dac:	40022000 	.word	0x40022000

08000db0 <HAL_InitTick>:
  *       implementation  in user file.
  * @param TickPriority Tick interrupt priority.
  * @retval HAL status
  */
__weak HAL_StatusTypeDef HAL_InitTick(uint32_t TickPriority)
{
 8000db0:	b580      	push	{r7, lr}
 8000db2:	b082      	sub	sp, #8
 8000db4:	af00      	add	r7, sp, #0
 8000db6:	6078      	str	r0, [r7, #4]
  /* Configure the SysTick to have interrupt in 1ms time basis*/
  if (HAL_SYSTICK_Config(SystemCoreClock / (1000U / uwTickFreq)) > 0U)
 8000db8:	4b12      	ldr	r3, [pc, #72]	; (8000e04 <HAL_InitTick+0x54>)
 8000dba:	681a      	ldr	r2, [r3, #0]
 8000dbc:	4b12      	ldr	r3, [pc, #72]	; (8000e08 <HAL_InitTick+0x58>)
 8000dbe:	781b      	ldrb	r3, [r3, #0]
 8000dc0:	4619      	mov	r1, r3
 8000dc2:	f44f 737a 	mov.w	r3, #1000	; 0x3e8
 8000dc6:	fbb3 f3f1 	udiv	r3, r3, r1
 8000dca:	fbb2 f3f3 	udiv	r3, r2, r3
 8000dce:	4618      	mov	r0, r3
 8000dd0:	f000 f95f 	bl	8001092 <HAL_SYSTICK_Config>
 8000dd4:	4603      	mov	r3, r0
 8000dd6:	2b00      	cmp	r3, #0
 8000dd8:	d001      	beq.n	8000dde <HAL_InitTick+0x2e>
  {
    return HAL_ERROR;
 8000dda:	2301      	movs	r3, #1
 8000ddc:	e00e      	b.n	8000dfc <HAL_InitTick+0x4c>
  }

  /* Configure the SysTick IRQ priority */
  if (TickPriority < (1UL << __NVIC_PRIO_BITS))
 8000dde:	687b      	ldr	r3, [r7, #4]
 8000de0:	2b0f      	cmp	r3, #15
 8000de2:	d80a      	bhi.n	8000dfa <HAL_InitTick+0x4a>
  {
    HAL_NVIC_SetPriority(SysTick_IRQn, TickPriority, 0U);
 8000de4:	2200      	movs	r2, #0
 8000de6:	6879      	ldr	r1, [r7, #4]
 8000de8:	f04f 30ff 	mov.w	r0, #4294967295
 8000dec:	f000 f927 	bl	800103e <HAL_NVIC_SetPriority>
    uwTickPrio = TickPriority;
 8000df0:	4a06      	ldr	r2, [pc, #24]	; (8000e0c <HAL_InitTick+0x5c>)
 8000df2:	687b      	ldr	r3, [r7, #4]
 8000df4:	6013      	str	r3, [r2, #0]
  {
    return HAL_ERROR;
  }

  /* Return function status */
  return HAL_OK;
 8000df6:	2300      	movs	r3, #0
 8000df8:	e000      	b.n	8000dfc <HAL_InitTick+0x4c>
    return HAL_ERROR;
 8000dfa:	2301      	movs	r3, #1
}
 8000dfc:	4618      	mov	r0, r3
 8000dfe:	3708      	adds	r7, #8
 8000e00:	46bd      	mov	sp, r7
 8000e02:	bd80      	pop	{r7, pc}
 8000e04:	20000000 	.word	0x20000000
 8000e08:	20000008 	.word	0x20000008
 8000e0c:	20000004 	.word	0x20000004

08000e10 <HAL_IncTick>:
  * @note This function is declared as __weak to be overwritten in case of other
  *      implementations in user file.
  * @retval None
  */
__weak void HAL_IncTick(void)
{
 8000e10:	b480      	push	{r7}
 8000e12:	af00      	add	r7, sp, #0
  uwTick += uwTickFreq;
 8000e14:	4b05      	ldr	r3, [pc, #20]	; (8000e2c <HAL_IncTick+0x1c>)
 8000e16:	781b      	ldrb	r3, [r3, #0]
 8000e18:	461a      	mov	r2, r3
 8000e1a:	4b05      	ldr	r3, [pc, #20]	; (8000e30 <HAL_IncTick+0x20>)
 8000e1c:	681b      	ldr	r3, [r3, #0]
 8000e1e:	4413      	add	r3, r2
 8000e20:	4a03      	ldr	r2, [pc, #12]	; (8000e30 <HAL_IncTick+0x20>)
 8000e22:	6013      	str	r3, [r2, #0]
}
 8000e24:	bf00      	nop
 8000e26:	46bd      	mov	sp, r7
 8000e28:	bc80      	pop	{r7}
 8000e2a:	4770      	bx	lr
 8000e2c:	20000008 	.word	0x20000008
 8000e30:	200000c0 	.word	0x200000c0

08000e34 <HAL_GetTick>:
  * @note  This function is declared as __weak to be overwritten in case of other
  *       implementations in user file.
  * @retval tick value
  */
__weak uint32_t HAL_GetTick(void)
{
 8000e34:	b480      	push	{r7}
 8000e36:	af00      	add	r7, sp, #0
  return uwTick;
 8000e38:	4b02      	ldr	r3, [pc, #8]	; (8000e44 <HAL_GetTick+0x10>)
 8000e3a:	681b      	ldr	r3, [r3, #0]
}
 8000e3c:	4618      	mov	r0, r3
 8000e3e:	46bd      	mov	sp, r7
 8000e40:	bc80      	pop	{r7}
 8000e42:	4770      	bx	lr
 8000e44:	200000c0 	.word	0x200000c0

08000e48 <HAL_Delay>:
  *       implementations in user file.
  * @param Delay specifies the delay time length, in milliseconds.
  * @retval None
  */
__weak void HAL_Delay(uint32_t Delay)
{
 8000e48:	b580      	push	{r7, lr}
 8000e4a:	b084      	sub	sp, #16
 8000e4c:	af00      	add	r7, sp, #0
 8000e4e:	6078      	str	r0, [r7, #4]
  uint32_t tickstart = HAL_GetTick();
 8000e50:	f7ff fff0 	bl	8000e34 <HAL_GetTick>
 8000e54:	60b8      	str	r0, [r7, #8]
  uint32_t wait = Delay;
 8000e56:	687b      	ldr	r3, [r7, #4]
 8000e58:	60fb      	str	r3, [r7, #12]

  /* Add a freq to guarantee minimum wait */
  if (wait < HAL_MAX_DELAY)
 8000e5a:	68fb      	ldr	r3, [r7, #12]
 8000e5c:	f1b3 3fff 	cmp.w	r3, #4294967295
 8000e60:	d005      	beq.n	8000e6e <HAL_Delay+0x26>
  {
    wait += (uint32_t)(uwTickFreq);
 8000e62:	4b0a      	ldr	r3, [pc, #40]	; (8000e8c <HAL_Delay+0x44>)
 8000e64:	781b      	ldrb	r3, [r3, #0]
 8000e66:	461a      	mov	r2, r3
 8000e68:	68fb      	ldr	r3, [r7, #12]
 8000e6a:	4413      	add	r3, r2
 8000e6c:	60fb      	str	r3, [r7, #12]
  }

  while ((HAL_GetTick() - tickstart) < wait)
 8000e6e:	bf00      	nop
 8000e70:	f7ff ffe0 	bl	8000e34 <HAL_GetTick>
 8000e74:	4602      	mov	r2, r0
 8000e76:	68bb      	ldr	r3, [r7, #8]
 8000e78:	1ad3      	subs	r3, r2, r3
 8000e7a:	68fa      	ldr	r2, [r7, #12]
 8000e7c:	429a      	cmp	r2, r3
 8000e7e:	d8f7      	bhi.n	8000e70 <HAL_Delay+0x28>
  {
  }
}
 8000e80:	bf00      	nop
 8000e82:	bf00      	nop
 8000e84:	3710      	adds	r7, #16
 8000e86:	46bd      	mov	sp, r7
 8000e88:	bd80      	pop	{r7, pc}
 8000e8a:	bf00      	nop
 8000e8c:	20000008 	.word	0x20000008

08000e90 <__NVIC_SetPriorityGrouping>:
           In case of a conflict between priority grouping and available
           priority bits (__NVIC_PRIO_BITS), the smallest possible priority group is set.
  \param [in]      PriorityGroup  Priority grouping field.
 */
__STATIC_INLINE void __NVIC_SetPriorityGrouping(uint32_t PriorityGroup)
{
 8000e90:	b480      	push	{r7}
 8000e92:	b085      	sub	sp, #20
 8000e94:	af00      	add	r7, sp, #0
 8000e96:	6078      	str	r0, [r7, #4]
  uint32_t reg_value;
  uint32_t PriorityGroupTmp = (PriorityGroup & (uint32_t)0x07UL);             /* only values 0..7 are used          */
 8000e98:	687b      	ldr	r3, [r7, #4]
 8000e9a:	f003 0307 	and.w	r3, r3, #7
 8000e9e:	60fb      	str	r3, [r7, #12]

  reg_value  =  SCB->AIRCR;                                                   /* read old register configuration    */
 8000ea0:	4b0c      	ldr	r3, [pc, #48]	; (8000ed4 <__NVIC_SetPriorityGrouping+0x44>)
 8000ea2:	68db      	ldr	r3, [r3, #12]
 8000ea4:	60bb      	str	r3, [r7, #8]
  reg_value &= ~((uint32_t)(SCB_AIRCR_VECTKEY_Msk | SCB_AIRCR_PRIGROUP_Msk)); /* clear bits to change               */
 8000ea6:	68ba      	ldr	r2, [r7, #8]
 8000ea8:	f64f 03ff 	movw	r3, #63743	; 0xf8ff
 8000eac:	4013      	ands	r3, r2
 8000eae:	60bb      	str	r3, [r7, #8]
  reg_value  =  (reg_value                                   |
                ((uint32_t)0x5FAUL << SCB_AIRCR_VECTKEY_Pos) |
                (PriorityGroupTmp << SCB_AIRCR_PRIGROUP_Pos) );               /* Insert write key and priority group */
 8000eb0:	68fb      	ldr	r3, [r7, #12]
 8000eb2:	021a      	lsls	r2, r3, #8
                ((uint32_t)0x5FAUL << SCB_AIRCR_VECTKEY_Pos) |
 8000eb4:	68bb      	ldr	r3, [r7, #8]
 8000eb6:	4313      	orrs	r3, r2
  reg_value  =  (reg_value                                   |
 8000eb8:	f043 63bf 	orr.w	r3, r3, #100139008	; 0x5f80000
 8000ebc:	f443 3300 	orr.w	r3, r3, #131072	; 0x20000
 8000ec0:	60bb      	str	r3, [r7, #8]
  SCB->AIRCR =  reg_value;
 8000ec2:	4a04      	ldr	r2, [pc, #16]	; (8000ed4 <__NVIC_SetPriorityGrouping+0x44>)
 8000ec4:	68bb      	ldr	r3, [r7, #8]
 8000ec6:	60d3      	str	r3, [r2, #12]
}
 8000ec8:	bf00      	nop
 8000eca:	3714      	adds	r7, #20
 8000ecc:	46bd      	mov	sp, r7
 8000ece:	bc80      	pop	{r7}
 8000ed0:	4770      	bx	lr
 8000ed2:	bf00      	nop
 8000ed4:	e000ed00 	.word	0xe000ed00

08000ed8 <__NVIC_GetPriorityGrouping>:
  \brief   Get Priority Grouping
  \details Reads the priority grouping field from the NVIC Interrupt Controller.
  \return                Priority grouping field (SCB->AIRCR [10:8] PRIGROUP field).
 */
__STATIC_INLINE uint32_t __NVIC_GetPriorityGrouping(void)
{
 8000ed8:	b480      	push	{r7}
 8000eda:	af00      	add	r7, sp, #0
  return ((uint32_t)((SCB->AIRCR & SCB_AIRCR_PRIGROUP_Msk) >> SCB_AIRCR_PRIGROUP_Pos));
 8000edc:	4b04      	ldr	r3, [pc, #16]	; (8000ef0 <__NVIC_GetPriorityGrouping+0x18>)
 8000ede:	68db      	ldr	r3, [r3, #12]
 8000ee0:	0a1b      	lsrs	r3, r3, #8
 8000ee2:	f003 0307 	and.w	r3, r3, #7
}
 8000ee6:	4618      	mov	r0, r3
 8000ee8:	46bd      	mov	sp, r7
 8000eea:	bc80      	pop	{r7}
 8000eec:	4770      	bx	lr
 8000eee:	bf00      	nop
 8000ef0:	e000ed00 	.word	0xe000ed00

08000ef4 <__NVIC_EnableIRQ>:
  \details Enables a device specific interrupt in the NVIC interrupt controller.
  \param [in]      IRQn  Device specific interrupt number.
  \note    IRQn must not be negative.
 */
__STATIC_INLINE void __NVIC_EnableIRQ(IRQn_Type IRQn)
{
 8000ef4:	b480      	push	{r7}
 8000ef6:	b083      	sub	sp, #12
 8000ef8:	af00      	add	r7, sp, #0
 8000efa:	4603      	mov	r3, r0
 8000efc:	71fb      	strb	r3, [r7, #7]
  if ((int32_t)(IRQn) >= 0)
 8000efe:	f997 3007 	ldrsb.w	r3, [r7, #7]
 8000f02:	2b00      	cmp	r3, #0
 8000f04:	db0b      	blt.n	8000f1e <__NVIC_EnableIRQ+0x2a>
  {
    NVIC->ISER[(((uint32_t)IRQn) >> 5UL)] = (uint32_t)(1UL << (((uint32_t)IRQn) & 0x1FUL));
 8000f06:	79fb      	ldrb	r3, [r7, #7]
 8000f08:	f003 021f 	and.w	r2, r3, #31
 8000f0c:	4906      	ldr	r1, [pc, #24]	; (8000f28 <__NVIC_EnableIRQ+0x34>)
 8000f0e:	f997 3007 	ldrsb.w	r3, [r7, #7]
 8000f12:	095b      	lsrs	r3, r3, #5
 8000f14:	2001      	movs	r0, #1
 8000f16:	fa00 f202 	lsl.w	r2, r0, r2
 8000f1a:	f841 2023 	str.w	r2, [r1, r3, lsl #2]
  }
}
 8000f1e:	bf00      	nop
 8000f20:	370c      	adds	r7, #12
 8000f22:	46bd      	mov	sp, r7
 8000f24:	bc80      	pop	{r7}
 8000f26:	4770      	bx	lr
 8000f28:	e000e100 	.word	0xe000e100

08000f2c <__NVIC_SetPriority>:
  \param [in]      IRQn  Interrupt number.
  \param [in]  priority  Priority to set.
  \note    The priority cannot be set for every processor exception.
 */
__STATIC_INLINE void __NVIC_SetPriority(IRQn_Type IRQn, uint32_t priority)
{
 8000f2c:	b480      	push	{r7}
 8000f2e:	b083      	sub	sp, #12
 8000f30:	af00      	add	r7, sp, #0
 8000f32:	4603      	mov	r3, r0
 8000f34:	6039      	str	r1, [r7, #0]
 8000f36:	71fb      	strb	r3, [r7, #7]
  if ((int32_t)(IRQn) >= 0)
 8000f38:	f997 3007 	ldrsb.w	r3, [r7, #7]
 8000f3c:	2b00      	cmp	r3, #0
 8000f3e:	db0a      	blt.n	8000f56 <__NVIC_SetPriority+0x2a>
  {
    NVIC->IP[((uint32_t)IRQn)]               = (uint8_t)((priority << (8U - __NVIC_PRIO_BITS)) & (uint32_t)0xFFUL);
 8000f40:	683b      	ldr	r3, [r7, #0]
 8000f42:	b2da      	uxtb	r2, r3
 8000f44:	490c      	ldr	r1, [pc, #48]	; (8000f78 <__NVIC_SetPriority+0x4c>)
 8000f46:	f997 3007 	ldrsb.w	r3, [r7, #7]
 8000f4a:	0112      	lsls	r2, r2, #4
 8000f4c:	b2d2      	uxtb	r2, r2
 8000f4e:	440b      	add	r3, r1
 8000f50:	f883 2300 	strb.w	r2, [r3, #768]	; 0x300
  }
  else
  {
    SCB->SHP[(((uint32_t)IRQn) & 0xFUL)-4UL] = (uint8_t)((priority << (8U - __NVIC_PRIO_BITS)) & (uint32_t)0xFFUL);
  }
}
 8000f54:	e00a      	b.n	8000f6c <__NVIC_SetPriority+0x40>
    SCB->SHP[(((uint32_t)IRQn) & 0xFUL)-4UL] = (uint8_t)((priority << (8U - __NVIC_PRIO_BITS)) & (uint32_t)0xFFUL);
 8000f56:	683b      	ldr	r3, [r7, #0]
 8000f58:	b2da      	uxtb	r2, r3
 8000f5a:	4908      	ldr	r1, [pc, #32]	; (8000f7c <__NVIC_SetPriority+0x50>)
 8000f5c:	79fb      	ldrb	r3, [r7, #7]
 8000f5e:	f003 030f 	and.w	r3, r3, #15
 8000f62:	3b04      	subs	r3, #4
 8000f64:	0112      	lsls	r2, r2, #4
 8000f66:	b2d2      	uxtb	r2, r2
 8000f68:	440b      	add	r3, r1
 8000f6a:	761a      	strb	r2, [r3, #24]
}
 8000f6c:	bf00      	nop
 8000f6e:	370c      	adds	r7, #12
 8000f70:	46bd      	mov	sp, r7
 8000f72:	bc80      	pop	{r7}
 8000f74:	4770      	bx	lr
 8000f76:	bf00      	nop
 8000f78:	e000e100 	.word	0xe000e100
 8000f7c:	e000ed00 	.word	0xe000ed00

08000f80 <NVIC_EncodePriority>:
  \param [in]   PreemptPriority  Preemptive priority value (starting from 0).
  \param [in]       SubPriority  Subpriority value (starting from 0).
  \return                        Encoded priority. Value can be used in the function \ref NVIC_SetPriority().
 */
__STATIC_INLINE uint32_t NVIC_EncodePriority (uint32_t PriorityGroup, uint32_t PreemptPriority, uint32_t SubPriority)
{
 8000f80:	b480      	push	{r7}
 8000f82:	b089      	sub	sp, #36	; 0x24
 8000f84:	af00      	add	r7, sp, #0
 8000f86:	60f8      	str	r0, [r7, #12]
 8000f88:	60b9      	str	r1, [r7, #8]
 8000f8a:	607a      	str	r2, [r7, #4]
  uint32_t PriorityGroupTmp = (PriorityGroup & (uint32_t)0x07UL);   /* only values 0..7 are used          */
 8000f8c:	68fb      	ldr	r3, [r7, #12]
 8000f8e:	f003 0307 	and.w	r3, r3, #7
 8000f92:	61fb      	str	r3, [r7, #28]
  uint32_t PreemptPriorityBits;
  uint32_t SubPriorityBits;

  PreemptPriorityBits = ((7UL - PriorityGroupTmp) > (uint32_t)(__NVIC_PRIO_BITS)) ? (uint32_t)(__NVIC_PRIO_BITS) : (uint32_t)(7UL - PriorityGroupTmp);
 8000f94:	69fb      	ldr	r3, [r7, #28]
 8000f96:	f1c3 0307 	rsb	r3, r3, #7
 8000f9a:	2b04      	cmp	r3, #4
 8000f9c:	bf28      	it	cs
 8000f9e:	2304      	movcs	r3, #4
 8000fa0:	61bb      	str	r3, [r7, #24]
  SubPriorityBits     = ((PriorityGroupTmp + (uint32_t)(__NVIC_PRIO_BITS)) < (uint32_t)7UL) ? (uint32_t)0UL : (uint32_t)((PriorityGroupTmp - 7UL) + (uint32_t)(__NVIC_PRIO_BITS));
 8000fa2:	69fb      	ldr	r3, [r7, #28]
 8000fa4:	3304      	adds	r3, #4
 8000fa6:	2b06      	cmp	r3, #6
 8000fa8:	d902      	bls.n	8000fb0 <NVIC_EncodePriority+0x30>
 8000faa:	69fb      	ldr	r3, [r7, #28]
 8000fac:	3b03      	subs	r3, #3
 8000fae:	e000      	b.n	8000fb2 <NVIC_EncodePriority+0x32>
 8000fb0:	2300      	movs	r3, #0
 8000fb2:	617b      	str	r3, [r7, #20]

  return (
           ((PreemptPriority & (uint32_t)((1UL << (PreemptPriorityBits)) - 1UL)) << SubPriorityBits) |
 8000fb4:	f04f 32ff 	mov.w	r2, #4294967295
 8000fb8:	69bb      	ldr	r3, [r7, #24]
 8000fba:	fa02 f303 	lsl.w	r3, r2, r3
 8000fbe:	43da      	mvns	r2, r3
 8000fc0:	68bb      	ldr	r3, [r7, #8]
 8000fc2:	401a      	ands	r2, r3
 8000fc4:	697b      	ldr	r3, [r7, #20]
 8000fc6:	409a      	lsls	r2, r3
           ((SubPriority     & (uint32_t)((1UL << (SubPriorityBits    )) - 1UL)))
 8000fc8:	f04f 31ff 	mov.w	r1, #4294967295
 8000fcc:	697b      	ldr	r3, [r7, #20]
 8000fce:	fa01 f303 	lsl.w	r3, r1, r3
 8000fd2:	43d9      	mvns	r1, r3
 8000fd4:	687b      	ldr	r3, [r7, #4]
 8000fd6:	400b      	ands	r3, r1
           ((PreemptPriority & (uint32_t)((1UL << (PreemptPriorityBits)) - 1UL)) << SubPriorityBits) |
 8000fd8:	4313      	orrs	r3, r2
         );
}
 8000fda:	4618      	mov	r0, r3
 8000fdc:	3724      	adds	r7, #36	; 0x24
 8000fde:	46bd      	mov	sp, r7
 8000fe0:	bc80      	pop	{r7}
 8000fe2:	4770      	bx	lr

08000fe4 <SysTick_Config>:
  \note    When the variable <b>__Vendor_SysTickConfig</b> is set to 1, then the
           function <b>SysTick_Config</b> is not included. In this case, the file <b><i>device</i>.h</b>
           must contain a vendor-specific implementation of this function.
 */
__STATIC_INLINE uint32_t SysTick_Config(uint32_t ticks)
{
 8000fe4:	b580      	push	{r7, lr}
 8000fe6:	b082      	sub	sp, #8
 8000fe8:	af00      	add	r7, sp, #0
 8000fea:	6078      	str	r0, [r7, #4]
  if ((ticks - 1UL) > SysTick_LOAD_RELOAD_Msk)
 8000fec:	687b      	ldr	r3, [r7, #4]
 8000fee:	3b01      	subs	r3, #1
 8000ff0:	f1b3 7f80 	cmp.w	r3, #16777216	; 0x1000000
 8000ff4:	d301      	bcc.n	8000ffa <SysTick_Config+0x16>
  {
    return (1UL);                                                   /* Reload value impossible */
 8000ff6:	2301      	movs	r3, #1
 8000ff8:	e00f      	b.n	800101a <SysTick_Config+0x36>
  }

  SysTick->LOAD  = (uint32_t)(ticks - 1UL);                         /* set reload register */
 8000ffa:	4a0a      	ldr	r2, [pc, #40]	; (8001024 <SysTick_Config+0x40>)
 8000ffc:	687b      	ldr	r3, [r7, #4]
 8000ffe:	3b01      	subs	r3, #1
 8001000:	6053      	str	r3, [r2, #4]
  NVIC_SetPriority (SysTick_IRQn, (1UL << __NVIC_PRIO_BITS) - 1UL); /* set Priority for Systick Interrupt */
 8001002:	210f      	movs	r1, #15
 8001004:	f04f 30ff 	mov.w	r0, #4294967295
 8001008:	f7ff ff90 	bl	8000f2c <__NVIC_SetPriority>
  SysTick->VAL   = 0UL;                                             /* Load the SysTick Counter Value */
 800100c:	4b05      	ldr	r3, [pc, #20]	; (8001024 <SysTick_Config+0x40>)
 800100e:	2200      	movs	r2, #0
 8001010:	609a      	str	r2, [r3, #8]
  SysTick->CTRL  = SysTick_CTRL_CLKSOURCE_Msk |
 8001012:	4b04      	ldr	r3, [pc, #16]	; (8001024 <SysTick_Config+0x40>)
 8001014:	2207      	movs	r2, #7
 8001016:	601a      	str	r2, [r3, #0]
                   SysTick_CTRL_TICKINT_Msk   |
                   SysTick_CTRL_ENABLE_Msk;                         /* Enable SysTick IRQ and SysTick Timer */
  return (0UL);                                                     /* Function successful */
 8001018:	2300      	movs	r3, #0
}
 800101a:	4618      	mov	r0, r3
 800101c:	3708      	adds	r7, #8
 800101e:	46bd      	mov	sp, r7
 8001020:	bd80      	pop	{r7, pc}
 8001022:	bf00      	nop
 8001024:	e000e010 	.word	0xe000e010

08001028 <HAL_NVIC_SetPriorityGrouping>:
  * @note   When the NVIC_PriorityGroup_0 is selected, IRQ preemption is no more possible. 
  *         The pending IRQ priority will be managed only by the subpriority. 
  * @retval None
  */
void HAL_NVIC_SetPriorityGrouping(uint32_t PriorityGroup)
{
 8001028:	b580      	push	{r7, lr}
 800102a:	b082      	sub	sp, #8
 800102c:	af00      	add	r7, sp, #0
 800102e:	6078      	str	r0, [r7, #4]
  /* Check the parameters */
  assert_param(IS_NVIC_PRIORITY_GROUP(PriorityGroup));
  
  /* Set the PRIGROUP[10:8] bits according to the PriorityGroup parameter value */
  NVIC_SetPriorityGrouping(PriorityGroup);
 8001030:	6878      	ldr	r0, [r7, #4]
 8001032:	f7ff ff2d 	bl	8000e90 <__NVIC_SetPriorityGrouping>
}
 8001036:	bf00      	nop
 8001038:	3708      	adds	r7, #8
 800103a:	46bd      	mov	sp, r7
 800103c:	bd80      	pop	{r7, pc}

0800103e <HAL_NVIC_SetPriority>:
  *         This parameter can be a value between 0 and 15
  *         A lower priority value indicates a higher priority.          
  * @retval None
  */
void HAL_NVIC_SetPriority(IRQn_Type IRQn, uint32_t PreemptPriority, uint32_t SubPriority)
{ 
 800103e:	b580      	push	{r7, lr}
 8001040:	b086      	sub	sp, #24
 8001042:	af00      	add	r7, sp, #0
 8001044:	4603      	mov	r3, r0
 8001046:	60b9      	str	r1, [r7, #8]
 8001048:	607a      	str	r2, [r7, #4]
 800104a:	73fb      	strb	r3, [r7, #15]
  uint32_t prioritygroup = 0x00U;
 800104c:	2300      	movs	r3, #0
 800104e:	617b      	str	r3, [r7, #20]
  
  /* Check the parameters */
  assert_param(IS_NVIC_SUB_PRIORITY(SubPriority));
  assert_param(IS_NVIC_PREEMPTION_PRIORITY(PreemptPriority));
  
  prioritygroup = NVIC_GetPriorityGrouping();
 8001050:	f7ff ff42 	bl	8000ed8 <__NVIC_GetPriorityGrouping>
 8001054:	6178      	str	r0, [r7, #20]
  
  NVIC_SetPriority(IRQn, NVIC_EncodePriority(prioritygroup, PreemptPriority, SubPriority));
 8001056:	687a      	ldr	r2, [r7, #4]
 8001058:	68b9      	ldr	r1, [r7, #8]
 800105a:	6978      	ldr	r0, [r7, #20]
 800105c:	f7ff ff90 	bl	8000f80 <NVIC_EncodePriority>
 8001060:	4602      	mov	r2, r0
 8001062:	f997 300f 	ldrsb.w	r3, [r7, #15]
 8001066:	4611      	mov	r1, r2
 8001068:	4618      	mov	r0, r3
 800106a:	f7ff ff5f 	bl	8000f2c <__NVIC_SetPriority>
}
 800106e:	bf00      	nop
 8001070:	3718      	adds	r7, #24
 8001072:	46bd      	mov	sp, r7
 8001074:	bd80      	pop	{r7, pc}

08001076 <HAL_NVIC_EnableIRQ>:
  *         This parameter can be an enumerator of IRQn_Type enumeration
  *         (For the complete STM32 Devices IRQ Channels list, please refer to the appropriate CMSIS device file (stm32f10xxx.h))
  * @retval None
  */
void HAL_NVIC_EnableIRQ(IRQn_Type IRQn)
{
 8001076:	b580      	push	{r7, lr}
 8001078:	b082      	sub	sp, #8
 800107a:	af00      	add	r7, sp, #0
 800107c:	4603      	mov	r3, r0
 800107e:	71fb      	strb	r3, [r7, #7]
  /* Check the parameters */
  assert_param(IS_NVIC_DEVICE_IRQ(IRQn));

  /* Enable interrupt */
  NVIC_EnableIRQ(IRQn);
 8001080:	f997 3007 	ldrsb.w	r3, [r7, #7]
 8001084:	4618      	mov	r0, r3
 8001086:	f7ff ff35 	bl	8000ef4 <__NVIC_EnableIRQ>
}
 800108a:	bf00      	nop
 800108c:	3708      	adds	r7, #8
 800108e:	46bd      	mov	sp, r7
 8001090:	bd80      	pop	{r7, pc}

08001092 <HAL_SYSTICK_Config>:
  * @param  TicksNumb: Specifies the ticks Number of ticks between two interrupts.
  * @retval status:  - 0  Function succeeded.
  *                  - 1  Function failed.
  */
uint32_t HAL_SYSTICK_Config(uint32_t TicksNumb)
{
 8001092:	b580      	push	{r7, lr}
 8001094:	b082      	sub	sp, #8
 8001096:	af00      	add	r7, sp, #0
 8001098:	6078      	str	r0, [r7, #4]
   return SysTick_Config(TicksNumb);
 800109a:	6878      	ldr	r0, [r7, #4]
 800109c:	f7ff ffa2 	bl	8000fe4 <SysTick_Config>
 80010a0:	4603      	mov	r3, r0
}
 80010a2:	4618      	mov	r0, r3
 80010a4:	3708      	adds	r7, #8
 80010a6:	46bd      	mov	sp, r7
 80010a8:	bd80      	pop	{r7, pc}
	...

080010ac <HAL_DMA_Abort_IT>:
  * @param  hdma  : pointer to a DMA_HandleTypeDef structure that contains
  *                 the configuration information for the specified DMA Channel.
  * @retval HAL status
  */
HAL_StatusTypeDef HAL_DMA_Abort_IT(DMA_HandleTypeDef *hdma)
{  
 80010ac:	b580      	push	{r7, lr}
 80010ae:	b084      	sub	sp, #16
 80010b0:	af00      	add	r7, sp, #0
 80010b2:	6078      	str	r0, [r7, #4]
  HAL_StatusTypeDef status = HAL_OK;
 80010b4:	2300      	movs	r3, #0
 80010b6:	73fb      	strb	r3, [r7, #15]
  
  if(HAL_DMA_STATE_BUSY != hdma->State)
 80010b8:	687b      	ldr	r3, [r7, #4]
 80010ba:	f893 3021 	ldrb.w	r3, [r3, #33]	; 0x21
 80010be:	2b02      	cmp	r3, #2
 80010c0:	d005      	beq.n	80010ce <HAL_DMA_Abort_IT+0x22>
  {
    /* no transfer ongoing */
    hdma->ErrorCode = HAL_DMA_ERROR_NO_XFER;
 80010c2:	687b      	ldr	r3, [r7, #4]
 80010c4:	2204      	movs	r2, #4
 80010c6:	639a      	str	r2, [r3, #56]	; 0x38
        
    status = HAL_ERROR;
 80010c8:	2301      	movs	r3, #1
 80010ca:	73fb      	strb	r3, [r7, #15]
 80010cc:	e051      	b.n	8001172 <HAL_DMA_Abort_IT+0xc6>
  }
  else
  { 
    /* Disable DMA IT */
    __HAL_DMA_DISABLE_IT(hdma, (DMA_IT_TC | DMA_IT_HT | DMA_IT_TE));
 80010ce:	687b      	ldr	r3, [r7, #4]
 80010d0:	681b      	ldr	r3, [r3, #0]
 80010d2:	681a      	ldr	r2, [r3, #0]
 80010d4:	687b      	ldr	r3, [r7, #4]
 80010d6:	681b      	ldr	r3, [r3, #0]
 80010d8:	f022 020e 	bic.w	r2, r2, #14
 80010dc:	601a      	str	r2, [r3, #0]

    /* Disable the channel */
    __HAL_DMA_DISABLE(hdma);
 80010de:	687b      	ldr	r3, [r7, #4]
 80010e0:	681b      	ldr	r3, [r3, #0]
 80010e2:	681a      	ldr	r2, [r3, #0]
 80010e4:	687b      	ldr	r3, [r7, #4]
 80010e6:	681b      	ldr	r3, [r3, #0]
 80010e8:	f022 0201 	bic.w	r2, r2, #1
 80010ec:	601a      	str	r2, [r3, #0]

    /* Clear all flags */
    __HAL_DMA_CLEAR_FLAG(hdma, __HAL_DMA_GET_GI_FLAG_INDEX(hdma));
 80010ee:	687b      	ldr	r3, [r7, #4]
 80010f0:	681b      	ldr	r3, [r3, #0]
 80010f2:	4a22      	ldr	r2, [pc, #136]	; (800117c <HAL_DMA_Abort_IT+0xd0>)
 80010f4:	4293      	cmp	r3, r2
 80010f6:	d029      	beq.n	800114c <HAL_DMA_Abort_IT+0xa0>
 80010f8:	687b      	ldr	r3, [r7, #4]
 80010fa:	681b      	ldr	r3, [r3, #0]
 80010fc:	4a20      	ldr	r2, [pc, #128]	; (8001180 <HAL_DMA_Abort_IT+0xd4>)
 80010fe:	4293      	cmp	r3, r2
 8001100:	d022      	beq.n	8001148 <HAL_DMA_Abort_IT+0x9c>
 8001102:	687b      	ldr	r3, [r7, #4]
 8001104:	681b      	ldr	r3, [r3, #0]
 8001106:	4a1f      	ldr	r2, [pc, #124]	; (8001184 <HAL_DMA_Abort_IT+0xd8>)
 8001108:	4293      	cmp	r3, r2
 800110a:	d01a      	beq.n	8001142 <HAL_DMA_Abort_IT+0x96>
 800110c:	687b      	ldr	r3, [r7, #4]
 800110e:	681b      	ldr	r3, [r3, #0]
 8001110:	4a1d      	ldr	r2, [pc, #116]	; (8001188 <HAL_DMA_Abort_IT+0xdc>)
 8001112:	4293      	cmp	r3, r2
 8001114:	d012      	beq.n	800113c <HAL_DMA_Abort_IT+0x90>
 8001116:	687b      	ldr	r3, [r7, #4]
 8001118:	681b      	ldr	r3, [r3, #0]
 800111a:	4a1c      	ldr	r2, [pc, #112]	; (800118c <HAL_DMA_Abort_IT+0xe0>)
 800111c:	4293      	cmp	r3, r2
 800111e:	d00a      	beq.n	8001136 <HAL_DMA_Abort_IT+0x8a>
 8001120:	687b      	ldr	r3, [r7, #4]
 8001122:	681b      	ldr	r3, [r3, #0]
 8001124:	4a1a      	ldr	r2, [pc, #104]	; (8001190 <HAL_DMA_Abort_IT+0xe4>)
 8001126:	4293      	cmp	r3, r2
 8001128:	d102      	bne.n	8001130 <HAL_DMA_Abort_IT+0x84>
 800112a:	f44f 1380 	mov.w	r3, #1048576	; 0x100000
 800112e:	e00e      	b.n	800114e <HAL_DMA_Abort_IT+0xa2>
 8001130:	f04f 7380 	mov.w	r3, #16777216	; 0x1000000
 8001134:	e00b      	b.n	800114e <HAL_DMA_Abort_IT+0xa2>
 8001136:	f44f 3380 	mov.w	r3, #65536	; 0x10000
 800113a:	e008      	b.n	800114e <HAL_DMA_Abort_IT+0xa2>
 800113c:	f44f 5380 	mov.w	r3, #4096	; 0x1000
 8001140:	e005      	b.n	800114e <HAL_DMA_Abort_IT+0xa2>
 8001142:	f44f 7380 	mov.w	r3, #256	; 0x100
 8001146:	e002      	b.n	800114e <HAL_DMA_Abort_IT+0xa2>
 8001148:	2310      	movs	r3, #16
 800114a:	e000      	b.n	800114e <HAL_DMA_Abort_IT+0xa2>
 800114c:	2301      	movs	r3, #1
 800114e:	4a11      	ldr	r2, [pc, #68]	; (8001194 <HAL_DMA_Abort_IT+0xe8>)
 8001150:	6053      	str	r3, [r2, #4]

    /* Change the DMA state */
    hdma->State = HAL_DMA_STATE_READY;
 8001152:	687b      	ldr	r3, [r7, #4]
 8001154:	2201      	movs	r2, #1
 8001156:	f883 2021 	strb.w	r2, [r3, #33]	; 0x21

    /* Process Unlocked */
    __HAL_UNLOCK(hdma);
 800115a:	687b      	ldr	r3, [r7, #4]
 800115c:	2200      	movs	r2, #0
 800115e:	f883 2020 	strb.w	r2, [r3, #32]

    /* Call User Abort callback */
    if(hdma->XferAbortCallback != NULL)
 8001162:	687b      	ldr	r3, [r7, #4]
 8001164:	6b5b      	ldr	r3, [r3, #52]	; 0x34
 8001166:	2b00      	cmp	r3, #0
 8001168:	d003      	beq.n	8001172 <HAL_DMA_Abort_IT+0xc6>
    {
      hdma->XferAbortCallback(hdma);
 800116a:	687b      	ldr	r3, [r7, #4]
 800116c:	6b5b      	ldr	r3, [r3, #52]	; 0x34
 800116e:	6878      	ldr	r0, [r7, #4]
 8001170:	4798      	blx	r3
    } 
  }
  return status;
 8001172:	7bfb      	ldrb	r3, [r7, #15]
}
 8001174:	4618      	mov	r0, r3
 8001176:	3710      	adds	r7, #16
 8001178:	46bd      	mov	sp, r7
 800117a:	bd80      	pop	{r7, pc}
 800117c:	40020008 	.word	0x40020008
 8001180:	4002001c 	.word	0x4002001c
 8001184:	40020030 	.word	0x40020030
 8001188:	40020044 	.word	0x40020044
 800118c:	40020058 	.word	0x40020058
 8001190:	4002006c 	.word	0x4002006c
 8001194:	40020000 	.word	0x40020000

08001198 <HAL_GPIO_Init>:
  * @param  GPIO_Init: pointer to a GPIO_InitTypeDef structure that contains
  *         the configuration information for the specified GPIO peripheral.
  * @retval None
  */
void HAL_GPIO_Init(GPIO_TypeDef  *GPIOx, GPIO_InitTypeDef *GPIO_Init)
{
 8001198:	b480      	push	{r7}
 800119a:	b08b      	sub	sp, #44	; 0x2c
 800119c:	af00      	add	r7, sp, #0
 800119e:	6078      	str	r0, [r7, #4]
 80011a0:	6039      	str	r1, [r7, #0]
  uint32_t position = 0x00u;
 80011a2:	2300      	movs	r3, #0
 80011a4:	627b      	str	r3, [r7, #36]	; 0x24
  uint32_t ioposition;
  uint32_t iocurrent;
  uint32_t temp;
  uint32_t config = 0x00u;
 80011a6:	2300      	movs	r3, #0
 80011a8:	623b      	str	r3, [r7, #32]
  assert_param(IS_GPIO_ALL_INSTANCE(GPIOx));
  assert_param(IS_GPIO_PIN(GPIO_Init->Pin));
  assert_param(IS_GPIO_MODE(GPIO_Init->Mode));

  /* Configure the port pins */
  while (((GPIO_Init->Pin) >> position) != 0x00u)
 80011aa:	e169      	b.n	8001480 <HAL_GPIO_Init+0x2e8>
  {
    /* Get the IO position */
    ioposition = (0x01uL << position);
 80011ac:	2201      	movs	r2, #1
 80011ae:	6a7b      	ldr	r3, [r7, #36]	; 0x24
 80011b0:	fa02 f303 	lsl.w	r3, r2, r3
 80011b4:	61fb      	str	r3, [r7, #28]

    /* Get the current IO position */
    iocurrent = (uint32_t)(GPIO_Init->Pin) & ioposition;
 80011b6:	683b      	ldr	r3, [r7, #0]
 80011b8:	681b      	ldr	r3, [r3, #0]
 80011ba:	69fa      	ldr	r2, [r7, #28]
 80011bc:	4013      	ands	r3, r2
 80011be:	61bb      	str	r3, [r7, #24]

    if (iocurrent == ioposition)
 80011c0:	69ba      	ldr	r2, [r7, #24]
 80011c2:	69fb      	ldr	r3, [r7, #28]
 80011c4:	429a      	cmp	r2, r3
 80011c6:	f040 8158 	bne.w	800147a <HAL_GPIO_Init+0x2e2>
    {
      /* Check the Alternate function parameters */
      assert_param(IS_GPIO_AF_INSTANCE(GPIOx));

      /* Based on the required mode, filling config variable with MODEy[1:0] and CNFy[3:2] corresponding bits */
      switch (GPIO_Init->Mode)
 80011ca:	683b      	ldr	r3, [r7, #0]
 80011cc:	685b      	ldr	r3, [r3, #4]
 80011ce:	4a9a      	ldr	r2, [pc, #616]	; (8001438 <HAL_GPIO_Init+0x2a0>)
 80011d0:	4293      	cmp	r3, r2
 80011d2:	d05e      	beq.n	8001292 <HAL_GPIO_Init+0xfa>
 80011d4:	4a98      	ldr	r2, [pc, #608]	; (8001438 <HAL_GPIO_Init+0x2a0>)
 80011d6:	4293      	cmp	r3, r2
 80011d8:	d875      	bhi.n	80012c6 <HAL_GPIO_Init+0x12e>
 80011da:	4a98      	ldr	r2, [pc, #608]	; (800143c <HAL_GPIO_Init+0x2a4>)
 80011dc:	4293      	cmp	r3, r2
 80011de:	d058      	beq.n	8001292 <HAL_GPIO_Init+0xfa>
 80011e0:	4a96      	ldr	r2, [pc, #600]	; (800143c <HAL_GPIO_Init+0x2a4>)
 80011e2:	4293      	cmp	r3, r2
 80011e4:	d86f      	bhi.n	80012c6 <HAL_GPIO_Init+0x12e>
 80011e6:	4a96      	ldr	r2, [pc, #600]	; (8001440 <HAL_GPIO_Init+0x2a8>)
 80011e8:	4293      	cmp	r3, r2
 80011ea:	d052      	beq.n	8001292 <HAL_GPIO_Init+0xfa>
 80011ec:	4a94      	ldr	r2, [pc, #592]	; (8001440 <HAL_GPIO_Init+0x2a8>)
 80011ee:	4293      	cmp	r3, r2
 80011f0:	d869      	bhi.n	80012c6 <HAL_GPIO_Init+0x12e>
 80011f2:	4a94      	ldr	r2, [pc, #592]	; (8001444 <HAL_GPIO_Init+0x2ac>)
 80011f4:	4293      	cmp	r3, r2
 80011f6:	d04c      	beq.n	8001292 <HAL_GPIO_Init+0xfa>
 80011f8:	4a92      	ldr	r2, [pc, #584]	; (8001444 <HAL_GPIO_Init+0x2ac>)
 80011fa:	4293      	cmp	r3, r2
 80011fc:	d863      	bhi.n	80012c6 <HAL_GPIO_Init+0x12e>
 80011fe:	4a92      	ldr	r2, [pc, #584]	; (8001448 <HAL_GPIO_Init+0x2b0>)
 8001200:	4293      	cmp	r3, r2
 8001202:	d046      	beq.n	8001292 <HAL_GPIO_Init+0xfa>
 8001204:	4a90      	ldr	r2, [pc, #576]	; (8001448 <HAL_GPIO_Init+0x2b0>)
 8001206:	4293      	cmp	r3, r2
 8001208:	d85d      	bhi.n	80012c6 <HAL_GPIO_Init+0x12e>
 800120a:	2b12      	cmp	r3, #18
 800120c:	d82a      	bhi.n	8001264 <HAL_GPIO_Init+0xcc>
 800120e:	2b12      	cmp	r3, #18
 8001210:	d859      	bhi.n	80012c6 <HAL_GPIO_Init+0x12e>
 8001212:	a201      	add	r2, pc, #4	; (adr r2, 8001218 <HAL_GPIO_Init+0x80>)
 8001214:	f852 f023 	ldr.w	pc, [r2, r3, lsl #2]
 8001218:	08001293 	.word	0x08001293
 800121c:	0800126d 	.word	0x0800126d
 8001220:	0800127f 	.word	0x0800127f
 8001224:	080012c1 	.word	0x080012c1
 8001228:	080012c7 	.word	0x080012c7
 800122c:	080012c7 	.word	0x080012c7
 8001230:	080012c7 	.word	0x080012c7
 8001234:	080012c7 	.word	0x080012c7
 8001238:	080012c7 	.word	0x080012c7
 800123c:	080012c7 	.word	0x080012c7
 8001240:	080012c7 	.word	0x080012c7
 8001244:	080012c7 	.word	0x080012c7
 8001248:	080012c7 	.word	0x080012c7
 800124c:	080012c7 	.word	0x080012c7
 8001250:	080012c7 	.word	0x080012c7
 8001254:	080012c7 	.word	0x080012c7
 8001258:	080012c7 	.word	0x080012c7
 800125c:	08001275 	.word	0x08001275
 8001260:	08001289 	.word	0x08001289
 8001264:	4a79      	ldr	r2, [pc, #484]	; (800144c <HAL_GPIO_Init+0x2b4>)
 8001266:	4293      	cmp	r3, r2
 8001268:	d013      	beq.n	8001292 <HAL_GPIO_Init+0xfa>
          config = GPIO_CR_MODE_INPUT + GPIO_CR_CNF_ANALOG;
          break;

        /* Parameters are checked with assert_param */
        default:
          break;
 800126a:	e02c      	b.n	80012c6 <HAL_GPIO_Init+0x12e>
          config = GPIO_Init->Speed + GPIO_CR_CNF_GP_OUTPUT_PP;
 800126c:	683b      	ldr	r3, [r7, #0]
 800126e:	68db      	ldr	r3, [r3, #12]
 8001270:	623b      	str	r3, [r7, #32]
          break;
 8001272:	e029      	b.n	80012c8 <HAL_GPIO_Init+0x130>
          config = GPIO_Init->Speed + GPIO_CR_CNF_GP_OUTPUT_OD;
 8001274:	683b      	ldr	r3, [r7, #0]
 8001276:	68db      	ldr	r3, [r3, #12]
 8001278:	3304      	adds	r3, #4
 800127a:	623b      	str	r3, [r7, #32]
          break;
 800127c:	e024      	b.n	80012c8 <HAL_GPIO_Init+0x130>
          config = GPIO_Init->Speed + GPIO_CR_CNF_AF_OUTPUT_PP;
 800127e:	683b      	ldr	r3, [r7, #0]
 8001280:	68db      	ldr	r3, [r3, #12]
 8001282:	3308      	adds	r3, #8
 8001284:	623b      	str	r3, [r7, #32]
          break;
 8001286:	e01f      	b.n	80012c8 <HAL_GPIO_Init+0x130>
          config = GPIO_Init->Speed + GPIO_CR_CNF_AF_OUTPUT_OD;
 8001288:	683b      	ldr	r3, [r7, #0]
 800128a:	68db      	ldr	r3, [r3, #12]
 800128c:	330c      	adds	r3, #12
 800128e:	623b      	str	r3, [r7, #32]
          break;
 8001290:	e01a      	b.n	80012c8 <HAL_GPIO_Init+0x130>
          if (GPIO_Init->Pull == GPIO_NOPULL)
 8001292:	683b      	ldr	r3, [r7, #0]
 8001294:	689b      	ldr	r3, [r3, #8]
 8001296:	2b00      	cmp	r3, #0
 8001298:	d102      	bne.n	80012a0 <HAL_GPIO_Init+0x108>
            config = GPIO_CR_MODE_INPUT + GPIO_CR_CNF_INPUT_FLOATING;
 800129a:	2304      	movs	r3, #4
 800129c:	623b      	str	r3, [r7, #32]
          break;
 800129e:	e013      	b.n	80012c8 <HAL_GPIO_Init+0x130>
          else if (GPIO_Init->Pull == GPIO_PULLUP)
 80012a0:	683b      	ldr	r3, [r7, #0]
 80012a2:	689b      	ldr	r3, [r3, #8]
 80012a4:	2b01      	cmp	r3, #1
 80012a6:	d105      	bne.n	80012b4 <HAL_GPIO_Init+0x11c>
            config = GPIO_CR_MODE_INPUT + GPIO_CR_CNF_INPUT_PU_PD;
 80012a8:	2308      	movs	r3, #8
 80012aa:	623b      	str	r3, [r7, #32]
            GPIOx->BSRR = ioposition;
 80012ac:	687b      	ldr	r3, [r7, #4]
 80012ae:	69fa      	ldr	r2, [r7, #28]
 80012b0:	611a      	str	r2, [r3, #16]
          break;
 80012b2:	e009      	b.n	80012c8 <HAL_GPIO_Init+0x130>
            config = GPIO_CR_MODE_INPUT + GPIO_CR_CNF_INPUT_PU_PD;
 80012b4:	2308      	movs	r3, #8
 80012b6:	623b      	str	r3, [r7, #32]
            GPIOx->BRR = ioposition;
 80012b8:	687b      	ldr	r3, [r7, #4]
 80012ba:	69fa      	ldr	r2, [r7, #28]
 80012bc:	615a      	str	r2, [r3, #20]
          break;
 80012be:	e003      	b.n	80012c8 <HAL_GPIO_Init+0x130>
          config = GPIO_CR_MODE_INPUT + GPIO_CR_CNF_ANALOG;
 80012c0:	2300      	movs	r3, #0
 80012c2:	623b      	str	r3, [r7, #32]
          break;
 80012c4:	e000      	b.n	80012c8 <HAL_GPIO_Init+0x130>
          break;
 80012c6:	bf00      	nop
      }

      /* Check if the current bit belongs to first half or last half of the pin count number
       in order to address CRH or CRL register*/
      configregister = (iocurrent < GPIO_PIN_8) ? &GPIOx->CRL     : &GPIOx->CRH;
 80012c8:	69bb      	ldr	r3, [r7, #24]
 80012ca:	2bff      	cmp	r3, #255	; 0xff
 80012cc:	d801      	bhi.n	80012d2 <HAL_GPIO_Init+0x13a>
 80012ce:	687b      	ldr	r3, [r7, #4]
 80012d0:	e001      	b.n	80012d6 <HAL_GPIO_Init+0x13e>
 80012d2:	687b      	ldr	r3, [r7, #4]
 80012d4:	3304      	adds	r3, #4
 80012d6:	617b      	str	r3, [r7, #20]
      registeroffset = (iocurrent < GPIO_PIN_8) ? (position << 2u) : ((position - 8u) << 2u);
 80012d8:	69bb      	ldr	r3, [r7, #24]
 80012da:	2bff      	cmp	r3, #255	; 0xff
 80012dc:	d802      	bhi.n	80012e4 <HAL_GPIO_Init+0x14c>
 80012de:	6a7b      	ldr	r3, [r7, #36]	; 0x24
 80012e0:	009b      	lsls	r3, r3, #2
 80012e2:	e002      	b.n	80012ea <HAL_GPIO_Init+0x152>
 80012e4:	6a7b      	ldr	r3, [r7, #36]	; 0x24
 80012e6:	3b08      	subs	r3, #8
 80012e8:	009b      	lsls	r3, r3, #2
 80012ea:	613b      	str	r3, [r7, #16]

      /* Apply the new configuration of the pin to the register */
      MODIFY_REG((*configregister), ((GPIO_CRL_MODE0 | GPIO_CRL_CNF0) << registeroffset), (config << registeroffset));
 80012ec:	697b      	ldr	r3, [r7, #20]
 80012ee:	681a      	ldr	r2, [r3, #0]
 80012f0:	210f      	movs	r1, #15
 80012f2:	693b      	ldr	r3, [r7, #16]
 80012f4:	fa01 f303 	lsl.w	r3, r1, r3
 80012f8:	43db      	mvns	r3, r3
 80012fa:	401a      	ands	r2, r3
 80012fc:	6a39      	ldr	r1, [r7, #32]
 80012fe:	693b      	ldr	r3, [r7, #16]
 8001300:	fa01 f303 	lsl.w	r3, r1, r3
 8001304:	431a      	orrs	r2, r3
 8001306:	697b      	ldr	r3, [r7, #20]
 8001308:	601a      	str	r2, [r3, #0]

      /*--------------------- EXTI Mode Configuration ------------------------*/
      /* Configure the External Interrupt or event for the current IO */
      if ((GPIO_Init->Mode & EXTI_MODE) == EXTI_MODE)
 800130a:	683b      	ldr	r3, [r7, #0]
 800130c:	685b      	ldr	r3, [r3, #4]
 800130e:	f003 5380 	and.w	r3, r3, #268435456	; 0x10000000
 8001312:	2b00      	cmp	r3, #0
 8001314:	f000 80b1 	beq.w	800147a <HAL_GPIO_Init+0x2e2>
      {
        /* Enable AFIO Clock */
        __HAL_RCC_AFIO_CLK_ENABLE();
 8001318:	4b4d      	ldr	r3, [pc, #308]	; (8001450 <HAL_GPIO_Init+0x2b8>)
 800131a:	699b      	ldr	r3, [r3, #24]
 800131c:	4a4c      	ldr	r2, [pc, #304]	; (8001450 <HAL_GPIO_Init+0x2b8>)
 800131e:	f043 0301 	orr.w	r3, r3, #1
 8001322:	6193      	str	r3, [r2, #24]
 8001324:	4b4a      	ldr	r3, [pc, #296]	; (8001450 <HAL_GPIO_Init+0x2b8>)
 8001326:	699b      	ldr	r3, [r3, #24]
 8001328:	f003 0301 	and.w	r3, r3, #1
 800132c:	60bb      	str	r3, [r7, #8]
 800132e:	68bb      	ldr	r3, [r7, #8]
        temp = AFIO->EXTICR[position >> 2u];
 8001330:	4a48      	ldr	r2, [pc, #288]	; (8001454 <HAL_GPIO_Init+0x2bc>)
 8001332:	6a7b      	ldr	r3, [r7, #36]	; 0x24
 8001334:	089b      	lsrs	r3, r3, #2
 8001336:	3302      	adds	r3, #2
 8001338:	f852 3023 	ldr.w	r3, [r2, r3, lsl #2]
 800133c:	60fb      	str	r3, [r7, #12]
        CLEAR_BIT(temp, (0x0Fu) << (4u * (position & 0x03u)));
 800133e:	6a7b      	ldr	r3, [r7, #36]	; 0x24
 8001340:	f003 0303 	and.w	r3, r3, #3
 8001344:	009b      	lsls	r3, r3, #2
 8001346:	220f      	movs	r2, #15
 8001348:	fa02 f303 	lsl.w	r3, r2, r3
 800134c:	43db      	mvns	r3, r3
 800134e:	68fa      	ldr	r2, [r7, #12]
 8001350:	4013      	ands	r3, r2
 8001352:	60fb      	str	r3, [r7, #12]
        SET_BIT(temp, (GPIO_GET_INDEX(GPIOx)) << (4u * (position & 0x03u)));
 8001354:	687b      	ldr	r3, [r7, #4]
 8001356:	4a40      	ldr	r2, [pc, #256]	; (8001458 <HAL_GPIO_Init+0x2c0>)
 8001358:	4293      	cmp	r3, r2
 800135a:	d013      	beq.n	8001384 <HAL_GPIO_Init+0x1ec>
 800135c:	687b      	ldr	r3, [r7, #4]
 800135e:	4a3f      	ldr	r2, [pc, #252]	; (800145c <HAL_GPIO_Init+0x2c4>)
 8001360:	4293      	cmp	r3, r2
 8001362:	d00d      	beq.n	8001380 <HAL_GPIO_Init+0x1e8>
 8001364:	687b      	ldr	r3, [r7, #4]
 8001366:	4a3e      	ldr	r2, [pc, #248]	; (8001460 <HAL_GPIO_Init+0x2c8>)
 8001368:	4293      	cmp	r3, r2
 800136a:	d007      	beq.n	800137c <HAL_GPIO_Init+0x1e4>
 800136c:	687b      	ldr	r3, [r7, #4]
 800136e:	4a3d      	ldr	r2, [pc, #244]	; (8001464 <HAL_GPIO_Init+0x2cc>)
 8001370:	4293      	cmp	r3, r2
 8001372:	d101      	bne.n	8001378 <HAL_GPIO_Init+0x1e0>
 8001374:	2303      	movs	r3, #3
 8001376:	e006      	b.n	8001386 <HAL_GPIO_Init+0x1ee>
 8001378:	2304      	movs	r3, #4
 800137a:	e004      	b.n	8001386 <HAL_GPIO_Init+0x1ee>
 800137c:	2302      	movs	r3, #2
 800137e:	e002      	b.n	8001386 <HAL_GPIO_Init+0x1ee>
 8001380:	2301      	movs	r3, #1
 8001382:	e000      	b.n	8001386 <HAL_GPIO_Init+0x1ee>
 8001384:	2300      	movs	r3, #0
 8001386:	6a7a      	ldr	r2, [r7, #36]	; 0x24
 8001388:	f002 0203 	and.w	r2, r2, #3
 800138c:	0092      	lsls	r2, r2, #2
 800138e:	4093      	lsls	r3, r2
 8001390:	68fa      	ldr	r2, [r7, #12]
 8001392:	4313      	orrs	r3, r2
 8001394:	60fb      	str	r3, [r7, #12]
        AFIO->EXTICR[position >> 2u] = temp;
 8001396:	492f      	ldr	r1, [pc, #188]	; (8001454 <HAL_GPIO_Init+0x2bc>)
 8001398:	6a7b      	ldr	r3, [r7, #36]	; 0x24
 800139a:	089b      	lsrs	r3, r3, #2
 800139c:	3302      	adds	r3, #2
 800139e:	68fa      	ldr	r2, [r7, #12]
 80013a0:	f841 2023 	str.w	r2, [r1, r3, lsl #2]


        /* Configure the interrupt mask */
        if ((GPIO_Init->Mode & GPIO_MODE_IT) == GPIO_MODE_IT)
 80013a4:	683b      	ldr	r3, [r7, #0]
 80013a6:	685b      	ldr	r3, [r3, #4]
 80013a8:	f403 3380 	and.w	r3, r3, #65536	; 0x10000
 80013ac:	2b00      	cmp	r3, #0
 80013ae:	d006      	beq.n	80013be <HAL_GPIO_Init+0x226>
        {
          SET_BIT(EXTI->IMR, iocurrent);
 80013b0:	4b2d      	ldr	r3, [pc, #180]	; (8001468 <HAL_GPIO_Init+0x2d0>)
 80013b2:	681a      	ldr	r2, [r3, #0]
 80013b4:	492c      	ldr	r1, [pc, #176]	; (8001468 <HAL_GPIO_Init+0x2d0>)
 80013b6:	69bb      	ldr	r3, [r7, #24]
 80013b8:	4313      	orrs	r3, r2
 80013ba:	600b      	str	r3, [r1, #0]
 80013bc:	e006      	b.n	80013cc <HAL_GPIO_Init+0x234>
        }
        else
        {
          CLEAR_BIT(EXTI->IMR, iocurrent);
 80013be:	4b2a      	ldr	r3, [pc, #168]	; (8001468 <HAL_GPIO_Init+0x2d0>)
 80013c0:	681a      	ldr	r2, [r3, #0]
 80013c2:	69bb      	ldr	r3, [r7, #24]
 80013c4:	43db      	mvns	r3, r3
 80013c6:	4928      	ldr	r1, [pc, #160]	; (8001468 <HAL_GPIO_Init+0x2d0>)
 80013c8:	4013      	ands	r3, r2
 80013ca:	600b      	str	r3, [r1, #0]
        }

        /* Configure the event mask */
        if ((GPIO_Init->Mode & GPIO_MODE_EVT) == GPIO_MODE_EVT)
 80013cc:	683b      	ldr	r3, [r7, #0]
 80013ce:	685b      	ldr	r3, [r3, #4]
 80013d0:	f403 3300 	and.w	r3, r3, #131072	; 0x20000
 80013d4:	2b00      	cmp	r3, #0
 80013d6:	d006      	beq.n	80013e6 <HAL_GPIO_Init+0x24e>
        {
          SET_BIT(EXTI->EMR, iocurrent);
 80013d8:	4b23      	ldr	r3, [pc, #140]	; (8001468 <HAL_GPIO_Init+0x2d0>)
 80013da:	685a      	ldr	r2, [r3, #4]
 80013dc:	4922      	ldr	r1, [pc, #136]	; (8001468 <HAL_GPIO_Init+0x2d0>)
 80013de:	69bb      	ldr	r3, [r7, #24]
 80013e0:	4313      	orrs	r3, r2
 80013e2:	604b      	str	r3, [r1, #4]
 80013e4:	e006      	b.n	80013f4 <HAL_GPIO_Init+0x25c>
        }
        else
        {
          CLEAR_BIT(EXTI->EMR, iocurrent);
 80013e6:	4b20      	ldr	r3, [pc, #128]	; (8001468 <HAL_GPIO_Init+0x2d0>)
 80013e8:	685a      	ldr	r2, [r3, #4]
 80013ea:	69bb      	ldr	r3, [r7, #24]
 80013ec:	43db      	mvns	r3, r3
 80013ee:	491e      	ldr	r1, [pc, #120]	; (8001468 <HAL_GPIO_Init+0x2d0>)
 80013f0:	4013      	ands	r3, r2
 80013f2:	604b      	str	r3, [r1, #4]
        }

        /* Enable or disable the rising trigger */
        if ((GPIO_Init->Mode & RISING_EDGE) == RISING_EDGE)
 80013f4:	683b      	ldr	r3, [r7, #0]
 80013f6:	685b      	ldr	r3, [r3, #4]
 80013f8:	f403 1380 	and.w	r3, r3, #1048576	; 0x100000
 80013fc:	2b00      	cmp	r3, #0
 80013fe:	d006      	beq.n	800140e <HAL_GPIO_Init+0x276>
        {
          SET_BIT(EXTI->RTSR, iocurrent);
 8001400:	4b19      	ldr	r3, [pc, #100]	; (8001468 <HAL_GPIO_Init+0x2d0>)
 8001402:	689a      	ldr	r2, [r3, #8]
 8001404:	4918      	ldr	r1, [pc, #96]	; (8001468 <HAL_GPIO_Init+0x2d0>)
 8001406:	69bb      	ldr	r3, [r7, #24]
 8001408:	4313      	orrs	r3, r2
 800140a:	608b      	str	r3, [r1, #8]
 800140c:	e006      	b.n	800141c <HAL_GPIO_Init+0x284>
        }
        else
        {
          CLEAR_BIT(EXTI->RTSR, iocurrent);
 800140e:	4b16      	ldr	r3, [pc, #88]	; (8001468 <HAL_GPIO_Init+0x2d0>)
 8001410:	689a      	ldr	r2, [r3, #8]
 8001412:	69bb      	ldr	r3, [r7, #24]
 8001414:	43db      	mvns	r3, r3
 8001416:	4914      	ldr	r1, [pc, #80]	; (8001468 <HAL_GPIO_Init+0x2d0>)
 8001418:	4013      	ands	r3, r2
 800141a:	608b      	str	r3, [r1, #8]
        }

        /* Enable or disable the falling trigger */
        if ((GPIO_Init->Mode & FALLING_EDGE) == FALLING_EDGE)
 800141c:	683b      	ldr	r3, [r7, #0]
 800141e:	685b      	ldr	r3, [r3, #4]
 8001420:	f403 1300 	and.w	r3, r3, #2097152	; 0x200000
 8001424:	2b00      	cmp	r3, #0
 8001426:	d021      	beq.n	800146c <HAL_GPIO_Init+0x2d4>
        {
          SET_BIT(EXTI->FTSR, iocurrent);
 8001428:	4b0f      	ldr	r3, [pc, #60]	; (8001468 <HAL_GPIO_Init+0x2d0>)
 800142a:	68da      	ldr	r2, [r3, #12]
 800142c:	490e      	ldr	r1, [pc, #56]	; (8001468 <HAL_GPIO_Init+0x2d0>)
 800142e:	69bb      	ldr	r3, [r7, #24]
 8001430:	4313      	orrs	r3, r2
 8001432:	60cb      	str	r3, [r1, #12]
 8001434:	e021      	b.n	800147a <HAL_GPIO_Init+0x2e2>
 8001436:	bf00      	nop
 8001438:	10320000 	.word	0x10320000
 800143c:	10310000 	.word	0x10310000
 8001440:	10220000 	.word	0x10220000
 8001444:	10210000 	.word	0x10210000
 8001448:	10120000 	.word	0x10120000
 800144c:	10110000 	.word	0x10110000
 8001450:	40021000 	.word	0x40021000
 8001454:	40010000 	.word	0x40010000
 8001458:	40010800 	.word	0x40010800
 800145c:	40010c00 	.word	0x40010c00
 8001460:	40011000 	.word	0x40011000
 8001464:	40011400 	.word	0x40011400
 8001468:	40010400 	.word	0x40010400
        }
        else
        {
          CLEAR_BIT(EXTI->FTSR, iocurrent);
 800146c:	4b0b      	ldr	r3, [pc, #44]	; (800149c <HAL_GPIO_Init+0x304>)
 800146e:	68da      	ldr	r2, [r3, #12]
 8001470:	69bb      	ldr	r3, [r7, #24]
 8001472:	43db      	mvns	r3, r3
 8001474:	4909      	ldr	r1, [pc, #36]	; (800149c <HAL_GPIO_Init+0x304>)
 8001476:	4013      	ands	r3, r2
 8001478:	60cb      	str	r3, [r1, #12]
        }
      }
    }

	position++;
 800147a:	6a7b      	ldr	r3, [r7, #36]	; 0x24
 800147c:	3301      	adds	r3, #1
 800147e:	627b      	str	r3, [r7, #36]	; 0x24
  while (((GPIO_Init->Pin) >> position) != 0x00u)
 8001480:	683b      	ldr	r3, [r7, #0]
 8001482:	681a      	ldr	r2, [r3, #0]
 8001484:	6a7b      	ldr	r3, [r7, #36]	; 0x24
 8001486:	fa22 f303 	lsr.w	r3, r2, r3
 800148a:	2b00      	cmp	r3, #0
 800148c:	f47f ae8e 	bne.w	80011ac <HAL_GPIO_Init+0x14>
  }
}
 8001490:	bf00      	nop
 8001492:	bf00      	nop
 8001494:	372c      	adds	r7, #44	; 0x2c
 8001496:	46bd      	mov	sp, r7
 8001498:	bc80      	pop	{r7}
 800149a:	4770      	bx	lr
 800149c:	40010400 	.word	0x40010400

080014a0 <HAL_I2C_Init>:
  * @param  hi2c Pointer to a I2C_HandleTypeDef structure that contains
  *                the configuration information for the specified I2C.
  * @retval HAL status
  */
HAL_StatusTypeDef HAL_I2C_Init(I2C_HandleTypeDef *hi2c)
{
 80014a0:	b580      	push	{r7, lr}
 80014a2:	b084      	sub	sp, #16
 80014a4:	af00      	add	r7, sp, #0
 80014a6:	6078      	str	r0, [r7, #4]
  uint32_t freqrange;
  uint32_t pclk1;

  /* Check the I2C handle allocation */
  if (hi2c == NULL)
 80014a8:	687b      	ldr	r3, [r7, #4]
 80014aa:	2b00      	cmp	r3, #0
 80014ac:	d101      	bne.n	80014b2 <HAL_I2C_Init+0x12>
  {
    return HAL_ERROR;
 80014ae:	2301      	movs	r3, #1
 80014b0:	e12b      	b.n	800170a <HAL_I2C_Init+0x26a>
  assert_param(IS_I2C_DUAL_ADDRESS(hi2c->Init.DualAddressMode));
  assert_param(IS_I2C_OWN_ADDRESS2(hi2c->Init.OwnAddress2));
  assert_param(IS_I2C_GENERAL_CALL(hi2c->Init.GeneralCallMode));
  assert_param(IS_I2C_NO_STRETCH(hi2c->Init.NoStretchMode));

  if (hi2c->State == HAL_I2C_STATE_RESET)
 80014b2:	687b      	ldr	r3, [r7, #4]
 80014b4:	f893 303d 	ldrb.w	r3, [r3, #61]	; 0x3d
 80014b8:	b2db      	uxtb	r3, r3
 80014ba:	2b00      	cmp	r3, #0
 80014bc:	d106      	bne.n	80014cc <HAL_I2C_Init+0x2c>
  {
    /* Allocate lock resource and initialize it */
    hi2c->Lock = HAL_UNLOCKED;
 80014be:	687b      	ldr	r3, [r7, #4]
 80014c0:	2200      	movs	r2, #0
 80014c2:	f883 203c 	strb.w	r2, [r3, #60]	; 0x3c

    /* Init the low level hardware : GPIO, CLOCK, NVIC */
    hi2c->MspInitCallback(hi2c);
#else
    /* Init the low level hardware : GPIO, CLOCK, NVIC */
    HAL_I2C_MspInit(hi2c);
 80014c6:	6878      	ldr	r0, [r7, #4]
 80014c8:	f7ff fb6a 	bl	8000ba0 <HAL_I2C_MspInit>
#endif /* USE_HAL_I2C_REGISTER_CALLBACKS */
  }

  hi2c->State = HAL_I2C_STATE_BUSY;
 80014cc:	687b      	ldr	r3, [r7, #4]
 80014ce:	2224      	movs	r2, #36	; 0x24
 80014d0:	f883 203d 	strb.w	r2, [r3, #61]	; 0x3d

  /* Disable the selected I2C peripheral */
  __HAL_I2C_DISABLE(hi2c);
 80014d4:	687b      	ldr	r3, [r7, #4]
 80014d6:	681b      	ldr	r3, [r3, #0]
 80014d8:	681a      	ldr	r2, [r3, #0]
 80014da:	687b      	ldr	r3, [r7, #4]
 80014dc:	681b      	ldr	r3, [r3, #0]
 80014de:	f022 0201 	bic.w	r2, r2, #1
 80014e2:	601a      	str	r2, [r3, #0]

  /*Reset I2C*/
  hi2c->Instance->CR1 |= I2C_CR1_SWRST;
 80014e4:	687b      	ldr	r3, [r7, #4]
 80014e6:	681b      	ldr	r3, [r3, #0]
 80014e8:	681a      	ldr	r2, [r3, #0]
 80014ea:	687b      	ldr	r3, [r7, #4]
 80014ec:	681b      	ldr	r3, [r3, #0]
 80014ee:	f442 4200 	orr.w	r2, r2, #32768	; 0x8000
 80014f2:	601a      	str	r2, [r3, #0]
  hi2c->Instance->CR1 &= ~I2C_CR1_SWRST;
 80014f4:	687b      	ldr	r3, [r7, #4]
 80014f6:	681b      	ldr	r3, [r3, #0]
 80014f8:	681a      	ldr	r2, [r3, #0]
 80014fa:	687b      	ldr	r3, [r7, #4]
 80014fc:	681b      	ldr	r3, [r3, #0]
 80014fe:	f422 4200 	bic.w	r2, r2, #32768	; 0x8000
 8001502:	601a      	str	r2, [r3, #0]

  /* Get PCLK1 frequency */
  pclk1 = HAL_RCC_GetPCLK1Freq();
 8001504:	f001 fb6e 	bl	8002be4 <HAL_RCC_GetPCLK1Freq>
 8001508:	60f8      	str	r0, [r7, #12]

  /* Check the minimum allowed PCLK1 frequency */
  if (I2C_MIN_PCLK_FREQ(pclk1, hi2c->Init.ClockSpeed) == 1U)
 800150a:	687b      	ldr	r3, [r7, #4]
 800150c:	685b      	ldr	r3, [r3, #4]
 800150e:	4a81      	ldr	r2, [pc, #516]	; (8001714 <HAL_I2C_Init+0x274>)
 8001510:	4293      	cmp	r3, r2
 8001512:	d807      	bhi.n	8001524 <HAL_I2C_Init+0x84>
 8001514:	68fb      	ldr	r3, [r7, #12]
 8001516:	4a80      	ldr	r2, [pc, #512]	; (8001718 <HAL_I2C_Init+0x278>)
 8001518:	4293      	cmp	r3, r2
 800151a:	bf94      	ite	ls
 800151c:	2301      	movls	r3, #1
 800151e:	2300      	movhi	r3, #0
 8001520:	b2db      	uxtb	r3, r3
 8001522:	e006      	b.n	8001532 <HAL_I2C_Init+0x92>
 8001524:	68fb      	ldr	r3, [r7, #12]
 8001526:	4a7d      	ldr	r2, [pc, #500]	; (800171c <HAL_I2C_Init+0x27c>)
 8001528:	4293      	cmp	r3, r2
 800152a:	bf94      	ite	ls
 800152c:	2301      	movls	r3, #1
 800152e:	2300      	movhi	r3, #0
 8001530:	b2db      	uxtb	r3, r3
 8001532:	2b00      	cmp	r3, #0
 8001534:	d001      	beq.n	800153a <HAL_I2C_Init+0x9a>
  {
    return HAL_ERROR;
 8001536:	2301      	movs	r3, #1
 8001538:	e0e7      	b.n	800170a <HAL_I2C_Init+0x26a>
  }

  /* Calculate frequency range */
  freqrange = I2C_FREQRANGE(pclk1);
 800153a:	68fb      	ldr	r3, [r7, #12]
 800153c:	4a78      	ldr	r2, [pc, #480]	; (8001720 <HAL_I2C_Init+0x280>)
 800153e:	fba2 2303 	umull	r2, r3, r2, r3
 8001542:	0c9b      	lsrs	r3, r3, #18
 8001544:	60bb      	str	r3, [r7, #8]

  /*---------------------------- I2Cx CR2 Configuration ----------------------*/
  /* Configure I2Cx: Frequency range */
  MODIFY_REG(hi2c->Instance->CR2, I2C_CR2_FREQ, freqrange);
 8001546:	687b      	ldr	r3, [r7, #4]
 8001548:	681b      	ldr	r3, [r3, #0]
 800154a:	685b      	ldr	r3, [r3, #4]
 800154c:	f023 013f 	bic.w	r1, r3, #63	; 0x3f
 8001550:	687b      	ldr	r3, [r7, #4]
 8001552:	681b      	ldr	r3, [r3, #0]
 8001554:	68ba      	ldr	r2, [r7, #8]
 8001556:	430a      	orrs	r2, r1
 8001558:	605a      	str	r2, [r3, #4]

  /*---------------------------- I2Cx TRISE Configuration --------------------*/
  /* Configure I2Cx: Rise Time */
  MODIFY_REG(hi2c->Instance->TRISE, I2C_TRISE_TRISE, I2C_RISE_TIME(freqrange, hi2c->Init.ClockSpeed));
 800155a:	687b      	ldr	r3, [r7, #4]
 800155c:	681b      	ldr	r3, [r3, #0]
 800155e:	6a1b      	ldr	r3, [r3, #32]
 8001560:	f023 013f 	bic.w	r1, r3, #63	; 0x3f
 8001564:	687b      	ldr	r3, [r7, #4]
 8001566:	685b      	ldr	r3, [r3, #4]
 8001568:	4a6a      	ldr	r2, [pc, #424]	; (8001714 <HAL_I2C_Init+0x274>)
 800156a:	4293      	cmp	r3, r2
 800156c:	d802      	bhi.n	8001574 <HAL_I2C_Init+0xd4>
 800156e:	68bb      	ldr	r3, [r7, #8]
 8001570:	3301      	adds	r3, #1
 8001572:	e009      	b.n	8001588 <HAL_I2C_Init+0xe8>
 8001574:	68bb      	ldr	r3, [r7, #8]
 8001576:	f44f 7296 	mov.w	r2, #300	; 0x12c
 800157a:	fb02 f303 	mul.w	r3, r2, r3
 800157e:	4a69      	ldr	r2, [pc, #420]	; (8001724 <HAL_I2C_Init+0x284>)
 8001580:	fba2 2303 	umull	r2, r3, r2, r3
 8001584:	099b      	lsrs	r3, r3, #6
 8001586:	3301      	adds	r3, #1
 8001588:	687a      	ldr	r2, [r7, #4]
 800158a:	6812      	ldr	r2, [r2, #0]
 800158c:	430b      	orrs	r3, r1
 800158e:	6213      	str	r3, [r2, #32]

  /*---------------------------- I2Cx CCR Configuration ----------------------*/
  /* Configure I2Cx: Speed */
  MODIFY_REG(hi2c->Instance->CCR, (I2C_CCR_FS | I2C_CCR_DUTY | I2C_CCR_CCR), I2C_SPEED(pclk1, hi2c->Init.ClockSpeed, hi2c->Init.DutyCycle));
 8001590:	687b      	ldr	r3, [r7, #4]
 8001592:	681b      	ldr	r3, [r3, #0]
 8001594:	69db      	ldr	r3, [r3, #28]
 8001596:	f423 424f 	bic.w	r2, r3, #52992	; 0xcf00
 800159a:	f022 02ff 	bic.w	r2, r2, #255	; 0xff
 800159e:	687b      	ldr	r3, [r7, #4]
 80015a0:	685b      	ldr	r3, [r3, #4]
 80015a2:	495c      	ldr	r1, [pc, #368]	; (8001714 <HAL_I2C_Init+0x274>)
 80015a4:	428b      	cmp	r3, r1
 80015a6:	d819      	bhi.n	80015dc <HAL_I2C_Init+0x13c>
 80015a8:	68fb      	ldr	r3, [r7, #12]
 80015aa:	1e59      	subs	r1, r3, #1
 80015ac:	687b      	ldr	r3, [r7, #4]
 80015ae:	685b      	ldr	r3, [r3, #4]
 80015b0:	005b      	lsls	r3, r3, #1
 80015b2:	fbb1 f3f3 	udiv	r3, r1, r3
 80015b6:	1c59      	adds	r1, r3, #1
 80015b8:	f640 73fc 	movw	r3, #4092	; 0xffc
 80015bc:	400b      	ands	r3, r1
 80015be:	2b00      	cmp	r3, #0
 80015c0:	d00a      	beq.n	80015d8 <HAL_I2C_Init+0x138>
 80015c2:	68fb      	ldr	r3, [r7, #12]
 80015c4:	1e59      	subs	r1, r3, #1
 80015c6:	687b      	ldr	r3, [r7, #4]
 80015c8:	685b      	ldr	r3, [r3, #4]
 80015ca:	005b      	lsls	r3, r3, #1
 80015cc:	fbb1 f3f3 	udiv	r3, r1, r3
 80015d0:	3301      	adds	r3, #1
 80015d2:	f3c3 030b 	ubfx	r3, r3, #0, #12
 80015d6:	e051      	b.n	800167c <HAL_I2C_Init+0x1dc>
 80015d8:	2304      	movs	r3, #4
 80015da:	e04f      	b.n	800167c <HAL_I2C_Init+0x1dc>
 80015dc:	687b      	ldr	r3, [r7, #4]
 80015de:	689b      	ldr	r3, [r3, #8]
 80015e0:	2b00      	cmp	r3, #0
 80015e2:	d111      	bne.n	8001608 <HAL_I2C_Init+0x168>
 80015e4:	68fb      	ldr	r3, [r7, #12]
 80015e6:	1e58      	subs	r0, r3, #1
 80015e8:	687b      	ldr	r3, [r7, #4]
 80015ea:	6859      	ldr	r1, [r3, #4]
 80015ec:	460b      	mov	r3, r1
 80015ee:	005b      	lsls	r3, r3, #1
 80015f0:	440b      	add	r3, r1
 80015f2:	fbb0 f3f3 	udiv	r3, r0, r3
 80015f6:	3301      	adds	r3, #1
 80015f8:	f3c3 030b 	ubfx	r3, r3, #0, #12
 80015fc:	2b00      	cmp	r3, #0
 80015fe:	bf0c      	ite	eq
 8001600:	2301      	moveq	r3, #1
 8001602:	2300      	movne	r3, #0
 8001604:	b2db      	uxtb	r3, r3
 8001606:	e012      	b.n	800162e <HAL_I2C_Init+0x18e>
 8001608:	68fb      	ldr	r3, [r7, #12]
 800160a:	1e58      	subs	r0, r3, #1
 800160c:	687b      	ldr	r3, [r7, #4]
 800160e:	6859      	ldr	r1, [r3, #4]
 8001610:	460b      	mov	r3, r1
 8001612:	009b      	lsls	r3, r3, #2
 8001614:	440b      	add	r3, r1
 8001616:	0099      	lsls	r1, r3, #2
 8001618:	440b      	add	r3, r1
 800161a:	fbb0 f3f3 	udiv	r3, r0, r3
 800161e:	3301      	adds	r3, #1
 8001620:	f3c3 030b 	ubfx	r3, r3, #0, #12
 8001624:	2b00      	cmp	r3, #0
 8001626:	bf0c      	ite	eq
 8001628:	2301      	moveq	r3, #1
 800162a:	2300      	movne	r3, #0
 800162c:	b2db      	uxtb	r3, r3
 800162e:	2b00      	cmp	r3, #0
 8001630:	d001      	beq.n	8001636 <HAL_I2C_Init+0x196>
 8001632:	2301      	movs	r3, #1
 8001634:	e022      	b.n	800167c <HAL_I2C_Init+0x1dc>
 8001636:	687b      	ldr	r3, [r7, #4]
 8001638:	689b      	ldr	r3, [r3, #8]
 800163a:	2b00      	cmp	r3, #0
 800163c:	d10e      	bne.n	800165c <HAL_I2C_Init+0x1bc>
 800163e:	68fb      	ldr	r3, [r7, #12]
 8001640:	1e58      	subs	r0, r3, #1
 8001642:	687b      	ldr	r3, [r7, #4]
 8001644:	6859      	ldr	r1, [r3, #4]
 8001646:	460b      	mov	r3, r1
 8001648:	005b      	lsls	r3, r3, #1
 800164a:	440b      	add	r3, r1
 800164c:	fbb0 f3f3 	udiv	r3, r0, r3
 8001650:	3301      	adds	r3, #1
 8001652:	f3c3 030b 	ubfx	r3, r3, #0, #12
 8001656:	f443 4300 	orr.w	r3, r3, #32768	; 0x8000
 800165a:	e00f      	b.n	800167c <HAL_I2C_Init+0x1dc>
 800165c:	68fb      	ldr	r3, [r7, #12]
 800165e:	1e58      	subs	r0, r3, #1
 8001660:	687b      	ldr	r3, [r7, #4]
 8001662:	6859      	ldr	r1, [r3, #4]
 8001664:	460b      	mov	r3, r1
 8001666:	009b      	lsls	r3, r3, #2
 8001668:	440b      	add	r3, r1
 800166a:	0099      	lsls	r1, r3, #2
 800166c:	440b      	add	r3, r1
 800166e:	fbb0 f3f3 	udiv	r3, r0, r3
 8001672:	3301      	adds	r3, #1
 8001674:	f3c3 030b 	ubfx	r3, r3, #0, #12
 8001678:	f443 4340 	orr.w	r3, r3, #49152	; 0xc000
 800167c:	6879      	ldr	r1, [r7, #4]
 800167e:	6809      	ldr	r1, [r1, #0]
 8001680:	4313      	orrs	r3, r2
 8001682:	61cb      	str	r3, [r1, #28]

  /*---------------------------- I2Cx CR1 Configuration ----------------------*/
  /* Configure I2Cx: Generalcall and NoStretch mode */
  MODIFY_REG(hi2c->Instance->CR1, (I2C_CR1_ENGC | I2C_CR1_NOSTRETCH), (hi2c->Init.GeneralCallMode | hi2c->Init.NoStretchMode));
 8001684:	687b      	ldr	r3, [r7, #4]
 8001686:	681b      	ldr	r3, [r3, #0]
 8001688:	681b      	ldr	r3, [r3, #0]
 800168a:	f023 01c0 	bic.w	r1, r3, #192	; 0xc0
 800168e:	687b      	ldr	r3, [r7, #4]
 8001690:	69da      	ldr	r2, [r3, #28]
 8001692:	687b      	ldr	r3, [r7, #4]
 8001694:	6a1b      	ldr	r3, [r3, #32]
 8001696:	431a      	orrs	r2, r3
 8001698:	687b      	ldr	r3, [r7, #4]
 800169a:	681b      	ldr	r3, [r3, #0]
 800169c:	430a      	orrs	r2, r1
 800169e:	601a      	str	r2, [r3, #0]

  /*---------------------------- I2Cx OAR1 Configuration ---------------------*/
  /* Configure I2Cx: Own Address1 and addressing mode */
  MODIFY_REG(hi2c->Instance->OAR1, (I2C_OAR1_ADDMODE | I2C_OAR1_ADD8_9 | I2C_OAR1_ADD1_7 | I2C_OAR1_ADD0), (hi2c->Init.AddressingMode | hi2c->Init.OwnAddress1));
 80016a0:	687b      	ldr	r3, [r7, #4]
 80016a2:	681b      	ldr	r3, [r3, #0]
 80016a4:	689b      	ldr	r3, [r3, #8]
 80016a6:	f423 4303 	bic.w	r3, r3, #33536	; 0x8300
 80016aa:	f023 03ff 	bic.w	r3, r3, #255	; 0xff
 80016ae:	687a      	ldr	r2, [r7, #4]
 80016b0:	6911      	ldr	r1, [r2, #16]
 80016b2:	687a      	ldr	r2, [r7, #4]
 80016b4:	68d2      	ldr	r2, [r2, #12]
 80016b6:	4311      	orrs	r1, r2
 80016b8:	687a      	ldr	r2, [r7, #4]
 80016ba:	6812      	ldr	r2, [r2, #0]
 80016bc:	430b      	orrs	r3, r1
 80016be:	6093      	str	r3, [r2, #8]

  /*---------------------------- I2Cx OAR2 Configuration ---------------------*/
  /* Configure I2Cx: Dual mode and Own Address2 */
  MODIFY_REG(hi2c->Instance->OAR2, (I2C_OAR2_ENDUAL | I2C_OAR2_ADD2), (hi2c->Init.DualAddressMode | hi2c->Init.OwnAddress2));
 80016c0:	687b      	ldr	r3, [r7, #4]
 80016c2:	681b      	ldr	r3, [r3, #0]
 80016c4:	68db      	ldr	r3, [r3, #12]
 80016c6:	f023 01ff 	bic.w	r1, r3, #255	; 0xff
 80016ca:	687b      	ldr	r3, [r7, #4]
 80016cc:	695a      	ldr	r2, [r3, #20]
 80016ce:	687b      	ldr	r3, [r7, #4]
 80016d0:	699b      	ldr	r3, [r3, #24]
 80016d2:	431a      	orrs	r2, r3
 80016d4:	687b      	ldr	r3, [r7, #4]
 80016d6:	681b      	ldr	r3, [r3, #0]
 80016d8:	430a      	orrs	r2, r1
 80016da:	60da      	str	r2, [r3, #12]

  /* Enable the selected I2C peripheral */
  __HAL_I2C_ENABLE(hi2c);
 80016dc:	687b      	ldr	r3, [r7, #4]
 80016de:	681b      	ldr	r3, [r3, #0]
 80016e0:	681a      	ldr	r2, [r3, #0]
 80016e2:	687b      	ldr	r3, [r7, #4]
 80016e4:	681b      	ldr	r3, [r3, #0]
 80016e6:	f042 0201 	orr.w	r2, r2, #1
 80016ea:	601a      	str	r2, [r3, #0]

  hi2c->ErrorCode = HAL_I2C_ERROR_NONE;
 80016ec:	687b      	ldr	r3, [r7, #4]
 80016ee:	2200      	movs	r2, #0
 80016f0:	641a      	str	r2, [r3, #64]	; 0x40
  hi2c->State = HAL_I2C_STATE_READY;
 80016f2:	687b      	ldr	r3, [r7, #4]
 80016f4:	2220      	movs	r2, #32
 80016f6:	f883 203d 	strb.w	r2, [r3, #61]	; 0x3d
  hi2c->PreviousState = I2C_STATE_NONE;
 80016fa:	687b      	ldr	r3, [r7, #4]
 80016fc:	2200      	movs	r2, #0
 80016fe:	631a      	str	r2, [r3, #48]	; 0x30
  hi2c->Mode = HAL_I2C_MODE_NONE;
 8001700:	687b      	ldr	r3, [r7, #4]
 8001702:	2200      	movs	r2, #0
 8001704:	f883 203e 	strb.w	r2, [r3, #62]	; 0x3e

  return HAL_OK;
 8001708:	2300      	movs	r3, #0
}
 800170a:	4618      	mov	r0, r3
 800170c:	3710      	adds	r7, #16
 800170e:	46bd      	mov	sp, r7
 8001710:	bd80      	pop	{r7, pc}
 8001712:	bf00      	nop
 8001714:	000186a0 	.word	0x000186a0
 8001718:	001e847f 	.word	0x001e847f
 800171c:	003d08ff 	.word	0x003d08ff
 8001720:	431bde83 	.word	0x431bde83
 8001724:	10624dd3 	.word	0x10624dd3

08001728 <HAL_I2C_Master_Transmit>:
  * @param  Size Amount of data to be sent
  * @param  Timeout Timeout duration
  * @retval HAL status
  */
HAL_StatusTypeDef HAL_I2C_Master_Transmit(I2C_HandleTypeDef *hi2c, uint16_t DevAddress, uint8_t *pData, uint16_t Size, uint32_t Timeout)
{
 8001728:	b580      	push	{r7, lr}
 800172a:	b088      	sub	sp, #32
 800172c:	af02      	add	r7, sp, #8
 800172e:	60f8      	str	r0, [r7, #12]
 8001730:	607a      	str	r2, [r7, #4]
 8001732:	461a      	mov	r2, r3
 8001734:	460b      	mov	r3, r1
 8001736:	817b      	strh	r3, [r7, #10]
 8001738:	4613      	mov	r3, r2
 800173a:	813b      	strh	r3, [r7, #8]
  /* Init tickstart for timeout management*/
  uint32_t tickstart = HAL_GetTick();
 800173c:	f7ff fb7a 	bl	8000e34 <HAL_GetTick>
 8001740:	6178      	str	r0, [r7, #20]

  if (hi2c->State == HAL_I2C_STATE_READY)
 8001742:	68fb      	ldr	r3, [r7, #12]
 8001744:	f893 303d 	ldrb.w	r3, [r3, #61]	; 0x3d
 8001748:	b2db      	uxtb	r3, r3
 800174a:	2b20      	cmp	r3, #32
 800174c:	f040 80e0 	bne.w	8001910 <HAL_I2C_Master_Transmit+0x1e8>
  {
    /* Wait until BUSY flag is reset */
    if (I2C_WaitOnFlagUntilTimeout(hi2c, I2C_FLAG_BUSY, SET, I2C_TIMEOUT_BUSY_FLAG, tickstart) != HAL_OK)
 8001750:	697b      	ldr	r3, [r7, #20]
 8001752:	9300      	str	r3, [sp, #0]
 8001754:	2319      	movs	r3, #25
 8001756:	2201      	movs	r2, #1
 8001758:	4970      	ldr	r1, [pc, #448]	; (800191c <HAL_I2C_Master_Transmit+0x1f4>)
 800175a:	68f8      	ldr	r0, [r7, #12]
 800175c:	f000 fc92 	bl	8002084 <I2C_WaitOnFlagUntilTimeout>
 8001760:	4603      	mov	r3, r0
 8001762:	2b00      	cmp	r3, #0
 8001764:	d001      	beq.n	800176a <HAL_I2C_Master_Transmit+0x42>
    {
      return HAL_BUSY;
 8001766:	2302      	movs	r3, #2
 8001768:	e0d3      	b.n	8001912 <HAL_I2C_Master_Transmit+0x1ea>
    }

    /* Process Locked */
    __HAL_LOCK(hi2c);
 800176a:	68fb      	ldr	r3, [r7, #12]
 800176c:	f893 303c 	ldrb.w	r3, [r3, #60]	; 0x3c
 8001770:	2b01      	cmp	r3, #1
 8001772:	d101      	bne.n	8001778 <HAL_I2C_Master_Transmit+0x50>
 8001774:	2302      	movs	r3, #2
 8001776:	e0cc      	b.n	8001912 <HAL_I2C_Master_Transmit+0x1ea>
 8001778:	68fb      	ldr	r3, [r7, #12]
 800177a:	2201      	movs	r2, #1
 800177c:	f883 203c 	strb.w	r2, [r3, #60]	; 0x3c

    /* Check if the I2C is already enabled */
    if ((hi2c->Instance->CR1 & I2C_CR1_PE) != I2C_CR1_PE)
 8001780:	68fb      	ldr	r3, [r7, #12]
 8001782:	681b      	ldr	r3, [r3, #0]
 8001784:	681b      	ldr	r3, [r3, #0]
 8001786:	f003 0301 	and.w	r3, r3, #1
 800178a:	2b01      	cmp	r3, #1
 800178c:	d007      	beq.n	800179e <HAL_I2C_Master_Transmit+0x76>
    {
      /* Enable I2C peripheral */
      __HAL_I2C_ENABLE(hi2c);
 800178e:	68fb      	ldr	r3, [r7, #12]
 8001790:	681b      	ldr	r3, [r3, #0]
 8001792:	681a      	ldr	r2, [r3, #0]
 8001794:	68fb      	ldr	r3, [r7, #12]
 8001796:	681b      	ldr	r3, [r3, #0]
 8001798:	f042 0201 	orr.w	r2, r2, #1
 800179c:	601a      	str	r2, [r3, #0]
    }

    /* Disable Pos */
    CLEAR_BIT(hi2c->Instance->CR1, I2C_CR1_POS);
 800179e:	68fb      	ldr	r3, [r7, #12]
 80017a0:	681b      	ldr	r3, [r3, #0]
 80017a2:	681a      	ldr	r2, [r3, #0]
 80017a4:	68fb      	ldr	r3, [r7, #12]
 80017a6:	681b      	ldr	r3, [r3, #0]
 80017a8:	f422 6200 	bic.w	r2, r2, #2048	; 0x800
 80017ac:	601a      	str	r2, [r3, #0]

    hi2c->State       = HAL_I2C_STATE_BUSY_TX;
 80017ae:	68fb      	ldr	r3, [r7, #12]
 80017b0:	2221      	movs	r2, #33	; 0x21
 80017b2:	f883 203d 	strb.w	r2, [r3, #61]	; 0x3d
    hi2c->Mode        = HAL_I2C_MODE_MASTER;
 80017b6:	68fb      	ldr	r3, [r7, #12]
 80017b8:	2210      	movs	r2, #16
 80017ba:	f883 203e 	strb.w	r2, [r3, #62]	; 0x3e
    hi2c->ErrorCode   = HAL_I2C_ERROR_NONE;
 80017be:	68fb      	ldr	r3, [r7, #12]
 80017c0:	2200      	movs	r2, #0
 80017c2:	641a      	str	r2, [r3, #64]	; 0x40

    /* Prepare transfer parameters */
    hi2c->pBuffPtr    = pData;
 80017c4:	68fb      	ldr	r3, [r7, #12]
 80017c6:	687a      	ldr	r2, [r7, #4]
 80017c8:	625a      	str	r2, [r3, #36]	; 0x24
    hi2c->XferCount   = Size;
 80017ca:	68fb      	ldr	r3, [r7, #12]
 80017cc:	893a      	ldrh	r2, [r7, #8]
 80017ce:	855a      	strh	r2, [r3, #42]	; 0x2a
    hi2c->XferSize    = hi2c->XferCount;
 80017d0:	68fb      	ldr	r3, [r7, #12]
 80017d2:	8d5b      	ldrh	r3, [r3, #42]	; 0x2a
 80017d4:	b29a      	uxth	r2, r3
 80017d6:	68fb      	ldr	r3, [r7, #12]
 80017d8:	851a      	strh	r2, [r3, #40]	; 0x28
    hi2c->XferOptions = I2C_NO_OPTION_FRAME;
 80017da:	68fb      	ldr	r3, [r7, #12]
 80017dc:	4a50      	ldr	r2, [pc, #320]	; (8001920 <HAL_I2C_Master_Transmit+0x1f8>)
 80017de:	62da      	str	r2, [r3, #44]	; 0x2c

    /* Send Slave Address */
    if (I2C_MasterRequestWrite(hi2c, DevAddress, Timeout, tickstart) != HAL_OK)
 80017e0:	8979      	ldrh	r1, [r7, #10]
 80017e2:	697b      	ldr	r3, [r7, #20]
 80017e4:	6a3a      	ldr	r2, [r7, #32]
 80017e6:	68f8      	ldr	r0, [r7, #12]
 80017e8:	f000 fafc 	bl	8001de4 <I2C_MasterRequestWrite>
 80017ec:	4603      	mov	r3, r0
 80017ee:	2b00      	cmp	r3, #0
 80017f0:	d001      	beq.n	80017f6 <HAL_I2C_Master_Transmit+0xce>
    {
      return HAL_ERROR;
 80017f2:	2301      	movs	r3, #1
 80017f4:	e08d      	b.n	8001912 <HAL_I2C_Master_Transmit+0x1ea>
    }

    /* Clear ADDR flag */
    __HAL_I2C_CLEAR_ADDRFLAG(hi2c);
 80017f6:	2300      	movs	r3, #0
 80017f8:	613b      	str	r3, [r7, #16]
 80017fa:	68fb      	ldr	r3, [r7, #12]
 80017fc:	681b      	ldr	r3, [r3, #0]
 80017fe:	695b      	ldr	r3, [r3, #20]
 8001800:	613b      	str	r3, [r7, #16]
 8001802:	68fb      	ldr	r3, [r7, #12]
 8001804:	681b      	ldr	r3, [r3, #0]
 8001806:	699b      	ldr	r3, [r3, #24]
 8001808:	613b      	str	r3, [r7, #16]
 800180a:	693b      	ldr	r3, [r7, #16]

    while (hi2c->XferSize > 0U)
 800180c:	e066      	b.n	80018dc <HAL_I2C_Master_Transmit+0x1b4>
    {
      /* Wait until TXE flag is set */
      if (I2C_WaitOnTXEFlagUntilTimeout(hi2c, Timeout, tickstart) != HAL_OK)
 800180e:	697a      	ldr	r2, [r7, #20]
 8001810:	6a39      	ldr	r1, [r7, #32]
 8001812:	68f8      	ldr	r0, [r7, #12]
 8001814:	f000 fd0c 	bl	8002230 <I2C_WaitOnTXEFlagUntilTimeout>
 8001818:	4603      	mov	r3, r0
 800181a:	2b00      	cmp	r3, #0
 800181c:	d00d      	beq.n	800183a <HAL_I2C_Master_Transmit+0x112>
      {
        if (hi2c->ErrorCode == HAL_I2C_ERROR_AF)
 800181e:	68fb      	ldr	r3, [r7, #12]
 8001820:	6c1b      	ldr	r3, [r3, #64]	; 0x40
 8001822:	2b04      	cmp	r3, #4
 8001824:	d107      	bne.n	8001836 <HAL_I2C_Master_Transmit+0x10e>
        {
          /* Generate Stop */
          SET_BIT(hi2c->Instance->CR1, I2C_CR1_STOP);
 8001826:	68fb      	ldr	r3, [r7, #12]
 8001828:	681b      	ldr	r3, [r3, #0]
 800182a:	681a      	ldr	r2, [r3, #0]
 800182c:	68fb      	ldr	r3, [r7, #12]
 800182e:	681b      	ldr	r3, [r3, #0]
 8001830:	f442 7200 	orr.w	r2, r2, #512	; 0x200
 8001834:	601a      	str	r2, [r3, #0]
        }
        return HAL_ERROR;
 8001836:	2301      	movs	r3, #1
 8001838:	e06b      	b.n	8001912 <HAL_I2C_Master_Transmit+0x1ea>
      }

      /* Write data to DR */
      hi2c->Instance->DR = *hi2c->pBuffPtr;
 800183a:	68fb      	ldr	r3, [r7, #12]
 800183c:	6a5b      	ldr	r3, [r3, #36]	; 0x24
 800183e:	781a      	ldrb	r2, [r3, #0]
 8001840:	68fb      	ldr	r3, [r7, #12]
 8001842:	681b      	ldr	r3, [r3, #0]
 8001844:	611a      	str	r2, [r3, #16]

      /* Increment Buffer pointer */
      hi2c->pBuffPtr++;
 8001846:	68fb      	ldr	r3, [r7, #12]
 8001848:	6a5b      	ldr	r3, [r3, #36]	; 0x24
 800184a:	1c5a      	adds	r2, r3, #1
 800184c:	68fb      	ldr	r3, [r7, #12]
 800184e:	625a      	str	r2, [r3, #36]	; 0x24

      /* Update counter */
      hi2c->XferCount--;
 8001850:	68fb      	ldr	r3, [r7, #12]
 8001852:	8d5b      	ldrh	r3, [r3, #42]	; 0x2a
 8001854:	b29b      	uxth	r3, r3
 8001856:	3b01      	subs	r3, #1
 8001858:	b29a      	uxth	r2, r3
 800185a:	68fb      	ldr	r3, [r7, #12]
 800185c:	855a      	strh	r2, [r3, #42]	; 0x2a
      hi2c->XferSize--;
 800185e:	68fb      	ldr	r3, [r7, #12]
 8001860:	8d1b      	ldrh	r3, [r3, #40]	; 0x28
 8001862:	3b01      	subs	r3, #1
 8001864:	b29a      	uxth	r2, r3
 8001866:	68fb      	ldr	r3, [r7, #12]
 8001868:	851a      	strh	r2, [r3, #40]	; 0x28

      if ((__HAL_I2C_GET_FLAG(hi2c, I2C_FLAG_BTF) == SET) && (hi2c->XferSize != 0U))
 800186a:	68fb      	ldr	r3, [r7, #12]
 800186c:	681b      	ldr	r3, [r3, #0]
 800186e:	695b      	ldr	r3, [r3, #20]
 8001870:	f003 0304 	and.w	r3, r3, #4
 8001874:	2b04      	cmp	r3, #4
 8001876:	d11b      	bne.n	80018b0 <HAL_I2C_Master_Transmit+0x188>
 8001878:	68fb      	ldr	r3, [r7, #12]
 800187a:	8d1b      	ldrh	r3, [r3, #40]	; 0x28
 800187c:	2b00      	cmp	r3, #0
 800187e:	d017      	beq.n	80018b0 <HAL_I2C_Master_Transmit+0x188>
      {
        /* Write data to DR */
        hi2c->Instance->DR = *hi2c->pBuffPtr;
 8001880:	68fb      	ldr	r3, [r7, #12]
 8001882:	6a5b      	ldr	r3, [r3, #36]	; 0x24
 8001884:	781a      	ldrb	r2, [r3, #0]
 8001886:	68fb      	ldr	r3, [r7, #12]
 8001888:	681b      	ldr	r3, [r3, #0]
 800188a:	611a      	str	r2, [r3, #16]

        /* Increment Buffer pointer */
        hi2c->pBuffPtr++;
 800188c:	68fb      	ldr	r3, [r7, #12]
 800188e:	6a5b      	ldr	r3, [r3, #36]	; 0x24
 8001890:	1c5a      	adds	r2, r3, #1
 8001892:	68fb      	ldr	r3, [r7, #12]
 8001894:	625a      	str	r2, [r3, #36]	; 0x24

        /* Update counter */
        hi2c->XferCount--;
 8001896:	68fb      	ldr	r3, [r7, #12]
 8001898:	8d5b      	ldrh	r3, [r3, #42]	; 0x2a
 800189a:	b29b      	uxth	r3, r3
 800189c:	3b01      	subs	r3, #1
 800189e:	b29a      	uxth	r2, r3
 80018a0:	68fb      	ldr	r3, [r7, #12]
 80018a2:	855a      	strh	r2, [r3, #42]	; 0x2a
        hi2c->XferSize--;
 80018a4:	68fb      	ldr	r3, [r7, #12]
 80018a6:	8d1b      	ldrh	r3, [r3, #40]	; 0x28
 80018a8:	3b01      	subs	r3, #1
 80018aa:	b29a      	uxth	r2, r3
 80018ac:	68fb      	ldr	r3, [r7, #12]
 80018ae:	851a      	strh	r2, [r3, #40]	; 0x28
      }

      /* Wait until BTF flag is set */
      if (I2C_WaitOnBTFFlagUntilTimeout(hi2c, Timeout, tickstart) != HAL_OK)
 80018b0:	697a      	ldr	r2, [r7, #20]
 80018b2:	6a39      	ldr	r1, [r7, #32]
 80018b4:	68f8      	ldr	r0, [r7, #12]
 80018b6:	f000 fcfc 	bl	80022b2 <I2C_WaitOnBTFFlagUntilTimeout>
 80018ba:	4603      	mov	r3, r0
 80018bc:	2b00      	cmp	r3, #0
 80018be:	d00d      	beq.n	80018dc <HAL_I2C_Master_Transmit+0x1b4>
      {
        if (hi2c->ErrorCode == HAL_I2C_ERROR_AF)
 80018c0:	68fb      	ldr	r3, [r7, #12]
 80018c2:	6c1b      	ldr	r3, [r3, #64]	; 0x40
 80018c4:	2b04      	cmp	r3, #4
 80018c6:	d107      	bne.n	80018d8 <HAL_I2C_Master_Transmit+0x1b0>
        {
          /* Generate Stop */
          SET_BIT(hi2c->Instance->CR1, I2C_CR1_STOP);
 80018c8:	68fb      	ldr	r3, [r7, #12]
 80018ca:	681b      	ldr	r3, [r3, #0]
 80018cc:	681a      	ldr	r2, [r3, #0]
 80018ce:	68fb      	ldr	r3, [r7, #12]
 80018d0:	681b      	ldr	r3, [r3, #0]
 80018d2:	f442 7200 	orr.w	r2, r2, #512	; 0x200
 80018d6:	601a      	str	r2, [r3, #0]
        }
        return HAL_ERROR;
 80018d8:	2301      	movs	r3, #1
 80018da:	e01a      	b.n	8001912 <HAL_I2C_Master_Transmit+0x1ea>
    while (hi2c->XferSize > 0U)
 80018dc:	68fb      	ldr	r3, [r7, #12]
 80018de:	8d1b      	ldrh	r3, [r3, #40]	; 0x28
 80018e0:	2b00      	cmp	r3, #0
 80018e2:	d194      	bne.n	800180e <HAL_I2C_Master_Transmit+0xe6>
      }
    }

    /* Generate Stop */
    SET_BIT(hi2c->Instance->CR1, I2C_CR1_STOP);
 80018e4:	68fb      	ldr	r3, [r7, #12]
 80018e6:	681b      	ldr	r3, [r3, #0]
 80018e8:	681a      	ldr	r2, [r3, #0]
 80018ea:	68fb      	ldr	r3, [r7, #12]
 80018ec:	681b      	ldr	r3, [r3, #0]
 80018ee:	f442 7200 	orr.w	r2, r2, #512	; 0x200
 80018f2:	601a      	str	r2, [r3, #0]

    hi2c->State = HAL_I2C_STATE_READY;
 80018f4:	68fb      	ldr	r3, [r7, #12]
 80018f6:	2220      	movs	r2, #32
 80018f8:	f883 203d 	strb.w	r2, [r3, #61]	; 0x3d
    hi2c->Mode = HAL_I2C_MODE_NONE;
 80018fc:	68fb      	ldr	r3, [r7, #12]
 80018fe:	2200      	movs	r2, #0
 8001900:	f883 203e 	strb.w	r2, [r3, #62]	; 0x3e

    /* Process Unlocked */
    __HAL_UNLOCK(hi2c);
 8001904:	68fb      	ldr	r3, [r7, #12]
 8001906:	2200      	movs	r2, #0
 8001908:	f883 203c 	strb.w	r2, [r3, #60]	; 0x3c

    return HAL_OK;
 800190c:	2300      	movs	r3, #0
 800190e:	e000      	b.n	8001912 <HAL_I2C_Master_Transmit+0x1ea>
  }
  else
  {
    return HAL_BUSY;
 8001910:	2302      	movs	r3, #2
  }
}
 8001912:	4618      	mov	r0, r3
 8001914:	3718      	adds	r7, #24
 8001916:	46bd      	mov	sp, r7
 8001918:	bd80      	pop	{r7, pc}
 800191a:	bf00      	nop
 800191c:	00100002 	.word	0x00100002
 8001920:	ffff0000 	.word	0xffff0000

08001924 <HAL_I2C_Master_Receive>:
  * @param  Size Amount of data to be sent
  * @param  Timeout Timeout duration
  * @retval HAL status
  */
HAL_StatusTypeDef HAL_I2C_Master_Receive(I2C_HandleTypeDef *hi2c, uint16_t DevAddress, uint8_t *pData, uint16_t Size, uint32_t Timeout)
{
 8001924:	b580      	push	{r7, lr}
 8001926:	b08c      	sub	sp, #48	; 0x30
 8001928:	af02      	add	r7, sp, #8
 800192a:	60f8      	str	r0, [r7, #12]
 800192c:	607a      	str	r2, [r7, #4]
 800192e:	461a      	mov	r2, r3
 8001930:	460b      	mov	r3, r1
 8001932:	817b      	strh	r3, [r7, #10]
 8001934:	4613      	mov	r3, r2
 8001936:	813b      	strh	r3, [r7, #8]
  __IO uint32_t count = 0U;
 8001938:	2300      	movs	r3, #0
 800193a:	623b      	str	r3, [r7, #32]

  /* Init tickstart for timeout management*/
  uint32_t tickstart = HAL_GetTick();
 800193c:	f7ff fa7a 	bl	8000e34 <HAL_GetTick>
 8001940:	6278      	str	r0, [r7, #36]	; 0x24

  if (hi2c->State == HAL_I2C_STATE_READY)
 8001942:	68fb      	ldr	r3, [r7, #12]
 8001944:	f893 303d 	ldrb.w	r3, [r3, #61]	; 0x3d
 8001948:	b2db      	uxtb	r3, r3
 800194a:	2b20      	cmp	r3, #32
 800194c:	f040 823f 	bne.w	8001dce <HAL_I2C_Master_Receive+0x4aa>
  {
    /* Wait until BUSY flag is reset */
    if (I2C_WaitOnFlagUntilTimeout(hi2c, I2C_FLAG_BUSY, SET, I2C_TIMEOUT_BUSY_FLAG, tickstart) != HAL_OK)
 8001950:	6a7b      	ldr	r3, [r7, #36]	; 0x24
 8001952:	9300      	str	r3, [sp, #0]
 8001954:	2319      	movs	r3, #25
 8001956:	2201      	movs	r2, #1
 8001958:	497f      	ldr	r1, [pc, #508]	; (8001b58 <HAL_I2C_Master_Receive+0x234>)
 800195a:	68f8      	ldr	r0, [r7, #12]
 800195c:	f000 fb92 	bl	8002084 <I2C_WaitOnFlagUntilTimeout>
 8001960:	4603      	mov	r3, r0
 8001962:	2b00      	cmp	r3, #0
 8001964:	d001      	beq.n	800196a <HAL_I2C_Master_Receive+0x46>
    {
      return HAL_BUSY;
 8001966:	2302      	movs	r3, #2
 8001968:	e232      	b.n	8001dd0 <HAL_I2C_Master_Receive+0x4ac>
    }

    /* Process Locked */
    __HAL_LOCK(hi2c);
 800196a:	68fb      	ldr	r3, [r7, #12]
 800196c:	f893 303c 	ldrb.w	r3, [r3, #60]	; 0x3c
 8001970:	2b01      	cmp	r3, #1
 8001972:	d101      	bne.n	8001978 <HAL_I2C_Master_Receive+0x54>
 8001974:	2302      	movs	r3, #2
 8001976:	e22b      	b.n	8001dd0 <HAL_I2C_Master_Receive+0x4ac>
 8001978:	68fb      	ldr	r3, [r7, #12]
 800197a:	2201      	movs	r2, #1
 800197c:	f883 203c 	strb.w	r2, [r3, #60]	; 0x3c

    /* Check if the I2C is already enabled */
    if ((hi2c->Instance->CR1 & I2C_CR1_PE) != I2C_CR1_PE)
 8001980:	68fb      	ldr	r3, [r7, #12]
 8001982:	681b      	ldr	r3, [r3, #0]
 8001984:	681b      	ldr	r3, [r3, #0]
 8001986:	f003 0301 	and.w	r3, r3, #1
 800198a:	2b01      	cmp	r3, #1
 800198c:	d007      	beq.n	800199e <HAL_I2C_Master_Receive+0x7a>
    {
      /* Enable I2C peripheral */
      __HAL_I2C_ENABLE(hi2c);
 800198e:	68fb      	ldr	r3, [r7, #12]
 8001990:	681b      	ldr	r3, [r3, #0]
 8001992:	681a      	ldr	r2, [r3, #0]
 8001994:	68fb      	ldr	r3, [r7, #12]
 8001996:	681b      	ldr	r3, [r3, #0]
 8001998:	f042 0201 	orr.w	r2, r2, #1
 800199c:	601a      	str	r2, [r3, #0]
    }

    /* Disable Pos */
    CLEAR_BIT(hi2c->Instance->CR1, I2C_CR1_POS);
 800199e:	68fb      	ldr	r3, [r7, #12]
 80019a0:	681b      	ldr	r3, [r3, #0]
 80019a2:	681a      	ldr	r2, [r3, #0]
 80019a4:	68fb      	ldr	r3, [r7, #12]
 80019a6:	681b      	ldr	r3, [r3, #0]
 80019a8:	f422 6200 	bic.w	r2, r2, #2048	; 0x800
 80019ac:	601a      	str	r2, [r3, #0]

    hi2c->State       = HAL_I2C_STATE_BUSY_RX;
 80019ae:	68fb      	ldr	r3, [r7, #12]
 80019b0:	2222      	movs	r2, #34	; 0x22
 80019b2:	f883 203d 	strb.w	r2, [r3, #61]	; 0x3d
    hi2c->Mode        = HAL_I2C_MODE_MASTER;
 80019b6:	68fb      	ldr	r3, [r7, #12]
 80019b8:	2210      	movs	r2, #16
 80019ba:	f883 203e 	strb.w	r2, [r3, #62]	; 0x3e
    hi2c->ErrorCode   = HAL_I2C_ERROR_NONE;
 80019be:	68fb      	ldr	r3, [r7, #12]
 80019c0:	2200      	movs	r2, #0
 80019c2:	641a      	str	r2, [r3, #64]	; 0x40

    /* Prepare transfer parameters */
    hi2c->pBuffPtr    = pData;
 80019c4:	68fb      	ldr	r3, [r7, #12]
 80019c6:	687a      	ldr	r2, [r7, #4]
 80019c8:	625a      	str	r2, [r3, #36]	; 0x24
    hi2c->XferCount   = Size;
 80019ca:	68fb      	ldr	r3, [r7, #12]
 80019cc:	893a      	ldrh	r2, [r7, #8]
 80019ce:	855a      	strh	r2, [r3, #42]	; 0x2a
    hi2c->XferSize    = hi2c->XferCount;
 80019d0:	68fb      	ldr	r3, [r7, #12]
 80019d2:	8d5b      	ldrh	r3, [r3, #42]	; 0x2a
 80019d4:	b29a      	uxth	r2, r3
 80019d6:	68fb      	ldr	r3, [r7, #12]
 80019d8:	851a      	strh	r2, [r3, #40]	; 0x28
    hi2c->XferOptions = I2C_NO_OPTION_FRAME;
 80019da:	68fb      	ldr	r3, [r7, #12]
 80019dc:	4a5f      	ldr	r2, [pc, #380]	; (8001b5c <HAL_I2C_Master_Receive+0x238>)
 80019de:	62da      	str	r2, [r3, #44]	; 0x2c

    /* Send Slave Address */
    if (I2C_MasterRequestRead(hi2c, DevAddress, Timeout, tickstart) != HAL_OK)
 80019e0:	8979      	ldrh	r1, [r7, #10]
 80019e2:	6a7b      	ldr	r3, [r7, #36]	; 0x24
 80019e4:	6b3a      	ldr	r2, [r7, #48]	; 0x30
 80019e6:	68f8      	ldr	r0, [r7, #12]
 80019e8:	f000 fa7e 	bl	8001ee8 <I2C_MasterRequestRead>
 80019ec:	4603      	mov	r3, r0
 80019ee:	2b00      	cmp	r3, #0
 80019f0:	d001      	beq.n	80019f6 <HAL_I2C_Master_Receive+0xd2>
    {
      return HAL_ERROR;
 80019f2:	2301      	movs	r3, #1
 80019f4:	e1ec      	b.n	8001dd0 <HAL_I2C_Master_Receive+0x4ac>
    }

    if (hi2c->XferSize == 0U)
 80019f6:	68fb      	ldr	r3, [r7, #12]
 80019f8:	8d1b      	ldrh	r3, [r3, #40]	; 0x28
 80019fa:	2b00      	cmp	r3, #0
 80019fc:	d113      	bne.n	8001a26 <HAL_I2C_Master_Receive+0x102>
    {
      /* Clear ADDR flag */
      __HAL_I2C_CLEAR_ADDRFLAG(hi2c);
 80019fe:	2300      	movs	r3, #0
 8001a00:	61fb      	str	r3, [r7, #28]
 8001a02:	68fb      	ldr	r3, [r7, #12]
 8001a04:	681b      	ldr	r3, [r3, #0]
 8001a06:	695b      	ldr	r3, [r3, #20]
 8001a08:	61fb      	str	r3, [r7, #28]
 8001a0a:	68fb      	ldr	r3, [r7, #12]
 8001a0c:	681b      	ldr	r3, [r3, #0]
 8001a0e:	699b      	ldr	r3, [r3, #24]
 8001a10:	61fb      	str	r3, [r7, #28]
 8001a12:	69fb      	ldr	r3, [r7, #28]

      /* Generate Stop */
      SET_BIT(hi2c->Instance->CR1, I2C_CR1_STOP);
 8001a14:	68fb      	ldr	r3, [r7, #12]
 8001a16:	681b      	ldr	r3, [r3, #0]
 8001a18:	681a      	ldr	r2, [r3, #0]
 8001a1a:	68fb      	ldr	r3, [r7, #12]
 8001a1c:	681b      	ldr	r3, [r3, #0]
 8001a1e:	f442 7200 	orr.w	r2, r2, #512	; 0x200
 8001a22:	601a      	str	r2, [r3, #0]
 8001a24:	e1c0      	b.n	8001da8 <HAL_I2C_Master_Receive+0x484>
    }
    else if (hi2c->XferSize == 1U)
 8001a26:	68fb      	ldr	r3, [r7, #12]
 8001a28:	8d1b      	ldrh	r3, [r3, #40]	; 0x28
 8001a2a:	2b01      	cmp	r3, #1
 8001a2c:	d11e      	bne.n	8001a6c <HAL_I2C_Master_Receive+0x148>
    {
      /* Disable Acknowledge */
      CLEAR_BIT(hi2c->Instance->CR1, I2C_CR1_ACK);
 8001a2e:	68fb      	ldr	r3, [r7, #12]
 8001a30:	681b      	ldr	r3, [r3, #0]
 8001a32:	681a      	ldr	r2, [r3, #0]
 8001a34:	68fb      	ldr	r3, [r7, #12]
 8001a36:	681b      	ldr	r3, [r3, #0]
 8001a38:	f422 6280 	bic.w	r2, r2, #1024	; 0x400
 8001a3c:	601a      	str	r2, [r3, #0]
  __ASM volatile ("cpsid i" : : : "memory");
 8001a3e:	b672      	cpsid	i
}
 8001a40:	bf00      	nop
      /* Disable all active IRQs around ADDR clearing and STOP programming because the EV6_3
      software sequence must complete before the current byte end of transfer */
      __disable_irq();

      /* Clear ADDR flag */
      __HAL_I2C_CLEAR_ADDRFLAG(hi2c);
 8001a42:	2300      	movs	r3, #0
 8001a44:	61bb      	str	r3, [r7, #24]
 8001a46:	68fb      	ldr	r3, [r7, #12]
 8001a48:	681b      	ldr	r3, [r3, #0]
 8001a4a:	695b      	ldr	r3, [r3, #20]
 8001a4c:	61bb      	str	r3, [r7, #24]
 8001a4e:	68fb      	ldr	r3, [r7, #12]
 8001a50:	681b      	ldr	r3, [r3, #0]
 8001a52:	699b      	ldr	r3, [r3, #24]
 8001a54:	61bb      	str	r3, [r7, #24]
 8001a56:	69bb      	ldr	r3, [r7, #24]

      /* Generate Stop */
      SET_BIT(hi2c->Instance->CR1, I2C_CR1_STOP);
 8001a58:	68fb      	ldr	r3, [r7, #12]
 8001a5a:	681b      	ldr	r3, [r3, #0]
 8001a5c:	681a      	ldr	r2, [r3, #0]
 8001a5e:	68fb      	ldr	r3, [r7, #12]
 8001a60:	681b      	ldr	r3, [r3, #0]
 8001a62:	f442 7200 	orr.w	r2, r2, #512	; 0x200
 8001a66:	601a      	str	r2, [r3, #0]
  __ASM volatile ("cpsie i" : : : "memory");
 8001a68:	b662      	cpsie	i
}
 8001a6a:	e035      	b.n	8001ad8 <HAL_I2C_Master_Receive+0x1b4>

      /* Re-enable IRQs */
      __enable_irq();
    }
    else if (hi2c->XferSize == 2U)
 8001a6c:	68fb      	ldr	r3, [r7, #12]
 8001a6e:	8d1b      	ldrh	r3, [r3, #40]	; 0x28
 8001a70:	2b02      	cmp	r3, #2
 8001a72:	d11e      	bne.n	8001ab2 <HAL_I2C_Master_Receive+0x18e>
    {
      /* Enable Pos */
      SET_BIT(hi2c->Instance->CR1, I2C_CR1_POS);
 8001a74:	68fb      	ldr	r3, [r7, #12]
 8001a76:	681b      	ldr	r3, [r3, #0]
 8001a78:	681a      	ldr	r2, [r3, #0]
 8001a7a:	68fb      	ldr	r3, [r7, #12]
 8001a7c:	681b      	ldr	r3, [r3, #0]
 8001a7e:	f442 6200 	orr.w	r2, r2, #2048	; 0x800
 8001a82:	601a      	str	r2, [r3, #0]
  __ASM volatile ("cpsid i" : : : "memory");
 8001a84:	b672      	cpsid	i
}
 8001a86:	bf00      	nop
      /* Disable all active IRQs around ADDR clearing and STOP programming because the EV6_3
      software sequence must complete before the current byte end of transfer */
      __disable_irq();

      /* Clear ADDR flag */
      __HAL_I2C_CLEAR_ADDRFLAG(hi2c);
 8001a88:	2300      	movs	r3, #0
 8001a8a:	617b      	str	r3, [r7, #20]
 8001a8c:	68fb      	ldr	r3, [r7, #12]
 8001a8e:	681b      	ldr	r3, [r3, #0]
 8001a90:	695b      	ldr	r3, [r3, #20]
 8001a92:	617b      	str	r3, [r7, #20]
 8001a94:	68fb      	ldr	r3, [r7, #12]
 8001a96:	681b      	ldr	r3, [r3, #0]
 8001a98:	699b      	ldr	r3, [r3, #24]
 8001a9a:	617b      	str	r3, [r7, #20]
 8001a9c:	697b      	ldr	r3, [r7, #20]

      /* Disable Acknowledge */
      CLEAR_BIT(hi2c->Instance->CR1, I2C_CR1_ACK);
 8001a9e:	68fb      	ldr	r3, [r7, #12]
 8001aa0:	681b      	ldr	r3, [r3, #0]
 8001aa2:	681a      	ldr	r2, [r3, #0]
 8001aa4:	68fb      	ldr	r3, [r7, #12]
 8001aa6:	681b      	ldr	r3, [r3, #0]
 8001aa8:	f422 6280 	bic.w	r2, r2, #1024	; 0x400
 8001aac:	601a      	str	r2, [r3, #0]
  __ASM volatile ("cpsie i" : : : "memory");
 8001aae:	b662      	cpsie	i
}
 8001ab0:	e012      	b.n	8001ad8 <HAL_I2C_Master_Receive+0x1b4>
      __enable_irq();
    }
    else
    {
      /* Enable Acknowledge */
      SET_BIT(hi2c->Instance->CR1, I2C_CR1_ACK);
 8001ab2:	68fb      	ldr	r3, [r7, #12]
 8001ab4:	681b      	ldr	r3, [r3, #0]
 8001ab6:	681a      	ldr	r2, [r3, #0]
 8001ab8:	68fb      	ldr	r3, [r7, #12]
 8001aba:	681b      	ldr	r3, [r3, #0]
 8001abc:	f442 6280 	orr.w	r2, r2, #1024	; 0x400
 8001ac0:	601a      	str	r2, [r3, #0]

      /* Clear ADDR flag */
      __HAL_I2C_CLEAR_ADDRFLAG(hi2c);
 8001ac2:	2300      	movs	r3, #0
 8001ac4:	613b      	str	r3, [r7, #16]
 8001ac6:	68fb      	ldr	r3, [r7, #12]
 8001ac8:	681b      	ldr	r3, [r3, #0]
 8001aca:	695b      	ldr	r3, [r3, #20]
 8001acc:	613b      	str	r3, [r7, #16]
 8001ace:	68fb      	ldr	r3, [r7, #12]
 8001ad0:	681b      	ldr	r3, [r3, #0]
 8001ad2:	699b      	ldr	r3, [r3, #24]
 8001ad4:	613b      	str	r3, [r7, #16]
 8001ad6:	693b      	ldr	r3, [r7, #16]
    }

    while (hi2c->XferSize > 0U)
 8001ad8:	e166      	b.n	8001da8 <HAL_I2C_Master_Receive+0x484>
    {
      if (hi2c->XferSize <= 3U)
 8001ada:	68fb      	ldr	r3, [r7, #12]
 8001adc:	8d1b      	ldrh	r3, [r3, #40]	; 0x28
 8001ade:	2b03      	cmp	r3, #3
 8001ae0:	f200 811f 	bhi.w	8001d22 <HAL_I2C_Master_Receive+0x3fe>
      {
        /* One byte */
        if (hi2c->XferSize == 1U)
 8001ae4:	68fb      	ldr	r3, [r7, #12]
 8001ae6:	8d1b      	ldrh	r3, [r3, #40]	; 0x28
 8001ae8:	2b01      	cmp	r3, #1
 8001aea:	d123      	bne.n	8001b34 <HAL_I2C_Master_Receive+0x210>
        {
          /* Wait until RXNE flag is set */
          if (I2C_WaitOnRXNEFlagUntilTimeout(hi2c, Timeout, tickstart) != HAL_OK)
 8001aec:	6a7a      	ldr	r2, [r7, #36]	; 0x24
 8001aee:	6b39      	ldr	r1, [r7, #48]	; 0x30
 8001af0:	68f8      	ldr	r0, [r7, #12]
 8001af2:	f000 fc1f 	bl	8002334 <I2C_WaitOnRXNEFlagUntilTimeout>
 8001af6:	4603      	mov	r3, r0
 8001af8:	2b00      	cmp	r3, #0
 8001afa:	d001      	beq.n	8001b00 <HAL_I2C_Master_Receive+0x1dc>
          {
            return HAL_ERROR;
 8001afc:	2301      	movs	r3, #1
 8001afe:	e167      	b.n	8001dd0 <HAL_I2C_Master_Receive+0x4ac>
          }

          /* Read data from DR */
          *hi2c->pBuffPtr = (uint8_t)hi2c->Instance->DR;
 8001b00:	68fb      	ldr	r3, [r7, #12]
 8001b02:	681b      	ldr	r3, [r3, #0]
 8001b04:	691a      	ldr	r2, [r3, #16]
 8001b06:	68fb      	ldr	r3, [r7, #12]
 8001b08:	6a5b      	ldr	r3, [r3, #36]	; 0x24
 8001b0a:	b2d2      	uxtb	r2, r2
 8001b0c:	701a      	strb	r2, [r3, #0]

          /* Increment Buffer pointer */
          hi2c->pBuffPtr++;
 8001b0e:	68fb      	ldr	r3, [r7, #12]
 8001b10:	6a5b      	ldr	r3, [r3, #36]	; 0x24
 8001b12:	1c5a      	adds	r2, r3, #1
 8001b14:	68fb      	ldr	r3, [r7, #12]
 8001b16:	625a      	str	r2, [r3, #36]	; 0x24

          /* Update counter */
          hi2c->XferSize--;
 8001b18:	68fb      	ldr	r3, [r7, #12]
 8001b1a:	8d1b      	ldrh	r3, [r3, #40]	; 0x28
 8001b1c:	3b01      	subs	r3, #1
 8001b1e:	b29a      	uxth	r2, r3
 8001b20:	68fb      	ldr	r3, [r7, #12]
 8001b22:	851a      	strh	r2, [r3, #40]	; 0x28
          hi2c->XferCount--;
 8001b24:	68fb      	ldr	r3, [r7, #12]
 8001b26:	8d5b      	ldrh	r3, [r3, #42]	; 0x2a
 8001b28:	b29b      	uxth	r3, r3
 8001b2a:	3b01      	subs	r3, #1
 8001b2c:	b29a      	uxth	r2, r3
 8001b2e:	68fb      	ldr	r3, [r7, #12]
 8001b30:	855a      	strh	r2, [r3, #42]	; 0x2a
 8001b32:	e139      	b.n	8001da8 <HAL_I2C_Master_Receive+0x484>
        }
        /* Two bytes */
        else if (hi2c->XferSize == 2U)
 8001b34:	68fb      	ldr	r3, [r7, #12]
 8001b36:	8d1b      	ldrh	r3, [r3, #40]	; 0x28
 8001b38:	2b02      	cmp	r3, #2
 8001b3a:	d152      	bne.n	8001be2 <HAL_I2C_Master_Receive+0x2be>
        {
          /* Wait until BTF flag is set */
          if (I2C_WaitOnFlagUntilTimeout(hi2c, I2C_FLAG_BTF, RESET, Timeout, tickstart) != HAL_OK)
 8001b3c:	6a7b      	ldr	r3, [r7, #36]	; 0x24
 8001b3e:	9300      	str	r3, [sp, #0]
 8001b40:	6b3b      	ldr	r3, [r7, #48]	; 0x30
 8001b42:	2200      	movs	r2, #0
 8001b44:	4906      	ldr	r1, [pc, #24]	; (8001b60 <HAL_I2C_Master_Receive+0x23c>)
 8001b46:	68f8      	ldr	r0, [r7, #12]
 8001b48:	f000 fa9c 	bl	8002084 <I2C_WaitOnFlagUntilTimeout>
 8001b4c:	4603      	mov	r3, r0
 8001b4e:	2b00      	cmp	r3, #0
 8001b50:	d008      	beq.n	8001b64 <HAL_I2C_Master_Receive+0x240>
          {
            return HAL_ERROR;
 8001b52:	2301      	movs	r3, #1
 8001b54:	e13c      	b.n	8001dd0 <HAL_I2C_Master_Receive+0x4ac>
 8001b56:	bf00      	nop
 8001b58:	00100002 	.word	0x00100002
 8001b5c:	ffff0000 	.word	0xffff0000
 8001b60:	00010004 	.word	0x00010004
  __ASM volatile ("cpsid i" : : : "memory");
 8001b64:	b672      	cpsid	i
}
 8001b66:	bf00      	nop
          /* Disable all active IRQs around ADDR clearing and STOP programming because the EV6_3
             software sequence must complete before the current byte end of transfer */
          __disable_irq();

          /* Generate Stop */
          SET_BIT(hi2c->Instance->CR1, I2C_CR1_STOP);
 8001b68:	68fb      	ldr	r3, [r7, #12]
 8001b6a:	681b      	ldr	r3, [r3, #0]
 8001b6c:	681a      	ldr	r2, [r3, #0]
 8001b6e:	68fb      	ldr	r3, [r7, #12]
 8001b70:	681b      	ldr	r3, [r3, #0]
 8001b72:	f442 7200 	orr.w	r2, r2, #512	; 0x200
 8001b76:	601a      	str	r2, [r3, #0]

          /* Read data from DR */
          *hi2c->pBuffPtr = (uint8_t)hi2c->Instance->DR;
 8001b78:	68fb      	ldr	r3, [r7, #12]
 8001b7a:	681b      	ldr	r3, [r3, #0]
 8001b7c:	691a      	ldr	r2, [r3, #16]
 8001b7e:	68fb      	ldr	r3, [r7, #12]
 8001b80:	6a5b      	ldr	r3, [r3, #36]	; 0x24
 8001b82:	b2d2      	uxtb	r2, r2
 8001b84:	701a      	strb	r2, [r3, #0]

          /* Increment Buffer pointer */
          hi2c->pBuffPtr++;
 8001b86:	68fb      	ldr	r3, [r7, #12]
 8001b88:	6a5b      	ldr	r3, [r3, #36]	; 0x24
 8001b8a:	1c5a      	adds	r2, r3, #1
 8001b8c:	68fb      	ldr	r3, [r7, #12]
 8001b8e:	625a      	str	r2, [r3, #36]	; 0x24

          /* Update counter */
          hi2c->XferSize--;
 8001b90:	68fb      	ldr	r3, [r7, #12]
 8001b92:	8d1b      	ldrh	r3, [r3, #40]	; 0x28
 8001b94:	3b01      	subs	r3, #1
 8001b96:	b29a      	uxth	r2, r3
 8001b98:	68fb      	ldr	r3, [r7, #12]
 8001b9a:	851a      	strh	r2, [r3, #40]	; 0x28
          hi2c->XferCount--;
 8001b9c:	68fb      	ldr	r3, [r7, #12]
 8001b9e:	8d5b      	ldrh	r3, [r3, #42]	; 0x2a
 8001ba0:	b29b      	uxth	r3, r3
 8001ba2:	3b01      	subs	r3, #1
 8001ba4:	b29a      	uxth	r2, r3
 8001ba6:	68fb      	ldr	r3, [r7, #12]
 8001ba8:	855a      	strh	r2, [r3, #42]	; 0x2a
  __ASM volatile ("cpsie i" : : : "memory");
 8001baa:	b662      	cpsie	i
}
 8001bac:	bf00      	nop

          /* Re-enable IRQs */
          __enable_irq();

          /* Read data from DR */
          *hi2c->pBuffPtr = (uint8_t)hi2c->Instance->DR;
 8001bae:	68fb      	ldr	r3, [r7, #12]
 8001bb0:	681b      	ldr	r3, [r3, #0]
 8001bb2:	691a      	ldr	r2, [r3, #16]
 8001bb4:	68fb      	ldr	r3, [r7, #12]
 8001bb6:	6a5b      	ldr	r3, [r3, #36]	; 0x24
 8001bb8:	b2d2      	uxtb	r2, r2
 8001bba:	701a      	strb	r2, [r3, #0]

          /* Increment Buffer pointer */
          hi2c->pBuffPtr++;
 8001bbc:	68fb      	ldr	r3, [r7, #12]
 8001bbe:	6a5b      	ldr	r3, [r3, #36]	; 0x24
 8001bc0:	1c5a      	adds	r2, r3, #1
 8001bc2:	68fb      	ldr	r3, [r7, #12]
 8001bc4:	625a      	str	r2, [r3, #36]	; 0x24

          /* Update counter */
          hi2c->XferSize--;
 8001bc6:	68fb      	ldr	r3, [r7, #12]
 8001bc8:	8d1b      	ldrh	r3, [r3, #40]	; 0x28
 8001bca:	3b01      	subs	r3, #1
 8001bcc:	b29a      	uxth	r2, r3
 8001bce:	68fb      	ldr	r3, [r7, #12]
 8001bd0:	851a      	strh	r2, [r3, #40]	; 0x28
          hi2c->XferCount--;
 8001bd2:	68fb      	ldr	r3, [r7, #12]
 8001bd4:	8d5b      	ldrh	r3, [r3, #42]	; 0x2a
 8001bd6:	b29b      	uxth	r3, r3
 8001bd8:	3b01      	subs	r3, #1
 8001bda:	b29a      	uxth	r2, r3
 8001bdc:	68fb      	ldr	r3, [r7, #12]
 8001bde:	855a      	strh	r2, [r3, #42]	; 0x2a
 8001be0:	e0e2      	b.n	8001da8 <HAL_I2C_Master_Receive+0x484>
        }
        /* 3 Last bytes */
        else
        {
          /* Wait until BTF flag is set */
          if (I2C_WaitOnFlagUntilTimeout(hi2c, I2C_FLAG_BTF, RESET, Timeout, tickstart) != HAL_OK)
 8001be2:	6a7b      	ldr	r3, [r7, #36]	; 0x24
 8001be4:	9300      	str	r3, [sp, #0]
 8001be6:	6b3b      	ldr	r3, [r7, #48]	; 0x30
 8001be8:	2200      	movs	r2, #0
 8001bea:	497b      	ldr	r1, [pc, #492]	; (8001dd8 <HAL_I2C_Master_Receive+0x4b4>)
 8001bec:	68f8      	ldr	r0, [r7, #12]
 8001bee:	f000 fa49 	bl	8002084 <I2C_WaitOnFlagUntilTimeout>
 8001bf2:	4603      	mov	r3, r0
 8001bf4:	2b00      	cmp	r3, #0
 8001bf6:	d001      	beq.n	8001bfc <HAL_I2C_Master_Receive+0x2d8>
          {
            return HAL_ERROR;
 8001bf8:	2301      	movs	r3, #1
 8001bfa:	e0e9      	b.n	8001dd0 <HAL_I2C_Master_Receive+0x4ac>
          }

          /* Disable Acknowledge */
          CLEAR_BIT(hi2c->Instance->CR1, I2C_CR1_ACK);
 8001bfc:	68fb      	ldr	r3, [r7, #12]
 8001bfe:	681b      	ldr	r3, [r3, #0]
 8001c00:	681a      	ldr	r2, [r3, #0]
 8001c02:	68fb      	ldr	r3, [r7, #12]
 8001c04:	681b      	ldr	r3, [r3, #0]
 8001c06:	f422 6280 	bic.w	r2, r2, #1024	; 0x400
 8001c0a:	601a      	str	r2, [r3, #0]
  __ASM volatile ("cpsid i" : : : "memory");
 8001c0c:	b672      	cpsid	i
}
 8001c0e:	bf00      	nop
          /* Disable all active IRQs around ADDR clearing and STOP programming because the EV6_3
             software sequence must complete before the current byte end of transfer */
          __disable_irq();

          /* Read data from DR */
          *hi2c->pBuffPtr = (uint8_t)hi2c->Instance->DR;
 8001c10:	68fb      	ldr	r3, [r7, #12]
 8001c12:	681b      	ldr	r3, [r3, #0]
 8001c14:	691a      	ldr	r2, [r3, #16]
 8001c16:	68fb      	ldr	r3, [r7, #12]
 8001c18:	6a5b      	ldr	r3, [r3, #36]	; 0x24
 8001c1a:	b2d2      	uxtb	r2, r2
 8001c1c:	701a      	strb	r2, [r3, #0]

          /* Increment Buffer pointer */
          hi2c->pBuffPtr++;
 8001c1e:	68fb      	ldr	r3, [r7, #12]
 8001c20:	6a5b      	ldr	r3, [r3, #36]	; 0x24
 8001c22:	1c5a      	adds	r2, r3, #1
 8001c24:	68fb      	ldr	r3, [r7, #12]
 8001c26:	625a      	str	r2, [r3, #36]	; 0x24

          /* Update counter */
          hi2c->XferSize--;
 8001c28:	68fb      	ldr	r3, [r7, #12]
 8001c2a:	8d1b      	ldrh	r3, [r3, #40]	; 0x28
 8001c2c:	3b01      	subs	r3, #1
 8001c2e:	b29a      	uxth	r2, r3
 8001c30:	68fb      	ldr	r3, [r7, #12]
 8001c32:	851a      	strh	r2, [r3, #40]	; 0x28
          hi2c->XferCount--;
 8001c34:	68fb      	ldr	r3, [r7, #12]
 8001c36:	8d5b      	ldrh	r3, [r3, #42]	; 0x2a
 8001c38:	b29b      	uxth	r3, r3
 8001c3a:	3b01      	subs	r3, #1
 8001c3c:	b29a      	uxth	r2, r3
 8001c3e:	68fb      	ldr	r3, [r7, #12]
 8001c40:	855a      	strh	r2, [r3, #42]	; 0x2a

          /* Wait until BTF flag is set */
          count = I2C_TIMEOUT_FLAG * (SystemCoreClock / 25U / 1000U);
 8001c42:	4b66      	ldr	r3, [pc, #408]	; (8001ddc <HAL_I2C_Master_Receive+0x4b8>)
 8001c44:	681b      	ldr	r3, [r3, #0]
 8001c46:	08db      	lsrs	r3, r3, #3
 8001c48:	4a65      	ldr	r2, [pc, #404]	; (8001de0 <HAL_I2C_Master_Receive+0x4bc>)
 8001c4a:	fba2 2303 	umull	r2, r3, r2, r3
 8001c4e:	0a1a      	lsrs	r2, r3, #8
 8001c50:	4613      	mov	r3, r2
 8001c52:	009b      	lsls	r3, r3, #2
 8001c54:	4413      	add	r3, r2
 8001c56:	00da      	lsls	r2, r3, #3
 8001c58:	1ad3      	subs	r3, r2, r3
 8001c5a:	623b      	str	r3, [r7, #32]
          do
          {
            count--;
 8001c5c:	6a3b      	ldr	r3, [r7, #32]
 8001c5e:	3b01      	subs	r3, #1
 8001c60:	623b      	str	r3, [r7, #32]
            if (count == 0U)
 8001c62:	6a3b      	ldr	r3, [r7, #32]
 8001c64:	2b00      	cmp	r3, #0
 8001c66:	d118      	bne.n	8001c9a <HAL_I2C_Master_Receive+0x376>
            {
              hi2c->PreviousState       = I2C_STATE_NONE;
 8001c68:	68fb      	ldr	r3, [r7, #12]
 8001c6a:	2200      	movs	r2, #0
 8001c6c:	631a      	str	r2, [r3, #48]	; 0x30
              hi2c->State               = HAL_I2C_STATE_READY;
 8001c6e:	68fb      	ldr	r3, [r7, #12]
 8001c70:	2220      	movs	r2, #32
 8001c72:	f883 203d 	strb.w	r2, [r3, #61]	; 0x3d
              hi2c->Mode                = HAL_I2C_MODE_NONE;
 8001c76:	68fb      	ldr	r3, [r7, #12]
 8001c78:	2200      	movs	r2, #0
 8001c7a:	f883 203e 	strb.w	r2, [r3, #62]	; 0x3e
              hi2c->ErrorCode           |= HAL_I2C_ERROR_TIMEOUT;
 8001c7e:	68fb      	ldr	r3, [r7, #12]
 8001c80:	6c1b      	ldr	r3, [r3, #64]	; 0x40
 8001c82:	f043 0220 	orr.w	r2, r3, #32
 8001c86:	68fb      	ldr	r3, [r7, #12]
 8001c88:	641a      	str	r2, [r3, #64]	; 0x40
  __ASM volatile ("cpsie i" : : : "memory");
 8001c8a:	b662      	cpsie	i
}
 8001c8c:	bf00      	nop

              /* Re-enable IRQs */
              __enable_irq();

              /* Process Unlocked */
              __HAL_UNLOCK(hi2c);
 8001c8e:	68fb      	ldr	r3, [r7, #12]
 8001c90:	2200      	movs	r2, #0
 8001c92:	f883 203c 	strb.w	r2, [r3, #60]	; 0x3c

              return HAL_ERROR;
 8001c96:	2301      	movs	r3, #1
 8001c98:	e09a      	b.n	8001dd0 <HAL_I2C_Master_Receive+0x4ac>
            }
          }
          while (__HAL_I2C_GET_FLAG(hi2c, I2C_FLAG_BTF) == RESET);
 8001c9a:	68fb      	ldr	r3, [r7, #12]
 8001c9c:	681b      	ldr	r3, [r3, #0]
 8001c9e:	695b      	ldr	r3, [r3, #20]
 8001ca0:	f003 0304 	and.w	r3, r3, #4
 8001ca4:	2b04      	cmp	r3, #4
 8001ca6:	d1d9      	bne.n	8001c5c <HAL_I2C_Master_Receive+0x338>

          /* Generate Stop */
          SET_BIT(hi2c->Instance->CR1, I2C_CR1_STOP);
 8001ca8:	68fb      	ldr	r3, [r7, #12]
 8001caa:	681b      	ldr	r3, [r3, #0]
 8001cac:	681a      	ldr	r2, [r3, #0]
 8001cae:	68fb      	ldr	r3, [r7, #12]
 8001cb0:	681b      	ldr	r3, [r3, #0]
 8001cb2:	f442 7200 	orr.w	r2, r2, #512	; 0x200
 8001cb6:	601a      	str	r2, [r3, #0]

          /* Read data from DR */
          *hi2c->pBuffPtr = (uint8_t)hi2c->Instance->DR;
 8001cb8:	68fb      	ldr	r3, [r7, #12]
 8001cba:	681b      	ldr	r3, [r3, #0]
 8001cbc:	691a      	ldr	r2, [r3, #16]
 8001cbe:	68fb      	ldr	r3, [r7, #12]
 8001cc0:	6a5b      	ldr	r3, [r3, #36]	; 0x24
 8001cc2:	b2d2      	uxtb	r2, r2
 8001cc4:	701a      	strb	r2, [r3, #0]

          /* Increment Buffer pointer */
          hi2c->pBuffPtr++;
 8001cc6:	68fb      	ldr	r3, [r7, #12]
 8001cc8:	6a5b      	ldr	r3, [r3, #36]	; 0x24
 8001cca:	1c5a      	adds	r2, r3, #1
 8001ccc:	68fb      	ldr	r3, [r7, #12]
 8001cce:	625a      	str	r2, [r3, #36]	; 0x24

          /* Update counter */
          hi2c->XferSize--;
 8001cd0:	68fb      	ldr	r3, [r7, #12]
 8001cd2:	8d1b      	ldrh	r3, [r3, #40]	; 0x28
 8001cd4:	3b01      	subs	r3, #1
 8001cd6:	b29a      	uxth	r2, r3
 8001cd8:	68fb      	ldr	r3, [r7, #12]
 8001cda:	851a      	strh	r2, [r3, #40]	; 0x28
          hi2c->XferCount--;
 8001cdc:	68fb      	ldr	r3, [r7, #12]
 8001cde:	8d5b      	ldrh	r3, [r3, #42]	; 0x2a
 8001ce0:	b29b      	uxth	r3, r3
 8001ce2:	3b01      	subs	r3, #1
 8001ce4:	b29a      	uxth	r2, r3
 8001ce6:	68fb      	ldr	r3, [r7, #12]
 8001ce8:	855a      	strh	r2, [r3, #42]	; 0x2a
  __ASM volatile ("cpsie i" : : : "memory");
 8001cea:	b662      	cpsie	i
}
 8001cec:	bf00      	nop

          /* Re-enable IRQs */
          __enable_irq();

          /* Read data from DR */
          *hi2c->pBuffPtr = (uint8_t)hi2c->Instance->DR;
 8001cee:	68fb      	ldr	r3, [r7, #12]
 8001cf0:	681b      	ldr	r3, [r3, #0]
 8001cf2:	691a      	ldr	r2, [r3, #16]
 8001cf4:	68fb      	ldr	r3, [r7, #12]
 8001cf6:	6a5b      	ldr	r3, [r3, #36]	; 0x24
 8001cf8:	b2d2      	uxtb	r2, r2
 8001cfa:	701a      	strb	r2, [r3, #0]

          /* Increment Buffer pointer */
          hi2c->pBuffPtr++;
 8001cfc:	68fb      	ldr	r3, [r7, #12]
 8001cfe:	6a5b      	ldr	r3, [r3, #36]	; 0x24
 8001d00:	1c5a      	adds	r2, r3, #1
 8001d02:	68fb      	ldr	r3, [r7, #12]
 8001d04:	625a      	str	r2, [r3, #36]	; 0x24

          /* Update counter */
          hi2c->XferSize--;
 8001d06:	68fb      	ldr	r3, [r7, #12]
 8001d08:	8d1b      	ldrh	r3, [r3, #40]	; 0x28
 8001d0a:	3b01      	subs	r3, #1
 8001d0c:	b29a      	uxth	r2, r3
 8001d0e:	68fb      	ldr	r3, [r7, #12]
 8001d10:	851a      	strh	r2, [r3, #40]	; 0x28
          hi2c->XferCount--;
 8001d12:	68fb      	ldr	r3, [r7, #12]
 8001d14:	8d5b      	ldrh	r3, [r3, #42]	; 0x2a
 8001d16:	b29b      	uxth	r3, r3
 8001d18:	3b01      	subs	r3, #1
 8001d1a:	b29a      	uxth	r2, r3
 8001d1c:	68fb      	ldr	r3, [r7, #12]
 8001d1e:	855a      	strh	r2, [r3, #42]	; 0x2a
 8001d20:	e042      	b.n	8001da8 <HAL_I2C_Master_Receive+0x484>
        }
      }
      else
      {
        /* Wait until RXNE flag is set */
        if (I2C_WaitOnRXNEFlagUntilTimeout(hi2c, Timeout, tickstart) != HAL_OK)
 8001d22:	6a7a      	ldr	r2, [r7, #36]	; 0x24
 8001d24:	6b39      	ldr	r1, [r7, #48]	; 0x30
 8001d26:	68f8      	ldr	r0, [r7, #12]
 8001d28:	f000 fb04 	bl	8002334 <I2C_WaitOnRXNEFlagUntilTimeout>
 8001d2c:	4603      	mov	r3, r0
 8001d2e:	2b00      	cmp	r3, #0
 8001d30:	d001      	beq.n	8001d36 <HAL_I2C_Master_Receive+0x412>
        {
          return HAL_ERROR;
 8001d32:	2301      	movs	r3, #1
 8001d34:	e04c      	b.n	8001dd0 <HAL_I2C_Master_Receive+0x4ac>
        }

        /* Read data from DR */
        *hi2c->pBuffPtr = (uint8_t)hi2c->Instance->DR;
 8001d36:	68fb      	ldr	r3, [r7, #12]
 8001d38:	681b      	ldr	r3, [r3, #0]
 8001d3a:	691a      	ldr	r2, [r3, #16]
 8001d3c:	68fb      	ldr	r3, [r7, #12]
 8001d3e:	6a5b      	ldr	r3, [r3, #36]	; 0x24
 8001d40:	b2d2      	uxtb	r2, r2
 8001d42:	701a      	strb	r2, [r3, #0]

        /* Increment Buffer pointer */
        hi2c->pBuffPtr++;
 8001d44:	68fb      	ldr	r3, [r7, #12]
 8001d46:	6a5b      	ldr	r3, [r3, #36]	; 0x24
 8001d48:	1c5a      	adds	r2, r3, #1
 8001d4a:	68fb      	ldr	r3, [r7, #12]
 8001d4c:	625a      	str	r2, [r3, #36]	; 0x24

        /* Update counter */
        hi2c->XferSize--;
 8001d4e:	68fb      	ldr	r3, [r7, #12]
 8001d50:	8d1b      	ldrh	r3, [r3, #40]	; 0x28
 8001d52:	3b01      	subs	r3, #1
 8001d54:	b29a      	uxth	r2, r3
 8001d56:	68fb      	ldr	r3, [r7, #12]
 8001d58:	851a      	strh	r2, [r3, #40]	; 0x28
        hi2c->XferCount--;
 8001d5a:	68fb      	ldr	r3, [r7, #12]
 8001d5c:	8d5b      	ldrh	r3, [r3, #42]	; 0x2a
 8001d5e:	b29b      	uxth	r3, r3
 8001d60:	3b01      	subs	r3, #1
 8001d62:	b29a      	uxth	r2, r3
 8001d64:	68fb      	ldr	r3, [r7, #12]
 8001d66:	855a      	strh	r2, [r3, #42]	; 0x2a

        if (__HAL_I2C_GET_FLAG(hi2c, I2C_FLAG_BTF) == SET)
 8001d68:	68fb      	ldr	r3, [r7, #12]
 8001d6a:	681b      	ldr	r3, [r3, #0]
 8001d6c:	695b      	ldr	r3, [r3, #20]
 8001d6e:	f003 0304 	and.w	r3, r3, #4
 8001d72:	2b04      	cmp	r3, #4
 8001d74:	d118      	bne.n	8001da8 <HAL_I2C_Master_Receive+0x484>
        {
          /* Read data from DR */
          *hi2c->pBuffPtr = (uint8_t)hi2c->Instance->DR;
 8001d76:	68fb      	ldr	r3, [r7, #12]
 8001d78:	681b      	ldr	r3, [r3, #0]
 8001d7a:	691a      	ldr	r2, [r3, #16]
 8001d7c:	68fb      	ldr	r3, [r7, #12]
 8001d7e:	6a5b      	ldr	r3, [r3, #36]	; 0x24
 8001d80:	b2d2      	uxtb	r2, r2
 8001d82:	701a      	strb	r2, [r3, #0]

          /* Increment Buffer pointer */
          hi2c->pBuffPtr++;
 8001d84:	68fb      	ldr	r3, [r7, #12]
 8001d86:	6a5b      	ldr	r3, [r3, #36]	; 0x24
 8001d88:	1c5a      	adds	r2, r3, #1
 8001d8a:	68fb      	ldr	r3, [r7, #12]
 8001d8c:	625a      	str	r2, [r3, #36]	; 0x24

          /* Update counter */
          hi2c->XferSize--;
 8001d8e:	68fb      	ldr	r3, [r7, #12]
 8001d90:	8d1b      	ldrh	r3, [r3, #40]	; 0x28
 8001d92:	3b01      	subs	r3, #1
 8001d94:	b29a      	uxth	r2, r3
 8001d96:	68fb      	ldr	r3, [r7, #12]
 8001d98:	851a      	strh	r2, [r3, #40]	; 0x28
          hi2c->XferCount--;
 8001d9a:	68fb      	ldr	r3, [r7, #12]
 8001d9c:	8d5b      	ldrh	r3, [r3, #42]	; 0x2a
 8001d9e:	b29b      	uxth	r3, r3
 8001da0:	3b01      	subs	r3, #1
 8001da2:	b29a      	uxth	r2, r3
 8001da4:	68fb      	ldr	r3, [r7, #12]
 8001da6:	855a      	strh	r2, [r3, #42]	; 0x2a
    while (hi2c->XferSize > 0U)
 8001da8:	68fb      	ldr	r3, [r7, #12]
 8001daa:	8d1b      	ldrh	r3, [r3, #40]	; 0x28
 8001dac:	2b00      	cmp	r3, #0
 8001dae:	f47f ae94 	bne.w	8001ada <HAL_I2C_Master_Receive+0x1b6>
        }
      }
    }

    hi2c->State = HAL_I2C_STATE_READY;
 8001db2:	68fb      	ldr	r3, [r7, #12]
 8001db4:	2220      	movs	r2, #32
 8001db6:	f883 203d 	strb.w	r2, [r3, #61]	; 0x3d
    hi2c->Mode = HAL_I2C_MODE_NONE;
 8001dba:	68fb      	ldr	r3, [r7, #12]
 8001dbc:	2200      	movs	r2, #0
 8001dbe:	f883 203e 	strb.w	r2, [r3, #62]	; 0x3e

    /* Process Unlocked */
    __HAL_UNLOCK(hi2c);
 8001dc2:	68fb      	ldr	r3, [r7, #12]
 8001dc4:	2200      	movs	r2, #0
 8001dc6:	f883 203c 	strb.w	r2, [r3, #60]	; 0x3c

    return HAL_OK;
 8001dca:	2300      	movs	r3, #0
 8001dcc:	e000      	b.n	8001dd0 <HAL_I2C_Master_Receive+0x4ac>
  }
  else
  {
    return HAL_BUSY;
 8001dce:	2302      	movs	r3, #2
  }
}
 8001dd0:	4618      	mov	r0, r3
 8001dd2:	3728      	adds	r7, #40	; 0x28
 8001dd4:	46bd      	mov	sp, r7
 8001dd6:	bd80      	pop	{r7, pc}
 8001dd8:	00010004 	.word	0x00010004
 8001ddc:	20000000 	.word	0x20000000
 8001de0:	14f8b589 	.word	0x14f8b589

08001de4 <I2C_MasterRequestWrite>:
  * @param  Timeout Timeout duration
  * @param  Tickstart Tick start value
  * @retval HAL status
  */
static HAL_StatusTypeDef I2C_MasterRequestWrite(I2C_HandleTypeDef *hi2c, uint16_t DevAddress, uint32_t Timeout, uint32_t Tickstart)
{
 8001de4:	b580      	push	{r7, lr}
 8001de6:	b088      	sub	sp, #32
 8001de8:	af02      	add	r7, sp, #8
 8001dea:	60f8      	str	r0, [r7, #12]
 8001dec:	607a      	str	r2, [r7, #4]
 8001dee:	603b      	str	r3, [r7, #0]
 8001df0:	460b      	mov	r3, r1
 8001df2:	817b      	strh	r3, [r7, #10]
  /* Declaration of temporary variable to prevent undefined behavior of volatile usage */
  uint32_t CurrentXferOptions = hi2c->XferOptions;
 8001df4:	68fb      	ldr	r3, [r7, #12]
 8001df6:	6adb      	ldr	r3, [r3, #44]	; 0x2c
 8001df8:	617b      	str	r3, [r7, #20]

  /* Generate Start condition if first transfer */
  if ((CurrentXferOptions == I2C_FIRST_AND_LAST_FRAME) || (CurrentXferOptions == I2C_FIRST_FRAME) || (CurrentXferOptions == I2C_NO_OPTION_FRAME))
 8001dfa:	697b      	ldr	r3, [r7, #20]
 8001dfc:	2b08      	cmp	r3, #8
 8001dfe:	d006      	beq.n	8001e0e <I2C_MasterRequestWrite+0x2a>
 8001e00:	697b      	ldr	r3, [r7, #20]
 8001e02:	2b01      	cmp	r3, #1
 8001e04:	d003      	beq.n	8001e0e <I2C_MasterRequestWrite+0x2a>
 8001e06:	697b      	ldr	r3, [r7, #20]
 8001e08:	f513 3f80 	cmn.w	r3, #65536	; 0x10000
 8001e0c:	d108      	bne.n	8001e20 <I2C_MasterRequestWrite+0x3c>
  {
    /* Generate Start */
    SET_BIT(hi2c->Instance->CR1, I2C_CR1_START);
 8001e0e:	68fb      	ldr	r3, [r7, #12]
 8001e10:	681b      	ldr	r3, [r3, #0]
 8001e12:	681a      	ldr	r2, [r3, #0]
 8001e14:	68fb      	ldr	r3, [r7, #12]
 8001e16:	681b      	ldr	r3, [r3, #0]
 8001e18:	f442 7280 	orr.w	r2, r2, #256	; 0x100
 8001e1c:	601a      	str	r2, [r3, #0]
 8001e1e:	e00b      	b.n	8001e38 <I2C_MasterRequestWrite+0x54>
  }
  else if (hi2c->PreviousState == I2C_STATE_MASTER_BUSY_RX)
 8001e20:	68fb      	ldr	r3, [r7, #12]
 8001e22:	6b1b      	ldr	r3, [r3, #48]	; 0x30
 8001e24:	2b12      	cmp	r3, #18
 8001e26:	d107      	bne.n	8001e38 <I2C_MasterRequestWrite+0x54>
  {
    /* Generate ReStart */
    SET_BIT(hi2c->Instance->CR1, I2C_CR1_START);
 8001e28:	68fb      	ldr	r3, [r7, #12]
 8001e2a:	681b      	ldr	r3, [r3, #0]
 8001e2c:	681a      	ldr	r2, [r3, #0]
 8001e2e:	68fb      	ldr	r3, [r7, #12]
 8001e30:	681b      	ldr	r3, [r3, #0]
 8001e32:	f442 7280 	orr.w	r2, r2, #256	; 0x100
 8001e36:	601a      	str	r2, [r3, #0]
  {
    /* Do nothing */
  }

  /* Wait until SB flag is set */
  if (I2C_WaitOnFlagUntilTimeout(hi2c, I2C_FLAG_SB, RESET, Timeout, Tickstart) != HAL_OK)
 8001e38:	683b      	ldr	r3, [r7, #0]
 8001e3a:	9300      	str	r3, [sp, #0]
 8001e3c:	687b      	ldr	r3, [r7, #4]
 8001e3e:	2200      	movs	r2, #0
 8001e40:	f04f 1101 	mov.w	r1, #65537	; 0x10001
 8001e44:	68f8      	ldr	r0, [r7, #12]
 8001e46:	f000 f91d 	bl	8002084 <I2C_WaitOnFlagUntilTimeout>
 8001e4a:	4603      	mov	r3, r0
 8001e4c:	2b00      	cmp	r3, #0
 8001e4e:	d00d      	beq.n	8001e6c <I2C_MasterRequestWrite+0x88>
  {
    if (READ_BIT(hi2c->Instance->CR1, I2C_CR1_START) == I2C_CR1_START)
 8001e50:	68fb      	ldr	r3, [r7, #12]
 8001e52:	681b      	ldr	r3, [r3, #0]
 8001e54:	681b      	ldr	r3, [r3, #0]
 8001e56:	f403 7380 	and.w	r3, r3, #256	; 0x100
 8001e5a:	f5b3 7f80 	cmp.w	r3, #256	; 0x100
 8001e5e:	d103      	bne.n	8001e68 <I2C_MasterRequestWrite+0x84>
    {
      hi2c->ErrorCode = HAL_I2C_WRONG_START;
 8001e60:	68fb      	ldr	r3, [r7, #12]
 8001e62:	f44f 7200 	mov.w	r2, #512	; 0x200
 8001e66:	641a      	str	r2, [r3, #64]	; 0x40
    }
    return HAL_TIMEOUT;
 8001e68:	2303      	movs	r3, #3
 8001e6a:	e035      	b.n	8001ed8 <I2C_MasterRequestWrite+0xf4>
  }

  if (hi2c->Init.AddressingMode == I2C_ADDRESSINGMODE_7BIT)
 8001e6c:	68fb      	ldr	r3, [r7, #12]
 8001e6e:	691b      	ldr	r3, [r3, #16]
 8001e70:	f5b3 4f80 	cmp.w	r3, #16384	; 0x4000
 8001e74:	d108      	bne.n	8001e88 <I2C_MasterRequestWrite+0xa4>
  {
    /* Send slave address */
    hi2c->Instance->DR = I2C_7BIT_ADD_WRITE(DevAddress);
 8001e76:	897b      	ldrh	r3, [r7, #10]
 8001e78:	b2db      	uxtb	r3, r3
 8001e7a:	461a      	mov	r2, r3
 8001e7c:	68fb      	ldr	r3, [r7, #12]
 8001e7e:	681b      	ldr	r3, [r3, #0]
 8001e80:	f002 02fe 	and.w	r2, r2, #254	; 0xfe
 8001e84:	611a      	str	r2, [r3, #16]
 8001e86:	e01b      	b.n	8001ec0 <I2C_MasterRequestWrite+0xdc>
  }
  else
  {
    /* Send header of slave address */
    hi2c->Instance->DR = I2C_10BIT_HEADER_WRITE(DevAddress);
 8001e88:	897b      	ldrh	r3, [r7, #10]
 8001e8a:	11db      	asrs	r3, r3, #7
 8001e8c:	b2db      	uxtb	r3, r3
 8001e8e:	f003 0306 	and.w	r3, r3, #6
 8001e92:	b2db      	uxtb	r3, r3
 8001e94:	f063 030f 	orn	r3, r3, #15
 8001e98:	b2da      	uxtb	r2, r3
 8001e9a:	68fb      	ldr	r3, [r7, #12]
 8001e9c:	681b      	ldr	r3, [r3, #0]
 8001e9e:	611a      	str	r2, [r3, #16]

    /* Wait until ADD10 flag is set */
    if (I2C_WaitOnMasterAddressFlagUntilTimeout(hi2c, I2C_FLAG_ADD10, Timeout, Tickstart) != HAL_OK)
 8001ea0:	683b      	ldr	r3, [r7, #0]
 8001ea2:	687a      	ldr	r2, [r7, #4]
 8001ea4:	490e      	ldr	r1, [pc, #56]	; (8001ee0 <I2C_MasterRequestWrite+0xfc>)
 8001ea6:	68f8      	ldr	r0, [r7, #12]
 8001ea8:	f000 f943 	bl	8002132 <I2C_WaitOnMasterAddressFlagUntilTimeout>
 8001eac:	4603      	mov	r3, r0
 8001eae:	2b00      	cmp	r3, #0
 8001eb0:	d001      	beq.n	8001eb6 <I2C_MasterRequestWrite+0xd2>
    {
      return HAL_ERROR;
 8001eb2:	2301      	movs	r3, #1
 8001eb4:	e010      	b.n	8001ed8 <I2C_MasterRequestWrite+0xf4>
    }

    /* Send slave address */
    hi2c->Instance->DR = I2C_10BIT_ADDRESS(DevAddress);
 8001eb6:	897b      	ldrh	r3, [r7, #10]
 8001eb8:	b2da      	uxtb	r2, r3
 8001eba:	68fb      	ldr	r3, [r7, #12]
 8001ebc:	681b      	ldr	r3, [r3, #0]
 8001ebe:	611a      	str	r2, [r3, #16]
  }

  /* Wait until ADDR flag is set */
  if (I2C_WaitOnMasterAddressFlagUntilTimeout(hi2c, I2C_FLAG_ADDR, Timeout, Tickstart) != HAL_OK)
 8001ec0:	683b      	ldr	r3, [r7, #0]
 8001ec2:	687a      	ldr	r2, [r7, #4]
 8001ec4:	4907      	ldr	r1, [pc, #28]	; (8001ee4 <I2C_MasterRequestWrite+0x100>)
 8001ec6:	68f8      	ldr	r0, [r7, #12]
 8001ec8:	f000 f933 	bl	8002132 <I2C_WaitOnMasterAddressFlagUntilTimeout>
 8001ecc:	4603      	mov	r3, r0
 8001ece:	2b00      	cmp	r3, #0
 8001ed0:	d001      	beq.n	8001ed6 <I2C_MasterRequestWrite+0xf2>
  {
    return HAL_ERROR;
 8001ed2:	2301      	movs	r3, #1
 8001ed4:	e000      	b.n	8001ed8 <I2C_MasterRequestWrite+0xf4>
  }

  return HAL_OK;
 8001ed6:	2300      	movs	r3, #0
}
 8001ed8:	4618      	mov	r0, r3
 8001eda:	3718      	adds	r7, #24
 8001edc:	46bd      	mov	sp, r7
 8001ede:	bd80      	pop	{r7, pc}
 8001ee0:	00010008 	.word	0x00010008
 8001ee4:	00010002 	.word	0x00010002

08001ee8 <I2C_MasterRequestRead>:
  * @param  Timeout Timeout duration
  * @param  Tickstart Tick start value
  * @retval HAL status
  */
static HAL_StatusTypeDef I2C_MasterRequestRead(I2C_HandleTypeDef *hi2c, uint16_t DevAddress, uint32_t Timeout, uint32_t Tickstart)
{
 8001ee8:	b580      	push	{r7, lr}
 8001eea:	b088      	sub	sp, #32
 8001eec:	af02      	add	r7, sp, #8
 8001eee:	60f8      	str	r0, [r7, #12]
 8001ef0:	607a      	str	r2, [r7, #4]
 8001ef2:	603b      	str	r3, [r7, #0]
 8001ef4:	460b      	mov	r3, r1
 8001ef6:	817b      	strh	r3, [r7, #10]
  /* Declaration of temporary variable to prevent undefined behavior of volatile usage */
  uint32_t CurrentXferOptions = hi2c->XferOptions;
 8001ef8:	68fb      	ldr	r3, [r7, #12]
 8001efa:	6adb      	ldr	r3, [r3, #44]	; 0x2c
 8001efc:	617b      	str	r3, [r7, #20]

  /* Enable Acknowledge */
  SET_BIT(hi2c->Instance->CR1, I2C_CR1_ACK);
 8001efe:	68fb      	ldr	r3, [r7, #12]
 8001f00:	681b      	ldr	r3, [r3, #0]
 8001f02:	681a      	ldr	r2, [r3, #0]
 8001f04:	68fb      	ldr	r3, [r7, #12]
 8001f06:	681b      	ldr	r3, [r3, #0]
 8001f08:	f442 6280 	orr.w	r2, r2, #1024	; 0x400
 8001f0c:	601a      	str	r2, [r3, #0]

  /* Generate Start condition if first transfer */
  if ((CurrentXferOptions == I2C_FIRST_AND_LAST_FRAME) || (CurrentXferOptions == I2C_FIRST_FRAME)  || (CurrentXferOptions == I2C_NO_OPTION_FRAME))
 8001f0e:	697b      	ldr	r3, [r7, #20]
 8001f10:	2b08      	cmp	r3, #8
 8001f12:	d006      	beq.n	8001f22 <I2C_MasterRequestRead+0x3a>
 8001f14:	697b      	ldr	r3, [r7, #20]
 8001f16:	2b01      	cmp	r3, #1
 8001f18:	d003      	beq.n	8001f22 <I2C_MasterRequestRead+0x3a>
 8001f1a:	697b      	ldr	r3, [r7, #20]
 8001f1c:	f513 3f80 	cmn.w	r3, #65536	; 0x10000
 8001f20:	d108      	bne.n	8001f34 <I2C_MasterRequestRead+0x4c>
  {
    /* Generate Start */
    SET_BIT(hi2c->Instance->CR1, I2C_CR1_START);
 8001f22:	68fb      	ldr	r3, [r7, #12]
 8001f24:	681b      	ldr	r3, [r3, #0]
 8001f26:	681a      	ldr	r2, [r3, #0]
 8001f28:	68fb      	ldr	r3, [r7, #12]
 8001f2a:	681b      	ldr	r3, [r3, #0]
 8001f2c:	f442 7280 	orr.w	r2, r2, #256	; 0x100
 8001f30:	601a      	str	r2, [r3, #0]
 8001f32:	e00b      	b.n	8001f4c <I2C_MasterRequestRead+0x64>
  }
  else if (hi2c->PreviousState == I2C_STATE_MASTER_BUSY_TX)
 8001f34:	68fb      	ldr	r3, [r7, #12]
 8001f36:	6b1b      	ldr	r3, [r3, #48]	; 0x30
 8001f38:	2b11      	cmp	r3, #17
 8001f3a:	d107      	bne.n	8001f4c <I2C_MasterRequestRead+0x64>
  {
    /* Generate ReStart */
    SET_BIT(hi2c->Instance->CR1, I2C_CR1_START);
 8001f3c:	68fb      	ldr	r3, [r7, #12]
 8001f3e:	681b      	ldr	r3, [r3, #0]
 8001f40:	681a      	ldr	r2, [r3, #0]
 8001f42:	68fb      	ldr	r3, [r7, #12]
 8001f44:	681b      	ldr	r3, [r3, #0]
 8001f46:	f442 7280 	orr.w	r2, r2, #256	; 0x100
 8001f4a:	601a      	str	r2, [r3, #0]
  {
    /* Do nothing */
  }

  /* Wait until SB flag is set */
  if (I2C_WaitOnFlagUntilTimeout(hi2c, I2C_FLAG_SB, RESET, Timeout, Tickstart) != HAL_OK)
 8001f4c:	683b      	ldr	r3, [r7, #0]
 8001f4e:	9300      	str	r3, [sp, #0]
 8001f50:	687b      	ldr	r3, [r7, #4]
 8001f52:	2200      	movs	r2, #0
 8001f54:	f04f 1101 	mov.w	r1, #65537	; 0x10001
 8001f58:	68f8      	ldr	r0, [r7, #12]
 8001f5a:	f000 f893 	bl	8002084 <I2C_WaitOnFlagUntilTimeout>
 8001f5e:	4603      	mov	r3, r0
 8001f60:	2b00      	cmp	r3, #0
 8001f62:	d00d      	beq.n	8001f80 <I2C_MasterRequestRead+0x98>
  {
    if (READ_BIT(hi2c->Instance->CR1, I2C_CR1_START) == I2C_CR1_START)
 8001f64:	68fb      	ldr	r3, [r7, #12]
 8001f66:	681b      	ldr	r3, [r3, #0]
 8001f68:	681b      	ldr	r3, [r3, #0]
 8001f6a:	f403 7380 	and.w	r3, r3, #256	; 0x100
 8001f6e:	f5b3 7f80 	cmp.w	r3, #256	; 0x100
 8001f72:	d103      	bne.n	8001f7c <I2C_MasterRequestRead+0x94>
    {
      hi2c->ErrorCode = HAL_I2C_WRONG_START;
 8001f74:	68fb      	ldr	r3, [r7, #12]
 8001f76:	f44f 7200 	mov.w	r2, #512	; 0x200
 8001f7a:	641a      	str	r2, [r3, #64]	; 0x40
    }
    return HAL_TIMEOUT;
 8001f7c:	2303      	movs	r3, #3
 8001f7e:	e079      	b.n	8002074 <I2C_MasterRequestRead+0x18c>
  }

  if (hi2c->Init.AddressingMode == I2C_ADDRESSINGMODE_7BIT)
 8001f80:	68fb      	ldr	r3, [r7, #12]
 8001f82:	691b      	ldr	r3, [r3, #16]
 8001f84:	f5b3 4f80 	cmp.w	r3, #16384	; 0x4000
 8001f88:	d108      	bne.n	8001f9c <I2C_MasterRequestRead+0xb4>
  {
    /* Send slave address */
    hi2c->Instance->DR = I2C_7BIT_ADD_READ(DevAddress);
 8001f8a:	897b      	ldrh	r3, [r7, #10]
 8001f8c:	b2db      	uxtb	r3, r3
 8001f8e:	f043 0301 	orr.w	r3, r3, #1
 8001f92:	b2da      	uxtb	r2, r3
 8001f94:	68fb      	ldr	r3, [r7, #12]
 8001f96:	681b      	ldr	r3, [r3, #0]
 8001f98:	611a      	str	r2, [r3, #16]
 8001f9a:	e05f      	b.n	800205c <I2C_MasterRequestRead+0x174>
  }
  else
  {
    /* Send header of slave address */
    hi2c->Instance->DR = I2C_10BIT_HEADER_WRITE(DevAddress);
 8001f9c:	897b      	ldrh	r3, [r7, #10]
 8001f9e:	11db      	asrs	r3, r3, #7
 8001fa0:	b2db      	uxtb	r3, r3
 8001fa2:	f003 0306 	and.w	r3, r3, #6
 8001fa6:	b2db      	uxtb	r3, r3
 8001fa8:	f063 030f 	orn	r3, r3, #15
 8001fac:	b2da      	uxtb	r2, r3
 8001fae:	68fb      	ldr	r3, [r7, #12]
 8001fb0:	681b      	ldr	r3, [r3, #0]
 8001fb2:	611a      	str	r2, [r3, #16]

    /* Wait until ADD10 flag is set */
    if (I2C_WaitOnMasterAddressFlagUntilTimeout(hi2c, I2C_FLAG_ADD10, Timeout, Tickstart) != HAL_OK)
 8001fb4:	683b      	ldr	r3, [r7, #0]
 8001fb6:	687a      	ldr	r2, [r7, #4]
 8001fb8:	4930      	ldr	r1, [pc, #192]	; (800207c <I2C_MasterRequestRead+0x194>)
 8001fba:	68f8      	ldr	r0, [r7, #12]
 8001fbc:	f000 f8b9 	bl	8002132 <I2C_WaitOnMasterAddressFlagUntilTimeout>
 8001fc0:	4603      	mov	r3, r0
 8001fc2:	2b00      	cmp	r3, #0
 8001fc4:	d001      	beq.n	8001fca <I2C_MasterRequestRead+0xe2>
    {
      return HAL_ERROR;
 8001fc6:	2301      	movs	r3, #1
 8001fc8:	e054      	b.n	8002074 <I2C_MasterRequestRead+0x18c>
    }

    /* Send slave address */
    hi2c->Instance->DR = I2C_10BIT_ADDRESS(DevAddress);
 8001fca:	897b      	ldrh	r3, [r7, #10]
 8001fcc:	b2da      	uxtb	r2, r3
 8001fce:	68fb      	ldr	r3, [r7, #12]
 8001fd0:	681b      	ldr	r3, [r3, #0]
 8001fd2:	611a      	str	r2, [r3, #16]

    /* Wait until ADDR flag is set */
    if (I2C_WaitOnMasterAddressFlagUntilTimeout(hi2c, I2C_FLAG_ADDR, Timeout, Tickstart) != HAL_OK)
 8001fd4:	683b      	ldr	r3, [r7, #0]
 8001fd6:	687a      	ldr	r2, [r7, #4]
 8001fd8:	4929      	ldr	r1, [pc, #164]	; (8002080 <I2C_MasterRequestRead+0x198>)
 8001fda:	68f8      	ldr	r0, [r7, #12]
 8001fdc:	f000 f8a9 	bl	8002132 <I2C_WaitOnMasterAddressFlagUntilTimeout>
 8001fe0:	4603      	mov	r3, r0
 8001fe2:	2b00      	cmp	r3, #0
 8001fe4:	d001      	beq.n	8001fea <I2C_MasterRequestRead+0x102>
    {
      return HAL_ERROR;
 8001fe6:	2301      	movs	r3, #1
 8001fe8:	e044      	b.n	8002074 <I2C_MasterRequestRead+0x18c>
    }

    /* Clear ADDR flag */
    __HAL_I2C_CLEAR_ADDRFLAG(hi2c);
 8001fea:	2300      	movs	r3, #0
 8001fec:	613b      	str	r3, [r7, #16]
 8001fee:	68fb      	ldr	r3, [r7, #12]
 8001ff0:	681b      	ldr	r3, [r3, #0]
 8001ff2:	695b      	ldr	r3, [r3, #20]
 8001ff4:	613b      	str	r3, [r7, #16]
 8001ff6:	68fb      	ldr	r3, [r7, #12]
 8001ff8:	681b      	ldr	r3, [r3, #0]
 8001ffa:	699b      	ldr	r3, [r3, #24]
 8001ffc:	613b      	str	r3, [r7, #16]
 8001ffe:	693b      	ldr	r3, [r7, #16]

    /* Generate Restart */
    SET_BIT(hi2c->Instance->CR1, I2C_CR1_START);
 8002000:	68fb      	ldr	r3, [r7, #12]
 8002002:	681b      	ldr	r3, [r3, #0]
 8002004:	681a      	ldr	r2, [r3, #0]
 8002006:	68fb      	ldr	r3, [r7, #12]
 8002008:	681b      	ldr	r3, [r3, #0]
 800200a:	f442 7280 	orr.w	r2, r2, #256	; 0x100
 800200e:	601a      	str	r2, [r3, #0]

    /* Wait until SB flag is set */
    if (I2C_WaitOnFlagUntilTimeout(hi2c, I2C_FLAG_SB, RESET, Timeout, Tickstart) != HAL_OK)
 8002010:	683b      	ldr	r3, [r7, #0]
 8002012:	9300      	str	r3, [sp, #0]
 8002014:	687b      	ldr	r3, [r7, #4]
 8002016:	2200      	movs	r2, #0
 8002018:	f04f 1101 	mov.w	r1, #65537	; 0x10001
 800201c:	68f8      	ldr	r0, [r7, #12]
 800201e:	f000 f831 	bl	8002084 <I2C_WaitOnFlagUntilTimeout>
 8002022:	4603      	mov	r3, r0
 8002024:	2b00      	cmp	r3, #0
 8002026:	d00d      	beq.n	8002044 <I2C_MasterRequestRead+0x15c>
    {
      if (READ_BIT(hi2c->Instance->CR1, I2C_CR1_START) == I2C_CR1_START)
 8002028:	68fb      	ldr	r3, [r7, #12]
 800202a:	681b      	ldr	r3, [r3, #0]
 800202c:	681b      	ldr	r3, [r3, #0]
 800202e:	f403 7380 	and.w	r3, r3, #256	; 0x100
 8002032:	f5b3 7f80 	cmp.w	r3, #256	; 0x100
 8002036:	d103      	bne.n	8002040 <I2C_MasterRequestRead+0x158>
      {
        hi2c->ErrorCode = HAL_I2C_WRONG_START;
 8002038:	68fb      	ldr	r3, [r7, #12]
 800203a:	f44f 7200 	mov.w	r2, #512	; 0x200
 800203e:	641a      	str	r2, [r3, #64]	; 0x40
      }
      return HAL_TIMEOUT;
 8002040:	2303      	movs	r3, #3
 8002042:	e017      	b.n	8002074 <I2C_MasterRequestRead+0x18c>
    }

    /* Send header of slave address */
    hi2c->Instance->DR = I2C_10BIT_HEADER_READ(DevAddress);
 8002044:	897b      	ldrh	r3, [r7, #10]
 8002046:	11db      	asrs	r3, r3, #7
 8002048:	b2db      	uxtb	r3, r3
 800204a:	f003 0306 	and.w	r3, r3, #6
 800204e:	b2db      	uxtb	r3, r3
 8002050:	f063 030e 	orn	r3, r3, #14
 8002054:	b2da      	uxtb	r2, r3
 8002056:	68fb      	ldr	r3, [r7, #12]
 8002058:	681b      	ldr	r3, [r3, #0]
 800205a:	611a      	str	r2, [r3, #16]
  }

  /* Wait until ADDR flag is set */
  if (I2C_WaitOnMasterAddressFlagUntilTimeout(hi2c, I2C_FLAG_ADDR, Timeout, Tickstart) != HAL_OK)
 800205c:	683b      	ldr	r3, [r7, #0]
 800205e:	687a      	ldr	r2, [r7, #4]
 8002060:	4907      	ldr	r1, [pc, #28]	; (8002080 <I2C_MasterRequestRead+0x198>)
 8002062:	68f8      	ldr	r0, [r7, #12]
 8002064:	f000 f865 	bl	8002132 <I2C_WaitOnMasterAddressFlagUntilTimeout>
 8002068:	4603      	mov	r3, r0
 800206a:	2b00      	cmp	r3, #0
 800206c:	d001      	beq.n	8002072 <I2C_MasterRequestRead+0x18a>
  {
    return HAL_ERROR;
 800206e:	2301      	movs	r3, #1
 8002070:	e000      	b.n	8002074 <I2C_MasterRequestRead+0x18c>
  }

  return HAL_OK;
 8002072:	2300      	movs	r3, #0
}
 8002074:	4618      	mov	r0, r3
 8002076:	3718      	adds	r7, #24
 8002078:	46bd      	mov	sp, r7
 800207a:	bd80      	pop	{r7, pc}
 800207c:	00010008 	.word	0x00010008
 8002080:	00010002 	.word	0x00010002

08002084 <I2C_WaitOnFlagUntilTimeout>:
  * @param  Timeout Timeout duration
  * @param  Tickstart Tick start value
  * @retval HAL status
  */
static HAL_StatusTypeDef I2C_WaitOnFlagUntilTimeout(I2C_HandleTypeDef *hi2c, uint32_t Flag, FlagStatus Status, uint32_t Timeout, uint32_t Tickstart)
{
 8002084:	b580      	push	{r7, lr}
 8002086:	b084      	sub	sp, #16
 8002088:	af00      	add	r7, sp, #0
 800208a:	60f8      	str	r0, [r7, #12]
 800208c:	60b9      	str	r1, [r7, #8]
 800208e:	603b      	str	r3, [r7, #0]
 8002090:	4613      	mov	r3, r2
 8002092:	71fb      	strb	r3, [r7, #7]
  /* Wait until flag is set */
  while (__HAL_I2C_GET_FLAG(hi2c, Flag) == Status)
 8002094:	e025      	b.n	80020e2 <I2C_WaitOnFlagUntilTimeout+0x5e>
  {
    /* Check for the Timeout */
    if (Timeout != HAL_MAX_DELAY)
 8002096:	683b      	ldr	r3, [r7, #0]
 8002098:	f1b3 3fff 	cmp.w	r3, #4294967295
 800209c:	d021      	beq.n	80020e2 <I2C_WaitOnFlagUntilTimeout+0x5e>
    {
      if (((HAL_GetTick() - Tickstart) > Timeout) || (Timeout == 0U))
 800209e:	f7fe fec9 	bl	8000e34 <HAL_GetTick>
 80020a2:	4602      	mov	r2, r0
 80020a4:	69bb      	ldr	r3, [r7, #24]
 80020a6:	1ad3      	subs	r3, r2, r3
 80020a8:	683a      	ldr	r2, [r7, #0]
 80020aa:	429a      	cmp	r2, r3
 80020ac:	d302      	bcc.n	80020b4 <I2C_WaitOnFlagUntilTimeout+0x30>
 80020ae:	683b      	ldr	r3, [r7, #0]
 80020b0:	2b00      	cmp	r3, #0
 80020b2:	d116      	bne.n	80020e2 <I2C_WaitOnFlagUntilTimeout+0x5e>
      {
        hi2c->PreviousState     = I2C_STATE_NONE;
 80020b4:	68fb      	ldr	r3, [r7, #12]
 80020b6:	2200      	movs	r2, #0
 80020b8:	631a      	str	r2, [r3, #48]	; 0x30
        hi2c->State             = HAL_I2C_STATE_READY;
 80020ba:	68fb      	ldr	r3, [r7, #12]
 80020bc:	2220      	movs	r2, #32
 80020be:	f883 203d 	strb.w	r2, [r3, #61]	; 0x3d
        hi2c->Mode              = HAL_I2C_MODE_NONE;
 80020c2:	68fb      	ldr	r3, [r7, #12]
 80020c4:	2200      	movs	r2, #0
 80020c6:	f883 203e 	strb.w	r2, [r3, #62]	; 0x3e
        hi2c->ErrorCode         |= HAL_I2C_ERROR_TIMEOUT;
 80020ca:	68fb      	ldr	r3, [r7, #12]
 80020cc:	6c1b      	ldr	r3, [r3, #64]	; 0x40
 80020ce:	f043 0220 	orr.w	r2, r3, #32
 80020d2:	68fb      	ldr	r3, [r7, #12]
 80020d4:	641a      	str	r2, [r3, #64]	; 0x40

        /* Process Unlocked */
        __HAL_UNLOCK(hi2c);
 80020d6:	68fb      	ldr	r3, [r7, #12]
 80020d8:	2200      	movs	r2, #0
 80020da:	f883 203c 	strb.w	r2, [r3, #60]	; 0x3c

        return HAL_ERROR;
 80020de:	2301      	movs	r3, #1
 80020e0:	e023      	b.n	800212a <I2C_WaitOnFlagUntilTimeout+0xa6>
  while (__HAL_I2C_GET_FLAG(hi2c, Flag) == Status)
 80020e2:	68bb      	ldr	r3, [r7, #8]
 80020e4:	0c1b      	lsrs	r3, r3, #16
 80020e6:	b2db      	uxtb	r3, r3
 80020e8:	2b01      	cmp	r3, #1
 80020ea:	d10d      	bne.n	8002108 <I2C_WaitOnFlagUntilTimeout+0x84>
 80020ec:	68fb      	ldr	r3, [r7, #12]
 80020ee:	681b      	ldr	r3, [r3, #0]
 80020f0:	695b      	ldr	r3, [r3, #20]
 80020f2:	43da      	mvns	r2, r3
 80020f4:	68bb      	ldr	r3, [r7, #8]
 80020f6:	4013      	ands	r3, r2
 80020f8:	b29b      	uxth	r3, r3
 80020fa:	2b00      	cmp	r3, #0
 80020fc:	bf0c      	ite	eq
 80020fe:	2301      	moveq	r3, #1
 8002100:	2300      	movne	r3, #0
 8002102:	b2db      	uxtb	r3, r3
 8002104:	461a      	mov	r2, r3
 8002106:	e00c      	b.n	8002122 <I2C_WaitOnFlagUntilTimeout+0x9e>
 8002108:	68fb      	ldr	r3, [r7, #12]
 800210a:	681b      	ldr	r3, [r3, #0]
 800210c:	699b      	ldr	r3, [r3, #24]
 800210e:	43da      	mvns	r2, r3
 8002110:	68bb      	ldr	r3, [r7, #8]
 8002112:	4013      	ands	r3, r2
 8002114:	b29b      	uxth	r3, r3
 8002116:	2b00      	cmp	r3, #0
 8002118:	bf0c      	ite	eq
 800211a:	2301      	moveq	r3, #1
 800211c:	2300      	movne	r3, #0
 800211e:	b2db      	uxtb	r3, r3
 8002120:	461a      	mov	r2, r3
 8002122:	79fb      	ldrb	r3, [r7, #7]
 8002124:	429a      	cmp	r2, r3
 8002126:	d0b6      	beq.n	8002096 <I2C_WaitOnFlagUntilTimeout+0x12>
      }
    }
  }
  return HAL_OK;
 8002128:	2300      	movs	r3, #0
}
 800212a:	4618      	mov	r0, r3
 800212c:	3710      	adds	r7, #16
 800212e:	46bd      	mov	sp, r7
 8002130:	bd80      	pop	{r7, pc}

08002132 <I2C_WaitOnMasterAddressFlagUntilTimeout>:
  * @param  Timeout Timeout duration
  * @param  Tickstart Tick start value
  * @retval HAL status
  */
static HAL_StatusTypeDef I2C_WaitOnMasterAddressFlagUntilTimeout(I2C_HandleTypeDef *hi2c, uint32_t Flag, uint32_t Timeout, uint32_t Tickstart)
{
 8002132:	b580      	push	{r7, lr}
 8002134:	b084      	sub	sp, #16
 8002136:	af00      	add	r7, sp, #0
 8002138:	60f8      	str	r0, [r7, #12]
 800213a:	60b9      	str	r1, [r7, #8]
 800213c:	607a      	str	r2, [r7, #4]
 800213e:	603b      	str	r3, [r7, #0]
  while (__HAL_I2C_GET_FLAG(hi2c, Flag) == RESET)
 8002140:	e051      	b.n	80021e6 <I2C_WaitOnMasterAddressFlagUntilTimeout+0xb4>
  {
    if (__HAL_I2C_GET_FLAG(hi2c, I2C_FLAG_AF) == SET)
 8002142:	68fb      	ldr	r3, [r7, #12]
 8002144:	681b      	ldr	r3, [r3, #0]
 8002146:	695b      	ldr	r3, [r3, #20]
 8002148:	f403 6380 	and.w	r3, r3, #1024	; 0x400
 800214c:	f5b3 6f80 	cmp.w	r3, #1024	; 0x400
 8002150:	d123      	bne.n	800219a <I2C_WaitOnMasterAddressFlagUntilTimeout+0x68>
    {
      /* Generate Stop */
      SET_BIT(hi2c->Instance->CR1, I2C_CR1_STOP);
 8002152:	68fb      	ldr	r3, [r7, #12]
 8002154:	681b      	ldr	r3, [r3, #0]
 8002156:	681a      	ldr	r2, [r3, #0]
 8002158:	68fb      	ldr	r3, [r7, #12]
 800215a:	681b      	ldr	r3, [r3, #0]
 800215c:	f442 7200 	orr.w	r2, r2, #512	; 0x200
 8002160:	601a      	str	r2, [r3, #0]

      /* Clear AF Flag */
      __HAL_I2C_CLEAR_FLAG(hi2c, I2C_FLAG_AF);
 8002162:	68fb      	ldr	r3, [r7, #12]
 8002164:	681b      	ldr	r3, [r3, #0]
 8002166:	f46f 6280 	mvn.w	r2, #1024	; 0x400
 800216a:	615a      	str	r2, [r3, #20]

      hi2c->PreviousState       = I2C_STATE_NONE;
 800216c:	68fb      	ldr	r3, [r7, #12]
 800216e:	2200      	movs	r2, #0
 8002170:	631a      	str	r2, [r3, #48]	; 0x30
      hi2c->State               = HAL_I2C_STATE_READY;
 8002172:	68fb      	ldr	r3, [r7, #12]
 8002174:	2220      	movs	r2, #32
 8002176:	f883 203d 	strb.w	r2, [r3, #61]	; 0x3d
      hi2c->Mode                = HAL_I2C_MODE_NONE;
 800217a:	68fb      	ldr	r3, [r7, #12]
 800217c:	2200      	movs	r2, #0
 800217e:	f883 203e 	strb.w	r2, [r3, #62]	; 0x3e
      hi2c->ErrorCode           |= HAL_I2C_ERROR_AF;
 8002182:	68fb      	ldr	r3, [r7, #12]
 8002184:	6c1b      	ldr	r3, [r3, #64]	; 0x40
 8002186:	f043 0204 	orr.w	r2, r3, #4
 800218a:	68fb      	ldr	r3, [r7, #12]
 800218c:	641a      	str	r2, [r3, #64]	; 0x40

      /* Process Unlocked */
      __HAL_UNLOCK(hi2c);
 800218e:	68fb      	ldr	r3, [r7, #12]
 8002190:	2200      	movs	r2, #0
 8002192:	f883 203c 	strb.w	r2, [r3, #60]	; 0x3c

      return HAL_ERROR;
 8002196:	2301      	movs	r3, #1
 8002198:	e046      	b.n	8002228 <I2C_WaitOnMasterAddressFlagUntilTimeout+0xf6>
    }

    /* Check for the Timeout */
    if (Timeout != HAL_MAX_DELAY)
 800219a:	687b      	ldr	r3, [r7, #4]
 800219c:	f1b3 3fff 	cmp.w	r3, #4294967295
 80021a0:	d021      	beq.n	80021e6 <I2C_WaitOnMasterAddressFlagUntilTimeout+0xb4>
    {
      if (((HAL_GetTick() - Tickstart) > Timeout) || (Timeout == 0U))
 80021a2:	f7fe fe47 	bl	8000e34 <HAL_GetTick>
 80021a6:	4602      	mov	r2, r0
 80021a8:	683b      	ldr	r3, [r7, #0]
 80021aa:	1ad3      	subs	r3, r2, r3
 80021ac:	687a      	ldr	r2, [r7, #4]
 80021ae:	429a      	cmp	r2, r3
 80021b0:	d302      	bcc.n	80021b8 <I2C_WaitOnMasterAddressFlagUntilTimeout+0x86>
 80021b2:	687b      	ldr	r3, [r7, #4]
 80021b4:	2b00      	cmp	r3, #0
 80021b6:	d116      	bne.n	80021e6 <I2C_WaitOnMasterAddressFlagUntilTimeout+0xb4>
      {
        hi2c->PreviousState       = I2C_STATE_NONE;
 80021b8:	68fb      	ldr	r3, [r7, #12]
 80021ba:	2200      	movs	r2, #0
 80021bc:	631a      	str	r2, [r3, #48]	; 0x30
        hi2c->State               = HAL_I2C_STATE_READY;
 80021be:	68fb      	ldr	r3, [r7, #12]
 80021c0:	2220      	movs	r2, #32
 80021c2:	f883 203d 	strb.w	r2, [r3, #61]	; 0x3d
        hi2c->Mode                = HAL_I2C_MODE_NONE;
 80021c6:	68fb      	ldr	r3, [r7, #12]
 80021c8:	2200      	movs	r2, #0
 80021ca:	f883 203e 	strb.w	r2, [r3, #62]	; 0x3e
        hi2c->ErrorCode           |= HAL_I2C_ERROR_TIMEOUT;
 80021ce:	68fb      	ldr	r3, [r7, #12]
 80021d0:	6c1b      	ldr	r3, [r3, #64]	; 0x40
 80021d2:	f043 0220 	orr.w	r2, r3, #32
 80021d6:	68fb      	ldr	r3, [r7, #12]
 80021d8:	641a      	str	r2, [r3, #64]	; 0x40

        /* Process Unlocked */
        __HAL_UNLOCK(hi2c);
 80021da:	68fb      	ldr	r3, [r7, #12]
 80021dc:	2200      	movs	r2, #0
 80021de:	f883 203c 	strb.w	r2, [r3, #60]	; 0x3c

        return HAL_ERROR;
 80021e2:	2301      	movs	r3, #1
 80021e4:	e020      	b.n	8002228 <I2C_WaitOnMasterAddressFlagUntilTimeout+0xf6>
  while (__HAL_I2C_GET_FLAG(hi2c, Flag) == RESET)
 80021e6:	68bb      	ldr	r3, [r7, #8]
 80021e8:	0c1b      	lsrs	r3, r3, #16
 80021ea:	b2db      	uxtb	r3, r3
 80021ec:	2b01      	cmp	r3, #1
 80021ee:	d10c      	bne.n	800220a <I2C_WaitOnMasterAddressFlagUntilTimeout+0xd8>
 80021f0:	68fb      	ldr	r3, [r7, #12]
 80021f2:	681b      	ldr	r3, [r3, #0]
 80021f4:	695b      	ldr	r3, [r3, #20]
 80021f6:	43da      	mvns	r2, r3
 80021f8:	68bb      	ldr	r3, [r7, #8]
 80021fa:	4013      	ands	r3, r2
 80021fc:	b29b      	uxth	r3, r3
 80021fe:	2b00      	cmp	r3, #0
 8002200:	bf14      	ite	ne
 8002202:	2301      	movne	r3, #1
 8002204:	2300      	moveq	r3, #0
 8002206:	b2db      	uxtb	r3, r3
 8002208:	e00b      	b.n	8002222 <I2C_WaitOnMasterAddressFlagUntilTimeout+0xf0>
 800220a:	68fb      	ldr	r3, [r7, #12]
 800220c:	681b      	ldr	r3, [r3, #0]
 800220e:	699b      	ldr	r3, [r3, #24]
 8002210:	43da      	mvns	r2, r3
 8002212:	68bb      	ldr	r3, [r7, #8]
 8002214:	4013      	ands	r3, r2
 8002216:	b29b      	uxth	r3, r3
 8002218:	2b00      	cmp	r3, #0
 800221a:	bf14      	ite	ne
 800221c:	2301      	movne	r3, #1
 800221e:	2300      	moveq	r3, #0
 8002220:	b2db      	uxtb	r3, r3
 8002222:	2b00      	cmp	r3, #0
 8002224:	d18d      	bne.n	8002142 <I2C_WaitOnMasterAddressFlagUntilTimeout+0x10>
      }
    }
  }
  return HAL_OK;
 8002226:	2300      	movs	r3, #0
}
 8002228:	4618      	mov	r0, r3
 800222a:	3710      	adds	r7, #16
 800222c:	46bd      	mov	sp, r7
 800222e:	bd80      	pop	{r7, pc}

08002230 <I2C_WaitOnTXEFlagUntilTimeout>:
  * @param  Timeout Timeout duration
  * @param  Tickstart Tick start value
  * @retval HAL status
  */
static HAL_StatusTypeDef I2C_WaitOnTXEFlagUntilTimeout(I2C_HandleTypeDef *hi2c, uint32_t Timeout, uint32_t Tickstart)
{
 8002230:	b580      	push	{r7, lr}
 8002232:	b084      	sub	sp, #16
 8002234:	af00      	add	r7, sp, #0
 8002236:	60f8      	str	r0, [r7, #12]
 8002238:	60b9      	str	r1, [r7, #8]
 800223a:	607a      	str	r2, [r7, #4]
  while (__HAL_I2C_GET_FLAG(hi2c, I2C_FLAG_TXE) == RESET)
 800223c:	e02d      	b.n	800229a <I2C_WaitOnTXEFlagUntilTimeout+0x6a>
  {
    /* Check if a NACK is detected */
    if (I2C_IsAcknowledgeFailed(hi2c) != HAL_OK)
 800223e:	68f8      	ldr	r0, [r7, #12]
 8002240:	f000 f8ce 	bl	80023e0 <I2C_IsAcknowledgeFailed>
 8002244:	4603      	mov	r3, r0
 8002246:	2b00      	cmp	r3, #0
 8002248:	d001      	beq.n	800224e <I2C_WaitOnTXEFlagUntilTimeout+0x1e>
    {
      return HAL_ERROR;
 800224a:	2301      	movs	r3, #1
 800224c:	e02d      	b.n	80022aa <I2C_WaitOnTXEFlagUntilTimeout+0x7a>
    }

    /* Check for the Timeout */
    if (Timeout != HAL_MAX_DELAY)
 800224e:	68bb      	ldr	r3, [r7, #8]
 8002250:	f1b3 3fff 	cmp.w	r3, #4294967295
 8002254:	d021      	beq.n	800229a <I2C_WaitOnTXEFlagUntilTimeout+0x6a>
    {
      if (((HAL_GetTick() - Tickstart) > Timeout) || (Timeout == 0U))
 8002256:	f7fe fded 	bl	8000e34 <HAL_GetTick>
 800225a:	4602      	mov	r2, r0
 800225c:	687b      	ldr	r3, [r7, #4]
 800225e:	1ad3      	subs	r3, r2, r3
 8002260:	68ba      	ldr	r2, [r7, #8]
 8002262:	429a      	cmp	r2, r3
 8002264:	d302      	bcc.n	800226c <I2C_WaitOnTXEFlagUntilTimeout+0x3c>
 8002266:	68bb      	ldr	r3, [r7, #8]
 8002268:	2b00      	cmp	r3, #0
 800226a:	d116      	bne.n	800229a <I2C_WaitOnTXEFlagUntilTimeout+0x6a>
      {
        hi2c->PreviousState       = I2C_STATE_NONE;
 800226c:	68fb      	ldr	r3, [r7, #12]
 800226e:	2200      	movs	r2, #0
 8002270:	631a      	str	r2, [r3, #48]	; 0x30
        hi2c->State               = HAL_I2C_STATE_READY;
 8002272:	68fb      	ldr	r3, [r7, #12]
 8002274:	2220      	movs	r2, #32
 8002276:	f883 203d 	strb.w	r2, [r3, #61]	; 0x3d
        hi2c->Mode                = HAL_I2C_MODE_NONE;
 800227a:	68fb      	ldr	r3, [r7, #12]
 800227c:	2200      	movs	r2, #0
 800227e:	f883 203e 	strb.w	r2, [r3, #62]	; 0x3e
        hi2c->ErrorCode           |= HAL_I2C_ERROR_TIMEOUT;
 8002282:	68fb      	ldr	r3, [r7, #12]
 8002284:	6c1b      	ldr	r3, [r3, #64]	; 0x40
 8002286:	f043 0220 	orr.w	r2, r3, #32
 800228a:	68fb      	ldr	r3, [r7, #12]
 800228c:	641a      	str	r2, [r3, #64]	; 0x40

        /* Process Unlocked */
        __HAL_UNLOCK(hi2c);
 800228e:	68fb      	ldr	r3, [r7, #12]
 8002290:	2200      	movs	r2, #0
 8002292:	f883 203c 	strb.w	r2, [r3, #60]	; 0x3c

        return HAL_ERROR;
 8002296:	2301      	movs	r3, #1
 8002298:	e007      	b.n	80022aa <I2C_WaitOnTXEFlagUntilTimeout+0x7a>
  while (__HAL_I2C_GET_FLAG(hi2c, I2C_FLAG_TXE) == RESET)
 800229a:	68fb      	ldr	r3, [r7, #12]
 800229c:	681b      	ldr	r3, [r3, #0]
 800229e:	695b      	ldr	r3, [r3, #20]
 80022a0:	f003 0380 	and.w	r3, r3, #128	; 0x80
 80022a4:	2b80      	cmp	r3, #128	; 0x80
 80022a6:	d1ca      	bne.n	800223e <I2C_WaitOnTXEFlagUntilTimeout+0xe>
      }
    }
  }
  return HAL_OK;
 80022a8:	2300      	movs	r3, #0
}
 80022aa:	4618      	mov	r0, r3
 80022ac:	3710      	adds	r7, #16
 80022ae:	46bd      	mov	sp, r7
 80022b0:	bd80      	pop	{r7, pc}

080022b2 <I2C_WaitOnBTFFlagUntilTimeout>:
  * @param  Timeout Timeout duration
  * @param  Tickstart Tick start value
  * @retval HAL status
  */
static HAL_StatusTypeDef I2C_WaitOnBTFFlagUntilTimeout(I2C_HandleTypeDef *hi2c, uint32_t Timeout, uint32_t Tickstart)
{
 80022b2:	b580      	push	{r7, lr}
 80022b4:	b084      	sub	sp, #16
 80022b6:	af00      	add	r7, sp, #0
 80022b8:	60f8      	str	r0, [r7, #12]
 80022ba:	60b9      	str	r1, [r7, #8]
 80022bc:	607a      	str	r2, [r7, #4]
  while (__HAL_I2C_GET_FLAG(hi2c, I2C_FLAG_BTF) == RESET)
 80022be:	e02d      	b.n	800231c <I2C_WaitOnBTFFlagUntilTimeout+0x6a>
  {
    /* Check if a NACK is detected */
    if (I2C_IsAcknowledgeFailed(hi2c) != HAL_OK)
 80022c0:	68f8      	ldr	r0, [r7, #12]
 80022c2:	f000 f88d 	bl	80023e0 <I2C_IsAcknowledgeFailed>
 80022c6:	4603      	mov	r3, r0
 80022c8:	2b00      	cmp	r3, #0
 80022ca:	d001      	beq.n	80022d0 <I2C_WaitOnBTFFlagUntilTimeout+0x1e>
    {
      return HAL_ERROR;
 80022cc:	2301      	movs	r3, #1
 80022ce:	e02d      	b.n	800232c <I2C_WaitOnBTFFlagUntilTimeout+0x7a>
    }

    /* Check for the Timeout */
    if (Timeout != HAL_MAX_DELAY)
 80022d0:	68bb      	ldr	r3, [r7, #8]
 80022d2:	f1b3 3fff 	cmp.w	r3, #4294967295
 80022d6:	d021      	beq.n	800231c <I2C_WaitOnBTFFlagUntilTimeout+0x6a>
    {
      if (((HAL_GetTick() - Tickstart) > Timeout) || (Timeout == 0U))
 80022d8:	f7fe fdac 	bl	8000e34 <HAL_GetTick>
 80022dc:	4602      	mov	r2, r0
 80022de:	687b      	ldr	r3, [r7, #4]
 80022e0:	1ad3      	subs	r3, r2, r3
 80022e2:	68ba      	ldr	r2, [r7, #8]
 80022e4:	429a      	cmp	r2, r3
 80022e6:	d302      	bcc.n	80022ee <I2C_WaitOnBTFFlagUntilTimeout+0x3c>
 80022e8:	68bb      	ldr	r3, [r7, #8]
 80022ea:	2b00      	cmp	r3, #0
 80022ec:	d116      	bne.n	800231c <I2C_WaitOnBTFFlagUntilTimeout+0x6a>
      {
        hi2c->PreviousState       = I2C_STATE_NONE;
 80022ee:	68fb      	ldr	r3, [r7, #12]
 80022f0:	2200      	movs	r2, #0
 80022f2:	631a      	str	r2, [r3, #48]	; 0x30
        hi2c->State               = HAL_I2C_STATE_READY;
 80022f4:	68fb      	ldr	r3, [r7, #12]
 80022f6:	2220      	movs	r2, #32
 80022f8:	f883 203d 	strb.w	r2, [r3, #61]	; 0x3d
        hi2c->Mode                = HAL_I2C_MODE_NONE;
 80022fc:	68fb      	ldr	r3, [r7, #12]
 80022fe:	2200      	movs	r2, #0
 8002300:	f883 203e 	strb.w	r2, [r3, #62]	; 0x3e
        hi2c->ErrorCode           |= HAL_I2C_ERROR_TIMEOUT;
 8002304:	68fb      	ldr	r3, [r7, #12]
 8002306:	6c1b      	ldr	r3, [r3, #64]	; 0x40
 8002308:	f043 0220 	orr.w	r2, r3, #32
 800230c:	68fb      	ldr	r3, [r7, #12]
 800230e:	641a      	str	r2, [r3, #64]	; 0x40

        /* Process Unlocked */
        __HAL_UNLOCK(hi2c);
 8002310:	68fb      	ldr	r3, [r7, #12]
 8002312:	2200      	movs	r2, #0
 8002314:	f883 203c 	strb.w	r2, [r3, #60]	; 0x3c

        return HAL_ERROR;
 8002318:	2301      	movs	r3, #1
 800231a:	e007      	b.n	800232c <I2C_WaitOnBTFFlagUntilTimeout+0x7a>
  while (__HAL_I2C_GET_FLAG(hi2c, I2C_FLAG_BTF) == RESET)
 800231c:	68fb      	ldr	r3, [r7, #12]
 800231e:	681b      	ldr	r3, [r3, #0]
 8002320:	695b      	ldr	r3, [r3, #20]
 8002322:	f003 0304 	and.w	r3, r3, #4
 8002326:	2b04      	cmp	r3, #4
 8002328:	d1ca      	bne.n	80022c0 <I2C_WaitOnBTFFlagUntilTimeout+0xe>
      }
    }
  }
  return HAL_OK;
 800232a:	2300      	movs	r3, #0
}
 800232c:	4618      	mov	r0, r3
 800232e:	3710      	adds	r7, #16
 8002330:	46bd      	mov	sp, r7
 8002332:	bd80      	pop	{r7, pc}

08002334 <I2C_WaitOnRXNEFlagUntilTimeout>:
  * @param  Timeout Timeout duration
  * @param  Tickstart Tick start value
  * @retval HAL status
  */
static HAL_StatusTypeDef I2C_WaitOnRXNEFlagUntilTimeout(I2C_HandleTypeDef *hi2c, uint32_t Timeout, uint32_t Tickstart)
{
 8002334:	b580      	push	{r7, lr}
 8002336:	b084      	sub	sp, #16
 8002338:	af00      	add	r7, sp, #0
 800233a:	60f8      	str	r0, [r7, #12]
 800233c:	60b9      	str	r1, [r7, #8]
 800233e:	607a      	str	r2, [r7, #4]

  while (__HAL_I2C_GET_FLAG(hi2c, I2C_FLAG_RXNE) == RESET)
 8002340:	e042      	b.n	80023c8 <I2C_WaitOnRXNEFlagUntilTimeout+0x94>
  {
    /* Check if a STOPF is detected */
    if (__HAL_I2C_GET_FLAG(hi2c, I2C_FLAG_STOPF) == SET)
 8002342:	68fb      	ldr	r3, [r7, #12]
 8002344:	681b      	ldr	r3, [r3, #0]
 8002346:	695b      	ldr	r3, [r3, #20]
 8002348:	f003 0310 	and.w	r3, r3, #16
 800234c:	2b10      	cmp	r3, #16
 800234e:	d119      	bne.n	8002384 <I2C_WaitOnRXNEFlagUntilTimeout+0x50>
    {
      /* Clear STOP Flag */
      __HAL_I2C_CLEAR_FLAG(hi2c, I2C_FLAG_STOPF);
 8002350:	68fb      	ldr	r3, [r7, #12]
 8002352:	681b      	ldr	r3, [r3, #0]
 8002354:	f06f 0210 	mvn.w	r2, #16
 8002358:	615a      	str	r2, [r3, #20]

      hi2c->PreviousState       = I2C_STATE_NONE;
 800235a:	68fb      	ldr	r3, [r7, #12]
 800235c:	2200      	movs	r2, #0
 800235e:	631a      	str	r2, [r3, #48]	; 0x30
      hi2c->State               = HAL_I2C_STATE_READY;
 8002360:	68fb      	ldr	r3, [r7, #12]
 8002362:	2220      	movs	r2, #32
 8002364:	f883 203d 	strb.w	r2, [r3, #61]	; 0x3d
      hi2c->Mode                = HAL_I2C_MODE_NONE;
 8002368:	68fb      	ldr	r3, [r7, #12]
 800236a:	2200      	movs	r2, #0
 800236c:	f883 203e 	strb.w	r2, [r3, #62]	; 0x3e
      hi2c->ErrorCode           |= HAL_I2C_ERROR_NONE;
 8002370:	68fb      	ldr	r3, [r7, #12]
 8002372:	6c1a      	ldr	r2, [r3, #64]	; 0x40
 8002374:	68fb      	ldr	r3, [r7, #12]
 8002376:	641a      	str	r2, [r3, #64]	; 0x40

      /* Process Unlocked */
      __HAL_UNLOCK(hi2c);
 8002378:	68fb      	ldr	r3, [r7, #12]
 800237a:	2200      	movs	r2, #0
 800237c:	f883 203c 	strb.w	r2, [r3, #60]	; 0x3c

      return HAL_ERROR;
 8002380:	2301      	movs	r3, #1
 8002382:	e029      	b.n	80023d8 <I2C_WaitOnRXNEFlagUntilTimeout+0xa4>
    }

    /* Check for the Timeout */
    if (((HAL_GetTick() - Tickstart) > Timeout) || (Timeout == 0U))
 8002384:	f7fe fd56 	bl	8000e34 <HAL_GetTick>
 8002388:	4602      	mov	r2, r0
 800238a:	687b      	ldr	r3, [r7, #4]
 800238c:	1ad3      	subs	r3, r2, r3
 800238e:	68ba      	ldr	r2, [r7, #8]
 8002390:	429a      	cmp	r2, r3
 8002392:	d302      	bcc.n	800239a <I2C_WaitOnRXNEFlagUntilTimeout+0x66>
 8002394:	68bb      	ldr	r3, [r7, #8]
 8002396:	2b00      	cmp	r3, #0
 8002398:	d116      	bne.n	80023c8 <I2C_WaitOnRXNEFlagUntilTimeout+0x94>
    {
      hi2c->PreviousState       = I2C_STATE_NONE;
 800239a:	68fb      	ldr	r3, [r7, #12]
 800239c:	2200      	movs	r2, #0
 800239e:	631a      	str	r2, [r3, #48]	; 0x30
      hi2c->State               = HAL_I2C_STATE_READY;
 80023a0:	68fb      	ldr	r3, [r7, #12]
 80023a2:	2220      	movs	r2, #32
 80023a4:	f883 203d 	strb.w	r2, [r3, #61]	; 0x3d
      hi2c->Mode                = HAL_I2C_MODE_NONE;
 80023a8:	68fb      	ldr	r3, [r7, #12]
 80023aa:	2200      	movs	r2, #0
 80023ac:	f883 203e 	strb.w	r2, [r3, #62]	; 0x3e
      hi2c->ErrorCode           |= HAL_I2C_ERROR_TIMEOUT;
 80023b0:	68fb      	ldr	r3, [r7, #12]
 80023b2:	6c1b      	ldr	r3, [r3, #64]	; 0x40
 80023b4:	f043 0220 	orr.w	r2, r3, #32
 80023b8:	68fb      	ldr	r3, [r7, #12]
 80023ba:	641a      	str	r2, [r3, #64]	; 0x40

      /* Process Unlocked */
      __HAL_UNLOCK(hi2c);
 80023bc:	68fb      	ldr	r3, [r7, #12]
 80023be:	2200      	movs	r2, #0
 80023c0:	f883 203c 	strb.w	r2, [r3, #60]	; 0x3c

      return HAL_ERROR;
 80023c4:	2301      	movs	r3, #1
 80023c6:	e007      	b.n	80023d8 <I2C_WaitOnRXNEFlagUntilTimeout+0xa4>
  while (__HAL_I2C_GET_FLAG(hi2c, I2C_FLAG_RXNE) == RESET)
 80023c8:	68fb      	ldr	r3, [r7, #12]
 80023ca:	681b      	ldr	r3, [r3, #0]
 80023cc:	695b      	ldr	r3, [r3, #20]
 80023ce:	f003 0340 	and.w	r3, r3, #64	; 0x40
 80023d2:	2b40      	cmp	r3, #64	; 0x40
 80023d4:	d1b5      	bne.n	8002342 <I2C_WaitOnRXNEFlagUntilTimeout+0xe>
    }
  }
  return HAL_OK;
 80023d6:	2300      	movs	r3, #0
}
 80023d8:	4618      	mov	r0, r3
 80023da:	3710      	adds	r7, #16
 80023dc:	46bd      	mov	sp, r7
 80023de:	bd80      	pop	{r7, pc}

080023e0 <I2C_IsAcknowledgeFailed>:
  * @param  hi2c Pointer to a I2C_HandleTypeDef structure that contains
  *                the configuration information for the specified I2C.
  * @retval HAL status
  */
static HAL_StatusTypeDef I2C_IsAcknowledgeFailed(I2C_HandleTypeDef *hi2c)
{
 80023e0:	b480      	push	{r7}
 80023e2:	b083      	sub	sp, #12
 80023e4:	af00      	add	r7, sp, #0
 80023e6:	6078      	str	r0, [r7, #4]
  if (__HAL_I2C_GET_FLAG(hi2c, I2C_FLAG_AF) == SET)
 80023e8:	687b      	ldr	r3, [r7, #4]
 80023ea:	681b      	ldr	r3, [r3, #0]
 80023ec:	695b      	ldr	r3, [r3, #20]
 80023ee:	f403 6380 	and.w	r3, r3, #1024	; 0x400
 80023f2:	f5b3 6f80 	cmp.w	r3, #1024	; 0x400
 80023f6:	d11b      	bne.n	8002430 <I2C_IsAcknowledgeFailed+0x50>
  {
    /* Clear NACKF Flag */
    __HAL_I2C_CLEAR_FLAG(hi2c, I2C_FLAG_AF);
 80023f8:	687b      	ldr	r3, [r7, #4]
 80023fa:	681b      	ldr	r3, [r3, #0]
 80023fc:	f46f 6280 	mvn.w	r2, #1024	; 0x400
 8002400:	615a      	str	r2, [r3, #20]

    hi2c->PreviousState       = I2C_STATE_NONE;
 8002402:	687b      	ldr	r3, [r7, #4]
 8002404:	2200      	movs	r2, #0
 8002406:	631a      	str	r2, [r3, #48]	; 0x30
    hi2c->State               = HAL_I2C_STATE_READY;
 8002408:	687b      	ldr	r3, [r7, #4]
 800240a:	2220      	movs	r2, #32
 800240c:	f883 203d 	strb.w	r2, [r3, #61]	; 0x3d
    hi2c->Mode                = HAL_I2C_MODE_NONE;
 8002410:	687b      	ldr	r3, [r7, #4]
 8002412:	2200      	movs	r2, #0
 8002414:	f883 203e 	strb.w	r2, [r3, #62]	; 0x3e
    hi2c->ErrorCode           |= HAL_I2C_ERROR_AF;
 8002418:	687b      	ldr	r3, [r7, #4]
 800241a:	6c1b      	ldr	r3, [r3, #64]	; 0x40
 800241c:	f043 0204 	orr.w	r2, r3, #4
 8002420:	687b      	ldr	r3, [r7, #4]
 8002422:	641a      	str	r2, [r3, #64]	; 0x40

    /* Process Unlocked */
    __HAL_UNLOCK(hi2c);
 8002424:	687b      	ldr	r3, [r7, #4]
 8002426:	2200      	movs	r2, #0
 8002428:	f883 203c 	strb.w	r2, [r3, #60]	; 0x3c

    return HAL_ERROR;
 800242c:	2301      	movs	r3, #1
 800242e:	e000      	b.n	8002432 <I2C_IsAcknowledgeFailed+0x52>
  }
  return HAL_OK;
 8002430:	2300      	movs	r3, #0
}
 8002432:	4618      	mov	r0, r3
 8002434:	370c      	adds	r7, #12
 8002436:	46bd      	mov	sp, r7
 8002438:	bc80      	pop	{r7}
 800243a:	4770      	bx	lr

0800243c <HAL_RCC_OscConfig>:
  *         supported by this macro. User should request a transition to HSE Off
  *         first and then HSE On or HSE Bypass.
  * @retval HAL status
  */
HAL_StatusTypeDef HAL_RCC_OscConfig(RCC_OscInitTypeDef  *RCC_OscInitStruct)
{
 800243c:	b580      	push	{r7, lr}
 800243e:	b086      	sub	sp, #24
 8002440:	af00      	add	r7, sp, #0
 8002442:	6078      	str	r0, [r7, #4]
  uint32_t tickstart;
  uint32_t pll_config;

  /* Check Null pointer */
  if (RCC_OscInitStruct == NULL)
 8002444:	687b      	ldr	r3, [r7, #4]
 8002446:	2b00      	cmp	r3, #0
 8002448:	d101      	bne.n	800244e <HAL_RCC_OscConfig+0x12>
  {
    return HAL_ERROR;
 800244a:	2301      	movs	r3, #1
 800244c:	e272      	b.n	8002934 <HAL_RCC_OscConfig+0x4f8>

  /* Check the parameters */
  assert_param(IS_RCC_OSCILLATORTYPE(RCC_OscInitStruct->OscillatorType));

  /*------------------------------- HSE Configuration ------------------------*/
  if (((RCC_OscInitStruct->OscillatorType) & RCC_OSCILLATORTYPE_HSE) == RCC_OSCILLATORTYPE_HSE)
 800244e:	687b      	ldr	r3, [r7, #4]
 8002450:	681b      	ldr	r3, [r3, #0]
 8002452:	f003 0301 	and.w	r3, r3, #1
 8002456:	2b00      	cmp	r3, #0
 8002458:	f000 8087 	beq.w	800256a <HAL_RCC_OscConfig+0x12e>
  {
    /* Check the parameters */
    assert_param(IS_RCC_HSE(RCC_OscInitStruct->HSEState));

    /* When the HSE is used as system clock or clock source for PLL in these cases it is not allowed to be disabled */
    if ((__HAL_RCC_GET_SYSCLK_SOURCE() == RCC_SYSCLKSOURCE_STATUS_HSE)
 800245c:	4b92      	ldr	r3, [pc, #584]	; (80026a8 <HAL_RCC_OscConfig+0x26c>)
 800245e:	685b      	ldr	r3, [r3, #4]
 8002460:	f003 030c 	and.w	r3, r3, #12
 8002464:	2b04      	cmp	r3, #4
 8002466:	d00c      	beq.n	8002482 <HAL_RCC_OscConfig+0x46>
        || ((__HAL_RCC_GET_SYSCLK_SOURCE() == RCC_SYSCLKSOURCE_STATUS_PLLCLK) && (__HAL_RCC_GET_PLL_OSCSOURCE() == RCC_PLLSOURCE_HSE)))
 8002468:	4b8f      	ldr	r3, [pc, #572]	; (80026a8 <HAL_RCC_OscConfig+0x26c>)
 800246a:	685b      	ldr	r3, [r3, #4]
 800246c:	f003 030c 	and.w	r3, r3, #12
 8002470:	2b08      	cmp	r3, #8
 8002472:	d112      	bne.n	800249a <HAL_RCC_OscConfig+0x5e>
 8002474:	4b8c      	ldr	r3, [pc, #560]	; (80026a8 <HAL_RCC_OscConfig+0x26c>)
 8002476:	685b      	ldr	r3, [r3, #4]
 8002478:	f403 3380 	and.w	r3, r3, #65536	; 0x10000
 800247c:	f5b3 3f80 	cmp.w	r3, #65536	; 0x10000
 8002480:	d10b      	bne.n	800249a <HAL_RCC_OscConfig+0x5e>
    {
      if ((__HAL_RCC_GET_FLAG(RCC_FLAG_HSERDY) != RESET) && (RCC_OscInitStruct->HSEState == RCC_HSE_OFF))
 8002482:	4b89      	ldr	r3, [pc, #548]	; (80026a8 <HAL_RCC_OscConfig+0x26c>)
 8002484:	681b      	ldr	r3, [r3, #0]
 8002486:	f403 3300 	and.w	r3, r3, #131072	; 0x20000
 800248a:	2b00      	cmp	r3, #0
 800248c:	d06c      	beq.n	8002568 <HAL_RCC_OscConfig+0x12c>
 800248e:	687b      	ldr	r3, [r7, #4]
 8002490:	685b      	ldr	r3, [r3, #4]
 8002492:	2b00      	cmp	r3, #0
 8002494:	d168      	bne.n	8002568 <HAL_RCC_OscConfig+0x12c>
      {
        return HAL_ERROR;
 8002496:	2301      	movs	r3, #1
 8002498:	e24c      	b.n	8002934 <HAL_RCC_OscConfig+0x4f8>
      }
    }
    else
    {
      /* Set the new HSE configuration ---------------------------------------*/
      __HAL_RCC_HSE_CONFIG(RCC_OscInitStruct->HSEState);
 800249a:	687b      	ldr	r3, [r7, #4]
 800249c:	685b      	ldr	r3, [r3, #4]
 800249e:	f5b3 3f80 	cmp.w	r3, #65536	; 0x10000
 80024a2:	d106      	bne.n	80024b2 <HAL_RCC_OscConfig+0x76>
 80024a4:	4b80      	ldr	r3, [pc, #512]	; (80026a8 <HAL_RCC_OscConfig+0x26c>)
 80024a6:	681b      	ldr	r3, [r3, #0]
 80024a8:	4a7f      	ldr	r2, [pc, #508]	; (80026a8 <HAL_RCC_OscConfig+0x26c>)
 80024aa:	f443 3380 	orr.w	r3, r3, #65536	; 0x10000
 80024ae:	6013      	str	r3, [r2, #0]
 80024b0:	e02e      	b.n	8002510 <HAL_RCC_OscConfig+0xd4>
 80024b2:	687b      	ldr	r3, [r7, #4]
 80024b4:	685b      	ldr	r3, [r3, #4]
 80024b6:	2b00      	cmp	r3, #0
 80024b8:	d10c      	bne.n	80024d4 <HAL_RCC_OscConfig+0x98>
 80024ba:	4b7b      	ldr	r3, [pc, #492]	; (80026a8 <HAL_RCC_OscConfig+0x26c>)
 80024bc:	681b      	ldr	r3, [r3, #0]
 80024be:	4a7a      	ldr	r2, [pc, #488]	; (80026a8 <HAL_RCC_OscConfig+0x26c>)
 80024c0:	f423 3380 	bic.w	r3, r3, #65536	; 0x10000
 80024c4:	6013      	str	r3, [r2, #0]
 80024c6:	4b78      	ldr	r3, [pc, #480]	; (80026a8 <HAL_RCC_OscConfig+0x26c>)
 80024c8:	681b      	ldr	r3, [r3, #0]
 80024ca:	4a77      	ldr	r2, [pc, #476]	; (80026a8 <HAL_RCC_OscConfig+0x26c>)
 80024cc:	f423 2380 	bic.w	r3, r3, #262144	; 0x40000
 80024d0:	6013      	str	r3, [r2, #0]
 80024d2:	e01d      	b.n	8002510 <HAL_RCC_OscConfig+0xd4>
 80024d4:	687b      	ldr	r3, [r7, #4]
 80024d6:	685b      	ldr	r3, [r3, #4]
 80024d8:	f5b3 2fa0 	cmp.w	r3, #327680	; 0x50000
 80024dc:	d10c      	bne.n	80024f8 <HAL_RCC_OscConfig+0xbc>
 80024de:	4b72      	ldr	r3, [pc, #456]	; (80026a8 <HAL_RCC_OscConfig+0x26c>)
 80024e0:	681b      	ldr	r3, [r3, #0]
 80024e2:	4a71      	ldr	r2, [pc, #452]	; (80026a8 <HAL_RCC_OscConfig+0x26c>)
 80024e4:	f443 2380 	orr.w	r3, r3, #262144	; 0x40000
 80024e8:	6013      	str	r3, [r2, #0]
 80024ea:	4b6f      	ldr	r3, [pc, #444]	; (80026a8 <HAL_RCC_OscConfig+0x26c>)
 80024ec:	681b      	ldr	r3, [r3, #0]
 80024ee:	4a6e      	ldr	r2, [pc, #440]	; (80026a8 <HAL_RCC_OscConfig+0x26c>)
 80024f0:	f443 3380 	orr.w	r3, r3, #65536	; 0x10000
 80024f4:	6013      	str	r3, [r2, #0]
 80024f6:	e00b      	b.n	8002510 <HAL_RCC_OscConfig+0xd4>
 80024f8:	4b6b      	ldr	r3, [pc, #428]	; (80026a8 <HAL_RCC_OscConfig+0x26c>)
 80024fa:	681b      	ldr	r3, [r3, #0]
 80024fc:	4a6a      	ldr	r2, [pc, #424]	; (80026a8 <HAL_RCC_OscConfig+0x26c>)
 80024fe:	f423 3380 	bic.w	r3, r3, #65536	; 0x10000
 8002502:	6013      	str	r3, [r2, #0]
 8002504:	4b68      	ldr	r3, [pc, #416]	; (80026a8 <HAL_RCC_OscConfig+0x26c>)
 8002506:	681b      	ldr	r3, [r3, #0]
 8002508:	4a67      	ldr	r2, [pc, #412]	; (80026a8 <HAL_RCC_OscConfig+0x26c>)
 800250a:	f423 2380 	bic.w	r3, r3, #262144	; 0x40000
 800250e:	6013      	str	r3, [r2, #0]


      /* Check the HSE State */
      if (RCC_OscInitStruct->HSEState != RCC_HSE_OFF)
 8002510:	687b      	ldr	r3, [r7, #4]
 8002512:	685b      	ldr	r3, [r3, #4]
 8002514:	2b00      	cmp	r3, #0
 8002516:	d013      	beq.n	8002540 <HAL_RCC_OscConfig+0x104>
      {
        /* Get Start Tick */
        tickstart = HAL_GetTick();
 8002518:	f7fe fc8c 	bl	8000e34 <HAL_GetTick>
 800251c:	6138      	str	r0, [r7, #16]

        /* Wait till HSE is ready */
        while (__HAL_RCC_GET_FLAG(RCC_FLAG_HSERDY) == RESET)
 800251e:	e008      	b.n	8002532 <HAL_RCC_OscConfig+0xf6>
        {
          if ((HAL_GetTick() - tickstart) > HSE_TIMEOUT_VALUE)
 8002520:	f7fe fc88 	bl	8000e34 <HAL_GetTick>
 8002524:	4602      	mov	r2, r0
 8002526:	693b      	ldr	r3, [r7, #16]
 8002528:	1ad3      	subs	r3, r2, r3
 800252a:	2b64      	cmp	r3, #100	; 0x64
 800252c:	d901      	bls.n	8002532 <HAL_RCC_OscConfig+0xf6>
          {
            return HAL_TIMEOUT;
 800252e:	2303      	movs	r3, #3
 8002530:	e200      	b.n	8002934 <HAL_RCC_OscConfig+0x4f8>
        while (__HAL_RCC_GET_FLAG(RCC_FLAG_HSERDY) == RESET)
 8002532:	4b5d      	ldr	r3, [pc, #372]	; (80026a8 <HAL_RCC_OscConfig+0x26c>)
 8002534:	681b      	ldr	r3, [r3, #0]
 8002536:	f403 3300 	and.w	r3, r3, #131072	; 0x20000
 800253a:	2b00      	cmp	r3, #0
 800253c:	d0f0      	beq.n	8002520 <HAL_RCC_OscConfig+0xe4>
 800253e:	e014      	b.n	800256a <HAL_RCC_OscConfig+0x12e>
        }
      }
      else
      {
        /* Get Start Tick */
        tickstart = HAL_GetTick();
 8002540:	f7fe fc78 	bl	8000e34 <HAL_GetTick>
 8002544:	6138      	str	r0, [r7, #16]

        /* Wait till HSE is disabled */
        while (__HAL_RCC_GET_FLAG(RCC_FLAG_HSERDY) != RESET)
 8002546:	e008      	b.n	800255a <HAL_RCC_OscConfig+0x11e>
        {
          if ((HAL_GetTick() - tickstart) > HSE_TIMEOUT_VALUE)
 8002548:	f7fe fc74 	bl	8000e34 <HAL_GetTick>
 800254c:	4602      	mov	r2, r0
 800254e:	693b      	ldr	r3, [r7, #16]
 8002550:	1ad3      	subs	r3, r2, r3
 8002552:	2b64      	cmp	r3, #100	; 0x64
 8002554:	d901      	bls.n	800255a <HAL_RCC_OscConfig+0x11e>
          {
            return HAL_TIMEOUT;
 8002556:	2303      	movs	r3, #3
 8002558:	e1ec      	b.n	8002934 <HAL_RCC_OscConfig+0x4f8>
        while (__HAL_RCC_GET_FLAG(RCC_FLAG_HSERDY) != RESET)
 800255a:	4b53      	ldr	r3, [pc, #332]	; (80026a8 <HAL_RCC_OscConfig+0x26c>)
 800255c:	681b      	ldr	r3, [r3, #0]
 800255e:	f403 3300 	and.w	r3, r3, #131072	; 0x20000
 8002562:	2b00      	cmp	r3, #0
 8002564:	d1f0      	bne.n	8002548 <HAL_RCC_OscConfig+0x10c>
 8002566:	e000      	b.n	800256a <HAL_RCC_OscConfig+0x12e>
      if ((__HAL_RCC_GET_FLAG(RCC_FLAG_HSERDY) != RESET) && (RCC_OscInitStruct->HSEState == RCC_HSE_OFF))
 8002568:	bf00      	nop
        }
      }
    }
  }
  /*----------------------------- HSI Configuration --------------------------*/
  if (((RCC_OscInitStruct->OscillatorType) & RCC_OSCILLATORTYPE_HSI) == RCC_OSCILLATORTYPE_HSI)
 800256a:	687b      	ldr	r3, [r7, #4]
 800256c:	681b      	ldr	r3, [r3, #0]
 800256e:	f003 0302 	and.w	r3, r3, #2
 8002572:	2b00      	cmp	r3, #0
 8002574:	d063      	beq.n	800263e <HAL_RCC_OscConfig+0x202>
    /* Check the parameters */
    assert_param(IS_RCC_HSI(RCC_OscInitStruct->HSIState));
    assert_param(IS_RCC_CALIBRATION_VALUE(RCC_OscInitStruct->HSICalibrationValue));

    /* Check if HSI is used as system clock or as PLL source when PLL is selected as system clock */
    if ((__HAL_RCC_GET_SYSCLK_SOURCE() == RCC_SYSCLKSOURCE_STATUS_HSI)
 8002576:	4b4c      	ldr	r3, [pc, #304]	; (80026a8 <HAL_RCC_OscConfig+0x26c>)
 8002578:	685b      	ldr	r3, [r3, #4]
 800257a:	f003 030c 	and.w	r3, r3, #12
 800257e:	2b00      	cmp	r3, #0
 8002580:	d00b      	beq.n	800259a <HAL_RCC_OscConfig+0x15e>
        || ((__HAL_RCC_GET_SYSCLK_SOURCE() == RCC_SYSCLKSOURCE_STATUS_PLLCLK) && (__HAL_RCC_GET_PLL_OSCSOURCE() == RCC_PLLSOURCE_HSI_DIV2)))
 8002582:	4b49      	ldr	r3, [pc, #292]	; (80026a8 <HAL_RCC_OscConfig+0x26c>)
 8002584:	685b      	ldr	r3, [r3, #4]
 8002586:	f003 030c 	and.w	r3, r3, #12
 800258a:	2b08      	cmp	r3, #8
 800258c:	d11c      	bne.n	80025c8 <HAL_RCC_OscConfig+0x18c>
 800258e:	4b46      	ldr	r3, [pc, #280]	; (80026a8 <HAL_RCC_OscConfig+0x26c>)
 8002590:	685b      	ldr	r3, [r3, #4]
 8002592:	f403 3380 	and.w	r3, r3, #65536	; 0x10000
 8002596:	2b00      	cmp	r3, #0
 8002598:	d116      	bne.n	80025c8 <HAL_RCC_OscConfig+0x18c>
    {
      /* When HSI is used as system clock it will not disabled */
      if ((__HAL_RCC_GET_FLAG(RCC_FLAG_HSIRDY) != RESET) && (RCC_OscInitStruct->HSIState != RCC_HSI_ON))
 800259a:	4b43      	ldr	r3, [pc, #268]	; (80026a8 <HAL_RCC_OscConfig+0x26c>)
 800259c:	681b      	ldr	r3, [r3, #0]
 800259e:	f003 0302 	and.w	r3, r3, #2
 80025a2:	2b00      	cmp	r3, #0
 80025a4:	d005      	beq.n	80025b2 <HAL_RCC_OscConfig+0x176>
 80025a6:	687b      	ldr	r3, [r7, #4]
 80025a8:	691b      	ldr	r3, [r3, #16]
 80025aa:	2b01      	cmp	r3, #1
 80025ac:	d001      	beq.n	80025b2 <HAL_RCC_OscConfig+0x176>
      {
        return HAL_ERROR;
 80025ae:	2301      	movs	r3, #1
 80025b0:	e1c0      	b.n	8002934 <HAL_RCC_OscConfig+0x4f8>
      }
      /* Otherwise, just the calibration is allowed */
      else
      {
        /* Adjusts the Internal High Speed oscillator (HSI) calibration value.*/
        __HAL_RCC_HSI_CALIBRATIONVALUE_ADJUST(RCC_OscInitStruct->HSICalibrationValue);
 80025b2:	4b3d      	ldr	r3, [pc, #244]	; (80026a8 <HAL_RCC_OscConfig+0x26c>)
 80025b4:	681b      	ldr	r3, [r3, #0]
 80025b6:	f023 02f8 	bic.w	r2, r3, #248	; 0xf8
 80025ba:	687b      	ldr	r3, [r7, #4]
 80025bc:	695b      	ldr	r3, [r3, #20]
 80025be:	00db      	lsls	r3, r3, #3
 80025c0:	4939      	ldr	r1, [pc, #228]	; (80026a8 <HAL_RCC_OscConfig+0x26c>)
 80025c2:	4313      	orrs	r3, r2
 80025c4:	600b      	str	r3, [r1, #0]
      if ((__HAL_RCC_GET_FLAG(RCC_FLAG_HSIRDY) != RESET) && (RCC_OscInitStruct->HSIState != RCC_HSI_ON))
 80025c6:	e03a      	b.n	800263e <HAL_RCC_OscConfig+0x202>
      }
    }
    else
    {
      /* Check the HSI State */
      if (RCC_OscInitStruct->HSIState != RCC_HSI_OFF)
 80025c8:	687b      	ldr	r3, [r7, #4]
 80025ca:	691b      	ldr	r3, [r3, #16]
 80025cc:	2b00      	cmp	r3, #0
 80025ce:	d020      	beq.n	8002612 <HAL_RCC_OscConfig+0x1d6>
      {
        /* Enable the Internal High Speed oscillator (HSI). */
        __HAL_RCC_HSI_ENABLE();
 80025d0:	4b36      	ldr	r3, [pc, #216]	; (80026ac <HAL_RCC_OscConfig+0x270>)
 80025d2:	2201      	movs	r2, #1
 80025d4:	601a      	str	r2, [r3, #0]

        /* Get Start Tick */
        tickstart = HAL_GetTick();
 80025d6:	f7fe fc2d 	bl	8000e34 <HAL_GetTick>
 80025da:	6138      	str	r0, [r7, #16]

        /* Wait till HSI is ready */
        while (__HAL_RCC_GET_FLAG(RCC_FLAG_HSIRDY) == RESET)
 80025dc:	e008      	b.n	80025f0 <HAL_RCC_OscConfig+0x1b4>
        {
          if ((HAL_GetTick() - tickstart) > HSI_TIMEOUT_VALUE)
 80025de:	f7fe fc29 	bl	8000e34 <HAL_GetTick>
 80025e2:	4602      	mov	r2, r0
 80025e4:	693b      	ldr	r3, [r7, #16]
 80025e6:	1ad3      	subs	r3, r2, r3
 80025e8:	2b02      	cmp	r3, #2
 80025ea:	d901      	bls.n	80025f0 <HAL_RCC_OscConfig+0x1b4>
          {
            return HAL_TIMEOUT;
 80025ec:	2303      	movs	r3, #3
 80025ee:	e1a1      	b.n	8002934 <HAL_RCC_OscConfig+0x4f8>
        while (__HAL_RCC_GET_FLAG(RCC_FLAG_HSIRDY) == RESET)
 80025f0:	4b2d      	ldr	r3, [pc, #180]	; (80026a8 <HAL_RCC_OscConfig+0x26c>)
 80025f2:	681b      	ldr	r3, [r3, #0]
 80025f4:	f003 0302 	and.w	r3, r3, #2
 80025f8:	2b00      	cmp	r3, #0
 80025fa:	d0f0      	beq.n	80025de <HAL_RCC_OscConfig+0x1a2>
          }
        }

        /* Adjusts the Internal High Speed oscillator (HSI) calibration value.*/
        __HAL_RCC_HSI_CALIBRATIONVALUE_ADJUST(RCC_OscInitStruct->HSICalibrationValue);
 80025fc:	4b2a      	ldr	r3, [pc, #168]	; (80026a8 <HAL_RCC_OscConfig+0x26c>)
 80025fe:	681b      	ldr	r3, [r3, #0]
 8002600:	f023 02f8 	bic.w	r2, r3, #248	; 0xf8
 8002604:	687b      	ldr	r3, [r7, #4]
 8002606:	695b      	ldr	r3, [r3, #20]
 8002608:	00db      	lsls	r3, r3, #3
 800260a:	4927      	ldr	r1, [pc, #156]	; (80026a8 <HAL_RCC_OscConfig+0x26c>)
 800260c:	4313      	orrs	r3, r2
 800260e:	600b      	str	r3, [r1, #0]
 8002610:	e015      	b.n	800263e <HAL_RCC_OscConfig+0x202>
      }
      else
      {
        /* Disable the Internal High Speed oscillator (HSI). */
        __HAL_RCC_HSI_DISABLE();
 8002612:	4b26      	ldr	r3, [pc, #152]	; (80026ac <HAL_RCC_OscConfig+0x270>)
 8002614:	2200      	movs	r2, #0
 8002616:	601a      	str	r2, [r3, #0]

        /* Get Start Tick */
        tickstart = HAL_GetTick();
 8002618:	f7fe fc0c 	bl	8000e34 <HAL_GetTick>
 800261c:	6138      	str	r0, [r7, #16]

        /* Wait till HSI is disabled */
        while (__HAL_RCC_GET_FLAG(RCC_FLAG_HSIRDY) != RESET)
 800261e:	e008      	b.n	8002632 <HAL_RCC_OscConfig+0x1f6>
        {
          if ((HAL_GetTick() - tickstart) > HSI_TIMEOUT_VALUE)
 8002620:	f7fe fc08 	bl	8000e34 <HAL_GetTick>
 8002624:	4602      	mov	r2, r0
 8002626:	693b      	ldr	r3, [r7, #16]
 8002628:	1ad3      	subs	r3, r2, r3
 800262a:	2b02      	cmp	r3, #2
 800262c:	d901      	bls.n	8002632 <HAL_RCC_OscConfig+0x1f6>
          {
            return HAL_TIMEOUT;
 800262e:	2303      	movs	r3, #3
 8002630:	e180      	b.n	8002934 <HAL_RCC_OscConfig+0x4f8>
        while (__HAL_RCC_GET_FLAG(RCC_FLAG_HSIRDY) != RESET)
 8002632:	4b1d      	ldr	r3, [pc, #116]	; (80026a8 <HAL_RCC_OscConfig+0x26c>)
 8002634:	681b      	ldr	r3, [r3, #0]
 8002636:	f003 0302 	and.w	r3, r3, #2
 800263a:	2b00      	cmp	r3, #0
 800263c:	d1f0      	bne.n	8002620 <HAL_RCC_OscConfig+0x1e4>
        }
      }
    }
  }
  /*------------------------------ LSI Configuration -------------------------*/
  if (((RCC_OscInitStruct->OscillatorType) & RCC_OSCILLATORTYPE_LSI) == RCC_OSCILLATORTYPE_LSI)
 800263e:	687b      	ldr	r3, [r7, #4]
 8002640:	681b      	ldr	r3, [r3, #0]
 8002642:	f003 0308 	and.w	r3, r3, #8
 8002646:	2b00      	cmp	r3, #0
 8002648:	d03a      	beq.n	80026c0 <HAL_RCC_OscConfig+0x284>
  {
    /* Check the parameters */
    assert_param(IS_RCC_LSI(RCC_OscInitStruct->LSIState));

    /* Check the LSI State */
    if (RCC_OscInitStruct->LSIState != RCC_LSI_OFF)
 800264a:	687b      	ldr	r3, [r7, #4]
 800264c:	699b      	ldr	r3, [r3, #24]
 800264e:	2b00      	cmp	r3, #0
 8002650:	d019      	beq.n	8002686 <HAL_RCC_OscConfig+0x24a>
    {
      /* Enable the Internal Low Speed oscillator (LSI). */
      __HAL_RCC_LSI_ENABLE();
 8002652:	4b17      	ldr	r3, [pc, #92]	; (80026b0 <HAL_RCC_OscConfig+0x274>)
 8002654:	2201      	movs	r2, #1
 8002656:	601a      	str	r2, [r3, #0]

      /* Get Start Tick */
      tickstart = HAL_GetTick();
 8002658:	f7fe fbec 	bl	8000e34 <HAL_GetTick>
 800265c:	6138      	str	r0, [r7, #16]

      /* Wait till LSI is ready */
      while (__HAL_RCC_GET_FLAG(RCC_FLAG_LSIRDY) == RESET)
 800265e:	e008      	b.n	8002672 <HAL_RCC_OscConfig+0x236>
      {
        if ((HAL_GetTick() - tickstart) > LSI_TIMEOUT_VALUE)
 8002660:	f7fe fbe8 	bl	8000e34 <HAL_GetTick>
 8002664:	4602      	mov	r2, r0
 8002666:	693b      	ldr	r3, [r7, #16]
 8002668:	1ad3      	subs	r3, r2, r3
 800266a:	2b02      	cmp	r3, #2
 800266c:	d901      	bls.n	8002672 <HAL_RCC_OscConfig+0x236>
        {
          return HAL_TIMEOUT;
 800266e:	2303      	movs	r3, #3
 8002670:	e160      	b.n	8002934 <HAL_RCC_OscConfig+0x4f8>
      while (__HAL_RCC_GET_FLAG(RCC_FLAG_LSIRDY) == RESET)
 8002672:	4b0d      	ldr	r3, [pc, #52]	; (80026a8 <HAL_RCC_OscConfig+0x26c>)
 8002674:	6a5b      	ldr	r3, [r3, #36]	; 0x24
 8002676:	f003 0302 	and.w	r3, r3, #2
 800267a:	2b00      	cmp	r3, #0
 800267c:	d0f0      	beq.n	8002660 <HAL_RCC_OscConfig+0x224>
        }
      }
      /*  To have a fully stabilized clock in the specified range, a software delay of 1ms
          should be added.*/
      RCC_Delay(1);
 800267e:	2001      	movs	r0, #1
 8002680:	f000 fad8 	bl	8002c34 <RCC_Delay>
 8002684:	e01c      	b.n	80026c0 <HAL_RCC_OscConfig+0x284>
    }
    else
    {
      /* Disable the Internal Low Speed oscillator (LSI). */
      __HAL_RCC_LSI_DISABLE();
 8002686:	4b0a      	ldr	r3, [pc, #40]	; (80026b0 <HAL_RCC_OscConfig+0x274>)
 8002688:	2200      	movs	r2, #0
 800268a:	601a      	str	r2, [r3, #0]

      /* Get Start Tick */
      tickstart = HAL_GetTick();
 800268c:	f7fe fbd2 	bl	8000e34 <HAL_GetTick>
 8002690:	6138      	str	r0, [r7, #16]

      /* Wait till LSI is disabled */
      while (__HAL_RCC_GET_FLAG(RCC_FLAG_LSIRDY) != RESET)
 8002692:	e00f      	b.n	80026b4 <HAL_RCC_OscConfig+0x278>
      {
        if ((HAL_GetTick() - tickstart) > LSI_TIMEOUT_VALUE)
 8002694:	f7fe fbce 	bl	8000e34 <HAL_GetTick>
 8002698:	4602      	mov	r2, r0
 800269a:	693b      	ldr	r3, [r7, #16]
 800269c:	1ad3      	subs	r3, r2, r3
 800269e:	2b02      	cmp	r3, #2
 80026a0:	d908      	bls.n	80026b4 <HAL_RCC_OscConfig+0x278>
        {
          return HAL_TIMEOUT;
 80026a2:	2303      	movs	r3, #3
 80026a4:	e146      	b.n	8002934 <HAL_RCC_OscConfig+0x4f8>
 80026a6:	bf00      	nop
 80026a8:	40021000 	.word	0x40021000
 80026ac:	42420000 	.word	0x42420000
 80026b0:	42420480 	.word	0x42420480
      while (__HAL_RCC_GET_FLAG(RCC_FLAG_LSIRDY) != RESET)
 80026b4:	4b92      	ldr	r3, [pc, #584]	; (8002900 <HAL_RCC_OscConfig+0x4c4>)
 80026b6:	6a5b      	ldr	r3, [r3, #36]	; 0x24
 80026b8:	f003 0302 	and.w	r3, r3, #2
 80026bc:	2b00      	cmp	r3, #0
 80026be:	d1e9      	bne.n	8002694 <HAL_RCC_OscConfig+0x258>
        }
      }
    }
  }
  /*------------------------------ LSE Configuration -------------------------*/
  if (((RCC_OscInitStruct->OscillatorType) & RCC_OSCILLATORTYPE_LSE) == RCC_OSCILLATORTYPE_LSE)
 80026c0:	687b      	ldr	r3, [r7, #4]
 80026c2:	681b      	ldr	r3, [r3, #0]
 80026c4:	f003 0304 	and.w	r3, r3, #4
 80026c8:	2b00      	cmp	r3, #0
 80026ca:	f000 80a6 	beq.w	800281a <HAL_RCC_OscConfig+0x3de>
  {
    FlagStatus       pwrclkchanged = RESET;
 80026ce:	2300      	movs	r3, #0
 80026d0:	75fb      	strb	r3, [r7, #23]
    /* Check the parameters */
    assert_param(IS_RCC_LSE(RCC_OscInitStruct->LSEState));

    /* Update LSE configuration in Backup Domain control register    */
    /* Requires to enable write access to Backup Domain of necessary */
    if (__HAL_RCC_PWR_IS_CLK_DISABLED())
 80026d2:	4b8b      	ldr	r3, [pc, #556]	; (8002900 <HAL_RCC_OscConfig+0x4c4>)
 80026d4:	69db      	ldr	r3, [r3, #28]
 80026d6:	f003 5380 	and.w	r3, r3, #268435456	; 0x10000000
 80026da:	2b00      	cmp	r3, #0
 80026dc:	d10d      	bne.n	80026fa <HAL_RCC_OscConfig+0x2be>
    {
      __HAL_RCC_PWR_CLK_ENABLE();
 80026de:	4b88      	ldr	r3, [pc, #544]	; (8002900 <HAL_RCC_OscConfig+0x4c4>)
 80026e0:	69db      	ldr	r3, [r3, #28]
 80026e2:	4a87      	ldr	r2, [pc, #540]	; (8002900 <HAL_RCC_OscConfig+0x4c4>)
 80026e4:	f043 5380 	orr.w	r3, r3, #268435456	; 0x10000000
 80026e8:	61d3      	str	r3, [r2, #28]
 80026ea:	4b85      	ldr	r3, [pc, #532]	; (8002900 <HAL_RCC_OscConfig+0x4c4>)
 80026ec:	69db      	ldr	r3, [r3, #28]
 80026ee:	f003 5380 	and.w	r3, r3, #268435456	; 0x10000000
 80026f2:	60bb      	str	r3, [r7, #8]
 80026f4:	68bb      	ldr	r3, [r7, #8]
      pwrclkchanged = SET;
 80026f6:	2301      	movs	r3, #1
 80026f8:	75fb      	strb	r3, [r7, #23]
    }

    if (HAL_IS_BIT_CLR(PWR->CR, PWR_CR_DBP))
 80026fa:	4b82      	ldr	r3, [pc, #520]	; (8002904 <HAL_RCC_OscConfig+0x4c8>)
 80026fc:	681b      	ldr	r3, [r3, #0]
 80026fe:	f403 7380 	and.w	r3, r3, #256	; 0x100
 8002702:	2b00      	cmp	r3, #0
 8002704:	d118      	bne.n	8002738 <HAL_RCC_OscConfig+0x2fc>
    {
      /* Enable write access to Backup domain */
      SET_BIT(PWR->CR, PWR_CR_DBP);
 8002706:	4b7f      	ldr	r3, [pc, #508]	; (8002904 <HAL_RCC_OscConfig+0x4c8>)
 8002708:	681b      	ldr	r3, [r3, #0]
 800270a:	4a7e      	ldr	r2, [pc, #504]	; (8002904 <HAL_RCC_OscConfig+0x4c8>)
 800270c:	f443 7380 	orr.w	r3, r3, #256	; 0x100
 8002710:	6013      	str	r3, [r2, #0]

      /* Wait for Backup domain Write protection disable */
      tickstart = HAL_GetTick();
 8002712:	f7fe fb8f 	bl	8000e34 <HAL_GetTick>
 8002716:	6138      	str	r0, [r7, #16]

      while (HAL_IS_BIT_CLR(PWR->CR, PWR_CR_DBP))
 8002718:	e008      	b.n	800272c <HAL_RCC_OscConfig+0x2f0>
      {
        if ((HAL_GetTick() - tickstart) > RCC_DBP_TIMEOUT_VALUE)
 800271a:	f7fe fb8b 	bl	8000e34 <HAL_GetTick>
 800271e:	4602      	mov	r2, r0
 8002720:	693b      	ldr	r3, [r7, #16]
 8002722:	1ad3      	subs	r3, r2, r3
 8002724:	2b64      	cmp	r3, #100	; 0x64
 8002726:	d901      	bls.n	800272c <HAL_RCC_OscConfig+0x2f0>
        {
          return HAL_TIMEOUT;
 8002728:	2303      	movs	r3, #3
 800272a:	e103      	b.n	8002934 <HAL_RCC_OscConfig+0x4f8>
      while (HAL_IS_BIT_CLR(PWR->CR, PWR_CR_DBP))
 800272c:	4b75      	ldr	r3, [pc, #468]	; (8002904 <HAL_RCC_OscConfig+0x4c8>)
 800272e:	681b      	ldr	r3, [r3, #0]
 8002730:	f403 7380 	and.w	r3, r3, #256	; 0x100
 8002734:	2b00      	cmp	r3, #0
 8002736:	d0f0      	beq.n	800271a <HAL_RCC_OscConfig+0x2de>
        }
      }
    }

    /* Set the new LSE configuration -----------------------------------------*/
    __HAL_RCC_LSE_CONFIG(RCC_OscInitStruct->LSEState);
 8002738:	687b      	ldr	r3, [r7, #4]
 800273a:	68db      	ldr	r3, [r3, #12]
 800273c:	2b01      	cmp	r3, #1
 800273e:	d106      	bne.n	800274e <HAL_RCC_OscConfig+0x312>
 8002740:	4b6f      	ldr	r3, [pc, #444]	; (8002900 <HAL_RCC_OscConfig+0x4c4>)
 8002742:	6a1b      	ldr	r3, [r3, #32]
 8002744:	4a6e      	ldr	r2, [pc, #440]	; (8002900 <HAL_RCC_OscConfig+0x4c4>)
 8002746:	f043 0301 	orr.w	r3, r3, #1
 800274a:	6213      	str	r3, [r2, #32]
 800274c:	e02d      	b.n	80027aa <HAL_RCC_OscConfig+0x36e>
 800274e:	687b      	ldr	r3, [r7, #4]
 8002750:	68db      	ldr	r3, [r3, #12]
 8002752:	2b00      	cmp	r3, #0
 8002754:	d10c      	bne.n	8002770 <HAL_RCC_OscConfig+0x334>
 8002756:	4b6a      	ldr	r3, [pc, #424]	; (8002900 <HAL_RCC_OscConfig+0x4c4>)
 8002758:	6a1b      	ldr	r3, [r3, #32]
 800275a:	4a69      	ldr	r2, [pc, #420]	; (8002900 <HAL_RCC_OscConfig+0x4c4>)
 800275c:	f023 0301 	bic.w	r3, r3, #1
 8002760:	6213      	str	r3, [r2, #32]
 8002762:	4b67      	ldr	r3, [pc, #412]	; (8002900 <HAL_RCC_OscConfig+0x4c4>)
 8002764:	6a1b      	ldr	r3, [r3, #32]
 8002766:	4a66      	ldr	r2, [pc, #408]	; (8002900 <HAL_RCC_OscConfig+0x4c4>)
 8002768:	f023 0304 	bic.w	r3, r3, #4
 800276c:	6213      	str	r3, [r2, #32]
 800276e:	e01c      	b.n	80027aa <HAL_RCC_OscConfig+0x36e>
 8002770:	687b      	ldr	r3, [r7, #4]
 8002772:	68db      	ldr	r3, [r3, #12]
 8002774:	2b05      	cmp	r3, #5
 8002776:	d10c      	bne.n	8002792 <HAL_RCC_OscConfig+0x356>
 8002778:	4b61      	ldr	r3, [pc, #388]	; (8002900 <HAL_RCC_OscConfig+0x4c4>)
 800277a:	6a1b      	ldr	r3, [r3, #32]
 800277c:	4a60      	ldr	r2, [pc, #384]	; (8002900 <HAL_RCC_OscConfig+0x4c4>)
 800277e:	f043 0304 	orr.w	r3, r3, #4
 8002782:	6213      	str	r3, [r2, #32]
 8002784:	4b5e      	ldr	r3, [pc, #376]	; (8002900 <HAL_RCC_OscConfig+0x4c4>)
 8002786:	6a1b      	ldr	r3, [r3, #32]
 8002788:	4a5d      	ldr	r2, [pc, #372]	; (8002900 <HAL_RCC_OscConfig+0x4c4>)
 800278a:	f043 0301 	orr.w	r3, r3, #1
 800278e:	6213      	str	r3, [r2, #32]
 8002790:	e00b      	b.n	80027aa <HAL_RCC_OscConfig+0x36e>
 8002792:	4b5b      	ldr	r3, [pc, #364]	; (8002900 <HAL_RCC_OscConfig+0x4c4>)
 8002794:	6a1b      	ldr	r3, [r3, #32]
 8002796:	4a5a      	ldr	r2, [pc, #360]	; (8002900 <HAL_RCC_OscConfig+0x4c4>)
 8002798:	f023 0301 	bic.w	r3, r3, #1
 800279c:	6213      	str	r3, [r2, #32]
 800279e:	4b58      	ldr	r3, [pc, #352]	; (8002900 <HAL_RCC_OscConfig+0x4c4>)
 80027a0:	6a1b      	ldr	r3, [r3, #32]
 80027a2:	4a57      	ldr	r2, [pc, #348]	; (8002900 <HAL_RCC_OscConfig+0x4c4>)
 80027a4:	f023 0304 	bic.w	r3, r3, #4
 80027a8:	6213      	str	r3, [r2, #32]
    /* Check the LSE State */
    if (RCC_OscInitStruct->LSEState != RCC_LSE_OFF)
 80027aa:	687b      	ldr	r3, [r7, #4]
 80027ac:	68db      	ldr	r3, [r3, #12]
 80027ae:	2b00      	cmp	r3, #0
 80027b0:	d015      	beq.n	80027de <HAL_RCC_OscConfig+0x3a2>
    {
      /* Get Start Tick */
      tickstart = HAL_GetTick();
 80027b2:	f7fe fb3f 	bl	8000e34 <HAL_GetTick>
 80027b6:	6138      	str	r0, [r7, #16]

      /* Wait till LSE is ready */
      while (__HAL_RCC_GET_FLAG(RCC_FLAG_LSERDY) == RESET)
 80027b8:	e00a      	b.n	80027d0 <HAL_RCC_OscConfig+0x394>
      {
        if ((HAL_GetTick() - tickstart) > RCC_LSE_TIMEOUT_VALUE)
 80027ba:	f7fe fb3b 	bl	8000e34 <HAL_GetTick>
 80027be:	4602      	mov	r2, r0
 80027c0:	693b      	ldr	r3, [r7, #16]
 80027c2:	1ad3      	subs	r3, r2, r3
 80027c4:	f241 3288 	movw	r2, #5000	; 0x1388
 80027c8:	4293      	cmp	r3, r2
 80027ca:	d901      	bls.n	80027d0 <HAL_RCC_OscConfig+0x394>
        {
          return HAL_TIMEOUT;
 80027cc:	2303      	movs	r3, #3
 80027ce:	e0b1      	b.n	8002934 <HAL_RCC_OscConfig+0x4f8>
      while (__HAL_RCC_GET_FLAG(RCC_FLAG_LSERDY) == RESET)
 80027d0:	4b4b      	ldr	r3, [pc, #300]	; (8002900 <HAL_RCC_OscConfig+0x4c4>)
 80027d2:	6a1b      	ldr	r3, [r3, #32]
 80027d4:	f003 0302 	and.w	r3, r3, #2
 80027d8:	2b00      	cmp	r3, #0
 80027da:	d0ee      	beq.n	80027ba <HAL_RCC_OscConfig+0x37e>
 80027dc:	e014      	b.n	8002808 <HAL_RCC_OscConfig+0x3cc>
      }
    }
    else
    {
      /* Get Start Tick */
      tickstart = HAL_GetTick();
 80027de:	f7fe fb29 	bl	8000e34 <HAL_GetTick>
 80027e2:	6138      	str	r0, [r7, #16]

      /* Wait till LSE is disabled */
      while (__HAL_RCC_GET_FLAG(RCC_FLAG_LSERDY) != RESET)
 80027e4:	e00a      	b.n	80027fc <HAL_RCC_OscConfig+0x3c0>
      {
        if ((HAL_GetTick() - tickstart) > RCC_LSE_TIMEOUT_VALUE)
 80027e6:	f7fe fb25 	bl	8000e34 <HAL_GetTick>
 80027ea:	4602      	mov	r2, r0
 80027ec:	693b      	ldr	r3, [r7, #16]
 80027ee:	1ad3      	subs	r3, r2, r3
 80027f0:	f241 3288 	movw	r2, #5000	; 0x1388
 80027f4:	4293      	cmp	r3, r2
 80027f6:	d901      	bls.n	80027fc <HAL_RCC_OscConfig+0x3c0>
        {
          return HAL_TIMEOUT;
 80027f8:	2303      	movs	r3, #3
 80027fa:	e09b      	b.n	8002934 <HAL_RCC_OscConfig+0x4f8>
      while (__HAL_RCC_GET_FLAG(RCC_FLAG_LSERDY) != RESET)
 80027fc:	4b40      	ldr	r3, [pc, #256]	; (8002900 <HAL_RCC_OscConfig+0x4c4>)
 80027fe:	6a1b      	ldr	r3, [r3, #32]
 8002800:	f003 0302 	and.w	r3, r3, #2
 8002804:	2b00      	cmp	r3, #0
 8002806:	d1ee      	bne.n	80027e6 <HAL_RCC_OscConfig+0x3aa>
        }
      }
    }

    /* Require to disable power clock if necessary */
    if (pwrclkchanged == SET)
 8002808:	7dfb      	ldrb	r3, [r7, #23]
 800280a:	2b01      	cmp	r3, #1
 800280c:	d105      	bne.n	800281a <HAL_RCC_OscConfig+0x3de>
    {
      __HAL_RCC_PWR_CLK_DISABLE();
 800280e:	4b3c      	ldr	r3, [pc, #240]	; (8002900 <HAL_RCC_OscConfig+0x4c4>)
 8002810:	69db      	ldr	r3, [r3, #28]
 8002812:	4a3b      	ldr	r2, [pc, #236]	; (8002900 <HAL_RCC_OscConfig+0x4c4>)
 8002814:	f023 5380 	bic.w	r3, r3, #268435456	; 0x10000000
 8002818:	61d3      	str	r3, [r2, #28]

#endif /* RCC_CR_PLL2ON */
  /*-------------------------------- PLL Configuration -----------------------*/
  /* Check the parameters */
  assert_param(IS_RCC_PLL(RCC_OscInitStruct->PLL.PLLState));
  if ((RCC_OscInitStruct->PLL.PLLState) != RCC_PLL_NONE)
 800281a:	687b      	ldr	r3, [r7, #4]
 800281c:	69db      	ldr	r3, [r3, #28]
 800281e:	2b00      	cmp	r3, #0
 8002820:	f000 8087 	beq.w	8002932 <HAL_RCC_OscConfig+0x4f6>
  {
    /* Check if the PLL is used as system clock or not */
    if (__HAL_RCC_GET_SYSCLK_SOURCE() != RCC_SYSCLKSOURCE_STATUS_PLLCLK)
 8002824:	4b36      	ldr	r3, [pc, #216]	; (8002900 <HAL_RCC_OscConfig+0x4c4>)
 8002826:	685b      	ldr	r3, [r3, #4]
 8002828:	f003 030c 	and.w	r3, r3, #12
 800282c:	2b08      	cmp	r3, #8
 800282e:	d061      	beq.n	80028f4 <HAL_RCC_OscConfig+0x4b8>
    {
      if ((RCC_OscInitStruct->PLL.PLLState) == RCC_PLL_ON)
 8002830:	687b      	ldr	r3, [r7, #4]
 8002832:	69db      	ldr	r3, [r3, #28]
 8002834:	2b02      	cmp	r3, #2
 8002836:	d146      	bne.n	80028c6 <HAL_RCC_OscConfig+0x48a>
        /* Check the parameters */
        assert_param(IS_RCC_PLLSOURCE(RCC_OscInitStruct->PLL.PLLSource));
        assert_param(IS_RCC_PLL_MUL(RCC_OscInitStruct->PLL.PLLMUL));

        /* Disable the main PLL. */
        __HAL_RCC_PLL_DISABLE();
 8002838:	4b33      	ldr	r3, [pc, #204]	; (8002908 <HAL_RCC_OscConfig+0x4cc>)
 800283a:	2200      	movs	r2, #0
 800283c:	601a      	str	r2, [r3, #0]

        /* Get Start Tick */
        tickstart = HAL_GetTick();
 800283e:	f7fe faf9 	bl	8000e34 <HAL_GetTick>
 8002842:	6138      	str	r0, [r7, #16]

        /* Wait till PLL is disabled */
        while (__HAL_RCC_GET_FLAG(RCC_FLAG_PLLRDY)  != RESET)
 8002844:	e008      	b.n	8002858 <HAL_RCC_OscConfig+0x41c>
        {
          if ((HAL_GetTick() - tickstart) > PLL_TIMEOUT_VALUE)
 8002846:	f7fe faf5 	bl	8000e34 <HAL_GetTick>
 800284a:	4602      	mov	r2, r0
 800284c:	693b      	ldr	r3, [r7, #16]
 800284e:	1ad3      	subs	r3, r2, r3
 8002850:	2b02      	cmp	r3, #2
 8002852:	d901      	bls.n	8002858 <HAL_RCC_OscConfig+0x41c>
          {
            return HAL_TIMEOUT;
 8002854:	2303      	movs	r3, #3
 8002856:	e06d      	b.n	8002934 <HAL_RCC_OscConfig+0x4f8>
        while (__HAL_RCC_GET_FLAG(RCC_FLAG_PLLRDY)  != RESET)
 8002858:	4b29      	ldr	r3, [pc, #164]	; (8002900 <HAL_RCC_OscConfig+0x4c4>)
 800285a:	681b      	ldr	r3, [r3, #0]
 800285c:	f003 7300 	and.w	r3, r3, #33554432	; 0x2000000
 8002860:	2b00      	cmp	r3, #0
 8002862:	d1f0      	bne.n	8002846 <HAL_RCC_OscConfig+0x40a>
          }
        }

        /* Configure the HSE prediv factor --------------------------------*/
        /* It can be written only when the PLL is disabled. Not used in PLL source is different than HSE */
        if (RCC_OscInitStruct->PLL.PLLSource == RCC_PLLSOURCE_HSE)
 8002864:	687b      	ldr	r3, [r7, #4]
 8002866:	6a1b      	ldr	r3, [r3, #32]
 8002868:	f5b3 3f80 	cmp.w	r3, #65536	; 0x10000
 800286c:	d108      	bne.n	8002880 <HAL_RCC_OscConfig+0x444>
          /* Set PREDIV1 source */
          SET_BIT(RCC->CFGR2, RCC_OscInitStruct->Prediv1Source);
#endif /* RCC_CFGR2_PREDIV1SRC */

          /* Set PREDIV1 Value */
          __HAL_RCC_HSE_PREDIV_CONFIG(RCC_OscInitStruct->HSEPredivValue);
 800286e:	4b24      	ldr	r3, [pc, #144]	; (8002900 <HAL_RCC_OscConfig+0x4c4>)
 8002870:	685b      	ldr	r3, [r3, #4]
 8002872:	f423 3200 	bic.w	r2, r3, #131072	; 0x20000
 8002876:	687b      	ldr	r3, [r7, #4]
 8002878:	689b      	ldr	r3, [r3, #8]
 800287a:	4921      	ldr	r1, [pc, #132]	; (8002900 <HAL_RCC_OscConfig+0x4c4>)
 800287c:	4313      	orrs	r3, r2
 800287e:	604b      	str	r3, [r1, #4]
        }

        /* Configure the main PLL clock source and multiplication factors. */
        __HAL_RCC_PLL_CONFIG(RCC_OscInitStruct->PLL.PLLSource,
 8002880:	4b1f      	ldr	r3, [pc, #124]	; (8002900 <HAL_RCC_OscConfig+0x4c4>)
 8002882:	685b      	ldr	r3, [r3, #4]
 8002884:	f423 1274 	bic.w	r2, r3, #3997696	; 0x3d0000
 8002888:	687b      	ldr	r3, [r7, #4]
 800288a:	6a19      	ldr	r1, [r3, #32]
 800288c:	687b      	ldr	r3, [r7, #4]
 800288e:	6a5b      	ldr	r3, [r3, #36]	; 0x24
 8002890:	430b      	orrs	r3, r1
 8002892:	491b      	ldr	r1, [pc, #108]	; (8002900 <HAL_RCC_OscConfig+0x4c4>)
 8002894:	4313      	orrs	r3, r2
 8002896:	604b      	str	r3, [r1, #4]
                             RCC_OscInitStruct->PLL.PLLMUL);
        /* Enable the main PLL. */
        __HAL_RCC_PLL_ENABLE();
 8002898:	4b1b      	ldr	r3, [pc, #108]	; (8002908 <HAL_RCC_OscConfig+0x4cc>)
 800289a:	2201      	movs	r2, #1
 800289c:	601a      	str	r2, [r3, #0]

        /* Get Start Tick */
        tickstart = HAL_GetTick();
 800289e:	f7fe fac9 	bl	8000e34 <HAL_GetTick>
 80028a2:	6138      	str	r0, [r7, #16]

        /* Wait till PLL is ready */
        while (__HAL_RCC_GET_FLAG(RCC_FLAG_PLLRDY)  == RESET)
 80028a4:	e008      	b.n	80028b8 <HAL_RCC_OscConfig+0x47c>
        {
          if ((HAL_GetTick() - tickstart) > PLL_TIMEOUT_VALUE)
 80028a6:	f7fe fac5 	bl	8000e34 <HAL_GetTick>
 80028aa:	4602      	mov	r2, r0
 80028ac:	693b      	ldr	r3, [r7, #16]
 80028ae:	1ad3      	subs	r3, r2, r3
 80028b0:	2b02      	cmp	r3, #2
 80028b2:	d901      	bls.n	80028b8 <HAL_RCC_OscConfig+0x47c>
          {
            return HAL_TIMEOUT;
 80028b4:	2303      	movs	r3, #3
 80028b6:	e03d      	b.n	8002934 <HAL_RCC_OscConfig+0x4f8>
        while (__HAL_RCC_GET_FLAG(RCC_FLAG_PLLRDY)  == RESET)
 80028b8:	4b11      	ldr	r3, [pc, #68]	; (8002900 <HAL_RCC_OscConfig+0x4c4>)
 80028ba:	681b      	ldr	r3, [r3, #0]
 80028bc:	f003 7300 	and.w	r3, r3, #33554432	; 0x2000000
 80028c0:	2b00      	cmp	r3, #0
 80028c2:	d0f0      	beq.n	80028a6 <HAL_RCC_OscConfig+0x46a>
 80028c4:	e035      	b.n	8002932 <HAL_RCC_OscConfig+0x4f6>
        }
      }
      else
      {
        /* Disable the main PLL. */
        __HAL_RCC_PLL_DISABLE();
 80028c6:	4b10      	ldr	r3, [pc, #64]	; (8002908 <HAL_RCC_OscConfig+0x4cc>)
 80028c8:	2200      	movs	r2, #0
 80028ca:	601a      	str	r2, [r3, #0]

        /* Get Start Tick */
        tickstart = HAL_GetTick();
 80028cc:	f7fe fab2 	bl	8000e34 <HAL_GetTick>
 80028d0:	6138      	str	r0, [r7, #16]

        /* Wait till PLL is disabled */
        while (__HAL_RCC_GET_FLAG(RCC_FLAG_PLLRDY)  != RESET)
 80028d2:	e008      	b.n	80028e6 <HAL_RCC_OscConfig+0x4aa>
        {
          if ((HAL_GetTick() - tickstart) > PLL_TIMEOUT_VALUE)
 80028d4:	f7fe faae 	bl	8000e34 <HAL_GetTick>
 80028d8:	4602      	mov	r2, r0
 80028da:	693b      	ldr	r3, [r7, #16]
 80028dc:	1ad3      	subs	r3, r2, r3
 80028de:	2b02      	cmp	r3, #2
 80028e0:	d901      	bls.n	80028e6 <HAL_RCC_OscConfig+0x4aa>
          {
            return HAL_TIMEOUT;
 80028e2:	2303      	movs	r3, #3
 80028e4:	e026      	b.n	8002934 <HAL_RCC_OscConfig+0x4f8>
        while (__HAL_RCC_GET_FLAG(RCC_FLAG_PLLRDY)  != RESET)
 80028e6:	4b06      	ldr	r3, [pc, #24]	; (8002900 <HAL_RCC_OscConfig+0x4c4>)
 80028e8:	681b      	ldr	r3, [r3, #0]
 80028ea:	f003 7300 	and.w	r3, r3, #33554432	; 0x2000000
 80028ee:	2b00      	cmp	r3, #0
 80028f0:	d1f0      	bne.n	80028d4 <HAL_RCC_OscConfig+0x498>
 80028f2:	e01e      	b.n	8002932 <HAL_RCC_OscConfig+0x4f6>
      }
    }
    else
    {
      /* Check if there is a request to disable the PLL used as System clock source */
      if ((RCC_OscInitStruct->PLL.PLLState) == RCC_PLL_OFF)
 80028f4:	687b      	ldr	r3, [r7, #4]
 80028f6:	69db      	ldr	r3, [r3, #28]
 80028f8:	2b01      	cmp	r3, #1
 80028fa:	d107      	bne.n	800290c <HAL_RCC_OscConfig+0x4d0>
      {
        return HAL_ERROR;
 80028fc:	2301      	movs	r3, #1
 80028fe:	e019      	b.n	8002934 <HAL_RCC_OscConfig+0x4f8>
 8002900:	40021000 	.word	0x40021000
 8002904:	40007000 	.word	0x40007000
 8002908:	42420060 	.word	0x42420060
      }
      else
      {
        /* Do not return HAL_ERROR if request repeats the current configuration */
        pll_config = RCC->CFGR;
 800290c:	4b0b      	ldr	r3, [pc, #44]	; (800293c <HAL_RCC_OscConfig+0x500>)
 800290e:	685b      	ldr	r3, [r3, #4]
 8002910:	60fb      	str	r3, [r7, #12]
        if ((READ_BIT(pll_config, RCC_CFGR_PLLSRC) != RCC_OscInitStruct->PLL.PLLSource) ||
 8002912:	68fb      	ldr	r3, [r7, #12]
 8002914:	f403 3280 	and.w	r2, r3, #65536	; 0x10000
 8002918:	687b      	ldr	r3, [r7, #4]
 800291a:	6a1b      	ldr	r3, [r3, #32]
 800291c:	429a      	cmp	r2, r3
 800291e:	d106      	bne.n	800292e <HAL_RCC_OscConfig+0x4f2>
            (READ_BIT(pll_config, RCC_CFGR_PLLMULL) != RCC_OscInitStruct->PLL.PLLMUL))
 8002920:	68fb      	ldr	r3, [r7, #12]
 8002922:	f403 1270 	and.w	r2, r3, #3932160	; 0x3c0000
 8002926:	687b      	ldr	r3, [r7, #4]
 8002928:	6a5b      	ldr	r3, [r3, #36]	; 0x24
        if ((READ_BIT(pll_config, RCC_CFGR_PLLSRC) != RCC_OscInitStruct->PLL.PLLSource) ||
 800292a:	429a      	cmp	r2, r3
 800292c:	d001      	beq.n	8002932 <HAL_RCC_OscConfig+0x4f6>
        {
          return HAL_ERROR;
 800292e:	2301      	movs	r3, #1
 8002930:	e000      	b.n	8002934 <HAL_RCC_OscConfig+0x4f8>
        }
      }
    }
  }

  return HAL_OK;
 8002932:	2300      	movs	r3, #0
}
 8002934:	4618      	mov	r0, r3
 8002936:	3718      	adds	r7, #24
 8002938:	46bd      	mov	sp, r7
 800293a:	bd80      	pop	{r7, pc}
 800293c:	40021000 	.word	0x40021000

08002940 <HAL_RCC_ClockConfig>:
  *         You can use @ref HAL_RCC_GetClockConfig() function to know which clock is
  *         currently used as system clock source.
  * @retval HAL status
  */
HAL_StatusTypeDef HAL_RCC_ClockConfig(RCC_ClkInitTypeDef  *RCC_ClkInitStruct, uint32_t FLatency)
{
 8002940:	b580      	push	{r7, lr}
 8002942:	b084      	sub	sp, #16
 8002944:	af00      	add	r7, sp, #0
 8002946:	6078      	str	r0, [r7, #4]
 8002948:	6039      	str	r1, [r7, #0]
  uint32_t tickstart;

  /* Check Null pointer */
  if (RCC_ClkInitStruct == NULL)
 800294a:	687b      	ldr	r3, [r7, #4]
 800294c:	2b00      	cmp	r3, #0
 800294e:	d101      	bne.n	8002954 <HAL_RCC_ClockConfig+0x14>
  {
    return HAL_ERROR;
 8002950:	2301      	movs	r3, #1
 8002952:	e0d0      	b.n	8002af6 <HAL_RCC_ClockConfig+0x1b6>
  must be correctly programmed according to the frequency of the CPU clock
    (HCLK) of the device. */

#if defined(FLASH_ACR_LATENCY)
  /* Increasing the number of wait states because of higher CPU frequency */
  if (FLatency > __HAL_FLASH_GET_LATENCY())
 8002954:	4b6a      	ldr	r3, [pc, #424]	; (8002b00 <HAL_RCC_ClockConfig+0x1c0>)
 8002956:	681b      	ldr	r3, [r3, #0]
 8002958:	f003 0307 	and.w	r3, r3, #7
 800295c:	683a      	ldr	r2, [r7, #0]
 800295e:	429a      	cmp	r2, r3
 8002960:	d910      	bls.n	8002984 <HAL_RCC_ClockConfig+0x44>
  {
    /* Program the new number of wait states to the LATENCY bits in the FLASH_ACR register */
    __HAL_FLASH_SET_LATENCY(FLatency);
 8002962:	4b67      	ldr	r3, [pc, #412]	; (8002b00 <HAL_RCC_ClockConfig+0x1c0>)
 8002964:	681b      	ldr	r3, [r3, #0]
 8002966:	f023 0207 	bic.w	r2, r3, #7
 800296a:	4965      	ldr	r1, [pc, #404]	; (8002b00 <HAL_RCC_ClockConfig+0x1c0>)
 800296c:	683b      	ldr	r3, [r7, #0]
 800296e:	4313      	orrs	r3, r2
 8002970:	600b      	str	r3, [r1, #0]

    /* Check that the new number of wait states is taken into account to access the Flash
    memory by reading the FLASH_ACR register */
    if (__HAL_FLASH_GET_LATENCY() != FLatency)
 8002972:	4b63      	ldr	r3, [pc, #396]	; (8002b00 <HAL_RCC_ClockConfig+0x1c0>)
 8002974:	681b      	ldr	r3, [r3, #0]
 8002976:	f003 0307 	and.w	r3, r3, #7
 800297a:	683a      	ldr	r2, [r7, #0]
 800297c:	429a      	cmp	r2, r3
 800297e:	d001      	beq.n	8002984 <HAL_RCC_ClockConfig+0x44>
  {
    return HAL_ERROR;
 8002980:	2301      	movs	r3, #1
 8002982:	e0b8      	b.n	8002af6 <HAL_RCC_ClockConfig+0x1b6>
  }
}

#endif /* FLASH_ACR_LATENCY */
/*-------------------------- HCLK Configuration --------------------------*/
if (((RCC_ClkInitStruct->ClockType) & RCC_CLOCKTYPE_HCLK) == RCC_CLOCKTYPE_HCLK)
 8002984:	687b      	ldr	r3, [r7, #4]
 8002986:	681b      	ldr	r3, [r3, #0]
 8002988:	f003 0302 	and.w	r3, r3, #2
 800298c:	2b00      	cmp	r3, #0
 800298e:	d020      	beq.n	80029d2 <HAL_RCC_ClockConfig+0x92>
  {
    /* Set the highest APBx dividers in order to ensure that we do not go through
    a non-spec phase whatever we decrease or increase HCLK. */
    if (((RCC_ClkInitStruct->ClockType) & RCC_CLOCKTYPE_PCLK1) == RCC_CLOCKTYPE_PCLK1)
 8002990:	687b      	ldr	r3, [r7, #4]
 8002992:	681b      	ldr	r3, [r3, #0]
 8002994:	f003 0304 	and.w	r3, r3, #4
 8002998:	2b00      	cmp	r3, #0
 800299a:	d005      	beq.n	80029a8 <HAL_RCC_ClockConfig+0x68>
    {
      MODIFY_REG(RCC->CFGR, RCC_CFGR_PPRE1, RCC_HCLK_DIV16);
 800299c:	4b59      	ldr	r3, [pc, #356]	; (8002b04 <HAL_RCC_ClockConfig+0x1c4>)
 800299e:	685b      	ldr	r3, [r3, #4]
 80029a0:	4a58      	ldr	r2, [pc, #352]	; (8002b04 <HAL_RCC_ClockConfig+0x1c4>)
 80029a2:	f443 63e0 	orr.w	r3, r3, #1792	; 0x700
 80029a6:	6053      	str	r3, [r2, #4]
    }

    if (((RCC_ClkInitStruct->ClockType) & RCC_CLOCKTYPE_PCLK2) == RCC_CLOCKTYPE_PCLK2)
 80029a8:	687b      	ldr	r3, [r7, #4]
 80029aa:	681b      	ldr	r3, [r3, #0]
 80029ac:	f003 0308 	and.w	r3, r3, #8
 80029b0:	2b00      	cmp	r3, #0
 80029b2:	d005      	beq.n	80029c0 <HAL_RCC_ClockConfig+0x80>
    {
      MODIFY_REG(RCC->CFGR, RCC_CFGR_PPRE2, (RCC_HCLK_DIV16 << 3));
 80029b4:	4b53      	ldr	r3, [pc, #332]	; (8002b04 <HAL_RCC_ClockConfig+0x1c4>)
 80029b6:	685b      	ldr	r3, [r3, #4]
 80029b8:	4a52      	ldr	r2, [pc, #328]	; (8002b04 <HAL_RCC_ClockConfig+0x1c4>)
 80029ba:	f443 5360 	orr.w	r3, r3, #14336	; 0x3800
 80029be:	6053      	str	r3, [r2, #4]
    }

    /* Set the new HCLK clock divider */
    assert_param(IS_RCC_HCLK(RCC_ClkInitStruct->AHBCLKDivider));
    MODIFY_REG(RCC->CFGR, RCC_CFGR_HPRE, RCC_ClkInitStruct->AHBCLKDivider);
 80029c0:	4b50      	ldr	r3, [pc, #320]	; (8002b04 <HAL_RCC_ClockConfig+0x1c4>)
 80029c2:	685b      	ldr	r3, [r3, #4]
 80029c4:	f023 02f0 	bic.w	r2, r3, #240	; 0xf0
 80029c8:	687b      	ldr	r3, [r7, #4]
 80029ca:	689b      	ldr	r3, [r3, #8]
 80029cc:	494d      	ldr	r1, [pc, #308]	; (8002b04 <HAL_RCC_ClockConfig+0x1c4>)
 80029ce:	4313      	orrs	r3, r2
 80029d0:	604b      	str	r3, [r1, #4]
  }

  /*------------------------- SYSCLK Configuration ---------------------------*/
  if (((RCC_ClkInitStruct->ClockType) & RCC_CLOCKTYPE_SYSCLK) == RCC_CLOCKTYPE_SYSCLK)
 80029d2:	687b      	ldr	r3, [r7, #4]
 80029d4:	681b      	ldr	r3, [r3, #0]
 80029d6:	f003 0301 	and.w	r3, r3, #1
 80029da:	2b00      	cmp	r3, #0
 80029dc:	d040      	beq.n	8002a60 <HAL_RCC_ClockConfig+0x120>
  {
    assert_param(IS_RCC_SYSCLKSOURCE(RCC_ClkInitStruct->SYSCLKSource));

    /* HSE is selected as System Clock Source */
    if (RCC_ClkInitStruct->SYSCLKSource == RCC_SYSCLKSOURCE_HSE)
 80029de:	687b      	ldr	r3, [r7, #4]
 80029e0:	685b      	ldr	r3, [r3, #4]
 80029e2:	2b01      	cmp	r3, #1
 80029e4:	d107      	bne.n	80029f6 <HAL_RCC_ClockConfig+0xb6>
    {
      /* Check the HSE ready flag */
      if (__HAL_RCC_GET_FLAG(RCC_FLAG_HSERDY) == RESET)
 80029e6:	4b47      	ldr	r3, [pc, #284]	; (8002b04 <HAL_RCC_ClockConfig+0x1c4>)
 80029e8:	681b      	ldr	r3, [r3, #0]
 80029ea:	f403 3300 	and.w	r3, r3, #131072	; 0x20000
 80029ee:	2b00      	cmp	r3, #0
 80029f0:	d115      	bne.n	8002a1e <HAL_RCC_ClockConfig+0xde>
      {
        return HAL_ERROR;
 80029f2:	2301      	movs	r3, #1
 80029f4:	e07f      	b.n	8002af6 <HAL_RCC_ClockConfig+0x1b6>
      }
    }
    /* PLL is selected as System Clock Source */
    else if (RCC_ClkInitStruct->SYSCLKSource == RCC_SYSCLKSOURCE_PLLCLK)
 80029f6:	687b      	ldr	r3, [r7, #4]
 80029f8:	685b      	ldr	r3, [r3, #4]
 80029fa:	2b02      	cmp	r3, #2
 80029fc:	d107      	bne.n	8002a0e <HAL_RCC_ClockConfig+0xce>
    {
      /* Check the PLL ready flag */
      if (__HAL_RCC_GET_FLAG(RCC_FLAG_PLLRDY) == RESET)
 80029fe:	4b41      	ldr	r3, [pc, #260]	; (8002b04 <HAL_RCC_ClockConfig+0x1c4>)
 8002a00:	681b      	ldr	r3, [r3, #0]
 8002a02:	f003 7300 	and.w	r3, r3, #33554432	; 0x2000000
 8002a06:	2b00      	cmp	r3, #0
 8002a08:	d109      	bne.n	8002a1e <HAL_RCC_ClockConfig+0xde>
      {
        return HAL_ERROR;
 8002a0a:	2301      	movs	r3, #1
 8002a0c:	e073      	b.n	8002af6 <HAL_RCC_ClockConfig+0x1b6>
    }
    /* HSI is selected as System Clock Source */
    else
    {
      /* Check the HSI ready flag */
      if (__HAL_RCC_GET_FLAG(RCC_FLAG_HSIRDY) == RESET)
 8002a0e:	4b3d      	ldr	r3, [pc, #244]	; (8002b04 <HAL_RCC_ClockConfig+0x1c4>)
 8002a10:	681b      	ldr	r3, [r3, #0]
 8002a12:	f003 0302 	and.w	r3, r3, #2
 8002a16:	2b00      	cmp	r3, #0
 8002a18:	d101      	bne.n	8002a1e <HAL_RCC_ClockConfig+0xde>
      {
        return HAL_ERROR;
 8002a1a:	2301      	movs	r3, #1
 8002a1c:	e06b      	b.n	8002af6 <HAL_RCC_ClockConfig+0x1b6>
      }
    }
    __HAL_RCC_SYSCLK_CONFIG(RCC_ClkInitStruct->SYSCLKSource);
 8002a1e:	4b39      	ldr	r3, [pc, #228]	; (8002b04 <HAL_RCC_ClockConfig+0x1c4>)
 8002a20:	685b      	ldr	r3, [r3, #4]
 8002a22:	f023 0203 	bic.w	r2, r3, #3
 8002a26:	687b      	ldr	r3, [r7, #4]
 8002a28:	685b      	ldr	r3, [r3, #4]
 8002a2a:	4936      	ldr	r1, [pc, #216]	; (8002b04 <HAL_RCC_ClockConfig+0x1c4>)
 8002a2c:	4313      	orrs	r3, r2
 8002a2e:	604b      	str	r3, [r1, #4]

    /* Get Start Tick */
    tickstart = HAL_GetTick();
 8002a30:	f7fe fa00 	bl	8000e34 <HAL_GetTick>
 8002a34:	60f8      	str	r0, [r7, #12]

    while (__HAL_RCC_GET_SYSCLK_SOURCE() != (RCC_ClkInitStruct->SYSCLKSource << RCC_CFGR_SWS_Pos))
 8002a36:	e00a      	b.n	8002a4e <HAL_RCC_ClockConfig+0x10e>
    {
      if ((HAL_GetTick() - tickstart) > CLOCKSWITCH_TIMEOUT_VALUE)
 8002a38:	f7fe f9fc 	bl	8000e34 <HAL_GetTick>
 8002a3c:	4602      	mov	r2, r0
 8002a3e:	68fb      	ldr	r3, [r7, #12]
 8002a40:	1ad3      	subs	r3, r2, r3
 8002a42:	f241 3288 	movw	r2, #5000	; 0x1388
 8002a46:	4293      	cmp	r3, r2
 8002a48:	d901      	bls.n	8002a4e <HAL_RCC_ClockConfig+0x10e>
      {
        return HAL_TIMEOUT;
 8002a4a:	2303      	movs	r3, #3
 8002a4c:	e053      	b.n	8002af6 <HAL_RCC_ClockConfig+0x1b6>
    while (__HAL_RCC_GET_SYSCLK_SOURCE() != (RCC_ClkInitStruct->SYSCLKSource << RCC_CFGR_SWS_Pos))
 8002a4e:	4b2d      	ldr	r3, [pc, #180]	; (8002b04 <HAL_RCC_ClockConfig+0x1c4>)
 8002a50:	685b      	ldr	r3, [r3, #4]
 8002a52:	f003 020c 	and.w	r2, r3, #12
 8002a56:	687b      	ldr	r3, [r7, #4]
 8002a58:	685b      	ldr	r3, [r3, #4]
 8002a5a:	009b      	lsls	r3, r3, #2
 8002a5c:	429a      	cmp	r2, r3
 8002a5e:	d1eb      	bne.n	8002a38 <HAL_RCC_ClockConfig+0xf8>
    }
  }

#if defined(FLASH_ACR_LATENCY)
  /* Decreasing the number of wait states because of lower CPU frequency */
  if (FLatency < __HAL_FLASH_GET_LATENCY())
 8002a60:	4b27      	ldr	r3, [pc, #156]	; (8002b00 <HAL_RCC_ClockConfig+0x1c0>)
 8002a62:	681b      	ldr	r3, [r3, #0]
 8002a64:	f003 0307 	and.w	r3, r3, #7
 8002a68:	683a      	ldr	r2, [r7, #0]
 8002a6a:	429a      	cmp	r2, r3
 8002a6c:	d210      	bcs.n	8002a90 <HAL_RCC_ClockConfig+0x150>
  {
    /* Program the new number of wait states to the LATENCY bits in the FLASH_ACR register */
    __HAL_FLASH_SET_LATENCY(FLatency);
 8002a6e:	4b24      	ldr	r3, [pc, #144]	; (8002b00 <HAL_RCC_ClockConfig+0x1c0>)
 8002a70:	681b      	ldr	r3, [r3, #0]
 8002a72:	f023 0207 	bic.w	r2, r3, #7
 8002a76:	4922      	ldr	r1, [pc, #136]	; (8002b00 <HAL_RCC_ClockConfig+0x1c0>)
 8002a78:	683b      	ldr	r3, [r7, #0]
 8002a7a:	4313      	orrs	r3, r2
 8002a7c:	600b      	str	r3, [r1, #0]

    /* Check that the new number of wait states is taken into account to access the Flash
    memory by reading the FLASH_ACR register */
    if (__HAL_FLASH_GET_LATENCY() != FLatency)
 8002a7e:	4b20      	ldr	r3, [pc, #128]	; (8002b00 <HAL_RCC_ClockConfig+0x1c0>)
 8002a80:	681b      	ldr	r3, [r3, #0]
 8002a82:	f003 0307 	and.w	r3, r3, #7
 8002a86:	683a      	ldr	r2, [r7, #0]
 8002a88:	429a      	cmp	r2, r3
 8002a8a:	d001      	beq.n	8002a90 <HAL_RCC_ClockConfig+0x150>
  {
    return HAL_ERROR;
 8002a8c:	2301      	movs	r3, #1
 8002a8e:	e032      	b.n	8002af6 <HAL_RCC_ClockConfig+0x1b6>
  }
}
#endif /* FLASH_ACR_LATENCY */

/*-------------------------- PCLK1 Configuration ---------------------------*/
if (((RCC_ClkInitStruct->ClockType) & RCC_CLOCKTYPE_PCLK1) == RCC_CLOCKTYPE_PCLK1)
 8002a90:	687b      	ldr	r3, [r7, #4]
 8002a92:	681b      	ldr	r3, [r3, #0]
 8002a94:	f003 0304 	and.w	r3, r3, #4
 8002a98:	2b00      	cmp	r3, #0
 8002a9a:	d008      	beq.n	8002aae <HAL_RCC_ClockConfig+0x16e>
  {
    assert_param(IS_RCC_PCLK(RCC_ClkInitStruct->APB1CLKDivider));
    MODIFY_REG(RCC->CFGR, RCC_CFGR_PPRE1, RCC_ClkInitStruct->APB1CLKDivider);
 8002a9c:	4b19      	ldr	r3, [pc, #100]	; (8002b04 <HAL_RCC_ClockConfig+0x1c4>)
 8002a9e:	685b      	ldr	r3, [r3, #4]
 8002aa0:	f423 62e0 	bic.w	r2, r3, #1792	; 0x700
 8002aa4:	687b      	ldr	r3, [r7, #4]
 8002aa6:	68db      	ldr	r3, [r3, #12]
 8002aa8:	4916      	ldr	r1, [pc, #88]	; (8002b04 <HAL_RCC_ClockConfig+0x1c4>)
 8002aaa:	4313      	orrs	r3, r2
 8002aac:	604b      	str	r3, [r1, #4]
  }

  /*-------------------------- PCLK2 Configuration ---------------------------*/
  if (((RCC_ClkInitStruct->ClockType) & RCC_CLOCKTYPE_PCLK2) == RCC_CLOCKTYPE_PCLK2)
 8002aae:	687b      	ldr	r3, [r7, #4]
 8002ab0:	681b      	ldr	r3, [r3, #0]
 8002ab2:	f003 0308 	and.w	r3, r3, #8
 8002ab6:	2b00      	cmp	r3, #0
 8002ab8:	d009      	beq.n	8002ace <HAL_RCC_ClockConfig+0x18e>
  {
    assert_param(IS_RCC_PCLK(RCC_ClkInitStruct->APB2CLKDivider));
    MODIFY_REG(RCC->CFGR, RCC_CFGR_PPRE2, ((RCC_ClkInitStruct->APB2CLKDivider) << 3));
 8002aba:	4b12      	ldr	r3, [pc, #72]	; (8002b04 <HAL_RCC_ClockConfig+0x1c4>)
 8002abc:	685b      	ldr	r3, [r3, #4]
 8002abe:	f423 5260 	bic.w	r2, r3, #14336	; 0x3800
 8002ac2:	687b      	ldr	r3, [r7, #4]
 8002ac4:	691b      	ldr	r3, [r3, #16]
 8002ac6:	00db      	lsls	r3, r3, #3
 8002ac8:	490e      	ldr	r1, [pc, #56]	; (8002b04 <HAL_RCC_ClockConfig+0x1c4>)
 8002aca:	4313      	orrs	r3, r2
 8002acc:	604b      	str	r3, [r1, #4]
  }

  /* Update the SystemCoreClock global variable */
  SystemCoreClock = HAL_RCC_GetSysClockFreq() >> AHBPrescTable[(RCC->CFGR & RCC_CFGR_HPRE) >> RCC_CFGR_HPRE_Pos];
 8002ace:	f000 f821 	bl	8002b14 <HAL_RCC_GetSysClockFreq>
 8002ad2:	4602      	mov	r2, r0
 8002ad4:	4b0b      	ldr	r3, [pc, #44]	; (8002b04 <HAL_RCC_ClockConfig+0x1c4>)
 8002ad6:	685b      	ldr	r3, [r3, #4]
 8002ad8:	091b      	lsrs	r3, r3, #4
 8002ada:	f003 030f 	and.w	r3, r3, #15
 8002ade:	490a      	ldr	r1, [pc, #40]	; (8002b08 <HAL_RCC_ClockConfig+0x1c8>)
 8002ae0:	5ccb      	ldrb	r3, [r1, r3]
 8002ae2:	fa22 f303 	lsr.w	r3, r2, r3
 8002ae6:	4a09      	ldr	r2, [pc, #36]	; (8002b0c <HAL_RCC_ClockConfig+0x1cc>)
 8002ae8:	6013      	str	r3, [r2, #0]

  /* Configure the source of time base considering new system clocks settings*/
  HAL_InitTick(uwTickPrio);
 8002aea:	4b09      	ldr	r3, [pc, #36]	; (8002b10 <HAL_RCC_ClockConfig+0x1d0>)
 8002aec:	681b      	ldr	r3, [r3, #0]
 8002aee:	4618      	mov	r0, r3
 8002af0:	f7fe f95e 	bl	8000db0 <HAL_InitTick>

  return HAL_OK;
 8002af4:	2300      	movs	r3, #0
}
 8002af6:	4618      	mov	r0, r3
 8002af8:	3710      	adds	r7, #16
 8002afa:	46bd      	mov	sp, r7
 8002afc:	bd80      	pop	{r7, pc}
 8002afe:	bf00      	nop
 8002b00:	40022000 	.word	0x40022000
 8002b04:	40021000 	.word	0x40021000
 8002b08:	0800392c 	.word	0x0800392c
 8002b0c:	20000000 	.word	0x20000000
 8002b10:	20000004 	.word	0x20000004

08002b14 <HAL_RCC_GetSysClockFreq>:
  *         right SYSCLK value. Otherwise, any configuration based on this function will be incorrect.
  *
  * @retval SYSCLK frequency
  */
uint32_t HAL_RCC_GetSysClockFreq(void)
{
 8002b14:	b490      	push	{r4, r7}
 8002b16:	b08a      	sub	sp, #40	; 0x28
 8002b18:	af00      	add	r7, sp, #0
#if defined(RCC_CFGR2_PREDIV1SRC)
  const uint8_t aPLLMULFactorTable[14] = {0, 0, 4, 5, 6, 7, 8, 9, 0, 0, 0, 0, 0, 13};
  const uint8_t aPredivFactorTable[16] = {1, 2, 3, 4, 5, 6, 7, 8, 9, 10, 11, 12, 13, 14, 15, 16};
#else
  const uint8_t aPLLMULFactorTable[16] = {2, 3, 4, 5, 6, 7, 8, 9, 10, 11, 12, 13, 14, 15, 16, 16};
 8002b1a:	4b29      	ldr	r3, [pc, #164]	; (8002bc0 <HAL_RCC_GetSysClockFreq+0xac>)
 8002b1c:	1d3c      	adds	r4, r7, #4
 8002b1e:	cb0f      	ldmia	r3, {r0, r1, r2, r3}
 8002b20:	e884 000f 	stmia.w	r4, {r0, r1, r2, r3}
#if defined(RCC_CFGR2_PREDIV1)
  const uint8_t aPredivFactorTable[16] = {1, 2, 3, 4, 5, 6, 7, 8, 9, 10, 11, 12, 13, 14, 15, 16};
#else
  const uint8_t aPredivFactorTable[2] = {1, 2};
 8002b24:	f240 2301 	movw	r3, #513	; 0x201
 8002b28:	803b      	strh	r3, [r7, #0]
#endif /*RCC_CFGR2_PREDIV1*/

#endif
  uint32_t tmpreg = 0U, prediv = 0U, pllclk = 0U, pllmul = 0U;
 8002b2a:	2300      	movs	r3, #0
 8002b2c:	61fb      	str	r3, [r7, #28]
 8002b2e:	2300      	movs	r3, #0
 8002b30:	61bb      	str	r3, [r7, #24]
 8002b32:	2300      	movs	r3, #0
 8002b34:	627b      	str	r3, [r7, #36]	; 0x24
 8002b36:	2300      	movs	r3, #0
 8002b38:	617b      	str	r3, [r7, #20]
  uint32_t sysclockfreq = 0U;
 8002b3a:	2300      	movs	r3, #0
 8002b3c:	623b      	str	r3, [r7, #32]
#if defined(RCC_CFGR2_PREDIV1SRC)
  uint32_t prediv2 = 0U, pll2mul = 0U;
#endif /*RCC_CFGR2_PREDIV1SRC*/

  tmpreg = RCC->CFGR;
 8002b3e:	4b21      	ldr	r3, [pc, #132]	; (8002bc4 <HAL_RCC_GetSysClockFreq+0xb0>)
 8002b40:	685b      	ldr	r3, [r3, #4]
 8002b42:	61fb      	str	r3, [r7, #28]

  /* Get SYSCLK source -------------------------------------------------------*/
  switch (tmpreg & RCC_CFGR_SWS)
 8002b44:	69fb      	ldr	r3, [r7, #28]
 8002b46:	f003 030c 	and.w	r3, r3, #12
 8002b4a:	2b04      	cmp	r3, #4
 8002b4c:	d002      	beq.n	8002b54 <HAL_RCC_GetSysClockFreq+0x40>
 8002b4e:	2b08      	cmp	r3, #8
 8002b50:	d003      	beq.n	8002b5a <HAL_RCC_GetSysClockFreq+0x46>
 8002b52:	e02b      	b.n	8002bac <HAL_RCC_GetSysClockFreq+0x98>
  {
    case RCC_SYSCLKSOURCE_STATUS_HSE:  /* HSE used as system clock */
    {
      sysclockfreq = HSE_VALUE;
 8002b54:	4b1c      	ldr	r3, [pc, #112]	; (8002bc8 <HAL_RCC_GetSysClockFreq+0xb4>)
 8002b56:	623b      	str	r3, [r7, #32]
      break;
 8002b58:	e02b      	b.n	8002bb2 <HAL_RCC_GetSysClockFreq+0x9e>
    }
    case RCC_SYSCLKSOURCE_STATUS_PLLCLK:  /* PLL used as system clock */
    {
      pllmul = aPLLMULFactorTable[(uint32_t)(tmpreg & RCC_CFGR_PLLMULL) >> RCC_CFGR_PLLMULL_Pos];
 8002b5a:	69fb      	ldr	r3, [r7, #28]
 8002b5c:	0c9b      	lsrs	r3, r3, #18
 8002b5e:	f003 030f 	and.w	r3, r3, #15
 8002b62:	3328      	adds	r3, #40	; 0x28
 8002b64:	443b      	add	r3, r7
 8002b66:	f813 3c24 	ldrb.w	r3, [r3, #-36]
 8002b6a:	617b      	str	r3, [r7, #20]
      if ((tmpreg & RCC_CFGR_PLLSRC) != RCC_PLLSOURCE_HSI_DIV2)
 8002b6c:	69fb      	ldr	r3, [r7, #28]
 8002b6e:	f403 3380 	and.w	r3, r3, #65536	; 0x10000
 8002b72:	2b00      	cmp	r3, #0
 8002b74:	d012      	beq.n	8002b9c <HAL_RCC_GetSysClockFreq+0x88>
      {
#if defined(RCC_CFGR2_PREDIV1)
        prediv = aPredivFactorTable[(uint32_t)(RCC->CFGR2 & RCC_CFGR2_PREDIV1) >> RCC_CFGR2_PREDIV1_Pos];
#else
        prediv = aPredivFactorTable[(uint32_t)(RCC->CFGR & RCC_CFGR_PLLXTPRE) >> RCC_CFGR_PLLXTPRE_Pos];
 8002b76:	4b13      	ldr	r3, [pc, #76]	; (8002bc4 <HAL_RCC_GetSysClockFreq+0xb0>)
 8002b78:	685b      	ldr	r3, [r3, #4]
 8002b7a:	0c5b      	lsrs	r3, r3, #17
 8002b7c:	f003 0301 	and.w	r3, r3, #1
 8002b80:	3328      	adds	r3, #40	; 0x28
 8002b82:	443b      	add	r3, r7
 8002b84:	f813 3c28 	ldrb.w	r3, [r3, #-40]
 8002b88:	61bb      	str	r3, [r7, #24]
        {
          pllclk = pllclk / 2;
        }
#else
        /* HSE used as PLL clock source : PLLCLK = HSE/PREDIV1 * PLLMUL */
        pllclk = (uint32_t)((HSE_VALUE  * pllmul) / prediv);
 8002b8a:	697b      	ldr	r3, [r7, #20]
 8002b8c:	4a0e      	ldr	r2, [pc, #56]	; (8002bc8 <HAL_RCC_GetSysClockFreq+0xb4>)
 8002b8e:	fb03 f202 	mul.w	r2, r3, r2
 8002b92:	69bb      	ldr	r3, [r7, #24]
 8002b94:	fbb2 f3f3 	udiv	r3, r2, r3
 8002b98:	627b      	str	r3, [r7, #36]	; 0x24
 8002b9a:	e004      	b.n	8002ba6 <HAL_RCC_GetSysClockFreq+0x92>
#endif /*RCC_CFGR2_PREDIV1SRC*/
      }
      else
      {
        /* HSI used as PLL clock source : PLLCLK = HSI/2 * PLLMUL */
        pllclk = (uint32_t)((HSI_VALUE >> 1) * pllmul);
 8002b9c:	697b      	ldr	r3, [r7, #20]
 8002b9e:	4a0b      	ldr	r2, [pc, #44]	; (8002bcc <HAL_RCC_GetSysClockFreq+0xb8>)
 8002ba0:	fb02 f303 	mul.w	r3, r2, r3
 8002ba4:	627b      	str	r3, [r7, #36]	; 0x24
      }
      sysclockfreq = pllclk;
 8002ba6:	6a7b      	ldr	r3, [r7, #36]	; 0x24
 8002ba8:	623b      	str	r3, [r7, #32]
      break;
 8002baa:	e002      	b.n	8002bb2 <HAL_RCC_GetSysClockFreq+0x9e>
    }
    case RCC_SYSCLKSOURCE_STATUS_HSI:  /* HSI used as system clock source */
    default: /* HSI used as system clock */
    {
      sysclockfreq = HSI_VALUE;
 8002bac:	4b06      	ldr	r3, [pc, #24]	; (8002bc8 <HAL_RCC_GetSysClockFreq+0xb4>)
 8002bae:	623b      	str	r3, [r7, #32]
      break;
 8002bb0:	bf00      	nop
    }
  }
  return sysclockfreq;
 8002bb2:	6a3b      	ldr	r3, [r7, #32]
}
 8002bb4:	4618      	mov	r0, r3
 8002bb6:	3728      	adds	r7, #40	; 0x28
 8002bb8:	46bd      	mov	sp, r7
 8002bba:	bc90      	pop	{r4, r7}
 8002bbc:	4770      	bx	lr
 8002bbe:	bf00      	nop
 8002bc0:	0800391c 	.word	0x0800391c
 8002bc4:	40021000 	.word	0x40021000
 8002bc8:	007a1200 	.word	0x007a1200
 8002bcc:	003d0900 	.word	0x003d0900

08002bd0 <HAL_RCC_GetHCLKFreq>:
  * @note   The SystemCoreClock CMSIS variable is used to store System Clock Frequency
  *         and updated within this function
  * @retval HCLK frequency
  */
uint32_t HAL_RCC_GetHCLKFreq(void)
{
 8002bd0:	b480      	push	{r7}
 8002bd2:	af00      	add	r7, sp, #0
  return SystemCoreClock;
 8002bd4:	4b02      	ldr	r3, [pc, #8]	; (8002be0 <HAL_RCC_GetHCLKFreq+0x10>)
 8002bd6:	681b      	ldr	r3, [r3, #0]
}
 8002bd8:	4618      	mov	r0, r3
 8002bda:	46bd      	mov	sp, r7
 8002bdc:	bc80      	pop	{r7}
 8002bde:	4770      	bx	lr
 8002be0:	20000000 	.word	0x20000000

08002be4 <HAL_RCC_GetPCLK1Freq>:
  * @note   Each time PCLK1 changes, this function must be called to update the
  *         right PCLK1 value. Otherwise, any configuration based on this function will be incorrect.
  * @retval PCLK1 frequency
  */
uint32_t HAL_RCC_GetPCLK1Freq(void)
{
 8002be4:	b580      	push	{r7, lr}
 8002be6:	af00      	add	r7, sp, #0
  /* Get HCLK source and Compute PCLK1 frequency ---------------------------*/
  return (HAL_RCC_GetHCLKFreq() >> APBPrescTable[(RCC->CFGR & RCC_CFGR_PPRE1) >> RCC_CFGR_PPRE1_Pos]);
 8002be8:	f7ff fff2 	bl	8002bd0 <HAL_RCC_GetHCLKFreq>
 8002bec:	4602      	mov	r2, r0
 8002bee:	4b05      	ldr	r3, [pc, #20]	; (8002c04 <HAL_RCC_GetPCLK1Freq+0x20>)
 8002bf0:	685b      	ldr	r3, [r3, #4]
 8002bf2:	0a1b      	lsrs	r3, r3, #8
 8002bf4:	f003 0307 	and.w	r3, r3, #7
 8002bf8:	4903      	ldr	r1, [pc, #12]	; (8002c08 <HAL_RCC_GetPCLK1Freq+0x24>)
 8002bfa:	5ccb      	ldrb	r3, [r1, r3]
 8002bfc:	fa22 f303 	lsr.w	r3, r2, r3
}
 8002c00:	4618      	mov	r0, r3
 8002c02:	bd80      	pop	{r7, pc}
 8002c04:	40021000 	.word	0x40021000
 8002c08:	0800393c 	.word	0x0800393c

08002c0c <HAL_RCC_GetPCLK2Freq>:
  * @note   Each time PCLK2 changes, this function must be called to update the
  *         right PCLK2 value. Otherwise, any configuration based on this function will be incorrect.
  * @retval PCLK2 frequency
  */
uint32_t HAL_RCC_GetPCLK2Freq(void)
{
 8002c0c:	b580      	push	{r7, lr}
 8002c0e:	af00      	add	r7, sp, #0
  /* Get HCLK source and Compute PCLK2 frequency ---------------------------*/
  return (HAL_RCC_GetHCLKFreq() >> APBPrescTable[(RCC->CFGR & RCC_CFGR_PPRE2) >> RCC_CFGR_PPRE2_Pos]);
 8002c10:	f7ff ffde 	bl	8002bd0 <HAL_RCC_GetHCLKFreq>
 8002c14:	4602      	mov	r2, r0
 8002c16:	4b05      	ldr	r3, [pc, #20]	; (8002c2c <HAL_RCC_GetPCLK2Freq+0x20>)
 8002c18:	685b      	ldr	r3, [r3, #4]
 8002c1a:	0adb      	lsrs	r3, r3, #11
 8002c1c:	f003 0307 	and.w	r3, r3, #7
 8002c20:	4903      	ldr	r1, [pc, #12]	; (8002c30 <HAL_RCC_GetPCLK2Freq+0x24>)
 8002c22:	5ccb      	ldrb	r3, [r1, r3]
 8002c24:	fa22 f303 	lsr.w	r3, r2, r3
}
 8002c28:	4618      	mov	r0, r3
 8002c2a:	bd80      	pop	{r7, pc}
 8002c2c:	40021000 	.word	0x40021000
 8002c30:	0800393c 	.word	0x0800393c

08002c34 <RCC_Delay>:
  * @brief  This function provides delay (in milliseconds) based on CPU cycles method.
  * @param  mdelay: specifies the delay time length, in milliseconds.
  * @retval None
  */
static void RCC_Delay(uint32_t mdelay)
{
 8002c34:	b480      	push	{r7}
 8002c36:	b085      	sub	sp, #20
 8002c38:	af00      	add	r7, sp, #0
 8002c3a:	6078      	str	r0, [r7, #4]
  __IO uint32_t Delay = mdelay * (SystemCoreClock / 8U / 1000U);
 8002c3c:	4b0a      	ldr	r3, [pc, #40]	; (8002c68 <RCC_Delay+0x34>)
 8002c3e:	681b      	ldr	r3, [r3, #0]
 8002c40:	4a0a      	ldr	r2, [pc, #40]	; (8002c6c <RCC_Delay+0x38>)
 8002c42:	fba2 2303 	umull	r2, r3, r2, r3
 8002c46:	0a5b      	lsrs	r3, r3, #9
 8002c48:	687a      	ldr	r2, [r7, #4]
 8002c4a:	fb02 f303 	mul.w	r3, r2, r3
 8002c4e:	60fb      	str	r3, [r7, #12]
  do
  {
    __NOP();
 8002c50:	bf00      	nop
  }
  while (Delay --);
 8002c52:	68fb      	ldr	r3, [r7, #12]
 8002c54:	1e5a      	subs	r2, r3, #1
 8002c56:	60fa      	str	r2, [r7, #12]
 8002c58:	2b00      	cmp	r3, #0
 8002c5a:	d1f9      	bne.n	8002c50 <RCC_Delay+0x1c>
}
 8002c5c:	bf00      	nop
 8002c5e:	bf00      	nop
 8002c60:	3714      	adds	r7, #20
 8002c62:	46bd      	mov	sp, r7
 8002c64:	bc80      	pop	{r7}
 8002c66:	4770      	bx	lr
 8002c68:	20000000 	.word	0x20000000
 8002c6c:	10624dd3 	.word	0x10624dd3

08002c70 <HAL_USART_Init>:
  * @param  husart Pointer to a USART_HandleTypeDef structure that contains
  *                the configuration information for the specified USART module.
  * @retval HAL status
  */
HAL_StatusTypeDef HAL_USART_Init(USART_HandleTypeDef *husart)
{
 8002c70:	b580      	push	{r7, lr}
 8002c72:	b082      	sub	sp, #8
 8002c74:	af00      	add	r7, sp, #0
 8002c76:	6078      	str	r0, [r7, #4]
  /* Check the USART handle allocation */
  if (husart == NULL)
 8002c78:	687b      	ldr	r3, [r7, #4]
 8002c7a:	2b00      	cmp	r3, #0
 8002c7c:	d101      	bne.n	8002c82 <HAL_USART_Init+0x12>
  {
    return HAL_ERROR;
 8002c7e:	2301      	movs	r3, #1
 8002c80:	e033      	b.n	8002cea <HAL_USART_Init+0x7a>
  }

  /* Check the parameters */
  assert_param(IS_USART_INSTANCE(husart->Instance));

  if (husart->State == HAL_USART_STATE_RESET)
 8002c82:	687b      	ldr	r3, [r7, #4]
 8002c84:	f893 303d 	ldrb.w	r3, [r3, #61]	; 0x3d
 8002c88:	b2db      	uxtb	r3, r3
 8002c8a:	2b00      	cmp	r3, #0
 8002c8c:	d106      	bne.n	8002c9c <HAL_USART_Init+0x2c>
  {
    /* Allocate lock resource and initialize it */
    husart->Lock = HAL_UNLOCKED;
 8002c8e:	687b      	ldr	r3, [r7, #4]
 8002c90:	2200      	movs	r2, #0
 8002c92:	f883 203c 	strb.w	r2, [r3, #60]	; 0x3c

    /* Init the low level hardware */
    husart->MspInitCallback(husart);
#else
    /* Init the low level hardware : GPIO, CLOCK */
    HAL_USART_MspInit(husart);
 8002c96:	6878      	ldr	r0, [r7, #4]
 8002c98:	f7fd ffc2 	bl	8000c20 <HAL_USART_MspInit>
#endif /* USE_HAL_USART_REGISTER_CALLBACKS */
  }

  husart->State = HAL_USART_STATE_BUSY;
 8002c9c:	687b      	ldr	r3, [r7, #4]
 8002c9e:	2202      	movs	r2, #2
 8002ca0:	f883 203d 	strb.w	r2, [r3, #61]	; 0x3d

  /* Set the USART Communication parameters */
  USART_SetConfig(husart);
 8002ca4:	6878      	ldr	r0, [r7, #4]
 8002ca6:	f000 fb61 	bl	800336c <USART_SetConfig>

  /* In USART mode, the following bits must be kept cleared:
     - LINEN bit in the USART_CR2 register
     - HDSEL, SCEN and IREN bits in the USART_CR3 register */
  CLEAR_BIT(husart->Instance->CR2, USART_CR2_LINEN);
 8002caa:	687b      	ldr	r3, [r7, #4]
 8002cac:	681b      	ldr	r3, [r3, #0]
 8002cae:	691a      	ldr	r2, [r3, #16]
 8002cb0:	687b      	ldr	r3, [r7, #4]
 8002cb2:	681b      	ldr	r3, [r3, #0]
 8002cb4:	f422 4280 	bic.w	r2, r2, #16384	; 0x4000
 8002cb8:	611a      	str	r2, [r3, #16]
  CLEAR_BIT(husart->Instance->CR3, (USART_CR3_SCEN | USART_CR3_HDSEL | USART_CR3_IREN));
 8002cba:	687b      	ldr	r3, [r7, #4]
 8002cbc:	681b      	ldr	r3, [r3, #0]
 8002cbe:	695a      	ldr	r2, [r3, #20]
 8002cc0:	687b      	ldr	r3, [r7, #4]
 8002cc2:	681b      	ldr	r3, [r3, #0]
 8002cc4:	f022 022a 	bic.w	r2, r2, #42	; 0x2a
 8002cc8:	615a      	str	r2, [r3, #20]

  /* Enable the Peripheral */
  __HAL_USART_ENABLE(husart);
 8002cca:	687b      	ldr	r3, [r7, #4]
 8002ccc:	681b      	ldr	r3, [r3, #0]
 8002cce:	68da      	ldr	r2, [r3, #12]
 8002cd0:	687b      	ldr	r3, [r7, #4]
 8002cd2:	681b      	ldr	r3, [r3, #0]
 8002cd4:	f442 5200 	orr.w	r2, r2, #8192	; 0x2000
 8002cd8:	60da      	str	r2, [r3, #12]

  /* Initialize the USART state */
  husart->ErrorCode = HAL_USART_ERROR_NONE;
 8002cda:	687b      	ldr	r3, [r7, #4]
 8002cdc:	2200      	movs	r2, #0
 8002cde:	641a      	str	r2, [r3, #64]	; 0x40
  husart->State = HAL_USART_STATE_READY;
 8002ce0:	687b      	ldr	r3, [r7, #4]
 8002ce2:	2201      	movs	r2, #1
 8002ce4:	f883 203d 	strb.w	r2, [r3, #61]	; 0x3d

  return HAL_OK;
 8002ce8:	2300      	movs	r3, #0
}
 8002cea:	4618      	mov	r0, r3
 8002cec:	3708      	adds	r7, #8
 8002cee:	46bd      	mov	sp, r7
 8002cf0:	bd80      	pop	{r7, pc}
	...

08002cf4 <HAL_USART_IRQHandler>:
  * @param  husart Pointer to a USART_HandleTypeDef structure that contains
  *                the configuration information for the specified USART module.
  * @retval None
  */
void HAL_USART_IRQHandler(USART_HandleTypeDef *husart)
{
 8002cf4:	b580      	push	{r7, lr}
 8002cf6:	b088      	sub	sp, #32
 8002cf8:	af00      	add	r7, sp, #0
 8002cfa:	6078      	str	r0, [r7, #4]
  uint32_t isrflags = READ_REG(husart->Instance->SR);
 8002cfc:	687b      	ldr	r3, [r7, #4]
 8002cfe:	681b      	ldr	r3, [r3, #0]
 8002d00:	681b      	ldr	r3, [r3, #0]
 8002d02:	61fb      	str	r3, [r7, #28]
  uint32_t cr1its   = READ_REG(husart->Instance->CR1);
 8002d04:	687b      	ldr	r3, [r7, #4]
 8002d06:	681b      	ldr	r3, [r3, #0]
 8002d08:	68db      	ldr	r3, [r3, #12]
 8002d0a:	61bb      	str	r3, [r7, #24]
  uint32_t cr3its   = READ_REG(husart->Instance->CR3);
 8002d0c:	687b      	ldr	r3, [r7, #4]
 8002d0e:	681b      	ldr	r3, [r3, #0]
 8002d10:	695b      	ldr	r3, [r3, #20]
 8002d12:	617b      	str	r3, [r7, #20]
  uint32_t errorflags = 0x00U;
 8002d14:	2300      	movs	r3, #0
 8002d16:	613b      	str	r3, [r7, #16]
  uint32_t dmarequest = 0x00U;
 8002d18:	2300      	movs	r3, #0
 8002d1a:	60fb      	str	r3, [r7, #12]

  /* If no error occurs */
  errorflags = (isrflags & (uint32_t)(USART_SR_PE | USART_SR_FE | USART_SR_ORE | USART_SR_NE));
 8002d1c:	69fb      	ldr	r3, [r7, #28]
 8002d1e:	f003 030f 	and.w	r3, r3, #15
 8002d22:	613b      	str	r3, [r7, #16]
  if (errorflags == RESET)
 8002d24:	693b      	ldr	r3, [r7, #16]
 8002d26:	2b00      	cmp	r3, #0
 8002d28:	d117      	bne.n	8002d5a <HAL_USART_IRQHandler+0x66>
  {
    /* USART in mode Receiver -------------------------------------------------*/
    if (((isrflags & USART_SR_RXNE) != RESET) && ((cr1its & USART_CR1_RXNEIE) != RESET))
 8002d2a:	69fb      	ldr	r3, [r7, #28]
 8002d2c:	f003 0320 	and.w	r3, r3, #32
 8002d30:	2b00      	cmp	r3, #0
 8002d32:	d012      	beq.n	8002d5a <HAL_USART_IRQHandler+0x66>
 8002d34:	69bb      	ldr	r3, [r7, #24]
 8002d36:	f003 0320 	and.w	r3, r3, #32
 8002d3a:	2b00      	cmp	r3, #0
 8002d3c:	d00d      	beq.n	8002d5a <HAL_USART_IRQHandler+0x66>
    {
      if (husart->State == HAL_USART_STATE_BUSY_RX)
 8002d3e:	687b      	ldr	r3, [r7, #4]
 8002d40:	f893 303d 	ldrb.w	r3, [r3, #61]	; 0x3d
 8002d44:	b2db      	uxtb	r3, r3
 8002d46:	2b22      	cmp	r3, #34	; 0x22
 8002d48:	d103      	bne.n	8002d52 <HAL_USART_IRQHandler+0x5e>
      {
        USART_Receive_IT(husart);
 8002d4a:	6878      	ldr	r0, [r7, #4]
 8002d4c:	f000 f9b4 	bl	80030b8 <USART_Receive_IT>
      }
      else
      {
        USART_TransmitReceive_IT(husart);
      }
      return;
 8002d50:	e0e9      	b.n	8002f26 <HAL_USART_IRQHandler+0x232>
        USART_TransmitReceive_IT(husart);
 8002d52:	6878      	ldr	r0, [r7, #4]
 8002d54:	f000 fa36 	bl	80031c4 <USART_TransmitReceive_IT>
      return;
 8002d58:	e0e5      	b.n	8002f26 <HAL_USART_IRQHandler+0x232>
    }
  }
  /* If some errors occur */
  if ((errorflags != RESET) && (((cr3its & USART_CR3_EIE) != RESET) || ((cr1its & (USART_CR1_RXNEIE | USART_CR1_PEIE)) != RESET)))
 8002d5a:	693b      	ldr	r3, [r7, #16]
 8002d5c:	2b00      	cmp	r3, #0
 8002d5e:	f000 80bb 	beq.w	8002ed8 <HAL_USART_IRQHandler+0x1e4>
 8002d62:	697b      	ldr	r3, [r7, #20]
 8002d64:	f003 0301 	and.w	r3, r3, #1
 8002d68:	2b00      	cmp	r3, #0
 8002d6a:	d105      	bne.n	8002d78 <HAL_USART_IRQHandler+0x84>
 8002d6c:	69bb      	ldr	r3, [r7, #24]
 8002d6e:	f403 7390 	and.w	r3, r3, #288	; 0x120
 8002d72:	2b00      	cmp	r3, #0
 8002d74:	f000 80b0 	beq.w	8002ed8 <HAL_USART_IRQHandler+0x1e4>
  {
    /* USART parity error interrupt occurred ----------------------------------*/
    if (((isrflags & USART_SR_PE) != RESET) && ((cr1its & USART_CR1_PEIE) != RESET))
 8002d78:	69fb      	ldr	r3, [r7, #28]
 8002d7a:	f003 0301 	and.w	r3, r3, #1
 8002d7e:	2b00      	cmp	r3, #0
 8002d80:	d00a      	beq.n	8002d98 <HAL_USART_IRQHandler+0xa4>
 8002d82:	69bb      	ldr	r3, [r7, #24]
 8002d84:	f403 7380 	and.w	r3, r3, #256	; 0x100
 8002d88:	2b00      	cmp	r3, #0
 8002d8a:	d005      	beq.n	8002d98 <HAL_USART_IRQHandler+0xa4>
    {
      husart->ErrorCode |= HAL_USART_ERROR_PE;
 8002d8c:	687b      	ldr	r3, [r7, #4]
 8002d8e:	6c1b      	ldr	r3, [r3, #64]	; 0x40
 8002d90:	f043 0201 	orr.w	r2, r3, #1
 8002d94:	687b      	ldr	r3, [r7, #4]
 8002d96:	641a      	str	r2, [r3, #64]	; 0x40
    }

    /* USART noise error interrupt occurred --------------------------------*/
    if (((isrflags & USART_SR_NE) != RESET) && ((cr3its & USART_CR3_EIE) != RESET))
 8002d98:	69fb      	ldr	r3, [r7, #28]
 8002d9a:	f003 0304 	and.w	r3, r3, #4
 8002d9e:	2b00      	cmp	r3, #0
 8002da0:	d00a      	beq.n	8002db8 <HAL_USART_IRQHandler+0xc4>
 8002da2:	697b      	ldr	r3, [r7, #20]
 8002da4:	f003 0301 	and.w	r3, r3, #1
 8002da8:	2b00      	cmp	r3, #0
 8002daa:	d005      	beq.n	8002db8 <HAL_USART_IRQHandler+0xc4>
    {
      husart->ErrorCode |= HAL_USART_ERROR_NE;
 8002dac:	687b      	ldr	r3, [r7, #4]
 8002dae:	6c1b      	ldr	r3, [r3, #64]	; 0x40
 8002db0:	f043 0202 	orr.w	r2, r3, #2
 8002db4:	687b      	ldr	r3, [r7, #4]
 8002db6:	641a      	str	r2, [r3, #64]	; 0x40
    }

    /* USART frame error interrupt occurred --------------------------------*/
    if (((isrflags & USART_SR_FE) != RESET) && ((cr3its & USART_CR3_EIE) != RESET))
 8002db8:	69fb      	ldr	r3, [r7, #28]
 8002dba:	f003 0302 	and.w	r3, r3, #2
 8002dbe:	2b00      	cmp	r3, #0
 8002dc0:	d00a      	beq.n	8002dd8 <HAL_USART_IRQHandler+0xe4>
 8002dc2:	697b      	ldr	r3, [r7, #20]
 8002dc4:	f003 0301 	and.w	r3, r3, #1
 8002dc8:	2b00      	cmp	r3, #0
 8002dca:	d005      	beq.n	8002dd8 <HAL_USART_IRQHandler+0xe4>
    {
      husart->ErrorCode |= HAL_USART_ERROR_FE;
 8002dcc:	687b      	ldr	r3, [r7, #4]
 8002dce:	6c1b      	ldr	r3, [r3, #64]	; 0x40
 8002dd0:	f043 0204 	orr.w	r2, r3, #4
 8002dd4:	687b      	ldr	r3, [r7, #4]
 8002dd6:	641a      	str	r2, [r3, #64]	; 0x40
    }

    /* USART Over-Run interrupt occurred -----------------------------------*/
    if (((isrflags & USART_SR_ORE) != RESET) && (((cr1its & USART_CR1_RXNEIE) != RESET) || ((cr3its & USART_CR3_EIE) != RESET)))
 8002dd8:	69fb      	ldr	r3, [r7, #28]
 8002dda:	f003 0308 	and.w	r3, r3, #8
 8002dde:	2b00      	cmp	r3, #0
 8002de0:	d00f      	beq.n	8002e02 <HAL_USART_IRQHandler+0x10e>
 8002de2:	69bb      	ldr	r3, [r7, #24]
 8002de4:	f003 0320 	and.w	r3, r3, #32
 8002de8:	2b00      	cmp	r3, #0
 8002dea:	d104      	bne.n	8002df6 <HAL_USART_IRQHandler+0x102>
 8002dec:	697b      	ldr	r3, [r7, #20]
 8002dee:	f003 0301 	and.w	r3, r3, #1
 8002df2:	2b00      	cmp	r3, #0
 8002df4:	d005      	beq.n	8002e02 <HAL_USART_IRQHandler+0x10e>
    {
      husart->ErrorCode |= HAL_USART_ERROR_ORE;
 8002df6:	687b      	ldr	r3, [r7, #4]
 8002df8:	6c1b      	ldr	r3, [r3, #64]	; 0x40
 8002dfa:	f043 0208 	orr.w	r2, r3, #8
 8002dfe:	687b      	ldr	r3, [r7, #4]
 8002e00:	641a      	str	r2, [r3, #64]	; 0x40
    }

    if (husart->ErrorCode != HAL_USART_ERROR_NONE)
 8002e02:	687b      	ldr	r3, [r7, #4]
 8002e04:	6c1b      	ldr	r3, [r3, #64]	; 0x40
 8002e06:	2b00      	cmp	r3, #0
 8002e08:	f000 808c 	beq.w	8002f24 <HAL_USART_IRQHandler+0x230>
    {
      /* USART in mode Receiver -----------------------------------------------*/
      if (((isrflags & USART_SR_RXNE) != RESET) && ((cr1its & USART_CR1_RXNEIE) != RESET))
 8002e0c:	69fb      	ldr	r3, [r7, #28]
 8002e0e:	f003 0320 	and.w	r3, r3, #32
 8002e12:	2b00      	cmp	r3, #0
 8002e14:	d011      	beq.n	8002e3a <HAL_USART_IRQHandler+0x146>
 8002e16:	69bb      	ldr	r3, [r7, #24]
 8002e18:	f003 0320 	and.w	r3, r3, #32
 8002e1c:	2b00      	cmp	r3, #0
 8002e1e:	d00c      	beq.n	8002e3a <HAL_USART_IRQHandler+0x146>
      {
        if (husart->State == HAL_USART_STATE_BUSY_RX)
 8002e20:	687b      	ldr	r3, [r7, #4]
 8002e22:	f893 303d 	ldrb.w	r3, [r3, #61]	; 0x3d
 8002e26:	b2db      	uxtb	r3, r3
 8002e28:	2b22      	cmp	r3, #34	; 0x22
 8002e2a:	d103      	bne.n	8002e34 <HAL_USART_IRQHandler+0x140>
        {
          USART_Receive_IT(husart);
 8002e2c:	6878      	ldr	r0, [r7, #4]
 8002e2e:	f000 f943 	bl	80030b8 <USART_Receive_IT>
 8002e32:	e002      	b.n	8002e3a <HAL_USART_IRQHandler+0x146>
        }
        else
        {
          USART_TransmitReceive_IT(husart);
 8002e34:	6878      	ldr	r0, [r7, #4]
 8002e36:	f000 f9c5 	bl	80031c4 <USART_TransmitReceive_IT>
        }
      }
      /* If Overrun error occurs, or if any error occurs in DMA mode reception,
      consider error as blocking */
      dmarequest = HAL_IS_BIT_SET(husart->Instance->CR3, USART_CR3_DMAR);
 8002e3a:	687b      	ldr	r3, [r7, #4]
 8002e3c:	681b      	ldr	r3, [r3, #0]
 8002e3e:	695b      	ldr	r3, [r3, #20]
 8002e40:	f003 0340 	and.w	r3, r3, #64	; 0x40
 8002e44:	2b00      	cmp	r3, #0
 8002e46:	bf14      	ite	ne
 8002e48:	2301      	movne	r3, #1
 8002e4a:	2300      	moveq	r3, #0
 8002e4c:	b2db      	uxtb	r3, r3
 8002e4e:	60fb      	str	r3, [r7, #12]
      if (((husart->ErrorCode & HAL_USART_ERROR_ORE) != RESET) || dmarequest)
 8002e50:	687b      	ldr	r3, [r7, #4]
 8002e52:	6c1b      	ldr	r3, [r3, #64]	; 0x40
 8002e54:	f003 0308 	and.w	r3, r3, #8
 8002e58:	2b00      	cmp	r3, #0
 8002e5a:	d102      	bne.n	8002e62 <HAL_USART_IRQHandler+0x16e>
 8002e5c:	68fb      	ldr	r3, [r7, #12]
 8002e5e:	2b00      	cmp	r3, #0
 8002e60:	d031      	beq.n	8002ec6 <HAL_USART_IRQHandler+0x1d2>
      {
        /* Set the USART state ready to be able to start again the process,
        Disable Rx Interrupts, and disable Rx DMA request, if ongoing */
        USART_EndRxTransfer(husart);
 8002e62:	6878      	ldr	r0, [r7, #4]
 8002e64:	f000 f888 	bl	8002f78 <USART_EndRxTransfer>

        /* Disable the USART DMA Rx request if enabled */
        if (HAL_IS_BIT_SET(husart->Instance->CR3, USART_CR3_DMAR))
 8002e68:	687b      	ldr	r3, [r7, #4]
 8002e6a:	681b      	ldr	r3, [r3, #0]
 8002e6c:	695b      	ldr	r3, [r3, #20]
 8002e6e:	f003 0340 	and.w	r3, r3, #64	; 0x40
 8002e72:	2b00      	cmp	r3, #0
 8002e74:	d023      	beq.n	8002ebe <HAL_USART_IRQHandler+0x1ca>
        {
          CLEAR_BIT(husart->Instance->CR3, USART_CR3_DMAR);
 8002e76:	687b      	ldr	r3, [r7, #4]
 8002e78:	681b      	ldr	r3, [r3, #0]
 8002e7a:	695a      	ldr	r2, [r3, #20]
 8002e7c:	687b      	ldr	r3, [r7, #4]
 8002e7e:	681b      	ldr	r3, [r3, #0]
 8002e80:	f022 0240 	bic.w	r2, r2, #64	; 0x40
 8002e84:	615a      	str	r2, [r3, #20]

          /* Abort the USART DMA Rx channel */
          if (husart->hdmarx != NULL)
 8002e86:	687b      	ldr	r3, [r7, #4]
 8002e88:	6b9b      	ldr	r3, [r3, #56]	; 0x38
 8002e8a:	2b00      	cmp	r3, #0
 8002e8c:	d013      	beq.n	8002eb6 <HAL_USART_IRQHandler+0x1c2>
          {
            /* Set the USART DMA Abort callback :
            will lead to call HAL_USART_ErrorCallback() at end of DMA abort procedure */
            husart->hdmarx->XferAbortCallback = USART_DMAAbortOnError;
 8002e8e:	687b      	ldr	r3, [r7, #4]
 8002e90:	6b9b      	ldr	r3, [r3, #56]	; 0x38
 8002e92:	4a26      	ldr	r2, [pc, #152]	; (8002f2c <HAL_USART_IRQHandler+0x238>)
 8002e94:	635a      	str	r2, [r3, #52]	; 0x34

            if (HAL_DMA_Abort_IT(husart->hdmarx) != HAL_OK)
 8002e96:	687b      	ldr	r3, [r7, #4]
 8002e98:	6b9b      	ldr	r3, [r3, #56]	; 0x38
 8002e9a:	4618      	mov	r0, r3
 8002e9c:	f7fe f906 	bl	80010ac <HAL_DMA_Abort_IT>
 8002ea0:	4603      	mov	r3, r0
 8002ea2:	2b00      	cmp	r3, #0
 8002ea4:	d016      	beq.n	8002ed4 <HAL_USART_IRQHandler+0x1e0>
            {
              /* Call Directly XferAbortCallback function in case of error */
              husart->hdmarx->XferAbortCallback(husart->hdmarx);
 8002ea6:	687b      	ldr	r3, [r7, #4]
 8002ea8:	6b9b      	ldr	r3, [r3, #56]	; 0x38
 8002eaa:	6b5b      	ldr	r3, [r3, #52]	; 0x34
 8002eac:	687a      	ldr	r2, [r7, #4]
 8002eae:	6b92      	ldr	r2, [r2, #56]	; 0x38
 8002eb0:	4610      	mov	r0, r2
 8002eb2:	4798      	blx	r3
        if (HAL_IS_BIT_SET(husart->Instance->CR3, USART_CR3_DMAR))
 8002eb4:	e00e      	b.n	8002ed4 <HAL_USART_IRQHandler+0x1e0>
#if (USE_HAL_USART_REGISTER_CALLBACKS == 1)
            /* Call registered Error Callback */
            husart->ErrorCallback(husart);
#else
            /* Call legacy weak Error Callback */
            HAL_USART_ErrorCallback(husart);
 8002eb6:	6878      	ldr	r0, [r7, #4]
 8002eb8:	f000 f855 	bl	8002f66 <HAL_USART_ErrorCallback>
        if (HAL_IS_BIT_SET(husart->Instance->CR3, USART_CR3_DMAR))
 8002ebc:	e00a      	b.n	8002ed4 <HAL_USART_IRQHandler+0x1e0>
#if (USE_HAL_USART_REGISTER_CALLBACKS == 1)
          /* Call registered Error Callback */
          husart->ErrorCallback(husart);
#else
          /* Call legacy weak Error Callback */
          HAL_USART_ErrorCallback(husart);
 8002ebe:	6878      	ldr	r0, [r7, #4]
 8002ec0:	f000 f851 	bl	8002f66 <HAL_USART_ErrorCallback>
        if (HAL_IS_BIT_SET(husart->Instance->CR3, USART_CR3_DMAR))
 8002ec4:	e006      	b.n	8002ed4 <HAL_USART_IRQHandler+0x1e0>
#if (USE_HAL_USART_REGISTER_CALLBACKS == 1)
        /* Call registered Error Callback */
        husart->ErrorCallback(husart);
#else
        /* Call legacy weak Error Callback */
        HAL_USART_ErrorCallback(husart);
 8002ec6:	6878      	ldr	r0, [r7, #4]
 8002ec8:	f000 f84d 	bl	8002f66 <HAL_USART_ErrorCallback>
#endif /* USE_HAL_USART_REGISTER_CALLBACKS */
        husart->ErrorCode = HAL_USART_ERROR_NONE;
 8002ecc:	687b      	ldr	r3, [r7, #4]
 8002ece:	2200      	movs	r2, #0
 8002ed0:	641a      	str	r2, [r3, #64]	; 0x40
      }
    }
    return;
 8002ed2:	e027      	b.n	8002f24 <HAL_USART_IRQHandler+0x230>
        if (HAL_IS_BIT_SET(husart->Instance->CR3, USART_CR3_DMAR))
 8002ed4:	bf00      	nop
    return;
 8002ed6:	e025      	b.n	8002f24 <HAL_USART_IRQHandler+0x230>
  }

  /* USART in mode Transmitter -----------------------------------------------*/
  if (((isrflags & USART_SR_TXE) != RESET) && ((cr1its & USART_CR1_TXEIE) != RESET))
 8002ed8:	69fb      	ldr	r3, [r7, #28]
 8002eda:	f003 0380 	and.w	r3, r3, #128	; 0x80
 8002ede:	2b00      	cmp	r3, #0
 8002ee0:	d012      	beq.n	8002f08 <HAL_USART_IRQHandler+0x214>
 8002ee2:	69bb      	ldr	r3, [r7, #24]
 8002ee4:	f003 0380 	and.w	r3, r3, #128	; 0x80
 8002ee8:	2b00      	cmp	r3, #0
 8002eea:	d00d      	beq.n	8002f08 <HAL_USART_IRQHandler+0x214>
  {
    if (husart->State == HAL_USART_STATE_BUSY_TX)
 8002eec:	687b      	ldr	r3, [r7, #4]
 8002eee:	f893 303d 	ldrb.w	r3, [r3, #61]	; 0x3d
 8002ef2:	b2db      	uxtb	r3, r3
 8002ef4:	2b12      	cmp	r3, #18
 8002ef6:	d103      	bne.n	8002f00 <HAL_USART_IRQHandler+0x20c>
    {
      USART_Transmit_IT(husart);
 8002ef8:	6878      	ldr	r0, [r7, #4]
 8002efa:	f000 f86e 	bl	8002fda <USART_Transmit_IT>
    }
    else
    {
      USART_TransmitReceive_IT(husart);
    }
    return;
 8002efe:	e012      	b.n	8002f26 <HAL_USART_IRQHandler+0x232>
      USART_TransmitReceive_IT(husart);
 8002f00:	6878      	ldr	r0, [r7, #4]
 8002f02:	f000 f95f 	bl	80031c4 <USART_TransmitReceive_IT>
    return;
 8002f06:	e00e      	b.n	8002f26 <HAL_USART_IRQHandler+0x232>
  }

  /* USART in mode Transmitter (transmission end) ----------------------------*/
  if (((isrflags & USART_SR_TC) != RESET) && ((cr1its & USART_CR1_TCIE) != RESET))
 8002f08:	69fb      	ldr	r3, [r7, #28]
 8002f0a:	f003 0340 	and.w	r3, r3, #64	; 0x40
 8002f0e:	2b00      	cmp	r3, #0
 8002f10:	d009      	beq.n	8002f26 <HAL_USART_IRQHandler+0x232>
 8002f12:	69bb      	ldr	r3, [r7, #24]
 8002f14:	f003 0340 	and.w	r3, r3, #64	; 0x40
 8002f18:	2b00      	cmp	r3, #0
 8002f1a:	d004      	beq.n	8002f26 <HAL_USART_IRQHandler+0x232>
  {
    USART_EndTransmit_IT(husart);
 8002f1c:	6878      	ldr	r0, [r7, #4]
 8002f1e:	f000 f8ab 	bl	8003078 <USART_EndTransmit_IT>
    return;
 8002f22:	e000      	b.n	8002f26 <HAL_USART_IRQHandler+0x232>
    return;
 8002f24:	bf00      	nop
  }
}
 8002f26:	3720      	adds	r7, #32
 8002f28:	46bd      	mov	sp, r7
 8002f2a:	bd80      	pop	{r7, pc}
 8002f2c:	08002fb3 	.word	0x08002fb3

08002f30 <HAL_USART_TxCpltCallback>:
  * @param  husart Pointer to a USART_HandleTypeDef structure that contains
  *                the configuration information for the specified USART module.
  * @retval None
  */
__weak void HAL_USART_TxCpltCallback(USART_HandleTypeDef *husart)
{
 8002f30:	b480      	push	{r7}
 8002f32:	b083      	sub	sp, #12
 8002f34:	af00      	add	r7, sp, #0
 8002f36:	6078      	str	r0, [r7, #4]
  /* Prevent unused argument(s) compilation warning */
  UNUSED(husart);
  /* NOTE: This function should not be modified, when the callback is needed,
           the HAL_USART_TxCpltCallback could be implemented in the user file
   */
}
 8002f38:	bf00      	nop
 8002f3a:	370c      	adds	r7, #12
 8002f3c:	46bd      	mov	sp, r7
 8002f3e:	bc80      	pop	{r7}
 8002f40:	4770      	bx	lr

08002f42 <HAL_USART_RxCpltCallback>:
  * @param  husart Pointer to a USART_HandleTypeDef structure that contains
  *                the configuration information for the specified USART module.
  * @retval None
  */
__weak void HAL_USART_RxCpltCallback(USART_HandleTypeDef *husart)
{
 8002f42:	b480      	push	{r7}
 8002f44:	b083      	sub	sp, #12
 8002f46:	af00      	add	r7, sp, #0
 8002f48:	6078      	str	r0, [r7, #4]
  /* Prevent unused argument(s) compilation warning */
  UNUSED(husart);
  /* NOTE: This function should not be modified, when the callback is needed,
           the HAL_USART_RxCpltCallback could be implemented in the user file
   */
}
 8002f4a:	bf00      	nop
 8002f4c:	370c      	adds	r7, #12
 8002f4e:	46bd      	mov	sp, r7
 8002f50:	bc80      	pop	{r7}
 8002f52:	4770      	bx	lr

08002f54 <HAL_USART_TxRxCpltCallback>:
  * @param  husart Pointer to a USART_HandleTypeDef structure that contains
  *                the configuration information for the specified USART module.
  * @retval None
  */
__weak void HAL_USART_TxRxCpltCallback(USART_HandleTypeDef *husart)
{
 8002f54:	b480      	push	{r7}
 8002f56:	b083      	sub	sp, #12
 8002f58:	af00      	add	r7, sp, #0
 8002f5a:	6078      	str	r0, [r7, #4]
  /* Prevent unused argument(s) compilation warning */
  UNUSED(husart);
  /* NOTE: This function should not be modified, when the callback is needed,
           the HAL_USART_TxRxCpltCallback could be implemented in the user file
   */
}
 8002f5c:	bf00      	nop
 8002f5e:	370c      	adds	r7, #12
 8002f60:	46bd      	mov	sp, r7
 8002f62:	bc80      	pop	{r7}
 8002f64:	4770      	bx	lr

08002f66 <HAL_USART_ErrorCallback>:
  * @param  husart Pointer to a USART_HandleTypeDef structure that contains
  *                the configuration information for the specified USART module.
  * @retval None
  */
__weak void HAL_USART_ErrorCallback(USART_HandleTypeDef *husart)
{
 8002f66:	b480      	push	{r7}
 8002f68:	b083      	sub	sp, #12
 8002f6a:	af00      	add	r7, sp, #0
 8002f6c:	6078      	str	r0, [r7, #4]
  /* Prevent unused argument(s) compilation warning */
  UNUSED(husart);
  /* NOTE: This function should not be modified, when the callback is needed,
           the HAL_USART_ErrorCallback could be implemented in the user file
   */
}
 8002f6e:	bf00      	nop
 8002f70:	370c      	adds	r7, #12
 8002f72:	46bd      	mov	sp, r7
 8002f74:	bc80      	pop	{r7}
 8002f76:	4770      	bx	lr

08002f78 <USART_EndRxTransfer>:
  * @brief  End ongoing Rx transfer on USART peripheral (following error detection or Reception completion).
  * @param  husart USART handle.
  * @retval None
  */
static void USART_EndRxTransfer(USART_HandleTypeDef *husart)
{
 8002f78:	b480      	push	{r7}
 8002f7a:	b083      	sub	sp, #12
 8002f7c:	af00      	add	r7, sp, #0
 8002f7e:	6078      	str	r0, [r7, #4]
  /* Disable RXNE, PE and ERR interrupts */
  CLEAR_BIT(husart->Instance->CR1, (USART_CR1_RXNEIE | USART_CR1_PEIE));
 8002f80:	687b      	ldr	r3, [r7, #4]
 8002f82:	681b      	ldr	r3, [r3, #0]
 8002f84:	68da      	ldr	r2, [r3, #12]
 8002f86:	687b      	ldr	r3, [r7, #4]
 8002f88:	681b      	ldr	r3, [r3, #0]
 8002f8a:	f422 7290 	bic.w	r2, r2, #288	; 0x120
 8002f8e:	60da      	str	r2, [r3, #12]
  CLEAR_BIT(husart->Instance->CR3, USART_CR3_EIE);
 8002f90:	687b      	ldr	r3, [r7, #4]
 8002f92:	681b      	ldr	r3, [r3, #0]
 8002f94:	695a      	ldr	r2, [r3, #20]
 8002f96:	687b      	ldr	r3, [r7, #4]
 8002f98:	681b      	ldr	r3, [r3, #0]
 8002f9a:	f022 0201 	bic.w	r2, r2, #1
 8002f9e:	615a      	str	r2, [r3, #20]

  /* At end of Rx process, restore husart->State to Ready */
  husart->State = HAL_USART_STATE_READY;
 8002fa0:	687b      	ldr	r3, [r7, #4]
 8002fa2:	2201      	movs	r2, #1
 8002fa4:	f883 203d 	strb.w	r2, [r3, #61]	; 0x3d
}
 8002fa8:	bf00      	nop
 8002faa:	370c      	adds	r7, #12
 8002fac:	46bd      	mov	sp, r7
 8002fae:	bc80      	pop	{r7}
 8002fb0:	4770      	bx	lr

08002fb2 <USART_DMAAbortOnError>:
  *         (To be called at end of DMA Abort procedure following error occurrence).
  * @param  hdma DMA handle.
  * @retval None
  */
static void USART_DMAAbortOnError(DMA_HandleTypeDef *hdma)
{
 8002fb2:	b580      	push	{r7, lr}
 8002fb4:	b084      	sub	sp, #16
 8002fb6:	af00      	add	r7, sp, #0
 8002fb8:	6078      	str	r0, [r7, #4]
  USART_HandleTypeDef *husart = (USART_HandleTypeDef *)((DMA_HandleTypeDef *)hdma)->Parent;
 8002fba:	687b      	ldr	r3, [r7, #4]
 8002fbc:	6a5b      	ldr	r3, [r3, #36]	; 0x24
 8002fbe:	60fb      	str	r3, [r7, #12]
  husart->RxXferCount = 0x00U;
 8002fc0:	68fb      	ldr	r3, [r7, #12]
 8002fc2:	2200      	movs	r2, #0
 8002fc4:	865a      	strh	r2, [r3, #50]	; 0x32
  husart->TxXferCount = 0x00U;
 8002fc6:	68fb      	ldr	r3, [r7, #12]
 8002fc8:	2200      	movs	r2, #0
 8002fca:	855a      	strh	r2, [r3, #42]	; 0x2a
#if (USE_HAL_USART_REGISTER_CALLBACKS == 1)
  /* Call registered Error Callback */
  husart->ErrorCallback(husart);
#else
  /* Call legacy weak Error Callback */
  HAL_USART_ErrorCallback(husart);
 8002fcc:	68f8      	ldr	r0, [r7, #12]
 8002fce:	f7ff ffca 	bl	8002f66 <HAL_USART_ErrorCallback>
#endif /* USE_HAL_USART_REGISTER_CALLBACKS */
}
 8002fd2:	bf00      	nop
 8002fd4:	3710      	adds	r7, #16
 8002fd6:	46bd      	mov	sp, r7
 8002fd8:	bd80      	pop	{r7, pc}

08002fda <USART_Transmit_IT>:
  *                the configuration information for the specified USART module.
  * @retval HAL status
  * @note   The USART errors are not managed to avoid the overrun error.
  */
static HAL_StatusTypeDef USART_Transmit_IT(USART_HandleTypeDef *husart)
{
 8002fda:	b480      	push	{r7}
 8002fdc:	b085      	sub	sp, #20
 8002fde:	af00      	add	r7, sp, #0
 8002fe0:	6078      	str	r0, [r7, #4]
  uint16_t *tmp;

  if (husart->State == HAL_USART_STATE_BUSY_TX)
 8002fe2:	687b      	ldr	r3, [r7, #4]
 8002fe4:	f893 303d 	ldrb.w	r3, [r3, #61]	; 0x3d
 8002fe8:	b2db      	uxtb	r3, r3
 8002fea:	2b12      	cmp	r3, #18
 8002fec:	d13e      	bne.n	800306c <USART_Transmit_IT+0x92>
  {
    if ((husart->Init.WordLength == USART_WORDLENGTH_9B) && (husart->Init.Parity == USART_PARITY_NONE))
 8002fee:	687b      	ldr	r3, [r7, #4]
 8002ff0:	689b      	ldr	r3, [r3, #8]
 8002ff2:	f5b3 5f80 	cmp.w	r3, #4096	; 0x1000
 8002ff6:	d114      	bne.n	8003022 <USART_Transmit_IT+0x48>
 8002ff8:	687b      	ldr	r3, [r7, #4]
 8002ffa:	691b      	ldr	r3, [r3, #16]
 8002ffc:	2b00      	cmp	r3, #0
 8002ffe:	d110      	bne.n	8003022 <USART_Transmit_IT+0x48>
    {
      tmp = (uint16_t *) husart->pTxBuffPtr;
 8003000:	687b      	ldr	r3, [r7, #4]
 8003002:	6a5b      	ldr	r3, [r3, #36]	; 0x24
 8003004:	60fb      	str	r3, [r7, #12]
      husart->Instance->DR = (uint16_t)(*tmp & (uint16_t)0x01FF);
 8003006:	68fb      	ldr	r3, [r7, #12]
 8003008:	881b      	ldrh	r3, [r3, #0]
 800300a:	461a      	mov	r2, r3
 800300c:	687b      	ldr	r3, [r7, #4]
 800300e:	681b      	ldr	r3, [r3, #0]
 8003010:	f3c2 0208 	ubfx	r2, r2, #0, #9
 8003014:	605a      	str	r2, [r3, #4]
      husart->pTxBuffPtr += 2U;
 8003016:	687b      	ldr	r3, [r7, #4]
 8003018:	6a5b      	ldr	r3, [r3, #36]	; 0x24
 800301a:	1c9a      	adds	r2, r3, #2
 800301c:	687b      	ldr	r3, [r7, #4]
 800301e:	625a      	str	r2, [r3, #36]	; 0x24
 8003020:	e008      	b.n	8003034 <USART_Transmit_IT+0x5a>
    }
    else
    {
      husart->Instance->DR = (uint8_t)(*husart->pTxBuffPtr++ & (uint8_t)0x00FF);
 8003022:	687b      	ldr	r3, [r7, #4]
 8003024:	6a5b      	ldr	r3, [r3, #36]	; 0x24
 8003026:	1c59      	adds	r1, r3, #1
 8003028:	687a      	ldr	r2, [r7, #4]
 800302a:	6251      	str	r1, [r2, #36]	; 0x24
 800302c:	781a      	ldrb	r2, [r3, #0]
 800302e:	687b      	ldr	r3, [r7, #4]
 8003030:	681b      	ldr	r3, [r3, #0]
 8003032:	605a      	str	r2, [r3, #4]
    }

    if (--husart->TxXferCount == 0U)
 8003034:	687b      	ldr	r3, [r7, #4]
 8003036:	8d5b      	ldrh	r3, [r3, #42]	; 0x2a
 8003038:	b29b      	uxth	r3, r3
 800303a:	3b01      	subs	r3, #1
 800303c:	b29b      	uxth	r3, r3
 800303e:	687a      	ldr	r2, [r7, #4]
 8003040:	4619      	mov	r1, r3
 8003042:	8551      	strh	r1, [r2, #42]	; 0x2a
 8003044:	2b00      	cmp	r3, #0
 8003046:	d10f      	bne.n	8003068 <USART_Transmit_IT+0x8e>
    {
      /* Disable the USART Transmit data register empty Interrupt */
      CLEAR_BIT(husart->Instance->CR1, USART_CR1_TXEIE);
 8003048:	687b      	ldr	r3, [r7, #4]
 800304a:	681b      	ldr	r3, [r3, #0]
 800304c:	68da      	ldr	r2, [r3, #12]
 800304e:	687b      	ldr	r3, [r7, #4]
 8003050:	681b      	ldr	r3, [r3, #0]
 8003052:	f022 0280 	bic.w	r2, r2, #128	; 0x80
 8003056:	60da      	str	r2, [r3, #12]

      /* Enable the USART Transmit Complete Interrupt */
      SET_BIT(husart->Instance->CR1, USART_CR1_TCIE);
 8003058:	687b      	ldr	r3, [r7, #4]
 800305a:	681b      	ldr	r3, [r3, #0]
 800305c:	68da      	ldr	r2, [r3, #12]
 800305e:	687b      	ldr	r3, [r7, #4]
 8003060:	681b      	ldr	r3, [r3, #0]
 8003062:	f042 0240 	orr.w	r2, r2, #64	; 0x40
 8003066:	60da      	str	r2, [r3, #12]
    }
    return HAL_OK;
 8003068:	2300      	movs	r3, #0
 800306a:	e000      	b.n	800306e <USART_Transmit_IT+0x94>
  }
  else
  {
    return HAL_BUSY;
 800306c:	2302      	movs	r3, #2
  }
}
 800306e:	4618      	mov	r0, r3
 8003070:	3714      	adds	r7, #20
 8003072:	46bd      	mov	sp, r7
 8003074:	bc80      	pop	{r7}
 8003076:	4770      	bx	lr

08003078 <USART_EndTransmit_IT>:
  * @param  husart Pointer to a USART_HandleTypeDef structure that contains
  *                the configuration information for the specified USART module.
  * @retval HAL status
  */
static HAL_StatusTypeDef USART_EndTransmit_IT(USART_HandleTypeDef *husart)
{
 8003078:	b580      	push	{r7, lr}
 800307a:	b082      	sub	sp, #8
 800307c:	af00      	add	r7, sp, #0
 800307e:	6078      	str	r0, [r7, #4]
  /* Disable the USART Transmit Complete Interrupt */
  CLEAR_BIT(husart->Instance->CR1, USART_CR1_TCIE);
 8003080:	687b      	ldr	r3, [r7, #4]
 8003082:	681b      	ldr	r3, [r3, #0]
 8003084:	68da      	ldr	r2, [r3, #12]
 8003086:	687b      	ldr	r3, [r7, #4]
 8003088:	681b      	ldr	r3, [r3, #0]
 800308a:	f022 0240 	bic.w	r2, r2, #64	; 0x40
 800308e:	60da      	str	r2, [r3, #12]

  /* Disable the USART Error Interrupt: (Frame error, noise error, overrun error) */
  CLEAR_BIT(husart->Instance->CR3, USART_CR3_EIE);
 8003090:	687b      	ldr	r3, [r7, #4]
 8003092:	681b      	ldr	r3, [r3, #0]
 8003094:	695a      	ldr	r2, [r3, #20]
 8003096:	687b      	ldr	r3, [r7, #4]
 8003098:	681b      	ldr	r3, [r3, #0]
 800309a:	f022 0201 	bic.w	r2, r2, #1
 800309e:	615a      	str	r2, [r3, #20]

  husart->State = HAL_USART_STATE_READY;
 80030a0:	687b      	ldr	r3, [r7, #4]
 80030a2:	2201      	movs	r2, #1
 80030a4:	f883 203d 	strb.w	r2, [r3, #61]	; 0x3d
#if (USE_HAL_USART_REGISTER_CALLBACKS == 1)
  /* Call registered Tx Complete Callback */
  husart->TxCpltCallback(husart);
#else
  /* Call legacy weak Tx Complete Callback */
  HAL_USART_TxCpltCallback(husart);
 80030a8:	6878      	ldr	r0, [r7, #4]
 80030aa:	f7ff ff41 	bl	8002f30 <HAL_USART_TxCpltCallback>
#endif /* USE_HAL_USART_REGISTER_CALLBACKS */

  return HAL_OK;
 80030ae:	2300      	movs	r3, #0
}
 80030b0:	4618      	mov	r0, r3
 80030b2:	3708      	adds	r7, #8
 80030b4:	46bd      	mov	sp, r7
 80030b6:	bd80      	pop	{r7, pc}

080030b8 <USART_Receive_IT>:
  * @param  husart Pointer to a USART_HandleTypeDef structure that contains
  *                the configuration information for the specified USART module.
  * @retval HAL status
  */
static HAL_StatusTypeDef USART_Receive_IT(USART_HandleTypeDef *husart)
{
 80030b8:	b580      	push	{r7, lr}
 80030ba:	b084      	sub	sp, #16
 80030bc:	af00      	add	r7, sp, #0
 80030be:	6078      	str	r0, [r7, #4]
  uint8_t  *pdata8bits;
  uint16_t *pdata16bits;

  if (husart->State == HAL_USART_STATE_BUSY_RX)
 80030c0:	687b      	ldr	r3, [r7, #4]
 80030c2:	f893 303d 	ldrb.w	r3, [r3, #61]	; 0x3d
 80030c6:	b2db      	uxtb	r3, r3
 80030c8:	2b22      	cmp	r3, #34	; 0x22
 80030ca:	d176      	bne.n	80031ba <USART_Receive_IT+0x102>
  {
    if ((husart->Init.WordLength == USART_WORDLENGTH_9B) && (husart->Init.Parity == USART_PARITY_NONE))
 80030cc:	687b      	ldr	r3, [r7, #4]
 80030ce:	689b      	ldr	r3, [r3, #8]
 80030d0:	f5b3 5f80 	cmp.w	r3, #4096	; 0x1000
 80030d4:	d117      	bne.n	8003106 <USART_Receive_IT+0x4e>
 80030d6:	687b      	ldr	r3, [r7, #4]
 80030d8:	691b      	ldr	r3, [r3, #16]
 80030da:	2b00      	cmp	r3, #0
 80030dc:	d113      	bne.n	8003106 <USART_Receive_IT+0x4e>
    {
      pdata8bits  = NULL;
 80030de:	2300      	movs	r3, #0
 80030e0:	60fb      	str	r3, [r7, #12]
      pdata16bits = (uint16_t *) husart->pRxBuffPtr;
 80030e2:	687b      	ldr	r3, [r7, #4]
 80030e4:	6adb      	ldr	r3, [r3, #44]	; 0x2c
 80030e6:	60bb      	str	r3, [r7, #8]
      *pdata16bits = (uint16_t)(husart->Instance->DR & (uint16_t)0x01FF);
 80030e8:	687b      	ldr	r3, [r7, #4]
 80030ea:	681b      	ldr	r3, [r3, #0]
 80030ec:	685b      	ldr	r3, [r3, #4]
 80030ee:	b29b      	uxth	r3, r3
 80030f0:	f3c3 0308 	ubfx	r3, r3, #0, #9
 80030f4:	b29a      	uxth	r2, r3
 80030f6:	68bb      	ldr	r3, [r7, #8]
 80030f8:	801a      	strh	r2, [r3, #0]
      husart->pRxBuffPtr += 2U;
 80030fa:	687b      	ldr	r3, [r7, #4]
 80030fc:	6adb      	ldr	r3, [r3, #44]	; 0x2c
 80030fe:	1c9a      	adds	r2, r3, #2
 8003100:	687b      	ldr	r3, [r7, #4]
 8003102:	62da      	str	r2, [r3, #44]	; 0x2c
 8003104:	e026      	b.n	8003154 <USART_Receive_IT+0x9c>
    }
    else
    {
      pdata8bits = (uint8_t *) husart->pRxBuffPtr;
 8003106:	687b      	ldr	r3, [r7, #4]
 8003108:	6adb      	ldr	r3, [r3, #44]	; 0x2c
 800310a:	60fb      	str	r3, [r7, #12]
      pdata16bits  = NULL;
 800310c:	2300      	movs	r3, #0
 800310e:	60bb      	str	r3, [r7, #8]

      if ((husart->Init.WordLength == USART_WORDLENGTH_9B) || ((husart->Init.WordLength == USART_WORDLENGTH_8B) && (husart->Init.Parity == USART_PARITY_NONE)))
 8003110:	687b      	ldr	r3, [r7, #4]
 8003112:	689b      	ldr	r3, [r3, #8]
 8003114:	f5b3 5f80 	cmp.w	r3, #4096	; 0x1000
 8003118:	d007      	beq.n	800312a <USART_Receive_IT+0x72>
 800311a:	687b      	ldr	r3, [r7, #4]
 800311c:	689b      	ldr	r3, [r3, #8]
 800311e:	2b00      	cmp	r3, #0
 8003120:	d10a      	bne.n	8003138 <USART_Receive_IT+0x80>
 8003122:	687b      	ldr	r3, [r7, #4]
 8003124:	691b      	ldr	r3, [r3, #16]
 8003126:	2b00      	cmp	r3, #0
 8003128:	d106      	bne.n	8003138 <USART_Receive_IT+0x80>
      {
        *pdata8bits = (uint8_t)(husart->Instance->DR & (uint8_t)0x00FF);
 800312a:	687b      	ldr	r3, [r7, #4]
 800312c:	681b      	ldr	r3, [r3, #0]
 800312e:	685b      	ldr	r3, [r3, #4]
 8003130:	b2da      	uxtb	r2, r3
 8003132:	68fb      	ldr	r3, [r7, #12]
 8003134:	701a      	strb	r2, [r3, #0]
 8003136:	e008      	b.n	800314a <USART_Receive_IT+0x92>
      }
      else
      {
        *pdata8bits = (uint8_t)(husart->Instance->DR & (uint8_t)0x007F);
 8003138:	687b      	ldr	r3, [r7, #4]
 800313a:	681b      	ldr	r3, [r3, #0]
 800313c:	685b      	ldr	r3, [r3, #4]
 800313e:	b2db      	uxtb	r3, r3
 8003140:	f003 037f 	and.w	r3, r3, #127	; 0x7f
 8003144:	b2da      	uxtb	r2, r3
 8003146:	68fb      	ldr	r3, [r7, #12]
 8003148:	701a      	strb	r2, [r3, #0]
      }

      husart->pRxBuffPtr += 1U;
 800314a:	687b      	ldr	r3, [r7, #4]
 800314c:	6adb      	ldr	r3, [r3, #44]	; 0x2c
 800314e:	1c5a      	adds	r2, r3, #1
 8003150:	687b      	ldr	r3, [r7, #4]
 8003152:	62da      	str	r2, [r3, #44]	; 0x2c
    }

    husart->RxXferCount--;
 8003154:	687b      	ldr	r3, [r7, #4]
 8003156:	8e5b      	ldrh	r3, [r3, #50]	; 0x32
 8003158:	b29b      	uxth	r3, r3
 800315a:	3b01      	subs	r3, #1
 800315c:	b29a      	uxth	r2, r3
 800315e:	687b      	ldr	r3, [r7, #4]
 8003160:	865a      	strh	r2, [r3, #50]	; 0x32

    if (husart->RxXferCount == 0U)
 8003162:	687b      	ldr	r3, [r7, #4]
 8003164:	8e5b      	ldrh	r3, [r3, #50]	; 0x32
 8003166:	b29b      	uxth	r3, r3
 8003168:	2b00      	cmp	r3, #0
 800316a:	d120      	bne.n	80031ae <USART_Receive_IT+0xf6>
    {
      /* Disable the USART RXNE Interrupt */
      CLEAR_BIT(husart->Instance->CR1, USART_CR1_RXNEIE);
 800316c:	687b      	ldr	r3, [r7, #4]
 800316e:	681b      	ldr	r3, [r3, #0]
 8003170:	68da      	ldr	r2, [r3, #12]
 8003172:	687b      	ldr	r3, [r7, #4]
 8003174:	681b      	ldr	r3, [r3, #0]
 8003176:	f022 0220 	bic.w	r2, r2, #32
 800317a:	60da      	str	r2, [r3, #12]

      /* Disable the USART Parity Error Interrupt */
      CLEAR_BIT(husart->Instance->CR1, USART_CR1_PEIE);
 800317c:	687b      	ldr	r3, [r7, #4]
 800317e:	681b      	ldr	r3, [r3, #0]
 8003180:	68da      	ldr	r2, [r3, #12]
 8003182:	687b      	ldr	r3, [r7, #4]
 8003184:	681b      	ldr	r3, [r3, #0]
 8003186:	f422 7280 	bic.w	r2, r2, #256	; 0x100
 800318a:	60da      	str	r2, [r3, #12]

      /* Disable the USART Error Interrupt: (Frame error, noise error, overrun error) */
      CLEAR_BIT(husart->Instance->CR3, USART_CR3_EIE);
 800318c:	687b      	ldr	r3, [r7, #4]
 800318e:	681b      	ldr	r3, [r3, #0]
 8003190:	695a      	ldr	r2, [r3, #20]
 8003192:	687b      	ldr	r3, [r7, #4]
 8003194:	681b      	ldr	r3, [r3, #0]
 8003196:	f022 0201 	bic.w	r2, r2, #1
 800319a:	615a      	str	r2, [r3, #20]

      husart->State = HAL_USART_STATE_READY;
 800319c:	687b      	ldr	r3, [r7, #4]
 800319e:	2201      	movs	r2, #1
 80031a0:	f883 203d 	strb.w	r2, [r3, #61]	; 0x3d
#if (USE_HAL_USART_REGISTER_CALLBACKS == 1)
      /* Call registered Rx Complete Callback */
      husart->RxCpltCallback(husart);
#else
      /* Call legacy weak Rx Complete Callback */
      HAL_USART_RxCpltCallback(husart);
 80031a4:	6878      	ldr	r0, [r7, #4]
 80031a6:	f7ff fecc 	bl	8002f42 <HAL_USART_RxCpltCallback>
#endif /* USE_HAL_USART_REGISTER_CALLBACKS */

      return HAL_OK;
 80031aa:	2300      	movs	r3, #0
 80031ac:	e006      	b.n	80031bc <USART_Receive_IT+0x104>
    else
    {
      /* Send dummy byte in order to generate the clock for the slave to send the next data.
      * Whatever the frame length (7, 8 or 9-bit long), the same dummy value
      * can be written for all the cases. */
      husart->Instance->DR = (DUMMY_DATA & (uint16_t)0x0FF);
 80031ae:	687b      	ldr	r3, [r7, #4]
 80031b0:	681b      	ldr	r3, [r3, #0]
 80031b2:	22ff      	movs	r2, #255	; 0xff
 80031b4:	605a      	str	r2, [r3, #4]
    }
    return HAL_OK;
 80031b6:	2300      	movs	r3, #0
 80031b8:	e000      	b.n	80031bc <USART_Receive_IT+0x104>
  }
  else
  {
    return HAL_BUSY;
 80031ba:	2302      	movs	r3, #2
  }
}
 80031bc:	4618      	mov	r0, r3
 80031be:	3710      	adds	r7, #16
 80031c0:	46bd      	mov	sp, r7
 80031c2:	bd80      	pop	{r7, pc}

080031c4 <USART_TransmitReceive_IT>:
  * @param  husart Pointer to a USART_HandleTypeDef structure that contains
  *                the configuration information for the specified USART module.
  * @retval HAL status
  */
static HAL_StatusTypeDef USART_TransmitReceive_IT(USART_HandleTypeDef *husart)
{
 80031c4:	b580      	push	{r7, lr}
 80031c6:	b084      	sub	sp, #16
 80031c8:	af00      	add	r7, sp, #0
 80031ca:	6078      	str	r0, [r7, #4]
  uint8_t  *pdata8bits;
  uint16_t *pdata16bits;

  if (husart->State == HAL_USART_STATE_BUSY_TX_RX)
 80031cc:	687b      	ldr	r3, [r7, #4]
 80031ce:	f893 303d 	ldrb.w	r3, [r3, #61]	; 0x3d
 80031d2:	b2db      	uxtb	r3, r3
 80031d4:	2b32      	cmp	r3, #50	; 0x32
 80031d6:	f040 80c4 	bne.w	8003362 <USART_TransmitReceive_IT+0x19e>
  {
    if (husart->TxXferCount != 0x00U)
 80031da:	687b      	ldr	r3, [r7, #4]
 80031dc:	8d5b      	ldrh	r3, [r3, #42]	; 0x2a
 80031de:	b29b      	uxth	r3, r3
 80031e0:	2b00      	cmp	r3, #0
 80031e2:	d03f      	beq.n	8003264 <USART_TransmitReceive_IT+0xa0>
    {
      if (__HAL_USART_GET_FLAG(husart, USART_FLAG_TXE) != RESET)
 80031e4:	687b      	ldr	r3, [r7, #4]
 80031e6:	681b      	ldr	r3, [r3, #0]
 80031e8:	681b      	ldr	r3, [r3, #0]
 80031ea:	f003 0380 	and.w	r3, r3, #128	; 0x80
 80031ee:	2b80      	cmp	r3, #128	; 0x80
 80031f0:	d138      	bne.n	8003264 <USART_TransmitReceive_IT+0xa0>
      {
        if ((husart->Init.WordLength == USART_WORDLENGTH_9B) && (husart->Init.Parity == USART_PARITY_NONE))
 80031f2:	687b      	ldr	r3, [r7, #4]
 80031f4:	689b      	ldr	r3, [r3, #8]
 80031f6:	f5b3 5f80 	cmp.w	r3, #4096	; 0x1000
 80031fa:	d116      	bne.n	800322a <USART_TransmitReceive_IT+0x66>
 80031fc:	687b      	ldr	r3, [r7, #4]
 80031fe:	691b      	ldr	r3, [r3, #16]
 8003200:	2b00      	cmp	r3, #0
 8003202:	d112      	bne.n	800322a <USART_TransmitReceive_IT+0x66>
        {
          pdata8bits  = NULL;
 8003204:	2300      	movs	r3, #0
 8003206:	60fb      	str	r3, [r7, #12]
          pdata16bits = (uint16_t *) husart->pTxBuffPtr;
 8003208:	687b      	ldr	r3, [r7, #4]
 800320a:	6a5b      	ldr	r3, [r3, #36]	; 0x24
 800320c:	60bb      	str	r3, [r7, #8]
          husart->Instance->DR = (uint16_t)(*pdata16bits & (uint16_t)0x01FF);
 800320e:	68bb      	ldr	r3, [r7, #8]
 8003210:	881b      	ldrh	r3, [r3, #0]
 8003212:	461a      	mov	r2, r3
 8003214:	687b      	ldr	r3, [r7, #4]
 8003216:	681b      	ldr	r3, [r3, #0]
 8003218:	f3c2 0208 	ubfx	r2, r2, #0, #9
 800321c:	605a      	str	r2, [r3, #4]
          husart->pTxBuffPtr += 2U;
 800321e:	687b      	ldr	r3, [r7, #4]
 8003220:	6a5b      	ldr	r3, [r3, #36]	; 0x24
 8003222:	1c9a      	adds	r2, r3, #2
 8003224:	687b      	ldr	r3, [r7, #4]
 8003226:	625a      	str	r2, [r3, #36]	; 0x24
 8003228:	e008      	b.n	800323c <USART_TransmitReceive_IT+0x78>
        }
        else
        {
          husart->Instance->DR = (uint8_t)(*husart->pTxBuffPtr++ & (uint8_t)0x00FF);
 800322a:	687b      	ldr	r3, [r7, #4]
 800322c:	6a5b      	ldr	r3, [r3, #36]	; 0x24
 800322e:	1c59      	adds	r1, r3, #1
 8003230:	687a      	ldr	r2, [r7, #4]
 8003232:	6251      	str	r1, [r2, #36]	; 0x24
 8003234:	781a      	ldrb	r2, [r3, #0]
 8003236:	687b      	ldr	r3, [r7, #4]
 8003238:	681b      	ldr	r3, [r3, #0]
 800323a:	605a      	str	r2, [r3, #4]
        }

        husart->TxXferCount--;
 800323c:	687b      	ldr	r3, [r7, #4]
 800323e:	8d5b      	ldrh	r3, [r3, #42]	; 0x2a
 8003240:	b29b      	uxth	r3, r3
 8003242:	3b01      	subs	r3, #1
 8003244:	b29a      	uxth	r2, r3
 8003246:	687b      	ldr	r3, [r7, #4]
 8003248:	855a      	strh	r2, [r3, #42]	; 0x2a

        /* Check the latest data transmitted */
        if (husart->TxXferCount == 0U)
 800324a:	687b      	ldr	r3, [r7, #4]
 800324c:	8d5b      	ldrh	r3, [r3, #42]	; 0x2a
 800324e:	b29b      	uxth	r3, r3
 8003250:	2b00      	cmp	r3, #0
 8003252:	d107      	bne.n	8003264 <USART_TransmitReceive_IT+0xa0>
        {
          CLEAR_BIT(husart->Instance->CR1, USART_CR1_TXEIE);
 8003254:	687b      	ldr	r3, [r7, #4]
 8003256:	681b      	ldr	r3, [r3, #0]
 8003258:	68da      	ldr	r2, [r3, #12]
 800325a:	687b      	ldr	r3, [r7, #4]
 800325c:	681b      	ldr	r3, [r3, #0]
 800325e:	f022 0280 	bic.w	r2, r2, #128	; 0x80
 8003262:	60da      	str	r2, [r3, #12]
        }
      }
    }

    if (husart->RxXferCount != 0x00U)
 8003264:	687b      	ldr	r3, [r7, #4]
 8003266:	8e5b      	ldrh	r3, [r3, #50]	; 0x32
 8003268:	b29b      	uxth	r3, r3
 800326a:	2b00      	cmp	r3, #0
 800326c:	d051      	beq.n	8003312 <USART_TransmitReceive_IT+0x14e>
    {
      if (__HAL_USART_GET_FLAG(husart, USART_FLAG_RXNE) != RESET)
 800326e:	687b      	ldr	r3, [r7, #4]
 8003270:	681b      	ldr	r3, [r3, #0]
 8003272:	681b      	ldr	r3, [r3, #0]
 8003274:	f003 0320 	and.w	r3, r3, #32
 8003278:	2b20      	cmp	r3, #32
 800327a:	d14a      	bne.n	8003312 <USART_TransmitReceive_IT+0x14e>
      {
        if ((husart->Init.WordLength == USART_WORDLENGTH_9B) && (husart->Init.Parity == USART_PARITY_NONE))
 800327c:	687b      	ldr	r3, [r7, #4]
 800327e:	689b      	ldr	r3, [r3, #8]
 8003280:	f5b3 5f80 	cmp.w	r3, #4096	; 0x1000
 8003284:	d117      	bne.n	80032b6 <USART_TransmitReceive_IT+0xf2>
 8003286:	687b      	ldr	r3, [r7, #4]
 8003288:	691b      	ldr	r3, [r3, #16]
 800328a:	2b00      	cmp	r3, #0
 800328c:	d113      	bne.n	80032b6 <USART_TransmitReceive_IT+0xf2>
        {
           pdata8bits  = NULL;
 800328e:	2300      	movs	r3, #0
 8003290:	60fb      	str	r3, [r7, #12]
           pdata16bits = (uint16_t *) husart->pRxBuffPtr;
 8003292:	687b      	ldr	r3, [r7, #4]
 8003294:	6adb      	ldr	r3, [r3, #44]	; 0x2c
 8003296:	60bb      	str	r3, [r7, #8]
           *pdata16bits = (uint16_t)(husart->Instance->DR & (uint16_t)0x01FF);
 8003298:	687b      	ldr	r3, [r7, #4]
 800329a:	681b      	ldr	r3, [r3, #0]
 800329c:	685b      	ldr	r3, [r3, #4]
 800329e:	b29b      	uxth	r3, r3
 80032a0:	f3c3 0308 	ubfx	r3, r3, #0, #9
 80032a4:	b29a      	uxth	r2, r3
 80032a6:	68bb      	ldr	r3, [r7, #8]
 80032a8:	801a      	strh	r2, [r3, #0]
           husart->pRxBuffPtr += 2U;
 80032aa:	687b      	ldr	r3, [r7, #4]
 80032ac:	6adb      	ldr	r3, [r3, #44]	; 0x2c
 80032ae:	1c9a      	adds	r2, r3, #2
 80032b0:	687b      	ldr	r3, [r7, #4]
 80032b2:	62da      	str	r2, [r3, #44]	; 0x2c
 80032b4:	e026      	b.n	8003304 <USART_TransmitReceive_IT+0x140>
        }
        else
        {
          pdata8bits = (uint8_t *) husart->pRxBuffPtr;
 80032b6:	687b      	ldr	r3, [r7, #4]
 80032b8:	6adb      	ldr	r3, [r3, #44]	; 0x2c
 80032ba:	60fb      	str	r3, [r7, #12]
          pdata16bits  = NULL;
 80032bc:	2300      	movs	r3, #0
 80032be:	60bb      	str	r3, [r7, #8]
          if ((husart->Init.WordLength == USART_WORDLENGTH_9B) || ((husart->Init.WordLength == USART_WORDLENGTH_8B) && (husart->Init.Parity == USART_PARITY_NONE)))
 80032c0:	687b      	ldr	r3, [r7, #4]
 80032c2:	689b      	ldr	r3, [r3, #8]
 80032c4:	f5b3 5f80 	cmp.w	r3, #4096	; 0x1000
 80032c8:	d007      	beq.n	80032da <USART_TransmitReceive_IT+0x116>
 80032ca:	687b      	ldr	r3, [r7, #4]
 80032cc:	689b      	ldr	r3, [r3, #8]
 80032ce:	2b00      	cmp	r3, #0
 80032d0:	d10a      	bne.n	80032e8 <USART_TransmitReceive_IT+0x124>
 80032d2:	687b      	ldr	r3, [r7, #4]
 80032d4:	691b      	ldr	r3, [r3, #16]
 80032d6:	2b00      	cmp	r3, #0
 80032d8:	d106      	bne.n	80032e8 <USART_TransmitReceive_IT+0x124>
          {
            *pdata8bits = (uint8_t)(husart->Instance->DR & (uint8_t)0x00FF);
 80032da:	687b      	ldr	r3, [r7, #4]
 80032dc:	681b      	ldr	r3, [r3, #0]
 80032de:	685b      	ldr	r3, [r3, #4]
 80032e0:	b2da      	uxtb	r2, r3
 80032e2:	68fb      	ldr	r3, [r7, #12]
 80032e4:	701a      	strb	r2, [r3, #0]
 80032e6:	e008      	b.n	80032fa <USART_TransmitReceive_IT+0x136>
          }
          else
          {
            *pdata8bits = (uint8_t)(husart->Instance->DR & (uint8_t)0x007F);
 80032e8:	687b      	ldr	r3, [r7, #4]
 80032ea:	681b      	ldr	r3, [r3, #0]
 80032ec:	685b      	ldr	r3, [r3, #4]
 80032ee:	b2db      	uxtb	r3, r3
 80032f0:	f003 037f 	and.w	r3, r3, #127	; 0x7f
 80032f4:	b2da      	uxtb	r2, r3
 80032f6:	68fb      	ldr	r3, [r7, #12]
 80032f8:	701a      	strb	r2, [r3, #0]
          }
          husart->pRxBuffPtr += 1U;
 80032fa:	687b      	ldr	r3, [r7, #4]
 80032fc:	6adb      	ldr	r3, [r3, #44]	; 0x2c
 80032fe:	1c5a      	adds	r2, r3, #1
 8003300:	687b      	ldr	r3, [r7, #4]
 8003302:	62da      	str	r2, [r3, #44]	; 0x2c
        }

        husart->RxXferCount--;
 8003304:	687b      	ldr	r3, [r7, #4]
 8003306:	8e5b      	ldrh	r3, [r3, #50]	; 0x32
 8003308:	b29b      	uxth	r3, r3
 800330a:	3b01      	subs	r3, #1
 800330c:	b29a      	uxth	r2, r3
 800330e:	687b      	ldr	r3, [r7, #4]
 8003310:	865a      	strh	r2, [r3, #50]	; 0x32
      }
    }

    /* Check the latest data received */
    if (husart->RxXferCount == 0U)
 8003312:	687b      	ldr	r3, [r7, #4]
 8003314:	8e5b      	ldrh	r3, [r3, #50]	; 0x32
 8003316:	b29b      	uxth	r3, r3
 8003318:	2b00      	cmp	r3, #0
 800331a:	d120      	bne.n	800335e <USART_TransmitReceive_IT+0x19a>
    {
      /* Disable the USART RXNE Interrupt */
      CLEAR_BIT(husart->Instance->CR1, USART_CR1_RXNEIE);
 800331c:	687b      	ldr	r3, [r7, #4]
 800331e:	681b      	ldr	r3, [r3, #0]
 8003320:	68da      	ldr	r2, [r3, #12]
 8003322:	687b      	ldr	r3, [r7, #4]
 8003324:	681b      	ldr	r3, [r3, #0]
 8003326:	f022 0220 	bic.w	r2, r2, #32
 800332a:	60da      	str	r2, [r3, #12]

      /* Disable the USART Parity Error Interrupt */
      CLEAR_BIT(husart->Instance->CR1, USART_CR1_PEIE);
 800332c:	687b      	ldr	r3, [r7, #4]
 800332e:	681b      	ldr	r3, [r3, #0]
 8003330:	68da      	ldr	r2, [r3, #12]
 8003332:	687b      	ldr	r3, [r7, #4]
 8003334:	681b      	ldr	r3, [r3, #0]
 8003336:	f422 7280 	bic.w	r2, r2, #256	; 0x100
 800333a:	60da      	str	r2, [r3, #12]

      /* Disable the USART Error Interrupt: (Frame error, noise error, overrun error) */
      CLEAR_BIT(husart->Instance->CR3, USART_CR3_EIE);
 800333c:	687b      	ldr	r3, [r7, #4]
 800333e:	681b      	ldr	r3, [r3, #0]
 8003340:	695a      	ldr	r2, [r3, #20]
 8003342:	687b      	ldr	r3, [r7, #4]
 8003344:	681b      	ldr	r3, [r3, #0]
 8003346:	f022 0201 	bic.w	r2, r2, #1
 800334a:	615a      	str	r2, [r3, #20]

      husart->State = HAL_USART_STATE_READY;
 800334c:	687b      	ldr	r3, [r7, #4]
 800334e:	2201      	movs	r2, #1
 8003350:	f883 203d 	strb.w	r2, [r3, #61]	; 0x3d
#if (USE_HAL_USART_REGISTER_CALLBACKS == 1)
      /* Call registered Tx Rx Complete Callback */
      husart->TxRxCpltCallback(husart);
#else
      /* Call legacy weak Tx Rx Complete Callback */
      HAL_USART_TxRxCpltCallback(husart);
 8003354:	6878      	ldr	r0, [r7, #4]
 8003356:	f7ff fdfd 	bl	8002f54 <HAL_USART_TxRxCpltCallback>
#endif /* USE_HAL_USART_REGISTER_CALLBACKS */

      return HAL_OK;
 800335a:	2300      	movs	r3, #0
 800335c:	e002      	b.n	8003364 <USART_TransmitReceive_IT+0x1a0>
    }

    return HAL_OK;
 800335e:	2300      	movs	r3, #0
 8003360:	e000      	b.n	8003364 <USART_TransmitReceive_IT+0x1a0>
  }
  else
  {
    return HAL_BUSY;
 8003362:	2302      	movs	r3, #2
  }
}
 8003364:	4618      	mov	r0, r3
 8003366:	3710      	adds	r7, #16
 8003368:	46bd      	mov	sp, r7
 800336a:	bd80      	pop	{r7, pc}

0800336c <USART_SetConfig>:
  * @param  husart Pointer to a USART_HandleTypeDef structure that contains
  *                the configuration information for the specified USART module.
  * @retval None
  */
static void USART_SetConfig(USART_HandleTypeDef *husart)
{
 800336c:	b580      	push	{r7, lr}
 800336e:	b084      	sub	sp, #16
 8003370:	af00      	add	r7, sp, #0
 8003372:	6078      	str	r0, [r7, #4]
  uint32_t tmpreg = 0x00U;
 8003374:	2300      	movs	r3, #0
 8003376:	60fb      	str	r3, [r7, #12]
  assert_param(IS_USART_PARITY(husart->Init.Parity));
  assert_param(IS_USART_MODE(husart->Init.Mode));

  /* The LBCL, CPOL and CPHA bits have to be selected when both the transmitter and the
     receiver are disabled (TE=RE=0) to ensure that the clock pulses function correctly. */
  CLEAR_BIT(husart->Instance->CR1, (USART_CR1_TE | USART_CR1_RE));
 8003378:	687b      	ldr	r3, [r7, #4]
 800337a:	681b      	ldr	r3, [r3, #0]
 800337c:	68da      	ldr	r2, [r3, #12]
 800337e:	687b      	ldr	r3, [r7, #4]
 8003380:	681b      	ldr	r3, [r3, #0]
 8003382:	f022 020c 	bic.w	r2, r2, #12
 8003386:	60da      	str	r2, [r3, #12]

  /*---------------------------- USART CR2 Configuration ---------------------*/
  tmpreg = husart->Instance->CR2;
 8003388:	687b      	ldr	r3, [r7, #4]
 800338a:	681b      	ldr	r3, [r3, #0]
 800338c:	691b      	ldr	r3, [r3, #16]
 800338e:	60fb      	str	r3, [r7, #12]
  /* Clear CLKEN, CPOL, CPHA and LBCL bits */
  tmpreg &= (uint32_t)~((uint32_t)(USART_CR2_CPHA | USART_CR2_CPOL | USART_CR2_CLKEN | USART_CR2_LBCL | USART_CR2_STOP));
 8003390:	68fb      	ldr	r3, [r7, #12]
 8003392:	f423 537c 	bic.w	r3, r3, #16128	; 0x3f00
 8003396:	60fb      	str	r3, [r7, #12]
  /* Configure the USART Clock, CPOL, CPHA and LastBit -----------------------*/
  /* Set CPOL bit according to husart->Init.CLKPolarity value */
  /* Set CPHA bit according to husart->Init.CLKPhase value */
  /* Set LBCL bit according to husart->Init.CLKLastBit value */
  /* Set Stop Bits: Set STOP[13:12] bits according to husart->Init.StopBits value */
  tmpreg |= (uint32_t)(USART_CLOCK_ENABLE | husart->Init.CLKPolarity |
 8003398:	687b      	ldr	r3, [r7, #4]
 800339a:	699a      	ldr	r2, [r3, #24]
                       husart->Init.CLKPhase | husart->Init.CLKLastBit | husart->Init.StopBits);
 800339c:	687b      	ldr	r3, [r7, #4]
 800339e:	69db      	ldr	r3, [r3, #28]
  tmpreg |= (uint32_t)(USART_CLOCK_ENABLE | husart->Init.CLKPolarity |
 80033a0:	431a      	orrs	r2, r3
                       husart->Init.CLKPhase | husart->Init.CLKLastBit | husart->Init.StopBits);
 80033a2:	687b      	ldr	r3, [r7, #4]
 80033a4:	6a1b      	ldr	r3, [r3, #32]
 80033a6:	431a      	orrs	r2, r3
 80033a8:	687b      	ldr	r3, [r7, #4]
 80033aa:	68db      	ldr	r3, [r3, #12]
  tmpreg |= (uint32_t)(USART_CLOCK_ENABLE | husart->Init.CLKPolarity |
 80033ac:	431a      	orrs	r2, r3
 80033ae:	68fb      	ldr	r3, [r7, #12]
 80033b0:	4313      	orrs	r3, r2
 80033b2:	f443 6300 	orr.w	r3, r3, #2048	; 0x800
 80033b6:	60fb      	str	r3, [r7, #12]
  /* Write to USART CR2 */
  WRITE_REG(husart->Instance->CR2, (uint32_t)tmpreg);
 80033b8:	687b      	ldr	r3, [r7, #4]
 80033ba:	681b      	ldr	r3, [r3, #0]
 80033bc:	68fa      	ldr	r2, [r7, #12]
 80033be:	611a      	str	r2, [r3, #16]

  /*-------------------------- USART CR1 Configuration -----------------------*/
  tmpreg = husart->Instance->CR1;
 80033c0:	687b      	ldr	r3, [r7, #4]
 80033c2:	681b      	ldr	r3, [r3, #0]
 80033c4:	68db      	ldr	r3, [r3, #12]
 80033c6:	60fb      	str	r3, [r7, #12]

  /* Clear M, PCE, PS, TE and RE bits */
  tmpreg &= (uint32_t)~((uint32_t)(USART_CR1_M | USART_CR1_PCE | USART_CR1_PS | USART_CR1_TE | USART_CR1_RE));
 80033c8:	68fb      	ldr	r3, [r7, #12]
 80033ca:	f423 53b0 	bic.w	r3, r3, #5632	; 0x1600
 80033ce:	f023 030c 	bic.w	r3, r3, #12
 80033d2:	60fb      	str	r3, [r7, #12]
  /* Configure the USART Word Length, Parity and mode:
     Set the M bits according to husart->Init.WordLength value
     Set PCE and PS bits according to husart->Init.Parity value
     Set TE and RE bits according to husart->Init.Mode value
   */
  tmpreg |= (uint32_t)husart->Init.WordLength | husart->Init.Parity | husart->Init.Mode;
 80033d4:	687b      	ldr	r3, [r7, #4]
 80033d6:	689a      	ldr	r2, [r3, #8]
 80033d8:	687b      	ldr	r3, [r7, #4]
 80033da:	691b      	ldr	r3, [r3, #16]
 80033dc:	431a      	orrs	r2, r3
 80033de:	687b      	ldr	r3, [r7, #4]
 80033e0:	695b      	ldr	r3, [r3, #20]
 80033e2:	4313      	orrs	r3, r2
 80033e4:	68fa      	ldr	r2, [r7, #12]
 80033e6:	4313      	orrs	r3, r2
 80033e8:	60fb      	str	r3, [r7, #12]

  /* Write to USART CR1 */
  WRITE_REG(husart->Instance->CR1, (uint32_t)tmpreg);
 80033ea:	687b      	ldr	r3, [r7, #4]
 80033ec:	681b      	ldr	r3, [r3, #0]
 80033ee:	68fa      	ldr	r2, [r7, #12]
 80033f0:	60da      	str	r2, [r3, #12]

  /*-------------------------- USART CR3 Configuration -----------------------*/
  /* Clear CTSE and RTSE bits */
  CLEAR_BIT(husart->Instance->CR3, (USART_CR3_RTSE | USART_CR3_CTSE));
 80033f2:	687b      	ldr	r3, [r7, #4]
 80033f4:	681b      	ldr	r3, [r3, #0]
 80033f6:	695a      	ldr	r2, [r3, #20]
 80033f8:	687b      	ldr	r3, [r7, #4]
 80033fa:	681b      	ldr	r3, [r3, #0]
 80033fc:	f422 7240 	bic.w	r2, r2, #768	; 0x300
 8003400:	615a      	str	r2, [r3, #20]

  /*-------------------------- USART BRR Configuration -----------------------*/
  if((husart->Instance == USART1))
 8003402:	687b      	ldr	r3, [r7, #4]
 8003404:	681b      	ldr	r3, [r3, #0]
 8003406:	4a53      	ldr	r2, [pc, #332]	; (8003554 <USART_SetConfig+0x1e8>)
 8003408:	4293      	cmp	r3, r2
 800340a:	d14f      	bne.n	80034ac <USART_SetConfig+0x140>
  {
    pclk = HAL_RCC_GetPCLK2Freq();
 800340c:	f7ff fbfe 	bl	8002c0c <HAL_RCC_GetPCLK2Freq>
 8003410:	60b8      	str	r0, [r7, #8]
    husart->Instance->BRR = USART_BRR(pclk, husart->Init.BaudRate);
 8003412:	68ba      	ldr	r2, [r7, #8]
 8003414:	4613      	mov	r3, r2
 8003416:	009b      	lsls	r3, r3, #2
 8003418:	4413      	add	r3, r2
 800341a:	009a      	lsls	r2, r3, #2
 800341c:	441a      	add	r2, r3
 800341e:	687b      	ldr	r3, [r7, #4]
 8003420:	685b      	ldr	r3, [r3, #4]
 8003422:	009b      	lsls	r3, r3, #2
 8003424:	fbb2 f3f3 	udiv	r3, r2, r3
 8003428:	4a4b      	ldr	r2, [pc, #300]	; (8003558 <USART_SetConfig+0x1ec>)
 800342a:	fba2 2303 	umull	r2, r3, r2, r3
 800342e:	095b      	lsrs	r3, r3, #5
 8003430:	0119      	lsls	r1, r3, #4
 8003432:	68ba      	ldr	r2, [r7, #8]
 8003434:	4613      	mov	r3, r2
 8003436:	009b      	lsls	r3, r3, #2
 8003438:	4413      	add	r3, r2
 800343a:	009a      	lsls	r2, r3, #2
 800343c:	441a      	add	r2, r3
 800343e:	687b      	ldr	r3, [r7, #4]
 8003440:	685b      	ldr	r3, [r3, #4]
 8003442:	009b      	lsls	r3, r3, #2
 8003444:	fbb2 f2f3 	udiv	r2, r2, r3
 8003448:	4b43      	ldr	r3, [pc, #268]	; (8003558 <USART_SetConfig+0x1ec>)
 800344a:	fba3 0302 	umull	r0, r3, r3, r2
 800344e:	095b      	lsrs	r3, r3, #5
 8003450:	2064      	movs	r0, #100	; 0x64
 8003452:	fb00 f303 	mul.w	r3, r0, r3
 8003456:	1ad3      	subs	r3, r2, r3
 8003458:	011b      	lsls	r3, r3, #4
 800345a:	3332      	adds	r3, #50	; 0x32
 800345c:	4a3e      	ldr	r2, [pc, #248]	; (8003558 <USART_SetConfig+0x1ec>)
 800345e:	fba2 2303 	umull	r2, r3, r2, r3
 8003462:	095b      	lsrs	r3, r3, #5
 8003464:	005b      	lsls	r3, r3, #1
 8003466:	f403 73f0 	and.w	r3, r3, #480	; 0x1e0
 800346a:	4419      	add	r1, r3
 800346c:	68ba      	ldr	r2, [r7, #8]
 800346e:	4613      	mov	r3, r2
 8003470:	009b      	lsls	r3, r3, #2
 8003472:	4413      	add	r3, r2
 8003474:	009a      	lsls	r2, r3, #2
 8003476:	441a      	add	r2, r3
 8003478:	687b      	ldr	r3, [r7, #4]
 800347a:	685b      	ldr	r3, [r3, #4]
 800347c:	009b      	lsls	r3, r3, #2
 800347e:	fbb2 f2f3 	udiv	r2, r2, r3
 8003482:	4b35      	ldr	r3, [pc, #212]	; (8003558 <USART_SetConfig+0x1ec>)
 8003484:	fba3 0302 	umull	r0, r3, r3, r2
 8003488:	095b      	lsrs	r3, r3, #5
 800348a:	2064      	movs	r0, #100	; 0x64
 800348c:	fb00 f303 	mul.w	r3, r0, r3
 8003490:	1ad3      	subs	r3, r2, r3
 8003492:	011b      	lsls	r3, r3, #4
 8003494:	3332      	adds	r3, #50	; 0x32
 8003496:	4a30      	ldr	r2, [pc, #192]	; (8003558 <USART_SetConfig+0x1ec>)
 8003498:	fba2 2303 	umull	r2, r3, r2, r3
 800349c:	095b      	lsrs	r3, r3, #5
 800349e:	f003 020f 	and.w	r2, r3, #15
 80034a2:	687b      	ldr	r3, [r7, #4]
 80034a4:	681b      	ldr	r3, [r3, #0]
 80034a6:	440a      	add	r2, r1
 80034a8:	609a      	str	r2, [r3, #8]
  else
  {
    pclk = HAL_RCC_GetPCLK1Freq();
    husart->Instance->BRR = USART_BRR(pclk, husart->Init.BaudRate);
  }
}
 80034aa:	e04e      	b.n	800354a <USART_SetConfig+0x1de>
    pclk = HAL_RCC_GetPCLK1Freq();
 80034ac:	f7ff fb9a 	bl	8002be4 <HAL_RCC_GetPCLK1Freq>
 80034b0:	60b8      	str	r0, [r7, #8]
    husart->Instance->BRR = USART_BRR(pclk, husart->Init.BaudRate);
 80034b2:	68ba      	ldr	r2, [r7, #8]
 80034b4:	4613      	mov	r3, r2
 80034b6:	009b      	lsls	r3, r3, #2
 80034b8:	4413      	add	r3, r2
 80034ba:	009a      	lsls	r2, r3, #2
 80034bc:	441a      	add	r2, r3
 80034be:	687b      	ldr	r3, [r7, #4]
 80034c0:	685b      	ldr	r3, [r3, #4]
 80034c2:	009b      	lsls	r3, r3, #2
 80034c4:	fbb2 f3f3 	udiv	r3, r2, r3
 80034c8:	4a23      	ldr	r2, [pc, #140]	; (8003558 <USART_SetConfig+0x1ec>)
 80034ca:	fba2 2303 	umull	r2, r3, r2, r3
 80034ce:	095b      	lsrs	r3, r3, #5
 80034d0:	0119      	lsls	r1, r3, #4
 80034d2:	68ba      	ldr	r2, [r7, #8]
 80034d4:	4613      	mov	r3, r2
 80034d6:	009b      	lsls	r3, r3, #2
 80034d8:	4413      	add	r3, r2
 80034da:	009a      	lsls	r2, r3, #2
 80034dc:	441a      	add	r2, r3
 80034de:	687b      	ldr	r3, [r7, #4]
 80034e0:	685b      	ldr	r3, [r3, #4]
 80034e2:	009b      	lsls	r3, r3, #2
 80034e4:	fbb2 f2f3 	udiv	r2, r2, r3
 80034e8:	4b1b      	ldr	r3, [pc, #108]	; (8003558 <USART_SetConfig+0x1ec>)
 80034ea:	fba3 0302 	umull	r0, r3, r3, r2
 80034ee:	095b      	lsrs	r3, r3, #5
 80034f0:	2064      	movs	r0, #100	; 0x64
 80034f2:	fb00 f303 	mul.w	r3, r0, r3
 80034f6:	1ad3      	subs	r3, r2, r3
 80034f8:	011b      	lsls	r3, r3, #4
 80034fa:	3332      	adds	r3, #50	; 0x32
 80034fc:	4a16      	ldr	r2, [pc, #88]	; (8003558 <USART_SetConfig+0x1ec>)
 80034fe:	fba2 2303 	umull	r2, r3, r2, r3
 8003502:	095b      	lsrs	r3, r3, #5
 8003504:	005b      	lsls	r3, r3, #1
 8003506:	f403 73f0 	and.w	r3, r3, #480	; 0x1e0
 800350a:	4419      	add	r1, r3
 800350c:	68ba      	ldr	r2, [r7, #8]
 800350e:	4613      	mov	r3, r2
 8003510:	009b      	lsls	r3, r3, #2
 8003512:	4413      	add	r3, r2
 8003514:	009a      	lsls	r2, r3, #2
 8003516:	441a      	add	r2, r3
 8003518:	687b      	ldr	r3, [r7, #4]
 800351a:	685b      	ldr	r3, [r3, #4]
 800351c:	009b      	lsls	r3, r3, #2
 800351e:	fbb2 f2f3 	udiv	r2, r2, r3
 8003522:	4b0d      	ldr	r3, [pc, #52]	; (8003558 <USART_SetConfig+0x1ec>)
 8003524:	fba3 0302 	umull	r0, r3, r3, r2
 8003528:	095b      	lsrs	r3, r3, #5
 800352a:	2064      	movs	r0, #100	; 0x64
 800352c:	fb00 f303 	mul.w	r3, r0, r3
 8003530:	1ad3      	subs	r3, r2, r3
 8003532:	011b      	lsls	r3, r3, #4
 8003534:	3332      	adds	r3, #50	; 0x32
 8003536:	4a08      	ldr	r2, [pc, #32]	; (8003558 <USART_SetConfig+0x1ec>)
 8003538:	fba2 2303 	umull	r2, r3, r2, r3
 800353c:	095b      	lsrs	r3, r3, #5
 800353e:	f003 020f 	and.w	r2, r3, #15
 8003542:	687b      	ldr	r3, [r7, #4]
 8003544:	681b      	ldr	r3, [r3, #0]
 8003546:	440a      	add	r2, r1
 8003548:	609a      	str	r2, [r3, #8]
}
 800354a:	bf00      	nop
 800354c:	3710      	adds	r7, #16
 800354e:	46bd      	mov	sp, r7
 8003550:	bd80      	pop	{r7, pc}
 8003552:	bf00      	nop
 8003554:	40013800 	.word	0x40013800
 8003558:	51eb851f 	.word	0x51eb851f

0800355c <memset>:
 800355c:	4603      	mov	r3, r0
 800355e:	4402      	add	r2, r0
 8003560:	4293      	cmp	r3, r2
 8003562:	d100      	bne.n	8003566 <memset+0xa>
 8003564:	4770      	bx	lr
 8003566:	f803 1b01 	strb.w	r1, [r3], #1
 800356a:	e7f9      	b.n	8003560 <memset+0x4>

0800356c <__libc_init_array>:
 800356c:	b570      	push	{r4, r5, r6, lr}
 800356e:	2600      	movs	r6, #0
 8003570:	4d0c      	ldr	r5, [pc, #48]	; (80035a4 <__libc_init_array+0x38>)
 8003572:	4c0d      	ldr	r4, [pc, #52]	; (80035a8 <__libc_init_array+0x3c>)
 8003574:	1b64      	subs	r4, r4, r5
 8003576:	10a4      	asrs	r4, r4, #2
 8003578:	42a6      	cmp	r6, r4
 800357a:	d109      	bne.n	8003590 <__libc_init_array+0x24>
 800357c:	f000 f81a 	bl	80035b4 <_init>
 8003580:	2600      	movs	r6, #0
 8003582:	4d0a      	ldr	r5, [pc, #40]	; (80035ac <__libc_init_array+0x40>)
 8003584:	4c0a      	ldr	r4, [pc, #40]	; (80035b0 <__libc_init_array+0x44>)
 8003586:	1b64      	subs	r4, r4, r5
 8003588:	10a4      	asrs	r4, r4, #2
 800358a:	42a6      	cmp	r6, r4
 800358c:	d105      	bne.n	800359a <__libc_init_array+0x2e>
 800358e:	bd70      	pop	{r4, r5, r6, pc}
 8003590:	f855 3b04 	ldr.w	r3, [r5], #4
 8003594:	4798      	blx	r3
 8003596:	3601      	adds	r6, #1
 8003598:	e7ee      	b.n	8003578 <__libc_init_array+0xc>
 800359a:	f855 3b04 	ldr.w	r3, [r5], #4
 800359e:	4798      	blx	r3
 80035a0:	3601      	adds	r6, #1
 80035a2:	e7f2      	b.n	800358a <__libc_init_array+0x1e>
 80035a4:	08003944 	.word	0x08003944
 80035a8:	08003944 	.word	0x08003944
 80035ac:	08003944 	.word	0x08003944
 80035b0:	08003948 	.word	0x08003948

080035b4 <_init>:
 80035b4:	b5f8      	push	{r3, r4, r5, r6, r7, lr}
 80035b6:	bf00      	nop
 80035b8:	bcf8      	pop	{r3, r4, r5, r6, r7}
 80035ba:	bc08      	pop	{r3}
 80035bc:	469e      	mov	lr, r3
 80035be:	4770      	bx	lr

080035c0 <_fini>:
 80035c0:	b5f8      	push	{r3, r4, r5, r6, r7, lr}
 80035c2:	bf00      	nop
 80035c4:	bcf8      	pop	{r3, r4, r5, r6, r7}
 80035c6:	bc08      	pop	{r3}
 80035c8:	469e      	mov	lr, r3
 80035ca:	4770      	bx	lr
