
Encrypt_M3.elf:     file format elf32-littlearm

Sections:
Idx Name          Size      VMA       LMA       File off  Algn
  0 .isr_vector   0000010c  08000000  08000000  00010000  2**0
                  CONTENTS, ALLOC, LOAD, READONLY, DATA
  1 .text         00003548  0800010c  0800010c  0001010c  2**2
                  CONTENTS, ALLOC, LOAD, READONLY, CODE
  2 .rodata       00000378  08003654  08003654  00013654  2**2
                  CONTENTS, ALLOC, LOAD, READONLY, DATA
  3 .ARM.extab    00000000  080039cc  080039cc  0002000c  2**0
                  CONTENTS
  4 .ARM          00000000  080039cc  080039cc  0002000c  2**0
                  CONTENTS
  5 .preinit_array 00000000  080039cc  080039cc  0002000c  2**0
                  CONTENTS, ALLOC, LOAD, DATA
  6 .init_array   00000004  080039cc  080039cc  000139cc  2**2
                  CONTENTS, ALLOC, LOAD, DATA
  7 .fini_array   00000004  080039d0  080039d0  000139d0  2**2
                  CONTENTS, ALLOC, LOAD, DATA
  8 .data         0000000c  20000000  080039d4  00020000  2**2
                  CONTENTS, ALLOC, LOAD, DATA
  9 .bss          000000b8  2000000c  080039e0  0002000c  2**2
                  ALLOC
 10 ._user_heap_stack 00000604  200000c4  080039e0  000200c4  2**0
                  ALLOC
 11 .ARM.attributes 00000029  00000000  00000000  0002000c  2**0
                  CONTENTS, READONLY
 12 .comment      00000043  00000000  00000000  00020035  2**0
                  CONTENTS, READONLY
 13 .debug_info   00008e3f  00000000  00000000  00020078  2**0
                  CONTENTS, READONLY, DEBUGGING, OCTETS
 14 .debug_abbrev 000019e8  00000000  00000000  00028eb7  2**0
                  CONTENTS, READONLY, DEBUGGING, OCTETS
 15 .debug_aranges 00000948  00000000  00000000  0002a8a0  2**3
                  CONTENTS, READONLY, DEBUGGING, OCTETS
 16 .debug_rnglists 00000737  00000000  00000000  0002b1e8  2**0
                  CONTENTS, READONLY, DEBUGGING, OCTETS
 17 .debug_macro  00016737  00000000  00000000  0002b91f  2**0
                  CONTENTS, READONLY, DEBUGGING, OCTETS
 18 .debug_line   0000bae9  00000000  00000000  00042056  2**0
                  CONTENTS, READONLY, DEBUGGING, OCTETS
 19 .debug_str    000809d1  00000000  00000000  0004db3f  2**0
                  CONTENTS, READONLY, DEBUGGING, OCTETS
 20 .debug_frame  000025fc  00000000  00000000  000ce510  2**2
                  CONTENTS, READONLY, DEBUGGING, OCTETS
 21 .debug_line_str 0000006e  00000000  00000000  000d0b0c  2**0
                  CONTENTS, READONLY, DEBUGGING, OCTETS

Disassembly of section .text:

0800010c <__do_global_dtors_aux>:
 800010c:	b510      	push	{r4, lr}
 800010e:	4c05      	ldr	r4, [pc, #20]	; (8000124 <__do_global_dtors_aux+0x18>)
 8000110:	7823      	ldrb	r3, [r4, #0]
 8000112:	b933      	cbnz	r3, 8000122 <__do_global_dtors_aux+0x16>
 8000114:	4b04      	ldr	r3, [pc, #16]	; (8000128 <__do_global_dtors_aux+0x1c>)
 8000116:	b113      	cbz	r3, 800011e <__do_global_dtors_aux+0x12>
 8000118:	4804      	ldr	r0, [pc, #16]	; (800012c <__do_global_dtors_aux+0x20>)
 800011a:	f3af 8000 	nop.w
 800011e:	2301      	movs	r3, #1
 8000120:	7023      	strb	r3, [r4, #0]
 8000122:	bd10      	pop	{r4, pc}
 8000124:	2000000c 	.word	0x2000000c
 8000128:	00000000 	.word	0x00000000
 800012c:	0800363c 	.word	0x0800363c

08000130 <frame_dummy>:
 8000130:	b508      	push	{r3, lr}
 8000132:	4b03      	ldr	r3, [pc, #12]	; (8000140 <frame_dummy+0x10>)
 8000134:	b11b      	cbz	r3, 800013e <frame_dummy+0xe>
 8000136:	4903      	ldr	r1, [pc, #12]	; (8000144 <frame_dummy+0x14>)
 8000138:	4803      	ldr	r0, [pc, #12]	; (8000148 <frame_dummy+0x18>)
 800013a:	f3af 8000 	nop.w
 800013e:	bd08      	pop	{r3, pc}
 8000140:	00000000 	.word	0x00000000
 8000144:	20000010 	.word	0x20000010
 8000148:	0800363c 	.word	0x0800363c

0800014c <atCRC>:
uint8_t CRC_LSB = 0x00;
uint8_t CRC_MSB = 0x00;


void atCRC(uint8_t *data, uint8_t size, uint8_t *crc_le)
{
 800014c:	b480      	push	{r7}
 800014e:	b089      	sub	sp, #36	; 0x24
 8000150:	af00      	add	r7, sp, #0
 8000152:	60f8      	str	r0, [r7, #12]
 8000154:	460b      	mov	r3, r1
 8000156:	607a      	str	r2, [r7, #4]
 8000158:	72fb      	strb	r3, [r7, #11]
    uint8_t counter;
    uint16_t crc_register = 0;
 800015a:	2300      	movs	r3, #0
 800015c:	83bb      	strh	r3, [r7, #28]
    uint16_t polynom = 0x8005;
 800015e:	f248 0305 	movw	r3, #32773	; 0x8005
 8000162:	833b      	strh	r3, [r7, #24]
    uint8_t shift_register;
    uint8_t data_bit, crc_bit;

    for (counter = 1; counter < (size - 2); counter++)
 8000164:	2301      	movs	r3, #1
 8000166:	77fb      	strb	r3, [r7, #31]
 8000168:	e027      	b.n	80001ba <atCRC+0x6e>
    {
        for (shift_register = 0x01; shift_register > 0x00; shift_register <<= 1)
 800016a:	2301      	movs	r3, #1
 800016c:	76fb      	strb	r3, [r7, #27]
 800016e:	e01e      	b.n	80001ae <atCRC+0x62>
        {
            data_bit = (data[counter] & shift_register) ? 1 : 0;
 8000170:	7ffb      	ldrb	r3, [r7, #31]
 8000172:	68fa      	ldr	r2, [r7, #12]
 8000174:	4413      	add	r3, r2
 8000176:	781a      	ldrb	r2, [r3, #0]
 8000178:	7efb      	ldrb	r3, [r7, #27]
 800017a:	4013      	ands	r3, r2
 800017c:	b2db      	uxtb	r3, r3
 800017e:	2b00      	cmp	r3, #0
 8000180:	bf14      	ite	ne
 8000182:	2301      	movne	r3, #1
 8000184:	2300      	moveq	r3, #0
 8000186:	b2db      	uxtb	r3, r3
 8000188:	75fb      	strb	r3, [r7, #23]
            crc_bit = crc_register >> 15;
 800018a:	8bbb      	ldrh	r3, [r7, #28]
 800018c:	0bdb      	lsrs	r3, r3, #15
 800018e:	b29b      	uxth	r3, r3
 8000190:	75bb      	strb	r3, [r7, #22]
            crc_register <<= 1;
 8000192:	8bbb      	ldrh	r3, [r7, #28]
 8000194:	005b      	lsls	r3, r3, #1
 8000196:	83bb      	strh	r3, [r7, #28]
            if (data_bit != crc_bit)
 8000198:	7dfa      	ldrb	r2, [r7, #23]
 800019a:	7dbb      	ldrb	r3, [r7, #22]
 800019c:	429a      	cmp	r2, r3
 800019e:	d003      	beq.n	80001a8 <atCRC+0x5c>
            {
                crc_register ^= polynom;
 80001a0:	8bba      	ldrh	r2, [r7, #28]
 80001a2:	8b3b      	ldrh	r3, [r7, #24]
 80001a4:	4053      	eors	r3, r2
 80001a6:	83bb      	strh	r3, [r7, #28]
        for (shift_register = 0x01; shift_register > 0x00; shift_register <<= 1)
 80001a8:	7efb      	ldrb	r3, [r7, #27]
 80001aa:	005b      	lsls	r3, r3, #1
 80001ac:	76fb      	strb	r3, [r7, #27]
 80001ae:	7efb      	ldrb	r3, [r7, #27]
 80001b0:	2b00      	cmp	r3, #0
 80001b2:	d1dd      	bne.n	8000170 <atCRC+0x24>
    for (counter = 1; counter < (size - 2); counter++)
 80001b4:	7ffb      	ldrb	r3, [r7, #31]
 80001b6:	3301      	adds	r3, #1
 80001b8:	77fb      	strb	r3, [r7, #31]
 80001ba:	7ffa      	ldrb	r2, [r7, #31]
 80001bc:	7afb      	ldrb	r3, [r7, #11]
 80001be:	3b02      	subs	r3, #2
 80001c0:	429a      	cmp	r2, r3
 80001c2:	dbd2      	blt.n	800016a <atCRC+0x1e>
            }
        }
    }
    crc_le[0] = (uint8_t)(crc_register & 0x00FF);
 80001c4:	8bbb      	ldrh	r3, [r7, #28]
 80001c6:	b2da      	uxtb	r2, r3
 80001c8:	687b      	ldr	r3, [r7, #4]
 80001ca:	701a      	strb	r2, [r3, #0]
    crc_le[1] = (uint8_t)(crc_register >> 8);
 80001cc:	8bbb      	ldrh	r3, [r7, #28]
 80001ce:	0a1b      	lsrs	r3, r3, #8
 80001d0:	b29a      	uxth	r2, r3
 80001d2:	687b      	ldr	r3, [r7, #4]
 80001d4:	3301      	adds	r3, #1
 80001d6:	b2d2      	uxtb	r2, r2
 80001d8:	701a      	strb	r2, [r3, #0]
}
 80001da:	bf00      	nop
 80001dc:	3724      	adds	r7, #36	; 0x24
 80001de:	46bd      	mov	sp, r7
 80001e0:	bc80      	pop	{r7}
 80001e2:	4770      	bx	lr

080001e4 <WakeUp>:


void WakeUp(uint8_t *receiv){
 80001e4:	b580      	push	{r7, lr}
 80001e6:	b086      	sub	sp, #24
 80001e8:	af02      	add	r7, sp, #8
 80001ea:	6078      	str	r0, [r7, #4]

	uint8_t data = 0;
 80001ec:	2300      	movs	r3, #0
 80001ee:	73fb      	strb	r3, [r7, #15]

	HAL_I2C_Master_Receive(&hi2c2, 0xFE, &data, sizeof(data), 1000);
 80001f0:	f107 020f 	add.w	r2, r7, #15
 80001f4:	f44f 737a 	mov.w	r3, #1000	; 0x3e8
 80001f8:	9300      	str	r3, [sp, #0]
 80001fa:	2301      	movs	r3, #1
 80001fc:	21fe      	movs	r1, #254	; 0xfe
 80001fe:	4818      	ldr	r0, [pc, #96]	; (8000260 <WakeUp+0x7c>)
 8000200:	f001 fbd4 	bl	80019ac <HAL_I2C_Master_Receive>
	HAL_Delay(5); // 2.5 ms para acordar; 45 ms para entrar em sleep
 8000204:	2005      	movs	r0, #5
 8000206:	f000 fe63 	bl	8000ed0 <HAL_Delay>
	// first read: 0 byte read - should receive an ACK

	HAL_I2C_Master_Receive(&hi2c2, I2C_ADDRESS, &data, 1, 1000);
 800020a:	f107 020f 	add.w	r2, r7, #15
 800020e:	f44f 737a 	mov.w	r3, #1000	; 0x3e8
 8000212:	9300      	str	r3, [sp, #0]
 8000214:	2301      	movs	r3, #1
 8000216:	21c8      	movs	r1, #200	; 0xc8
 8000218:	4811      	ldr	r0, [pc, #68]	; (8000260 <WakeUp+0x7c>)
 800021a:	f001 fbc7 	bl	80019ac <HAL_I2C_Master_Receive>
	HAL_Delay(5);
 800021e:	2005      	movs	r0, #5
 8000220:	f000 fe56 	bl	8000ed0 <HAL_Delay>

	// Read 88bytes
	HAL_I2C_Master_Transmit(&hi2c2, I2C_ADDRESS, &data, sizeof(data), 1000);	// Send 1 byte
 8000224:	f107 020f 	add.w	r2, r7, #15
 8000228:	f44f 737a 	mov.w	r3, #1000	; 0x3e8
 800022c:	9300      	str	r3, [sp, #0]
 800022e:	2301      	movs	r3, #1
 8000230:	21c8      	movs	r1, #200	; 0xc8
 8000232:	480b      	ldr	r0, [pc, #44]	; (8000260 <WakeUp+0x7c>)
 8000234:	f001 fabc 	bl	80017b0 <HAL_I2C_Master_Transmit>
	HAL_Delay(5);
 8000238:	2005      	movs	r0, #5
 800023a:	f000 fe49 	bl	8000ed0 <HAL_Delay>
	HAL_I2C_Master_Receive(&hi2c2, I2C_ADDRESS, receiv, 4, 1000); 		    	// Receiv: 0x04, 0x11, 0x33, 0x43.
 800023e:	f44f 737a 	mov.w	r3, #1000	; 0x3e8
 8000242:	9300      	str	r3, [sp, #0]
 8000244:	2304      	movs	r3, #4
 8000246:	687a      	ldr	r2, [r7, #4]
 8000248:	21c8      	movs	r1, #200	; 0xc8
 800024a:	4805      	ldr	r0, [pc, #20]	; (8000260 <WakeUp+0x7c>)
 800024c:	f001 fbae 	bl	80019ac <HAL_I2C_Master_Receive>
	HAL_Delay(5);
 8000250:	2005      	movs	r0, #5
 8000252:	f000 fe3d 	bl	8000ed0 <HAL_Delay>
}
 8000256:	bf00      	nop
 8000258:	3710      	adds	r7, #16
 800025a:	46bd      	mov	sp, r7
 800025c:	bd80      	pop	{r7, pc}
 800025e:	bf00      	nop
 8000260:	20000028 	.word	0x20000028

08000264 <ReadConfig>:


void ReadConfig(uint8_t *data, uint16_t size, uint8_t *receiv) {
 8000264:	b580      	push	{r7, lr}
 8000266:	b086      	sub	sp, #24
 8000268:	af02      	add	r7, sp, #8
 800026a:	60f8      	str	r0, [r7, #12]
 800026c:	460b      	mov	r3, r1
 800026e:	607a      	str	r2, [r7, #4]
 8000270:	817b      	strh	r3, [r7, #10]

	HAL_I2C_Master_Transmit(&hi2c2, I2C_ADDRESS, data, 8, 1000); 		    // Send read command
 8000272:	f44f 737a 	mov.w	r3, #1000	; 0x3e8
 8000276:	9300      	str	r3, [sp, #0]
 8000278:	2308      	movs	r3, #8
 800027a:	68fa      	ldr	r2, [r7, #12]
 800027c:	21c8      	movs	r1, #200	; 0xc8
 800027e:	480b      	ldr	r0, [pc, #44]	; (80002ac <ReadConfig+0x48>)
 8000280:	f001 fa96 	bl	80017b0 <HAL_I2C_Master_Transmit>
	HAL_Delay(5);
 8000284:	2005      	movs	r0, #5
 8000286:	f000 fe23 	bl	8000ed0 <HAL_Delay>
	HAL_I2C_Master_Receive(&hi2c2, I2C_ADDRESS, receiv, size, 1000); 	    // Receive: data packet size, 0x01 0x23..., CRC_LSB, CRC_MSB
 800028a:	897b      	ldrh	r3, [r7, #10]
 800028c:	f44f 727a 	mov.w	r2, #1000	; 0x3e8
 8000290:	9200      	str	r2, [sp, #0]
 8000292:	687a      	ldr	r2, [r7, #4]
 8000294:	21c8      	movs	r1, #200	; 0xc8
 8000296:	4805      	ldr	r0, [pc, #20]	; (80002ac <ReadConfig+0x48>)
 8000298:	f001 fb88 	bl	80019ac <HAL_I2C_Master_Receive>
	HAL_Delay(5);
 800029c:	2005      	movs	r0, #5
 800029e:	f000 fe17 	bl	8000ed0 <HAL_Delay>
}
 80002a2:	bf00      	nop
 80002a4:	3710      	adds	r7, #16
 80002a6:	46bd      	mov	sp, r7
 80002a8:	bd80      	pop	{r7, pc}
 80002aa:	bf00      	nop
 80002ac:	20000028 	.word	0x20000028

080002b0 <CommandNonce>:
	HAL_I2C_Master_Receive(&hi2c2, I2C_ADDRESS, receiv, size, 1000);
	HAL_Delay(5);
}


void CommandNonce(uint8_t *NumIn, uint16_t size, uint8_t *receiv){ //OK
 80002b0:	b580      	push	{r7, lr}
 80002b2:	b090      	sub	sp, #64	; 0x40
 80002b4:	af02      	add	r7, sp, #8
 80002b6:	60f8      	str	r0, [r7, #12]
 80002b8:	460b      	mov	r3, r1
 80002ba:	607a      	str	r2, [r7, #4]
 80002bc:	817b      	strh	r3, [r7, #10]

	// NONCE command: {COMMAND, COUNT, OPCODE, Param1_mode, 0x00, 0x00, NumIn[20], CRC_LSB, CRC_MSB}
	uint8_t noncecommand[28]; //40
	uint8_t CRC_receiv[2];

    noncecommand[0] = COMMAND;
 80002be:	2303      	movs	r3, #3
 80002c0:	763b      	strb	r3, [r7, #24]
    noncecommand[1] = SIZE_WRITE_NONCE20; //SIZE_WRITE_NONCE32;
 80002c2:	231b      	movs	r3, #27
 80002c4:	767b      	strb	r3, [r7, #25]
    noncecommand[2] = COMMAND_NONCE;
 80002c6:	2316      	movs	r3, #22
 80002c8:	76bb      	strb	r3, [r7, #26]
    noncecommand[3] = 0x00; // modo3
 80002ca:	2300      	movs	r3, #0
 80002cc:	76fb      	strb	r3, [r7, #27]
    noncecommand[4] = 0x00;
 80002ce:	2300      	movs	r3, #0
 80002d0:	773b      	strb	r3, [r7, #28]
    noncecommand[5] = 0x00;
 80002d2:	2300      	movs	r3, #0
 80002d4:	777b      	strb	r3, [r7, #29]

	for(uint8_t i = 0; i <= 20; i++){  // <=32
 80002d6:	2300      	movs	r3, #0
 80002d8:	f887 3037 	strb.w	r3, [r7, #55]	; 0x37
 80002dc:	e010      	b.n	8000300 <CommandNonce+0x50>
		 noncecommand[6 + i] = NumIn[i];
 80002de:	f897 3037 	ldrb.w	r3, [r7, #55]	; 0x37
 80002e2:	68fa      	ldr	r2, [r7, #12]
 80002e4:	441a      	add	r2, r3
 80002e6:	f897 3037 	ldrb.w	r3, [r7, #55]	; 0x37
 80002ea:	3306      	adds	r3, #6
 80002ec:	7812      	ldrb	r2, [r2, #0]
 80002ee:	3338      	adds	r3, #56	; 0x38
 80002f0:	443b      	add	r3, r7
 80002f2:	f803 2c20 	strb.w	r2, [r3, #-32]
	for(uint8_t i = 0; i <= 20; i++){  // <=32
 80002f6:	f897 3037 	ldrb.w	r3, [r7, #55]	; 0x37
 80002fa:	3301      	adds	r3, #1
 80002fc:	f887 3037 	strb.w	r3, [r7, #55]	; 0x37
 8000300:	f897 3037 	ldrb.w	r3, [r7, #55]	; 0x37
 8000304:	2b14      	cmp	r3, #20
 8000306:	d9ea      	bls.n	80002de <CommandNonce+0x2e>
	}

	atCRC(noncecommand,sizeof(noncecommand), CRC_receiv);
 8000308:	f107 0214 	add.w	r2, r7, #20
 800030c:	f107 0318 	add.w	r3, r7, #24
 8000310:	211c      	movs	r1, #28
 8000312:	4618      	mov	r0, r3
 8000314:	f7ff ff1a 	bl	800014c <atCRC>
	noncecommand[sizeof(noncecommand) - 2] = CRC_receiv[0] ;
 8000318:	7d3b      	ldrb	r3, [r7, #20]
 800031a:	f887 3032 	strb.w	r3, [r7, #50]	; 0x32
	noncecommand[sizeof(noncecommand) - 1] = CRC_receiv[1] ;
 800031e:	7d7b      	ldrb	r3, [r7, #21]
 8000320:	f887 3033 	strb.w	r3, [r7, #51]	; 0x33

	HAL_I2C_Master_Transmit(&hi2c2, I2C_ADDRESS, noncecommand, sizeof(noncecommand), 1000);
 8000324:	f107 0218 	add.w	r2, r7, #24
 8000328:	f44f 737a 	mov.w	r3, #1000	; 0x3e8
 800032c:	9300      	str	r3, [sp, #0]
 800032e:	231c      	movs	r3, #28
 8000330:	21c8      	movs	r1, #200	; 0xc8
 8000332:	480b      	ldr	r0, [pc, #44]	; (8000360 <CommandNonce+0xb0>)
 8000334:	f001 fa3c 	bl	80017b0 <HAL_I2C_Master_Transmit>
	HAL_Delay(50);
 8000338:	2032      	movs	r0, #50	; 0x32
 800033a:	f000 fdc9 	bl	8000ed0 <HAL_Delay>
	HAL_I2C_Master_Receive(&hi2c2, I2C_ADDRESS, receiv, size, 1000);
 800033e:	897b      	ldrh	r3, [r7, #10]
 8000340:	f44f 727a 	mov.w	r2, #1000	; 0x3e8
 8000344:	9200      	str	r2, [sp, #0]
 8000346:	687a      	ldr	r2, [r7, #4]
 8000348:	21c8      	movs	r1, #200	; 0xc8
 800034a:	4805      	ldr	r0, [pc, #20]	; (8000360 <CommandNonce+0xb0>)
 800034c:	f001 fb2e 	bl	80019ac <HAL_I2C_Master_Receive>
	HAL_Delay(10);
 8000350:	200a      	movs	r0, #10
 8000352:	f000 fdbd 	bl	8000ed0 <HAL_Delay>
}
 8000356:	bf00      	nop
 8000358:	3738      	adds	r7, #56	; 0x38
 800035a:	46bd      	mov	sp, r7
 800035c:	bd80      	pop	{r7, pc}
 800035e:	bf00      	nop
 8000360:	20000028 	.word	0x20000028

08000364 <GendigCommand>:


void GendigCommand(uint8_t SlotID_LSB, uint8_t SlotID_MSB, uint8_t size, uint8_t *receiv){
 8000364:	b580      	push	{r7, lr}
 8000366:	b088      	sub	sp, #32
 8000368:	af02      	add	r7, sp, #8
 800036a:	603b      	str	r3, [r7, #0]
 800036c:	4603      	mov	r3, r0
 800036e:	71fb      	strb	r3, [r7, #7]
 8000370:	460b      	mov	r3, r1
 8000372:	71bb      	strb	r3, [r7, #6]
 8000374:	4613      	mov	r3, r2
 8000376:	717b      	strb	r3, [r7, #5]
	uint8_t GenDig[8];
	uint8_t CRC_receiv[2];
	//{COMMAND, SIZE_WRITE_GENDIG, COMMAND_GENDIG, ZONE_DATA, SlotID_LSB, SlotID_MSB, /*0x33, 0xe8*/ 0x00, 0x00};
	//atCRC(GenDig,sizeof(GenDig));

	GenDig[0] = COMMAND;
 8000378:	2303      	movs	r3, #3
 800037a:	743b      	strb	r3, [r7, #16]
	GenDig[1] = SIZE_WRITE_GENDIG;
 800037c:	2307      	movs	r3, #7
 800037e:	747b      	strb	r3, [r7, #17]
	GenDig[2] = COMMAND_GENDIG;
 8000380:	2315      	movs	r3, #21
 8000382:	74bb      	strb	r3, [r7, #18]
	GenDig[3] = ZONE_DATA;
 8000384:	2302      	movs	r3, #2
 8000386:	74fb      	strb	r3, [r7, #19]
	GenDig[4] = SlotID_LSB;
 8000388:	79fb      	ldrb	r3, [r7, #7]
 800038a:	753b      	strb	r3, [r7, #20]
	GenDig[5] = SlotID_MSB;
 800038c:	79bb      	ldrb	r3, [r7, #6]
 800038e:	757b      	strb	r3, [r7, #21]

	atCRC(GenDig,sizeof(GenDig), CRC_receiv);
 8000390:	f107 020c 	add.w	r2, r7, #12
 8000394:	f107 0310 	add.w	r3, r7, #16
 8000398:	2108      	movs	r1, #8
 800039a:	4618      	mov	r0, r3
 800039c:	f7ff fed6 	bl	800014c <atCRC>
	GenDig[6] = CRC_receiv[0] ;
 80003a0:	7b3b      	ldrb	r3, [r7, #12]
 80003a2:	75bb      	strb	r3, [r7, #22]
	GenDig[7] = CRC_receiv[1] ;
 80003a4:	7b7b      	ldrb	r3, [r7, #13]
 80003a6:	75fb      	strb	r3, [r7, #23]

	HAL_I2C_Master_Transmit(&hi2c2, I2C_ADDRESS, GenDig, sizeof(GenDig), 1000);
 80003a8:	f107 0210 	add.w	r2, r7, #16
 80003ac:	f44f 737a 	mov.w	r3, #1000	; 0x3e8
 80003b0:	9300      	str	r3, [sp, #0]
 80003b2:	2308      	movs	r3, #8
 80003b4:	21c8      	movs	r1, #200	; 0xc8
 80003b6:	480b      	ldr	r0, [pc, #44]	; (80003e4 <GendigCommand+0x80>)
 80003b8:	f001 f9fa 	bl	80017b0 <HAL_I2C_Master_Transmit>
	HAL_Delay(50);
 80003bc:	2032      	movs	r0, #50	; 0x32
 80003be:	f000 fd87 	bl	8000ed0 <HAL_Delay>
	HAL_I2C_Master_Receive(&hi2c2, I2C_ADDRESS, receiv, size, 1000);
 80003c2:	797b      	ldrb	r3, [r7, #5]
 80003c4:	b29b      	uxth	r3, r3
 80003c6:	f44f 727a 	mov.w	r2, #1000	; 0x3e8
 80003ca:	9200      	str	r2, [sp, #0]
 80003cc:	683a      	ldr	r2, [r7, #0]
 80003ce:	21c8      	movs	r1, #200	; 0xc8
 80003d0:	4804      	ldr	r0, [pc, #16]	; (80003e4 <GendigCommand+0x80>)
 80003d2:	f001 faeb 	bl	80019ac <HAL_I2C_Master_Receive>
	HAL_Delay(5);
 80003d6:	2005      	movs	r0, #5
 80003d8:	f000 fd7a 	bl	8000ed0 <HAL_Delay>
}
 80003dc:	bf00      	nop
 80003de:	3718      	adds	r7, #24
 80003e0:	46bd      	mov	sp, r7
 80003e2:	bd80      	pop	{r7, pc}
 80003e4:	20000028 	.word	0x20000028

080003e8 <MacCommand>:

void MacCommand(uint8_t SlotID_LSB, uint8_t SlotID_MSB, uint16_t size, uint8_t *receiv){
 80003e8:	b580      	push	{r7, lr}
 80003ea:	b088      	sub	sp, #32
 80003ec:	af02      	add	r7, sp, #8
 80003ee:	603b      	str	r3, [r7, #0]
 80003f0:	4603      	mov	r3, r0
 80003f2:	71fb      	strb	r3, [r7, #7]
 80003f4:	460b      	mov	r3, r1
 80003f6:	71bb      	strb	r3, [r7, #6]
 80003f8:	4613      	mov	r3, r2
 80003fa:	80bb      	strh	r3, [r7, #4]
	uint8_t  MAC[8];
	uint8_t CRC_receiv[2];

	//uint8_t Challenge [32] = {0x00};

	 MAC[0]= COMMAND;
 80003fc:	2303      	movs	r3, #3
 80003fe:	743b      	strb	r3, [r7, #16]
	 MAC[1]= 0x07; 	//size 0x27
 8000400:	2307      	movs	r3, #7
 8000402:	747b      	strb	r3, [r7, #17]
	 MAC[2]= COMMAND_MAC;
 8000404:	2308      	movs	r3, #8
 8000406:	74bb      	strb	r3, [r7, #18]
	 MAC[3]= 0x01 ; 	//mode
 8000408:	2301      	movs	r3, #1
 800040a:	74fb      	strb	r3, [r7, #19]
	 MAC[4]= SlotID_LSB;
 800040c:	79fb      	ldrb	r3, [r7, #7]
 800040e:	753b      	strb	r3, [r7, #20]
	 MAC[5]= SlotID_MSB;
 8000410:	79bb      	ldrb	r3, [r7, #6]
 8000412:	757b      	strb	r3, [r7, #21]
/*
	for(uint8_t i = 0; i <= 32; i++){
		MAC[6 + i] = Challenge[i];
	}
*/
	atCRC(MAC, sizeof(MAC), CRC_receiv);
 8000414:	f107 020c 	add.w	r2, r7, #12
 8000418:	f107 0310 	add.w	r3, r7, #16
 800041c:	2108      	movs	r1, #8
 800041e:	4618      	mov	r0, r3
 8000420:	f7ff fe94 	bl	800014c <atCRC>
	MAC[sizeof(MAC) - 2] = CRC_receiv[0] ;
 8000424:	7b3b      	ldrb	r3, [r7, #12]
 8000426:	75bb      	strb	r3, [r7, #22]
	MAC[sizeof(MAC) - 1] = CRC_receiv[1] ;
 8000428:	7b7b      	ldrb	r3, [r7, #13]
 800042a:	75fb      	strb	r3, [r7, #23]

	HAL_I2C_Master_Transmit(&hi2c2, I2C_ADDRESS, MAC, sizeof(MAC), 1000);
 800042c:	f107 0210 	add.w	r2, r7, #16
 8000430:	f44f 737a 	mov.w	r3, #1000	; 0x3e8
 8000434:	9300      	str	r3, [sp, #0]
 8000436:	2308      	movs	r3, #8
 8000438:	21c8      	movs	r1, #200	; 0xc8
 800043a:	480b      	ldr	r0, [pc, #44]	; (8000468 <MacCommand+0x80>)
 800043c:	f001 f9b8 	bl	80017b0 <HAL_I2C_Master_Transmit>
	HAL_Delay(40);
 8000440:	2028      	movs	r0, #40	; 0x28
 8000442:	f000 fd45 	bl	8000ed0 <HAL_Delay>
	HAL_I2C_Master_Receive(&hi2c2, I2C_ADDRESS, receiv, size, 1000);
 8000446:	88bb      	ldrh	r3, [r7, #4]
 8000448:	f44f 727a 	mov.w	r2, #1000	; 0x3e8
 800044c:	9200      	str	r2, [sp, #0]
 800044e:	683a      	ldr	r2, [r7, #0]
 8000450:	21c8      	movs	r1, #200	; 0xc8
 8000452:	4805      	ldr	r0, [pc, #20]	; (8000468 <MacCommand+0x80>)
 8000454:	f001 faaa 	bl	80019ac <HAL_I2C_Master_Receive>
	HAL_Delay(5);
 8000458:	2005      	movs	r0, #5
 800045a:	f000 fd39 	bl	8000ed0 <HAL_Delay>
}
 800045e:	bf00      	nop
 8000460:	3718      	adds	r7, #24
 8000462:	46bd      	mov	sp, r7
 8000464:	bd80      	pop	{r7, pc}
 8000466:	bf00      	nop
 8000468:	20000028 	.word	0x20000028

0800046c <CheckMacCommand>:


void CheckMacCommand(uint8_t SlotID_LSB, uint8_t SlotID_MSB, uint8_t *ClientResp, uint16_t size, uint8_t *receiv){
 800046c:	b590      	push	{r4, r7, lr}
 800046e:	b0a9      	sub	sp, #164	; 0xa4
 8000470:	af02      	add	r7, sp, #8
 8000472:	603a      	str	r2, [r7, #0]
 8000474:	461a      	mov	r2, r3
 8000476:	4603      	mov	r3, r0
 8000478:	71fb      	strb	r3, [r7, #7]
 800047a:	460b      	mov	r3, r1
 800047c:	71bb      	strb	r3, [r7, #6]
 800047e:	4613      	mov	r3, r2
 8000480:	80bb      	strh	r3, [r7, #4]

	uint8_t  CheckMAC[87] ;
	uint8_t CRC_receiv[2];
	uint8_t size_att;

	uint8_t ClientChal [32] = {0x00};
 8000482:	2300      	movs	r3, #0
 8000484:	61bb      	str	r3, [r7, #24]
 8000486:	f107 031c 	add.w	r3, r7, #28
 800048a:	2200      	movs	r2, #0
 800048c:	601a      	str	r2, [r3, #0]
 800048e:	605a      	str	r2, [r3, #4]
 8000490:	609a      	str	r2, [r3, #8]
 8000492:	60da      	str	r2, [r3, #12]
 8000494:	611a      	str	r2, [r3, #16]
 8000496:	615a      	str	r2, [r3, #20]
 8000498:	619a      	str	r2, [r3, #24]
	//uint8_t ClientResp [32] = {0x00}; // sha-256 gerado pelo MAC
	uint8_t OtherData[13] = {0x08, 0x01, 0x04, 0x00, 0x00, 0x00, 0x00, 0x00, 0x00, 0x00, 0x00, 0x00, 0x00};
 800049a:	4b4f      	ldr	r3, [pc, #316]	; (80005d8 <CheckMacCommand+0x16c>)
 800049c:	f107 0408 	add.w	r4, r7, #8
 80004a0:	cb0f      	ldmia	r3, {r0, r1, r2, r3}
 80004a2:	c407      	stmia	r4!, {r0, r1, r2}
 80004a4:	7023      	strb	r3, [r4, #0]

	CheckMAC[0]= COMMAND;
 80004a6:	2303      	movs	r3, #3
 80004a8:	f887 303c 	strb.w	r3, [r7, #60]	; 0x3c
	CheckMAC[1]= 0x54;
 80004ac:	2354      	movs	r3, #84	; 0x54
 80004ae:	f887 303d 	strb.w	r3, [r7, #61]	; 0x3d
	CheckMAC[2]= COMMAND_CHECKMAC;
 80004b2:	2328      	movs	r3, #40	; 0x28
 80004b4:	f887 303e 	strb.w	r3, [r7, #62]	; 0x3e
	CheckMAC[3]= 0x01 ; 	//mode
 80004b8:	2301      	movs	r3, #1
 80004ba:	f887 303f 	strb.w	r3, [r7, #63]	; 0x3f
	CheckMAC[4]= SlotID_LSB;
 80004be:	79fb      	ldrb	r3, [r7, #7]
 80004c0:	f887 3040 	strb.w	r3, [r7, #64]	; 0x40
	CheckMAC[5]= SlotID_MSB;
 80004c4:	79bb      	ldrb	r3, [r7, #6]
 80004c6:	f887 3041 	strb.w	r3, [r7, #65]	; 0x41

	for(uint8_t i = 0; i <= 77; i++){
 80004ca:	2300      	movs	r3, #0
 80004cc:	f887 3096 	strb.w	r3, [r7, #150]	; 0x96
 80004d0:	e050      	b.n	8000574 <CheckMacCommand+0x108>
		if (i <= 32){
 80004d2:	f897 3096 	ldrb.w	r3, [r7, #150]	; 0x96
 80004d6:	2b20      	cmp	r3, #32
 80004d8:	d812      	bhi.n	8000500 <CheckMacCommand+0x94>
			CheckMAC[6 + i] = ClientChal[i];
 80004da:	f897 2096 	ldrb.w	r2, [r7, #150]	; 0x96
 80004de:	f897 3096 	ldrb.w	r3, [r7, #150]	; 0x96
 80004e2:	3306      	adds	r3, #6
 80004e4:	3298      	adds	r2, #152	; 0x98
 80004e6:	443a      	add	r2, r7
 80004e8:	f812 2c80 	ldrb.w	r2, [r2, #-128]
 80004ec:	3398      	adds	r3, #152	; 0x98
 80004ee:	443b      	add	r3, r7
 80004f0:	f803 2c5c 	strb.w	r2, [r3, #-92]
			size_att = 6 + i;
 80004f4:	f897 3096 	ldrb.w	r3, [r7, #150]	; 0x96
 80004f8:	3306      	adds	r3, #6
 80004fa:	f887 3097 	strb.w	r3, [r7, #151]	; 0x97
 80004fe:	e034      	b.n	800056a <CheckMacCommand+0xfe>
		}
		else if (i > 32 && i <= 64){
 8000500:	f897 3096 	ldrb.w	r3, [r7, #150]	; 0x96
 8000504:	2b20      	cmp	r3, #32
 8000506:	d917      	bls.n	8000538 <CheckMacCommand+0xcc>
 8000508:	f897 3096 	ldrb.w	r3, [r7, #150]	; 0x96
 800050c:	2b40      	cmp	r3, #64	; 0x40
 800050e:	d813      	bhi.n	8000538 <CheckMacCommand+0xcc>
			CheckMAC[size_att] = ClientResp[i - 32];
 8000510:	f897 3096 	ldrb.w	r3, [r7, #150]	; 0x96
 8000514:	3b20      	subs	r3, #32
 8000516:	683a      	ldr	r2, [r7, #0]
 8000518:	441a      	add	r2, r3
 800051a:	f897 3097 	ldrb.w	r3, [r7, #151]	; 0x97
 800051e:	7812      	ldrb	r2, [r2, #0]
 8000520:	3398      	adds	r3, #152	; 0x98
 8000522:	443b      	add	r3, r7
 8000524:	f803 2c5c 	strb.w	r2, [r3, #-92]
			size_att +=  i;
 8000528:	f897 2097 	ldrb.w	r2, [r7, #151]	; 0x97
 800052c:	f897 3096 	ldrb.w	r3, [r7, #150]	; 0x96
 8000530:	4413      	add	r3, r2
 8000532:	f887 3097 	strb.w	r3, [r7, #151]	; 0x97
 8000536:	e018      	b.n	800056a <CheckMacCommand+0xfe>
		}
		else if ( i > 64 && i <= 77){
 8000538:	f897 3096 	ldrb.w	r3, [r7, #150]	; 0x96
 800053c:	2b40      	cmp	r3, #64	; 0x40
 800053e:	d914      	bls.n	800056a <CheckMacCommand+0xfe>
 8000540:	f897 3096 	ldrb.w	r3, [r7, #150]	; 0x96
 8000544:	2b4d      	cmp	r3, #77	; 0x4d
 8000546:	d810      	bhi.n	800056a <CheckMacCommand+0xfe>
			CheckMAC[size_att + i] = OtherData[i - 64];
 8000548:	f897 3096 	ldrb.w	r3, [r7, #150]	; 0x96
 800054c:	f1a3 0240 	sub.w	r2, r3, #64	; 0x40
 8000550:	f897 1097 	ldrb.w	r1, [r7, #151]	; 0x97
 8000554:	f897 3096 	ldrb.w	r3, [r7, #150]	; 0x96
 8000558:	440b      	add	r3, r1
 800055a:	3298      	adds	r2, #152	; 0x98
 800055c:	443a      	add	r2, r7
 800055e:	f812 2c90 	ldrb.w	r2, [r2, #-144]
 8000562:	3398      	adds	r3, #152	; 0x98
 8000564:	443b      	add	r3, r7
 8000566:	f803 2c5c 	strb.w	r2, [r3, #-92]
	for(uint8_t i = 0; i <= 77; i++){
 800056a:	f897 3096 	ldrb.w	r3, [r7, #150]	; 0x96
 800056e:	3301      	adds	r3, #1
 8000570:	f887 3096 	strb.w	r3, [r7, #150]	; 0x96
 8000574:	f897 3096 	ldrb.w	r3, [r7, #150]	; 0x96
 8000578:	2b4d      	cmp	r3, #77	; 0x4d
 800057a:	d9aa      	bls.n	80004d2 <CheckMacCommand+0x66>
		}
	}

	atCRC(CheckMAC, sizeof(CheckMAC), CRC_receiv);
 800057c:	f107 0238 	add.w	r2, r7, #56	; 0x38
 8000580:	f107 033c 	add.w	r3, r7, #60	; 0x3c
 8000584:	2157      	movs	r1, #87	; 0x57
 8000586:	4618      	mov	r0, r3
 8000588:	f7ff fde0 	bl	800014c <atCRC>
	CheckMAC[sizeof(CheckMAC) - 2] = CRC_receiv[0] ;
 800058c:	f897 3038 	ldrb.w	r3, [r7, #56]	; 0x38
 8000590:	f887 3091 	strb.w	r3, [r7, #145]	; 0x91
	CheckMAC[sizeof(CheckMAC) - 1] = CRC_receiv[1] ;
 8000594:	f897 3039 	ldrb.w	r3, [r7, #57]	; 0x39
 8000598:	f887 3092 	strb.w	r3, [r7, #146]	; 0x92

	HAL_I2C_Master_Transmit(&hi2c2, I2C_ADDRESS, CheckMAC, sizeof(CheckMAC), 1000);
 800059c:	f107 023c 	add.w	r2, r7, #60	; 0x3c
 80005a0:	f44f 737a 	mov.w	r3, #1000	; 0x3e8
 80005a4:	9300      	str	r3, [sp, #0]
 80005a6:	2357      	movs	r3, #87	; 0x57
 80005a8:	21c8      	movs	r1, #200	; 0xc8
 80005aa:	480c      	ldr	r0, [pc, #48]	; (80005dc <CheckMacCommand+0x170>)
 80005ac:	f001 f900 	bl	80017b0 <HAL_I2C_Master_Transmit>
	HAL_Delay(35);
 80005b0:	2023      	movs	r0, #35	; 0x23
 80005b2:	f000 fc8d 	bl	8000ed0 <HAL_Delay>
	HAL_I2C_Master_Receive(&hi2c2, I2C_ADDRESS, receiv, size, 1000);
 80005b6:	88bb      	ldrh	r3, [r7, #4]
 80005b8:	f44f 727a 	mov.w	r2, #1000	; 0x3e8
 80005bc:	9200      	str	r2, [sp, #0]
 80005be:	f8d7 20a8 	ldr.w	r2, [r7, #168]	; 0xa8
 80005c2:	21c8      	movs	r1, #200	; 0xc8
 80005c4:	4805      	ldr	r0, [pc, #20]	; (80005dc <CheckMacCommand+0x170>)
 80005c6:	f001 f9f1 	bl	80019ac <HAL_I2C_Master_Receive>
	HAL_Delay(5);
 80005ca:	2005      	movs	r0, #5
 80005cc:	f000 fc80 	bl	8000ed0 <HAL_Delay>
}
 80005d0:	bf00      	nop
 80005d2:	379c      	adds	r7, #156	; 0x9c
 80005d4:	46bd      	mov	sp, r7
 80005d6:	bd90      	pop	{r4, r7, pc}
 80005d8:	080038f8 	.word	0x080038f8
 80005dc:	20000028 	.word	0x20000028

080005e0 <ReadEncript>:
	HAL_I2C_Master_Receive(&hi2c2, I2C_ADDRESS, receive, size_out, 1000);
	HAL_Delay(5);
}


void ReadEncript(uint8_t *data, uint16_t size, uint8_t *receiv){
 80005e0:	b580      	push	{r7, lr}
 80005e2:	b086      	sub	sp, #24
 80005e4:	af02      	add	r7, sp, #8
 80005e6:	60f8      	str	r0, [r7, #12]
 80005e8:	460b      	mov	r3, r1
 80005ea:	607a      	str	r2, [r7, #4]
 80005ec:	817b      	strh	r3, [r7, #10]

	// Read Encript
	HAL_I2C_Master_Transmit(&hi2c2, I2C_ADDRESS, data, 8, 1000); // Send read encript command
 80005ee:	f44f 737a 	mov.w	r3, #1000	; 0x3e8
 80005f2:	9300      	str	r3, [sp, #0]
 80005f4:	2308      	movs	r3, #8
 80005f6:	68fa      	ldr	r2, [r7, #12]
 80005f8:	21c8      	movs	r1, #200	; 0xc8
 80005fa:	480b      	ldr	r0, [pc, #44]	; (8000628 <ReadEncript+0x48>)
 80005fc:	f001 f8d8 	bl	80017b0 <HAL_I2C_Master_Transmit>
	HAL_Delay(5);
 8000600:	2005      	movs	r0, #5
 8000602:	f000 fc65 	bl	8000ed0 <HAL_Delay>
	HAL_I2C_Master_Receive(&hi2c2, I2C_ADDRESS, receiv, size, 1000);
 8000606:	897b      	ldrh	r3, [r7, #10]
 8000608:	f44f 727a 	mov.w	r2, #1000	; 0x3e8
 800060c:	9200      	str	r2, [sp, #0]
 800060e:	687a      	ldr	r2, [r7, #4]
 8000610:	21c8      	movs	r1, #200	; 0xc8
 8000612:	4805      	ldr	r0, [pc, #20]	; (8000628 <ReadEncript+0x48>)
 8000614:	f001 f9ca 	bl	80019ac <HAL_I2C_Master_Receive>
	HAL_Delay(5);
 8000618:	2005      	movs	r0, #5
 800061a:	f000 fc59 	bl	8000ed0 <HAL_Delay>
}
 800061e:	bf00      	nop
 8000620:	3710      	adds	r7, #16
 8000622:	46bd      	mov	sp, r7
 8000624:	bd80      	pop	{r7, pc}
 8000626:	bf00      	nop
 8000628:	20000028 	.word	0x20000028

0800062c <main>:
/**
  * @brief  The application entry point.
  * @retval int
  */
int main(void)
{
 800062c:	b5b0      	push	{r4, r5, r7, lr}
 800062e:	f5ad 7d1e 	sub.w	sp, sp, #632	; 0x278
 8000632:	af02      	add	r7, sp, #8

  /* MCU Configuration--------------------------------------------------------*/

  /* Reset of all peripherals, Initializes the Flash interface and the Systick. */

	HAL_Init();
 8000634:	f000 fbea 	bl	8000e0c <HAL_Init>
  /* USER CODE BEGIN Init */

  /* USER CODE END Init */

  /* Configure the system clock */
  SystemClock_Config();
 8000638:	f000 f9e4 	bl	8000a04 <SystemClock_Config>
  /* USER CODE BEGIN SysInit */

  /* USER CODE END SysInit */

  /* Initialize all configured peripherals */
  MX_GPIO_Init();
 800063c:	f000 fa82 	bl	8000b44 <MX_GPIO_Init>
  MX_USART1_Init();
 8000640:	f000 fa54 	bl	8000aec <MX_USART1_Init>
  MX_I2C2_Init();
 8000644:	f000 fa24 	bl	8000a90 <MX_I2C2_Init>
  /* USER CODE BEGIN 2 */

  // read configuration zone: {COMMAND, COUNT, OPCODE, ZONE, ADDRESS_1, ADDRESS_2, CRC_LSB, CRC_MSB}
  uint8_t readCommand0[8] = {0x03, 0x07, 0x02, 0x80, 0x00, 0x00, 0x09, 0xAD};
 8000648:	4ae1      	ldr	r2, [pc, #900]	; (80009d0 <main+0x3a4>)
 800064a:	f507 731a 	add.w	r3, r7, #616	; 0x268
 800064e:	e892 0003 	ldmia.w	r2, {r0, r1}
 8000652:	e883 0003 	stmia.w	r3, {r0, r1}
  uint8_t readCommand1[8] = {0x03, 0x07, 0x02, 0x80, 0x08, 0x00, 0x0a, 0x4d};
 8000656:	4adf      	ldr	r2, [pc, #892]	; (80009d4 <main+0x3a8>)
 8000658:	f507 7318 	add.w	r3, r7, #608	; 0x260
 800065c:	e892 0003 	ldmia.w	r2, {r0, r1}
 8000660:	e883 0003 	stmia.w	r3, {r0, r1}
  uint8_t readCommand2[8] = {0x03, 0x07, 0x02, 0x00, 0x10, 0x00, 0x1d, 0x9d};
 8000664:	4adc      	ldr	r2, [pc, #880]	; (80009d8 <main+0x3ac>)
 8000666:	f507 7316 	add.w	r3, r7, #600	; 0x258
 800066a:	e892 0003 	ldmia.w	r2, {r0, r1}
 800066e:	e883 0003 	stmia.w	r3, {r0, r1}
  uint8_t readCommand3[8] = {0x03, 0x07, 0x02, 0x00, 0x11, 0x00, 0x14, 0x1d};
 8000672:	4ada      	ldr	r2, [pc, #872]	; (80009dc <main+0x3b0>)
 8000674:	f507 7314 	add.w	r3, r7, #592	; 0x250
 8000678:	e892 0003 	ldmia.w	r2, {r0, r1}
 800067c:	e883 0003 	stmia.w	r3, {r0, r1}
  uint8_t readCommand4[8] = {0x03, 0x07, 0x02, 0x00, 0x12, 0x00, 0x1b, 0x1d};
 8000680:	4ad7      	ldr	r2, [pc, #860]	; (80009e0 <main+0x3b4>)
 8000682:	f507 7312 	add.w	r3, r7, #584	; 0x248
 8000686:	e892 0003 	ldmia.w	r2, {r0, r1}
 800068a:	e883 0003 	stmia.w	r3, {r0, r1}
  uint8_t readCommand5[8] = {0x03, 0x07, 0x02, 0x00, 0x13, 0x00, 0x12, 0x9d};
 800068e:	4ad5      	ldr	r2, [pc, #852]	; (80009e4 <main+0x3b8>)
 8000690:	f507 7310 	add.w	r3, r7, #576	; 0x240
 8000694:	e892 0003 	ldmia.w	r2, {r0, r1}
 8000698:	e883 0003 	stmia.w	r3, {r0, r1}
  uint8_t readCommand6[8] = {0x03, 0x07, 0x02, 0x00, 0x14, 0x00, 0x1e, 0xdd};
 800069c:	4ad2      	ldr	r2, [pc, #840]	; (80009e8 <main+0x3bc>)
 800069e:	f507 730e 	add.w	r3, r7, #568	; 0x238
 80006a2:	e892 0003 	ldmia.w	r2, {r0, r1}
 80006a6:	e883 0003 	stmia.w	r3, {r0, r1}
  uint8_t readCommand7[8] = {0x03, 0x07, 0x02, 0x00, 0x15, 0x00, 0x17, 0x5d};
 80006aa:	4ad0      	ldr	r2, [pc, #832]	; (80009ec <main+0x3c0>)
 80006ac:	f507 730c 	add.w	r3, r7, #560	; 0x230
 80006b0:	e892 0003 	ldmia.w	r2, {r0, r1}
 80006b4:	e883 0003 	stmia.w	r3, {r0, r1}

  uint8_t readMASTERKEY[8] = {0x03, 0x07, 0x02, 0x82, 0x70, 0x00, 0x09, 0x8c};
 80006b8:	4acd      	ldr	r2, [pc, #820]	; (80009f0 <main+0x3c4>)
 80006ba:	f507 730a 	add.w	r3, r7, #552	; 0x228
 80006be:	e892 0003 	ldmia.w	r2, {r0, r1}
 80006c2:	e883 0003 	stmia.w	r3, {r0, r1}
  uint8_t readDATA2[8] = {0x03, 0x07, 0x02, 0x82, 0x50, 0x00, 0x0a, 0x14};
 80006c6:	4acb      	ldr	r2, [pc, #812]	; (80009f4 <main+0x3c8>)
 80006c8:	f507 7308 	add.w	r3, r7, #544	; 0x220
 80006cc:	e892 0003 	ldmia.w	r2, {r0, r1}
 80006d0:	e883 0003 	stmia.w	r3, {r0, r1}

  uint8_t WritePwd2[8] =  {0x03, 0x07, 0x02, 0x82, 0x48, 0x00, 0x0a, 0x44};
 80006d4:	4ac8      	ldr	r2, [pc, #800]	; (80009f8 <main+0x3cc>)
 80006d6:	f507 7306 	add.w	r3, r7, #536	; 0x218
 80006da:	e892 0003 	ldmia.w	r2, {r0, r1}
 80006de:	e883 0003 	stmia.w	r3, {r0, r1}
  uint8_t PASSWORD1[8] = {0x03, 0x07, 0x02,  0x82, 0x20, 0x00, 0x09, 0xb0};
 80006e2:	4ac6      	ldr	r2, [pc, #792]	; (80009fc <main+0x3d0>)
 80006e4:	f507 7304 	add.w	r3, r7, #528	; 0x210
 80006e8:	e892 0003 	ldmia.w	r2, {r0, r1}
 80006ec:	e883 0003 	stmia.w	r3, {r0, r1}

  uint8_t temp_nonce[] = {};

  uint8_t receiv_MASTERKEY[35] = {0};
 80006f0:	2300      	movs	r3, #0
 80006f2:	f8c7 31ec 	str.w	r3, [r7, #492]	; 0x1ec
 80006f6:	f507 73f8 	add.w	r3, r7, #496	; 0x1f0
 80006fa:	221f      	movs	r2, #31
 80006fc:	2100      	movs	r1, #0
 80006fe:	4618      	mov	r0, r3
 8000700:	f002 ff70 	bl	80035e4 <memset>


  // NONCE
  uint8_t NumIn[20] = { 0x00, 0x01, 0x02, 0x03, 0x04, 0x05, 0x06, 0x07, 0x08, 0x09,
 8000704:	4bbe      	ldr	r3, [pc, #760]	; (8000a00 <main+0x3d4>)
 8000706:	f507 74ec 	add.w	r4, r7, #472	; 0x1d8
 800070a:	461d      	mov	r5, r3
 800070c:	cd0f      	ldmia	r5!, {r0, r1, r2, r3}
 800070e:	c40f      	stmia	r4!, {r0, r1, r2, r3}
 8000710:	682b      	ldr	r3, [r5, #0]
 8000712:	6023      	str	r3, [r4, #0]
		  	  	  	  	  	  	  	  	  0x00, 0x01, 0x02, 0x03, 0x04, 0x05, 0x06, 0x07, 0x08, 0x09};
										 // 0x00, 0x01, 0x02, 0x03, 0x04, 0x05, 0x06, 0x07, 0x08, 0x09,
										//  0x00, 0x01};

  uint8_t nonce_receiv[35] = {0};
 8000714:	2300      	movs	r3, #0
 8000716:	f8c7 31b4 	str.w	r3, [r7, #436]	; 0x1b4
 800071a:	f507 73dc 	add.w	r3, r7, #440	; 0x1b8
 800071e:	221f      	movs	r2, #31
 8000720:	2100      	movs	r1, #0
 8000722:	4618      	mov	r0, r3
 8000724:	f002 ff5e 	bl	80035e4 <memset>
  uint8_t tempnonce[35] = {0};
 8000728:	2300      	movs	r3, #0
 800072a:	f8c7 3190 	str.w	r3, [r7, #400]	; 0x190
 800072e:	f507 73ca 	add.w	r3, r7, #404	; 0x194
 8000732:	221f      	movs	r2, #31
 8000734:	2100      	movs	r1, #0
 8000736:	4618      	mov	r0, r3
 8000738:	f002 ff54 	bl	80035e4 <memset>


  // SHA-256
  uint8_t sha_init[1] = {0};
 800073c:	2300      	movs	r3, #0
 800073e:	f887 318c 	strb.w	r3, [r7, #396]	; 0x18c
  uint8_t SHA_receiv[35] = {0};
 8000742:	f507 731c 	add.w	r3, r7, #624	; 0x270
 8000746:	f5a3 7384 	sub.w	r3, r3, #264	; 0x108
 800074a:	2200      	movs	r2, #0
 800074c:	601a      	str	r2, [r3, #0]
 800074e:	3304      	adds	r3, #4
 8000750:	221f      	movs	r2, #31
 8000752:	2100      	movs	r1, #0
 8000754:	4618      	mov	r0, r3
 8000756:	f002 ff45 	bl	80035e4 <memset>

  // GENDIG
  uint8_t gendig_receiv[4] = {0};
 800075a:	f507 731c 	add.w	r3, r7, #624	; 0x270
 800075e:	f5a3 7386 	sub.w	r3, r3, #268	; 0x10c
 8000762:	2200      	movs	r2, #0
 8000764:	601a      	str	r2, [r3, #0]


  //MAC
  uint8_t MAC_receiv[35] = {0};
 8000766:	f507 731c 	add.w	r3, r7, #624	; 0x270
 800076a:	f5a3 7398 	sub.w	r3, r3, #304	; 0x130
 800076e:	2200      	movs	r2, #0
 8000770:	601a      	str	r2, [r3, #0]
 8000772:	3304      	adds	r3, #4
 8000774:	221f      	movs	r2, #31
 8000776:	2100      	movs	r1, #0
 8000778:	4618      	mov	r0, r3
 800077a:	f002 ff33 	bl	80035e4 <memset>
  uint8_t CheckMAC_receiv[4] = {0};
 800077e:	f507 731c 	add.w	r3, r7, #624	; 0x270
 8000782:	f5a3 739a 	sub.w	r3, r3, #308	; 0x134
 8000786:	2200      	movs	r2, #0
 8000788:	601a      	str	r2, [r3, #0]
  uint8_t dado[32] = {0};
 800078a:	f507 731c 	add.w	r3, r7, #624	; 0x270
 800078e:	f5a3 73aa 	sub.w	r3, r3, #340	; 0x154
 8000792:	2200      	movs	r2, #0
 8000794:	601a      	str	r2, [r3, #0]
 8000796:	3304      	adds	r3, #4
 8000798:	2200      	movs	r2, #0
 800079a:	601a      	str	r2, [r3, #0]
 800079c:	605a      	str	r2, [r3, #4]
 800079e:	609a      	str	r2, [r3, #8]
 80007a0:	60da      	str	r2, [r3, #12]
 80007a2:	611a      	str	r2, [r3, #16]
 80007a4:	615a      	str	r2, [r3, #20]
 80007a6:	619a      	str	r2, [r3, #24]

  uint8_t receiv_DATA2[35] = {0};
 80007a8:	f507 731c 	add.w	r3, r7, #624	; 0x270
 80007ac:	f5a3 73bc 	sub.w	r3, r3, #376	; 0x178
 80007b0:	2200      	movs	r2, #0
 80007b2:	601a      	str	r2, [r3, #0]
 80007b4:	3304      	adds	r3, #4
 80007b6:	221f      	movs	r2, #31
 80007b8:	2100      	movs	r1, #0
 80007ba:	4618      	mov	r0, r3
 80007bc:	f002 ff12 	bl	80035e4 <memset>
  uint8_t receiv_DATA0[35] = {0};
 80007c0:	f507 731c 	add.w	r3, r7, #624	; 0x270
 80007c4:	f5a3 73ce 	sub.w	r3, r3, #412	; 0x19c
 80007c8:	2200      	movs	r2, #0
 80007ca:	601a      	str	r2, [r3, #0]
 80007cc:	3304      	adds	r3, #4
 80007ce:	221f      	movs	r2, #31
 80007d0:	2100      	movs	r1, #0
 80007d2:	4618      	mov	r0, r3
 80007d4:	f002 ff06 	bl	80035e4 <memset>
  uint8_t receiv_WritePwd2[35] = {0};
 80007d8:	f507 731c 	add.w	r3, r7, #624	; 0x270
 80007dc:	f5a3 73e0 	sub.w	r3, r3, #448	; 0x1c0
 80007e0:	2200      	movs	r2, #0
 80007e2:	601a      	str	r2, [r3, #0]
 80007e4:	3304      	adds	r3, #4
 80007e6:	221f      	movs	r2, #31
 80007e8:	2100      	movs	r1, #0
 80007ea:	4618      	mov	r0, r3
 80007ec:	f002 fefa 	bl	80035e4 <memset>
  uint8_t  receiv_PASSWORD1[35] = {0};
 80007f0:	f507 731c 	add.w	r3, r7, #624	; 0x270
 80007f4:	f5a3 73f2 	sub.w	r3, r3, #484	; 0x1e4
 80007f8:	2200      	movs	r2, #0
 80007fa:	601a      	str	r2, [r3, #0]
 80007fc:	3304      	adds	r3, #4
 80007fe:	221f      	movs	r2, #31
 8000800:	2100      	movs	r1, #0
 8000802:	4618      	mov	r0, r3
 8000804:	f002 feee 	bl	80035e4 <memset>

  uint8_t read_byte[4];
  uint8_t receiv_ack[4] = {0};
 8000808:	f507 731c 	add.w	r3, r7, #624	; 0x270
 800080c:	f5a3 73f6 	sub.w	r3, r3, #492	; 0x1ec
 8000810:	2200      	movs	r2, #0
 8000812:	601a      	str	r2, [r3, #0]

  //uint8_t read_config[32] = {0};
  uint8_t read_config0[35] = {0};
 8000814:	f507 731c 	add.w	r3, r7, #624	; 0x270
 8000818:	f5a3 7304 	sub.w	r3, r3, #528	; 0x210
 800081c:	2200      	movs	r2, #0
 800081e:	601a      	str	r2, [r3, #0]
 8000820:	3304      	adds	r3, #4
 8000822:	221f      	movs	r2, #31
 8000824:	2100      	movs	r1, #0
 8000826:	4618      	mov	r0, r3
 8000828:	f002 fedc 	bl	80035e4 <memset>
  uint8_t read_config1[35] = {0};
 800082c:	f507 731c 	add.w	r3, r7, #624	; 0x270
 8000830:	f5a3 730d 	sub.w	r3, r3, #564	; 0x234
 8000834:	2200      	movs	r2, #0
 8000836:	601a      	str	r2, [r3, #0]
 8000838:	3304      	adds	r3, #4
 800083a:	221f      	movs	r2, #31
 800083c:	2100      	movs	r1, #0
 800083e:	4618      	mov	r0, r3
 8000840:	f002 fed0 	bl	80035e4 <memset>
  uint8_t read_config2[7] = {0};
 8000844:	f507 731c 	add.w	r3, r7, #624	; 0x270
 8000848:	f5a3 730f 	sub.w	r3, r3, #572	; 0x23c
 800084c:	2200      	movs	r2, #0
 800084e:	601a      	str	r2, [r3, #0]
 8000850:	3304      	adds	r3, #4
 8000852:	2100      	movs	r1, #0
 8000854:	460a      	mov	r2, r1
 8000856:	801a      	strh	r2, [r3, #0]
 8000858:	460a      	mov	r2, r1
 800085a:	709a      	strb	r2, [r3, #2]
  uint8_t read_config3[7] = {0};
 800085c:	f507 731c 	add.w	r3, r7, #624	; 0x270
 8000860:	f5a3 7311 	sub.w	r3, r3, #580	; 0x244
 8000864:	2200      	movs	r2, #0
 8000866:	601a      	str	r2, [r3, #0]
 8000868:	3304      	adds	r3, #4
 800086a:	2100      	movs	r1, #0
 800086c:	460a      	mov	r2, r1
 800086e:	801a      	strh	r2, [r3, #0]
 8000870:	460a      	mov	r2, r1
 8000872:	709a      	strb	r2, [r3, #2]
  uint8_t read_config4[7] = {0};
 8000874:	f507 731c 	add.w	r3, r7, #624	; 0x270
 8000878:	f5a3 7313 	sub.w	r3, r3, #588	; 0x24c
 800087c:	2200      	movs	r2, #0
 800087e:	601a      	str	r2, [r3, #0]
 8000880:	3304      	adds	r3, #4
 8000882:	2100      	movs	r1, #0
 8000884:	460a      	mov	r2, r1
 8000886:	801a      	strh	r2, [r3, #0]
 8000888:	460a      	mov	r2, r1
 800088a:	709a      	strb	r2, [r3, #2]
  uint8_t read_config5[7] = {0};
 800088c:	f507 731c 	add.w	r3, r7, #624	; 0x270
 8000890:	f5a3 7315 	sub.w	r3, r3, #596	; 0x254
 8000894:	2200      	movs	r2, #0
 8000896:	601a      	str	r2, [r3, #0]
 8000898:	3304      	adds	r3, #4
 800089a:	2100      	movs	r1, #0
 800089c:	460a      	mov	r2, r1
 800089e:	801a      	strh	r2, [r3, #0]
 80008a0:	460a      	mov	r2, r1
 80008a2:	709a      	strb	r2, [r3, #2]
  uint8_t read_config6[7] = {0};
 80008a4:	f507 731c 	add.w	r3, r7, #624	; 0x270
 80008a8:	f5a3 7317 	sub.w	r3, r3, #604	; 0x25c
 80008ac:	2200      	movs	r2, #0
 80008ae:	601a      	str	r2, [r3, #0]
 80008b0:	3304      	adds	r3, #4
 80008b2:	2100      	movs	r1, #0
 80008b4:	460a      	mov	r2, r1
 80008b6:	801a      	strh	r2, [r3, #0]
 80008b8:	460a      	mov	r2, r1
 80008ba:	709a      	strb	r2, [r3, #2]
  uint8_t read_config7[7] = {0};
 80008bc:	f507 731c 	add.w	r3, r7, #624	; 0x270
 80008c0:	f5a3 7319 	sub.w	r3, r3, #612	; 0x264
 80008c4:	2200      	movs	r2, #0
 80008c6:	601a      	str	r2, [r3, #0]
 80008c8:	3304      	adds	r3, #4
 80008ca:	2100      	movs	r1, #0
 80008cc:	460a      	mov	r2, r1
 80008ce:	801a      	strh	r2, [r3, #0]
 80008d0:	460a      	mov	r2, r1
 80008d2:	709a      	strb	r2, [r3, #2]
  uint8_t read_config8[7] = {0};
 80008d4:	f507 731c 	add.w	r3, r7, #624	; 0x270
 80008d8:	f5a3 731b 	sub.w	r3, r3, #620	; 0x26c
 80008dc:	2200      	movs	r2, #0
 80008de:	601a      	str	r2, [r3, #0]
 80008e0:	3304      	adds	r3, #4
 80008e2:	2100      	movs	r1, #0
 80008e4:	460a      	mov	r2, r1
 80008e6:	801a      	strh	r2, [r3, #0]
 80008e8:	460a      	mov	r2, r1
 80008ea:	709a      	strb	r2, [r3, #2]

  /* Infinite loop */
  /* USER CODE BEGIN WHILE */
  while (1)
  {
	  WakeUp(read_byte);
 80008ec:	f107 0388 	add.w	r3, r7, #136	; 0x88
 80008f0:	4618      	mov	r0, r3
 80008f2:	f7ff fc77 	bl	80001e4 <WakeUp>
	 //BlockConfigZone(receiv_ack);
	 // WriteDataZone();
	 // WriteOTPZone();
	 //BlockDataZone();

	  ReadConfig(readCommand0, 35, read_config0);
 80008f6:	f107 0260 	add.w	r2, r7, #96	; 0x60
 80008fa:	f507 731a 	add.w	r3, r7, #616	; 0x268
 80008fe:	2123      	movs	r1, #35	; 0x23
 8000900:	4618      	mov	r0, r3
 8000902:	f7ff fcaf 	bl	8000264 <ReadConfig>
	  ReadConfig(readCommand1, 35, read_config1);
 8000906:	f107 023c 	add.w	r2, r7, #60	; 0x3c
 800090a:	f507 7318 	add.w	r3, r7, #608	; 0x260
 800090e:	2123      	movs	r1, #35	; 0x23
 8000910:	4618      	mov	r0, r3
 8000912:	f7ff fca7 	bl	8000264 <ReadConfig>
	  ReadConfig(readCommand2, 7, read_config2);
 8000916:	f107 0234 	add.w	r2, r7, #52	; 0x34
 800091a:	f507 7316 	add.w	r3, r7, #600	; 0x258
 800091e:	2107      	movs	r1, #7
 8000920:	4618      	mov	r0, r3
 8000922:	f7ff fc9f 	bl	8000264 <ReadConfig>
	  ReadConfig(readCommand3, 7, read_config3);
 8000926:	f107 022c 	add.w	r2, r7, #44	; 0x2c
 800092a:	f507 7314 	add.w	r3, r7, #592	; 0x250
 800092e:	2107      	movs	r1, #7
 8000930:	4618      	mov	r0, r3
 8000932:	f7ff fc97 	bl	8000264 <ReadConfig>
	  ReadConfig(readCommand4, 7, read_config4);
 8000936:	f107 0224 	add.w	r2, r7, #36	; 0x24
 800093a:	f507 7312 	add.w	r3, r7, #584	; 0x248
 800093e:	2107      	movs	r1, #7
 8000940:	4618      	mov	r0, r3
 8000942:	f7ff fc8f 	bl	8000264 <ReadConfig>
	  ReadConfig(readCommand5, 7, read_config5);
 8000946:	f107 021c 	add.w	r2, r7, #28
 800094a:	f507 7310 	add.w	r3, r7, #576	; 0x240
 800094e:	2107      	movs	r1, #7
 8000950:	4618      	mov	r0, r3
 8000952:	f7ff fc87 	bl	8000264 <ReadConfig>
	  ReadConfig(readCommand6, 7, read_config6);
 8000956:	f107 0214 	add.w	r2, r7, #20
 800095a:	f507 730e 	add.w	r3, r7, #568	; 0x238
 800095e:	2107      	movs	r1, #7
 8000960:	4618      	mov	r0, r3
 8000962:	f7ff fc7f 	bl	8000264 <ReadConfig>
	  ReadConfig(readCommand7, 7, read_config7);
 8000966:	f107 020c 	add.w	r2, r7, #12
 800096a:	f507 730c 	add.w	r3, r7, #560	; 0x230
 800096e:	2107      	movs	r1, #7
 8000970:	4618      	mov	r0, r3
 8000972:	f7ff fc77 	bl	8000264 <ReadConfig>

	  CommandNonce(NumIn, 35, nonce_receiv);
 8000976:	f507 72da 	add.w	r2, r7, #436	; 0x1b4
 800097a:	f507 73ec 	add.w	r3, r7, #472	; 0x1d8
 800097e:	2123      	movs	r1, #35	; 0x23
 8000980:	4618      	mov	r0, r3
 8000982:	f7ff fc95 	bl	80002b0 <CommandNonce>
	  //TempKeyGen(nonce_receiv, NumIn, 0, 55, 35, tempnonce);
	  GendigCommand(0x01, 0x00, 4, gendig_receiv);
 8000986:	f507 73b2 	add.w	r3, r7, #356	; 0x164
 800098a:	2204      	movs	r2, #4
 800098c:	2100      	movs	r1, #0
 800098e:	2001      	movs	r0, #1
 8000990:	f7ff fce8 	bl	8000364 <GendigCommand>
	  //ReadDataZone(readMASTERKEY, 35, receiv_MASTERKEY);
	  //SHACommandInit(1, sha_init);
	  //SHACommandCompute(35, SHA_receiv);
	 MacCommand(0x04, 0x00, 35, MAC_receiv);
 8000994:	f507 73a0 	add.w	r3, r7, #320	; 0x140
 8000998:	2223      	movs	r2, #35	; 0x23
 800099a:	2100      	movs	r1, #0
 800099c:	2004      	movs	r0, #4
 800099e:	f7ff fd23 	bl	80003e8 <MacCommand>
	  //ReadEncript(readSECRET2, 35, receiv_SECRET2);
	  CheckMacCommand(0x04, 0x00, dado, 4, CheckMAC_receiv); // slot 0x04
 80009a2:	f507 728e 	add.w	r2, r7, #284	; 0x11c
 80009a6:	f507 739e 	add.w	r3, r7, #316	; 0x13c
 80009aa:	9300      	str	r3, [sp, #0]
 80009ac:	2304      	movs	r3, #4
 80009ae:	2100      	movs	r1, #0
 80009b0:	2004      	movs	r0, #4
 80009b2:	f7ff fd5b 	bl	800046c <CheckMacCommand>
	  //ReadEncript(WritePwd2, 35, receiv_WritePwd2);
	  ReadEncript(PASSWORD1, 35, receiv_PASSWORD1);
 80009b6:	f107 028c 	add.w	r2, r7, #140	; 0x8c
 80009ba:	f507 7304 	add.w	r3, r7, #528	; 0x210
 80009be:	2123      	movs	r1, #35	; 0x23
 80009c0:	4618      	mov	r0, r3
 80009c2:	f7ff fe0d 	bl	80005e0 <ReadEncript>
	  HAL_Delay(10);
 80009c6:	200a      	movs	r0, #10
 80009c8:	f000 fa82 	bl	8000ed0 <HAL_Delay>
	  WakeUp(read_byte);
 80009cc:	e78e      	b.n	80008ec <main+0x2c0>
 80009ce:	bf00      	nop
 80009d0:	08003930 	.word	0x08003930
 80009d4:	08003938 	.word	0x08003938
 80009d8:	08003940 	.word	0x08003940
 80009dc:	08003948 	.word	0x08003948
 80009e0:	08003950 	.word	0x08003950
 80009e4:	08003958 	.word	0x08003958
 80009e8:	08003960 	.word	0x08003960
 80009ec:	08003968 	.word	0x08003968
 80009f0:	08003970 	.word	0x08003970
 80009f4:	08003978 	.word	0x08003978
 80009f8:	08003980 	.word	0x08003980
 80009fc:	08003988 	.word	0x08003988
 8000a00:	08003990 	.word	0x08003990

08000a04 <SystemClock_Config>:
/**
  * @brief System Clock Configuration
  * @retval None
  */
void SystemClock_Config(void)
{
 8000a04:	b580      	push	{r7, lr}
 8000a06:	b090      	sub	sp, #64	; 0x40
 8000a08:	af00      	add	r7, sp, #0
  RCC_OscInitTypeDef RCC_OscInitStruct = {0};
 8000a0a:	f107 0318 	add.w	r3, r7, #24
 8000a0e:	2228      	movs	r2, #40	; 0x28
 8000a10:	2100      	movs	r1, #0
 8000a12:	4618      	mov	r0, r3
 8000a14:	f002 fde6 	bl	80035e4 <memset>
  RCC_ClkInitTypeDef RCC_ClkInitStruct = {0};
 8000a18:	1d3b      	adds	r3, r7, #4
 8000a1a:	2200      	movs	r2, #0
 8000a1c:	601a      	str	r2, [r3, #0]
 8000a1e:	605a      	str	r2, [r3, #4]
 8000a20:	609a      	str	r2, [r3, #8]
 8000a22:	60da      	str	r2, [r3, #12]
 8000a24:	611a      	str	r2, [r3, #16]

  /** Initializes the RCC Oscillators according to the specified parameters
  * in the RCC_OscInitTypeDef structure.
  */
  RCC_OscInitStruct.OscillatorType = RCC_OSCILLATORTYPE_HSE;
 8000a26:	2301      	movs	r3, #1
 8000a28:	61bb      	str	r3, [r7, #24]
  RCC_OscInitStruct.HSEState = RCC_HSE_ON;
 8000a2a:	f44f 3380 	mov.w	r3, #65536	; 0x10000
 8000a2e:	61fb      	str	r3, [r7, #28]
  RCC_OscInitStruct.HSEPredivValue = RCC_HSE_PREDIV_DIV1;
 8000a30:	2300      	movs	r3, #0
 8000a32:	623b      	str	r3, [r7, #32]
  RCC_OscInitStruct.HSIState = RCC_HSI_ON;
 8000a34:	2301      	movs	r3, #1
 8000a36:	62bb      	str	r3, [r7, #40]	; 0x28
  RCC_OscInitStruct.PLL.PLLState = RCC_PLL_ON;
 8000a38:	2302      	movs	r3, #2
 8000a3a:	637b      	str	r3, [r7, #52]	; 0x34
  RCC_OscInitStruct.PLL.PLLSource = RCC_PLLSOURCE_HSE;
 8000a3c:	f44f 3380 	mov.w	r3, #65536	; 0x10000
 8000a40:	63bb      	str	r3, [r7, #56]	; 0x38
  RCC_OscInitStruct.PLL.PLLMUL = RCC_PLL_MUL9;
 8000a42:	f44f 13e0 	mov.w	r3, #1835008	; 0x1c0000
 8000a46:	63fb      	str	r3, [r7, #60]	; 0x3c
  if (HAL_RCC_OscConfig(&RCC_OscInitStruct) != HAL_OK)
 8000a48:	f107 0318 	add.w	r3, r7, #24
 8000a4c:	4618      	mov	r0, r3
 8000a4e:	f001 fd39 	bl	80024c4 <HAL_RCC_OscConfig>
 8000a52:	4603      	mov	r3, r0
 8000a54:	2b00      	cmp	r3, #0
 8000a56:	d001      	beq.n	8000a5c <SystemClock_Config+0x58>
  {
    Error_Handler();
 8000a58:	f000 f8ae 	bl	8000bb8 <Error_Handler>
  }

  /** Initializes the CPU, AHB and APB buses clocks
  */
  RCC_ClkInitStruct.ClockType = RCC_CLOCKTYPE_HCLK|RCC_CLOCKTYPE_SYSCLK
 8000a5c:	230f      	movs	r3, #15
 8000a5e:	607b      	str	r3, [r7, #4]
                              |RCC_CLOCKTYPE_PCLK1|RCC_CLOCKTYPE_PCLK2;
  RCC_ClkInitStruct.SYSCLKSource = RCC_SYSCLKSOURCE_PLLCLK;
 8000a60:	2302      	movs	r3, #2
 8000a62:	60bb      	str	r3, [r7, #8]
  RCC_ClkInitStruct.AHBCLKDivider = RCC_SYSCLK_DIV1;
 8000a64:	2300      	movs	r3, #0
 8000a66:	60fb      	str	r3, [r7, #12]
  RCC_ClkInitStruct.APB1CLKDivider = RCC_HCLK_DIV2;
 8000a68:	f44f 6380 	mov.w	r3, #1024	; 0x400
 8000a6c:	613b      	str	r3, [r7, #16]
  RCC_ClkInitStruct.APB2CLKDivider = RCC_HCLK_DIV1;
 8000a6e:	2300      	movs	r3, #0
 8000a70:	617b      	str	r3, [r7, #20]

  if (HAL_RCC_ClockConfig(&RCC_ClkInitStruct, FLASH_LATENCY_2) != HAL_OK)
 8000a72:	1d3b      	adds	r3, r7, #4
 8000a74:	2102      	movs	r1, #2
 8000a76:	4618      	mov	r0, r3
 8000a78:	f001 ffa6 	bl	80029c8 <HAL_RCC_ClockConfig>
 8000a7c:	4603      	mov	r3, r0
 8000a7e:	2b00      	cmp	r3, #0
 8000a80:	d001      	beq.n	8000a86 <SystemClock_Config+0x82>
  {
    Error_Handler();
 8000a82:	f000 f899 	bl	8000bb8 <Error_Handler>
  }
}
 8000a86:	bf00      	nop
 8000a88:	3740      	adds	r7, #64	; 0x40
 8000a8a:	46bd      	mov	sp, r7
 8000a8c:	bd80      	pop	{r7, pc}
	...

08000a90 <MX_I2C2_Init>:
  * @brief I2C2 Initialization Function
  * @param None
  * @retval None
  */
static void MX_I2C2_Init(void)
{
 8000a90:	b580      	push	{r7, lr}
 8000a92:	af00      	add	r7, sp, #0
  /* USER CODE END I2C2_Init 0 */

  /* USER CODE BEGIN I2C2_Init 1 */

  /* USER CODE END I2C2_Init 1 */
  hi2c2.Instance = I2C2;
 8000a94:	4b12      	ldr	r3, [pc, #72]	; (8000ae0 <MX_I2C2_Init+0x50>)
 8000a96:	4a13      	ldr	r2, [pc, #76]	; (8000ae4 <MX_I2C2_Init+0x54>)
 8000a98:	601a      	str	r2, [r3, #0]
  hi2c2.Init.ClockSpeed = 100000;
 8000a9a:	4b11      	ldr	r3, [pc, #68]	; (8000ae0 <MX_I2C2_Init+0x50>)
 8000a9c:	4a12      	ldr	r2, [pc, #72]	; (8000ae8 <MX_I2C2_Init+0x58>)
 8000a9e:	605a      	str	r2, [r3, #4]
  hi2c2.Init.DutyCycle = I2C_DUTYCYCLE_2;
 8000aa0:	4b0f      	ldr	r3, [pc, #60]	; (8000ae0 <MX_I2C2_Init+0x50>)
 8000aa2:	2200      	movs	r2, #0
 8000aa4:	609a      	str	r2, [r3, #8]
  hi2c2.Init.OwnAddress1 = 0;
 8000aa6:	4b0e      	ldr	r3, [pc, #56]	; (8000ae0 <MX_I2C2_Init+0x50>)
 8000aa8:	2200      	movs	r2, #0
 8000aaa:	60da      	str	r2, [r3, #12]
  hi2c2.Init.AddressingMode = I2C_ADDRESSINGMODE_7BIT;
 8000aac:	4b0c      	ldr	r3, [pc, #48]	; (8000ae0 <MX_I2C2_Init+0x50>)
 8000aae:	f44f 4280 	mov.w	r2, #16384	; 0x4000
 8000ab2:	611a      	str	r2, [r3, #16]
  hi2c2.Init.DualAddressMode = I2C_DUALADDRESS_DISABLE;
 8000ab4:	4b0a      	ldr	r3, [pc, #40]	; (8000ae0 <MX_I2C2_Init+0x50>)
 8000ab6:	2200      	movs	r2, #0
 8000ab8:	615a      	str	r2, [r3, #20]
  hi2c2.Init.OwnAddress2 = 0;
 8000aba:	4b09      	ldr	r3, [pc, #36]	; (8000ae0 <MX_I2C2_Init+0x50>)
 8000abc:	2200      	movs	r2, #0
 8000abe:	619a      	str	r2, [r3, #24]
  hi2c2.Init.GeneralCallMode = I2C_GENERALCALL_DISABLE;
 8000ac0:	4b07      	ldr	r3, [pc, #28]	; (8000ae0 <MX_I2C2_Init+0x50>)
 8000ac2:	2200      	movs	r2, #0
 8000ac4:	61da      	str	r2, [r3, #28]
  hi2c2.Init.NoStretchMode = I2C_NOSTRETCH_DISABLE;
 8000ac6:	4b06      	ldr	r3, [pc, #24]	; (8000ae0 <MX_I2C2_Init+0x50>)
 8000ac8:	2200      	movs	r2, #0
 8000aca:	621a      	str	r2, [r3, #32]
  if (HAL_I2C_Init(&hi2c2) != HAL_OK)
 8000acc:	4804      	ldr	r0, [pc, #16]	; (8000ae0 <MX_I2C2_Init+0x50>)
 8000ace:	f000 fd2b 	bl	8001528 <HAL_I2C_Init>
 8000ad2:	4603      	mov	r3, r0
 8000ad4:	2b00      	cmp	r3, #0
 8000ad6:	d001      	beq.n	8000adc <MX_I2C2_Init+0x4c>
  {
    Error_Handler();
 8000ad8:	f000 f86e 	bl	8000bb8 <Error_Handler>
  }
  /* USER CODE BEGIN I2C2_Init 2 */

  /* USER CODE END I2C2_Init 2 */

}
 8000adc:	bf00      	nop
 8000ade:	bd80      	pop	{r7, pc}
 8000ae0:	20000028 	.word	0x20000028
 8000ae4:	40005800 	.word	0x40005800
 8000ae8:	000186a0 	.word	0x000186a0

08000aec <MX_USART1_Init>:
  * @brief USART1 Initialization Function
  * @param None
  * @retval None
  */
static void MX_USART1_Init(void)
{
 8000aec:	b580      	push	{r7, lr}
 8000aee:	af00      	add	r7, sp, #0
  /* USER CODE END USART1_Init 0 */

  /* USER CODE BEGIN USART1_Init 1 */

  /* USER CODE END USART1_Init 1 */
  husart1.Instance = USART1;
 8000af0:	4b12      	ldr	r3, [pc, #72]	; (8000b3c <MX_USART1_Init+0x50>)
 8000af2:	4a13      	ldr	r2, [pc, #76]	; (8000b40 <MX_USART1_Init+0x54>)
 8000af4:	601a      	str	r2, [r3, #0]
  husart1.Init.BaudRate = 115200;
 8000af6:	4b11      	ldr	r3, [pc, #68]	; (8000b3c <MX_USART1_Init+0x50>)
 8000af8:	f44f 32e1 	mov.w	r2, #115200	; 0x1c200
 8000afc:	605a      	str	r2, [r3, #4]
  husart1.Init.WordLength = USART_WORDLENGTH_8B;
 8000afe:	4b0f      	ldr	r3, [pc, #60]	; (8000b3c <MX_USART1_Init+0x50>)
 8000b00:	2200      	movs	r2, #0
 8000b02:	609a      	str	r2, [r3, #8]
  husart1.Init.StopBits = USART_STOPBITS_1;
 8000b04:	4b0d      	ldr	r3, [pc, #52]	; (8000b3c <MX_USART1_Init+0x50>)
 8000b06:	2200      	movs	r2, #0
 8000b08:	60da      	str	r2, [r3, #12]
  husart1.Init.Parity = USART_PARITY_NONE;
 8000b0a:	4b0c      	ldr	r3, [pc, #48]	; (8000b3c <MX_USART1_Init+0x50>)
 8000b0c:	2200      	movs	r2, #0
 8000b0e:	611a      	str	r2, [r3, #16]
  husart1.Init.Mode = USART_MODE_TX_RX;
 8000b10:	4b0a      	ldr	r3, [pc, #40]	; (8000b3c <MX_USART1_Init+0x50>)
 8000b12:	220c      	movs	r2, #12
 8000b14:	615a      	str	r2, [r3, #20]
  husart1.Init.CLKPolarity = USART_POLARITY_LOW;
 8000b16:	4b09      	ldr	r3, [pc, #36]	; (8000b3c <MX_USART1_Init+0x50>)
 8000b18:	2200      	movs	r2, #0
 8000b1a:	619a      	str	r2, [r3, #24]
  husart1.Init.CLKPhase = USART_PHASE_1EDGE;
 8000b1c:	4b07      	ldr	r3, [pc, #28]	; (8000b3c <MX_USART1_Init+0x50>)
 8000b1e:	2200      	movs	r2, #0
 8000b20:	61da      	str	r2, [r3, #28]
  husart1.Init.CLKLastBit = USART_LASTBIT_DISABLE;
 8000b22:	4b06      	ldr	r3, [pc, #24]	; (8000b3c <MX_USART1_Init+0x50>)
 8000b24:	2200      	movs	r2, #0
 8000b26:	621a      	str	r2, [r3, #32]
  if (HAL_USART_Init(&husart1) != HAL_OK)
 8000b28:	4804      	ldr	r0, [pc, #16]	; (8000b3c <MX_USART1_Init+0x50>)
 8000b2a:	f002 f8e5 	bl	8002cf8 <HAL_USART_Init>
 8000b2e:	4603      	mov	r3, r0
 8000b30:	2b00      	cmp	r3, #0
 8000b32:	d001      	beq.n	8000b38 <MX_USART1_Init+0x4c>
  {
    Error_Handler();
 8000b34:	f000 f840 	bl	8000bb8 <Error_Handler>
  }
  /* USER CODE BEGIN USART1_Init 2 */

  /* USER CODE END USART1_Init 2 */

}
 8000b38:	bf00      	nop
 8000b3a:	bd80      	pop	{r7, pc}
 8000b3c:	2000007c 	.word	0x2000007c
 8000b40:	40013800 	.word	0x40013800

08000b44 <MX_GPIO_Init>:
  * @brief GPIO Initialization Function
  * @param None
  * @retval None
  */
static void MX_GPIO_Init(void)
{
 8000b44:	b480      	push	{r7}
 8000b46:	b085      	sub	sp, #20
 8000b48:	af00      	add	r7, sp, #0

  /* GPIO Ports Clock Enable */
  __HAL_RCC_GPIOC_CLK_ENABLE();
 8000b4a:	4b1a      	ldr	r3, [pc, #104]	; (8000bb4 <MX_GPIO_Init+0x70>)
 8000b4c:	699b      	ldr	r3, [r3, #24]
 8000b4e:	4a19      	ldr	r2, [pc, #100]	; (8000bb4 <MX_GPIO_Init+0x70>)
 8000b50:	f043 0310 	orr.w	r3, r3, #16
 8000b54:	6193      	str	r3, [r2, #24]
 8000b56:	4b17      	ldr	r3, [pc, #92]	; (8000bb4 <MX_GPIO_Init+0x70>)
 8000b58:	699b      	ldr	r3, [r3, #24]
 8000b5a:	f003 0310 	and.w	r3, r3, #16
 8000b5e:	60fb      	str	r3, [r7, #12]
 8000b60:	68fb      	ldr	r3, [r7, #12]
  __HAL_RCC_GPIOD_CLK_ENABLE();
 8000b62:	4b14      	ldr	r3, [pc, #80]	; (8000bb4 <MX_GPIO_Init+0x70>)
 8000b64:	699b      	ldr	r3, [r3, #24]
 8000b66:	4a13      	ldr	r2, [pc, #76]	; (8000bb4 <MX_GPIO_Init+0x70>)
 8000b68:	f043 0320 	orr.w	r3, r3, #32
 8000b6c:	6193      	str	r3, [r2, #24]
 8000b6e:	4b11      	ldr	r3, [pc, #68]	; (8000bb4 <MX_GPIO_Init+0x70>)
 8000b70:	699b      	ldr	r3, [r3, #24]
 8000b72:	f003 0320 	and.w	r3, r3, #32
 8000b76:	60bb      	str	r3, [r7, #8]
 8000b78:	68bb      	ldr	r3, [r7, #8]
  __HAL_RCC_GPIOB_CLK_ENABLE();
 8000b7a:	4b0e      	ldr	r3, [pc, #56]	; (8000bb4 <MX_GPIO_Init+0x70>)
 8000b7c:	699b      	ldr	r3, [r3, #24]
 8000b7e:	4a0d      	ldr	r2, [pc, #52]	; (8000bb4 <MX_GPIO_Init+0x70>)
 8000b80:	f043 0308 	orr.w	r3, r3, #8
 8000b84:	6193      	str	r3, [r2, #24]
 8000b86:	4b0b      	ldr	r3, [pc, #44]	; (8000bb4 <MX_GPIO_Init+0x70>)
 8000b88:	699b      	ldr	r3, [r3, #24]
 8000b8a:	f003 0308 	and.w	r3, r3, #8
 8000b8e:	607b      	str	r3, [r7, #4]
 8000b90:	687b      	ldr	r3, [r7, #4]
  __HAL_RCC_GPIOA_CLK_ENABLE();
 8000b92:	4b08      	ldr	r3, [pc, #32]	; (8000bb4 <MX_GPIO_Init+0x70>)
 8000b94:	699b      	ldr	r3, [r3, #24]
 8000b96:	4a07      	ldr	r2, [pc, #28]	; (8000bb4 <MX_GPIO_Init+0x70>)
 8000b98:	f043 0304 	orr.w	r3, r3, #4
 8000b9c:	6193      	str	r3, [r2, #24]
 8000b9e:	4b05      	ldr	r3, [pc, #20]	; (8000bb4 <MX_GPIO_Init+0x70>)
 8000ba0:	699b      	ldr	r3, [r3, #24]
 8000ba2:	f003 0304 	and.w	r3, r3, #4
 8000ba6:	603b      	str	r3, [r7, #0]
 8000ba8:	683b      	ldr	r3, [r7, #0]

}
 8000baa:	bf00      	nop
 8000bac:	3714      	adds	r7, #20
 8000bae:	46bd      	mov	sp, r7
 8000bb0:	bc80      	pop	{r7}
 8000bb2:	4770      	bx	lr
 8000bb4:	40021000 	.word	0x40021000

08000bb8 <Error_Handler>:
/**
  * @brief  This function is executed in case of error occurrence.
  * @retval None
  */
void Error_Handler(void)
{
 8000bb8:	b480      	push	{r7}
 8000bba:	af00      	add	r7, sp, #0
  \details Disables IRQ interrupts by setting the I-bit in the CPSR.
           Can only be executed in Privileged modes.
 */
__STATIC_FORCEINLINE void __disable_irq(void)
{
  __ASM volatile ("cpsid i" : : : "memory");
 8000bbc:	b672      	cpsid	i
}
 8000bbe:	bf00      	nop
  /* USER CODE BEGIN Error_Handler_Debug */
  /* User can add his own implementation to report the HAL error return state */
  __disable_irq();
  while (1)
 8000bc0:	e7fe      	b.n	8000bc0 <Error_Handler+0x8>
	...

08000bc4 <HAL_MspInit>:
/* USER CODE END 0 */
/**
  * Initializes the Global MSP.
  */
void HAL_MspInit(void)
{
 8000bc4:	b480      	push	{r7}
 8000bc6:	b085      	sub	sp, #20
 8000bc8:	af00      	add	r7, sp, #0
  /* USER CODE BEGIN MspInit 0 */

  /* USER CODE END MspInit 0 */

  __HAL_RCC_AFIO_CLK_ENABLE();
 8000bca:	4b15      	ldr	r3, [pc, #84]	; (8000c20 <HAL_MspInit+0x5c>)
 8000bcc:	699b      	ldr	r3, [r3, #24]
 8000bce:	4a14      	ldr	r2, [pc, #80]	; (8000c20 <HAL_MspInit+0x5c>)
 8000bd0:	f043 0301 	orr.w	r3, r3, #1
 8000bd4:	6193      	str	r3, [r2, #24]
 8000bd6:	4b12      	ldr	r3, [pc, #72]	; (8000c20 <HAL_MspInit+0x5c>)
 8000bd8:	699b      	ldr	r3, [r3, #24]
 8000bda:	f003 0301 	and.w	r3, r3, #1
 8000bde:	60bb      	str	r3, [r7, #8]
 8000be0:	68bb      	ldr	r3, [r7, #8]
  __HAL_RCC_PWR_CLK_ENABLE();
 8000be2:	4b0f      	ldr	r3, [pc, #60]	; (8000c20 <HAL_MspInit+0x5c>)
 8000be4:	69db      	ldr	r3, [r3, #28]
 8000be6:	4a0e      	ldr	r2, [pc, #56]	; (8000c20 <HAL_MspInit+0x5c>)
 8000be8:	f043 5380 	orr.w	r3, r3, #268435456	; 0x10000000
 8000bec:	61d3      	str	r3, [r2, #28]
 8000bee:	4b0c      	ldr	r3, [pc, #48]	; (8000c20 <HAL_MspInit+0x5c>)
 8000bf0:	69db      	ldr	r3, [r3, #28]
 8000bf2:	f003 5380 	and.w	r3, r3, #268435456	; 0x10000000
 8000bf6:	607b      	str	r3, [r7, #4]
 8000bf8:	687b      	ldr	r3, [r7, #4]

  /* System interrupt init*/

  /** NOJTAG: JTAG-DP Disabled and SW-DP Enabled
  */
  __HAL_AFIO_REMAP_SWJ_NOJTAG();
 8000bfa:	4b0a      	ldr	r3, [pc, #40]	; (8000c24 <HAL_MspInit+0x60>)
 8000bfc:	685b      	ldr	r3, [r3, #4]
 8000bfe:	60fb      	str	r3, [r7, #12]
 8000c00:	68fb      	ldr	r3, [r7, #12]
 8000c02:	f023 63e0 	bic.w	r3, r3, #117440512	; 0x7000000
 8000c06:	60fb      	str	r3, [r7, #12]
 8000c08:	68fb      	ldr	r3, [r7, #12]
 8000c0a:	f043 7300 	orr.w	r3, r3, #33554432	; 0x2000000
 8000c0e:	60fb      	str	r3, [r7, #12]
 8000c10:	4a04      	ldr	r2, [pc, #16]	; (8000c24 <HAL_MspInit+0x60>)
 8000c12:	68fb      	ldr	r3, [r7, #12]
 8000c14:	6053      	str	r3, [r2, #4]

  /* USER CODE BEGIN MspInit 1 */

  /* USER CODE END MspInit 1 */
}
 8000c16:	bf00      	nop
 8000c18:	3714      	adds	r7, #20
 8000c1a:	46bd      	mov	sp, r7
 8000c1c:	bc80      	pop	{r7}
 8000c1e:	4770      	bx	lr
 8000c20:	40021000 	.word	0x40021000
 8000c24:	40010000 	.word	0x40010000

08000c28 <HAL_I2C_MspInit>:
* This function configures the hardware resources used in this example
* @param hi2c: I2C handle pointer
* @retval None
*/
void HAL_I2C_MspInit(I2C_HandleTypeDef* hi2c)
{
 8000c28:	b580      	push	{r7, lr}
 8000c2a:	b088      	sub	sp, #32
 8000c2c:	af00      	add	r7, sp, #0
 8000c2e:	6078      	str	r0, [r7, #4]
  GPIO_InitTypeDef GPIO_InitStruct = {0};
 8000c30:	f107 0310 	add.w	r3, r7, #16
 8000c34:	2200      	movs	r2, #0
 8000c36:	601a      	str	r2, [r3, #0]
 8000c38:	605a      	str	r2, [r3, #4]
 8000c3a:	609a      	str	r2, [r3, #8]
 8000c3c:	60da      	str	r2, [r3, #12]
  if(hi2c->Instance==I2C2)
 8000c3e:	687b      	ldr	r3, [r7, #4]
 8000c40:	681b      	ldr	r3, [r3, #0]
 8000c42:	4a16      	ldr	r2, [pc, #88]	; (8000c9c <HAL_I2C_MspInit+0x74>)
 8000c44:	4293      	cmp	r3, r2
 8000c46:	d124      	bne.n	8000c92 <HAL_I2C_MspInit+0x6a>
  {
  /* USER CODE BEGIN I2C2_MspInit 0 */

  /* USER CODE END I2C2_MspInit 0 */

    __HAL_RCC_GPIOB_CLK_ENABLE();
 8000c48:	4b15      	ldr	r3, [pc, #84]	; (8000ca0 <HAL_I2C_MspInit+0x78>)
 8000c4a:	699b      	ldr	r3, [r3, #24]
 8000c4c:	4a14      	ldr	r2, [pc, #80]	; (8000ca0 <HAL_I2C_MspInit+0x78>)
 8000c4e:	f043 0308 	orr.w	r3, r3, #8
 8000c52:	6193      	str	r3, [r2, #24]
 8000c54:	4b12      	ldr	r3, [pc, #72]	; (8000ca0 <HAL_I2C_MspInit+0x78>)
 8000c56:	699b      	ldr	r3, [r3, #24]
 8000c58:	f003 0308 	and.w	r3, r3, #8
 8000c5c:	60fb      	str	r3, [r7, #12]
 8000c5e:	68fb      	ldr	r3, [r7, #12]
    /**I2C2 GPIO Configuration
    PB10     ------> I2C2_SCL
    PB11     ------> I2C2_SDA
    */
    GPIO_InitStruct.Pin = GPIO_PIN_10|GPIO_PIN_11;
 8000c60:	f44f 6340 	mov.w	r3, #3072	; 0xc00
 8000c64:	613b      	str	r3, [r7, #16]
    GPIO_InitStruct.Mode = GPIO_MODE_AF_OD;
 8000c66:	2312      	movs	r3, #18
 8000c68:	617b      	str	r3, [r7, #20]
    GPIO_InitStruct.Speed = GPIO_SPEED_FREQ_HIGH;
 8000c6a:	2303      	movs	r3, #3
 8000c6c:	61fb      	str	r3, [r7, #28]
    HAL_GPIO_Init(GPIOB, &GPIO_InitStruct);
 8000c6e:	f107 0310 	add.w	r3, r7, #16
 8000c72:	4619      	mov	r1, r3
 8000c74:	480b      	ldr	r0, [pc, #44]	; (8000ca4 <HAL_I2C_MspInit+0x7c>)
 8000c76:	f000 fad3 	bl	8001220 <HAL_GPIO_Init>

    /* Peripheral clock enable */
    __HAL_RCC_I2C2_CLK_ENABLE();
 8000c7a:	4b09      	ldr	r3, [pc, #36]	; (8000ca0 <HAL_I2C_MspInit+0x78>)
 8000c7c:	69db      	ldr	r3, [r3, #28]
 8000c7e:	4a08      	ldr	r2, [pc, #32]	; (8000ca0 <HAL_I2C_MspInit+0x78>)
 8000c80:	f443 0380 	orr.w	r3, r3, #4194304	; 0x400000
 8000c84:	61d3      	str	r3, [r2, #28]
 8000c86:	4b06      	ldr	r3, [pc, #24]	; (8000ca0 <HAL_I2C_MspInit+0x78>)
 8000c88:	69db      	ldr	r3, [r3, #28]
 8000c8a:	f403 0380 	and.w	r3, r3, #4194304	; 0x400000
 8000c8e:	60bb      	str	r3, [r7, #8]
 8000c90:	68bb      	ldr	r3, [r7, #8]
  /* USER CODE BEGIN I2C2_MspInit 1 */

  /* USER CODE END I2C2_MspInit 1 */
  }

}
 8000c92:	bf00      	nop
 8000c94:	3720      	adds	r7, #32
 8000c96:	46bd      	mov	sp, r7
 8000c98:	bd80      	pop	{r7, pc}
 8000c9a:	bf00      	nop
 8000c9c:	40005800 	.word	0x40005800
 8000ca0:	40021000 	.word	0x40021000
 8000ca4:	40010c00 	.word	0x40010c00

08000ca8 <HAL_USART_MspInit>:
* This function configures the hardware resources used in this example
* @param husart: USART handle pointer
* @retval None
*/
void HAL_USART_MspInit(USART_HandleTypeDef* husart)
{
 8000ca8:	b580      	push	{r7, lr}
 8000caa:	b088      	sub	sp, #32
 8000cac:	af00      	add	r7, sp, #0
 8000cae:	6078      	str	r0, [r7, #4]
  GPIO_InitTypeDef GPIO_InitStruct = {0};
 8000cb0:	f107 0310 	add.w	r3, r7, #16
 8000cb4:	2200      	movs	r2, #0
 8000cb6:	601a      	str	r2, [r3, #0]
 8000cb8:	605a      	str	r2, [r3, #4]
 8000cba:	609a      	str	r2, [r3, #8]
 8000cbc:	60da      	str	r2, [r3, #12]
  if(husart->Instance==USART1)
 8000cbe:	687b      	ldr	r3, [r7, #4]
 8000cc0:	681b      	ldr	r3, [r3, #0]
 8000cc2:	4a20      	ldr	r2, [pc, #128]	; (8000d44 <HAL_USART_MspInit+0x9c>)
 8000cc4:	4293      	cmp	r3, r2
 8000cc6:	d139      	bne.n	8000d3c <HAL_USART_MspInit+0x94>
  {
  /* USER CODE BEGIN USART1_MspInit 0 */

  /* USER CODE END USART1_MspInit 0 */
    /* Peripheral clock enable */
    __HAL_RCC_USART1_CLK_ENABLE();
 8000cc8:	4b1f      	ldr	r3, [pc, #124]	; (8000d48 <HAL_USART_MspInit+0xa0>)
 8000cca:	699b      	ldr	r3, [r3, #24]
 8000ccc:	4a1e      	ldr	r2, [pc, #120]	; (8000d48 <HAL_USART_MspInit+0xa0>)
 8000cce:	f443 4380 	orr.w	r3, r3, #16384	; 0x4000
 8000cd2:	6193      	str	r3, [r2, #24]
 8000cd4:	4b1c      	ldr	r3, [pc, #112]	; (8000d48 <HAL_USART_MspInit+0xa0>)
 8000cd6:	699b      	ldr	r3, [r3, #24]
 8000cd8:	f403 4380 	and.w	r3, r3, #16384	; 0x4000
 8000cdc:	60fb      	str	r3, [r7, #12]
 8000cde:	68fb      	ldr	r3, [r7, #12]

    __HAL_RCC_GPIOA_CLK_ENABLE();
 8000ce0:	4b19      	ldr	r3, [pc, #100]	; (8000d48 <HAL_USART_MspInit+0xa0>)
 8000ce2:	699b      	ldr	r3, [r3, #24]
 8000ce4:	4a18      	ldr	r2, [pc, #96]	; (8000d48 <HAL_USART_MspInit+0xa0>)
 8000ce6:	f043 0304 	orr.w	r3, r3, #4
 8000cea:	6193      	str	r3, [r2, #24]
 8000cec:	4b16      	ldr	r3, [pc, #88]	; (8000d48 <HAL_USART_MspInit+0xa0>)
 8000cee:	699b      	ldr	r3, [r3, #24]
 8000cf0:	f003 0304 	and.w	r3, r3, #4
 8000cf4:	60bb      	str	r3, [r7, #8]
 8000cf6:	68bb      	ldr	r3, [r7, #8]
    /**USART1 GPIO Configuration
    PA8     ------> USART1_CK
    PA9     ------> USART1_TX
    PA10     ------> USART1_RX
    */
    GPIO_InitStruct.Pin = GPIO_PIN_8|GPIO_PIN_9;
 8000cf8:	f44f 7340 	mov.w	r3, #768	; 0x300
 8000cfc:	613b      	str	r3, [r7, #16]
    GPIO_InitStruct.Mode = GPIO_MODE_AF_PP;
 8000cfe:	2302      	movs	r3, #2
 8000d00:	617b      	str	r3, [r7, #20]
    GPIO_InitStruct.Speed = GPIO_SPEED_FREQ_HIGH;
 8000d02:	2303      	movs	r3, #3
 8000d04:	61fb      	str	r3, [r7, #28]
    HAL_GPIO_Init(GPIOA, &GPIO_InitStruct);
 8000d06:	f107 0310 	add.w	r3, r7, #16
 8000d0a:	4619      	mov	r1, r3
 8000d0c:	480f      	ldr	r0, [pc, #60]	; (8000d4c <HAL_USART_MspInit+0xa4>)
 8000d0e:	f000 fa87 	bl	8001220 <HAL_GPIO_Init>

    GPIO_InitStruct.Pin = GPIO_PIN_10;
 8000d12:	f44f 6380 	mov.w	r3, #1024	; 0x400
 8000d16:	613b      	str	r3, [r7, #16]
    GPIO_InitStruct.Mode = GPIO_MODE_INPUT;
 8000d18:	2300      	movs	r3, #0
 8000d1a:	617b      	str	r3, [r7, #20]
    GPIO_InitStruct.Pull = GPIO_NOPULL;
 8000d1c:	2300      	movs	r3, #0
 8000d1e:	61bb      	str	r3, [r7, #24]
    HAL_GPIO_Init(GPIOA, &GPIO_InitStruct);
 8000d20:	f107 0310 	add.w	r3, r7, #16
 8000d24:	4619      	mov	r1, r3
 8000d26:	4809      	ldr	r0, [pc, #36]	; (8000d4c <HAL_USART_MspInit+0xa4>)
 8000d28:	f000 fa7a 	bl	8001220 <HAL_GPIO_Init>

    /* USART1 interrupt Init */
    HAL_NVIC_SetPriority(USART1_IRQn, 0, 0);
 8000d2c:	2200      	movs	r2, #0
 8000d2e:	2100      	movs	r1, #0
 8000d30:	2025      	movs	r0, #37	; 0x25
 8000d32:	f000 f9c8 	bl	80010c6 <HAL_NVIC_SetPriority>
    HAL_NVIC_EnableIRQ(USART1_IRQn);
 8000d36:	2025      	movs	r0, #37	; 0x25
 8000d38:	f000 f9e1 	bl	80010fe <HAL_NVIC_EnableIRQ>
  /* USER CODE BEGIN USART1_MspInit 1 */

  /* USER CODE END USART1_MspInit 1 */
  }

}
 8000d3c:	bf00      	nop
 8000d3e:	3720      	adds	r7, #32
 8000d40:	46bd      	mov	sp, r7
 8000d42:	bd80      	pop	{r7, pc}
 8000d44:	40013800 	.word	0x40013800
 8000d48:	40021000 	.word	0x40021000
 8000d4c:	40010800 	.word	0x40010800

08000d50 <NMI_Handler>:
/******************************************************************************/
/**
  * @brief This function handles Non maskable interrupt.
  */
void NMI_Handler(void)
{
 8000d50:	b480      	push	{r7}
 8000d52:	af00      	add	r7, sp, #0
  /* USER CODE BEGIN NonMaskableInt_IRQn 0 */

  /* USER CODE END NonMaskableInt_IRQn 0 */
  /* USER CODE BEGIN NonMaskableInt_IRQn 1 */
  while (1)
 8000d54:	e7fe      	b.n	8000d54 <NMI_Handler+0x4>

08000d56 <HardFault_Handler>:

/**
  * @brief This function handles Hard fault interrupt.
  */
void HardFault_Handler(void)
{
 8000d56:	b480      	push	{r7}
 8000d58:	af00      	add	r7, sp, #0
  /* USER CODE BEGIN HardFault_IRQn 0 */

  /* USER CODE END HardFault_IRQn 0 */
  while (1)
 8000d5a:	e7fe      	b.n	8000d5a <HardFault_Handler+0x4>

08000d5c <MemManage_Handler>:

/**
  * @brief This function handles Memory management fault.
  */
void MemManage_Handler(void)
{
 8000d5c:	b480      	push	{r7}
 8000d5e:	af00      	add	r7, sp, #0
  /* USER CODE BEGIN MemoryManagement_IRQn 0 */

  /* USER CODE END MemoryManagement_IRQn 0 */
  while (1)
 8000d60:	e7fe      	b.n	8000d60 <MemManage_Handler+0x4>

08000d62 <BusFault_Handler>:

/**
  * @brief This function handles Prefetch fault, memory access fault.
  */
void BusFault_Handler(void)
{
 8000d62:	b480      	push	{r7}
 8000d64:	af00      	add	r7, sp, #0
  /* USER CODE BEGIN BusFault_IRQn 0 */

  /* USER CODE END BusFault_IRQn 0 */
  while (1)
 8000d66:	e7fe      	b.n	8000d66 <BusFault_Handler+0x4>

08000d68 <UsageFault_Handler>:

/**
  * @brief This function handles Undefined instruction or illegal state.
  */
void UsageFault_Handler(void)
{
 8000d68:	b480      	push	{r7}
 8000d6a:	af00      	add	r7, sp, #0
  /* USER CODE BEGIN UsageFault_IRQn 0 */

  /* USER CODE END UsageFault_IRQn 0 */
  while (1)
 8000d6c:	e7fe      	b.n	8000d6c <UsageFault_Handler+0x4>

08000d6e <SVC_Handler>:

/**
  * @brief This function handles System service call via SWI instruction.
  */
void SVC_Handler(void)
{
 8000d6e:	b480      	push	{r7}
 8000d70:	af00      	add	r7, sp, #0

  /* USER CODE END SVCall_IRQn 0 */
  /* USER CODE BEGIN SVCall_IRQn 1 */

  /* USER CODE END SVCall_IRQn 1 */
}
 8000d72:	bf00      	nop
 8000d74:	46bd      	mov	sp, r7
 8000d76:	bc80      	pop	{r7}
 8000d78:	4770      	bx	lr

08000d7a <DebugMon_Handler>:

/**
  * @brief This function handles Debug monitor.
  */
void DebugMon_Handler(void)
{
 8000d7a:	b480      	push	{r7}
 8000d7c:	af00      	add	r7, sp, #0

  /* USER CODE END DebugMonitor_IRQn 0 */
  /* USER CODE BEGIN DebugMonitor_IRQn 1 */

  /* USER CODE END DebugMonitor_IRQn 1 */
}
 8000d7e:	bf00      	nop
 8000d80:	46bd      	mov	sp, r7
 8000d82:	bc80      	pop	{r7}
 8000d84:	4770      	bx	lr

08000d86 <PendSV_Handler>:

/**
  * @brief This function handles Pendable request for system service.
  */
void PendSV_Handler(void)
{
 8000d86:	b480      	push	{r7}
 8000d88:	af00      	add	r7, sp, #0

  /* USER CODE END PendSV_IRQn 0 */
  /* USER CODE BEGIN PendSV_IRQn 1 */

  /* USER CODE END PendSV_IRQn 1 */
}
 8000d8a:	bf00      	nop
 8000d8c:	46bd      	mov	sp, r7
 8000d8e:	bc80      	pop	{r7}
 8000d90:	4770      	bx	lr

08000d92 <SysTick_Handler>:

/**
  * @brief This function handles System tick timer.
  */
void SysTick_Handler(void)
{
 8000d92:	b580      	push	{r7, lr}
 8000d94:	af00      	add	r7, sp, #0
  /* USER CODE BEGIN SysTick_IRQn 0 */

  /* USER CODE END SysTick_IRQn 0 */
  HAL_IncTick();
 8000d96:	f000 f87f 	bl	8000e98 <HAL_IncTick>
  /* USER CODE BEGIN SysTick_IRQn 1 */

  /* USER CODE END SysTick_IRQn 1 */
}
 8000d9a:	bf00      	nop
 8000d9c:	bd80      	pop	{r7, pc}
	...

08000da0 <USART1_IRQHandler>:

/**
  * @brief This function handles USART1 global interrupt.
  */
void USART1_IRQHandler(void)
{
 8000da0:	b580      	push	{r7, lr}
 8000da2:	af00      	add	r7, sp, #0
  /* USER CODE BEGIN USART1_IRQn 0 */

  /* USER CODE END USART1_IRQn 0 */
  HAL_USART_IRQHandler(&husart1);
 8000da4:	4802      	ldr	r0, [pc, #8]	; (8000db0 <USART1_IRQHandler+0x10>)
 8000da6:	f001 ffe9 	bl	8002d7c <HAL_USART_IRQHandler>
  /* USER CODE BEGIN USART1_IRQn 1 */

  /* USER CODE END USART1_IRQn 1 */
}
 8000daa:	bf00      	nop
 8000dac:	bd80      	pop	{r7, pc}
 8000dae:	bf00      	nop
 8000db0:	2000007c 	.word	0x2000007c

08000db4 <SystemInit>:
  * @note   This function should be used only after reset.
  * @param  None
  * @retval None
  */
void SystemInit (void)
{
 8000db4:	b480      	push	{r7}
 8000db6:	af00      	add	r7, sp, #0

  /* Configure the Vector Table location -------------------------------------*/
#if defined(USER_VECT_TAB_ADDRESS)
  SCB->VTOR = VECT_TAB_BASE_ADDRESS | VECT_TAB_OFFSET; /* Vector Table Relocation in Internal SRAM. */
#endif /* USER_VECT_TAB_ADDRESS */
}
 8000db8:	bf00      	nop
 8000dba:	46bd      	mov	sp, r7
 8000dbc:	bc80      	pop	{r7}
 8000dbe:	4770      	bx	lr

08000dc0 <Reset_Handler>:
  .weak Reset_Handler
  .type Reset_Handler, %function
Reset_Handler:

/* Copy the data segment initializers from flash to SRAM */
  ldr r0, =_sdata
 8000dc0:	480c      	ldr	r0, [pc, #48]	; (8000df4 <LoopFillZerobss+0x12>)
  ldr r1, =_edata
 8000dc2:	490d      	ldr	r1, [pc, #52]	; (8000df8 <LoopFillZerobss+0x16>)
  ldr r2, =_sidata
 8000dc4:	4a0d      	ldr	r2, [pc, #52]	; (8000dfc <LoopFillZerobss+0x1a>)
  movs r3, #0
 8000dc6:	2300      	movs	r3, #0
  b LoopCopyDataInit
 8000dc8:	e002      	b.n	8000dd0 <LoopCopyDataInit>

08000dca <CopyDataInit>:

CopyDataInit:
  ldr r4, [r2, r3]
 8000dca:	58d4      	ldr	r4, [r2, r3]
  str r4, [r0, r3]
 8000dcc:	50c4      	str	r4, [r0, r3]
  adds r3, r3, #4
 8000dce:	3304      	adds	r3, #4

08000dd0 <LoopCopyDataInit>:

LoopCopyDataInit:
  adds r4, r0, r3
 8000dd0:	18c4      	adds	r4, r0, r3
  cmp r4, r1
 8000dd2:	428c      	cmp	r4, r1
  bcc CopyDataInit
 8000dd4:	d3f9      	bcc.n	8000dca <CopyDataInit>
  
/* Zero fill the bss segment. */
  ldr r2, =_sbss
 8000dd6:	4a0a      	ldr	r2, [pc, #40]	; (8000e00 <LoopFillZerobss+0x1e>)
  ldr r4, =_ebss
 8000dd8:	4c0a      	ldr	r4, [pc, #40]	; (8000e04 <LoopFillZerobss+0x22>)
  movs r3, #0
 8000dda:	2300      	movs	r3, #0
  b LoopFillZerobss
 8000ddc:	e001      	b.n	8000de2 <LoopFillZerobss>

08000dde <FillZerobss>:

FillZerobss:
  str  r3, [r2]
 8000dde:	6013      	str	r3, [r2, #0]
  adds r2, r2, #4
 8000de0:	3204      	adds	r2, #4

08000de2 <LoopFillZerobss>:

LoopFillZerobss:
  cmp r2, r4
 8000de2:	42a2      	cmp	r2, r4
  bcc FillZerobss
 8000de4:	d3fb      	bcc.n	8000dde <FillZerobss>

/* Call the clock system intitialization function.*/
    bl  SystemInit
 8000de6:	f7ff ffe5 	bl	8000db4 <SystemInit>
/* Call static constructors */
    bl __libc_init_array
 8000dea:	f002 fc03 	bl	80035f4 <__libc_init_array>
/* Call the application's entry point.*/
  bl main
 8000dee:	f7ff fc1d 	bl	800062c <main>
  bx lr
 8000df2:	4770      	bx	lr
  ldr r0, =_sdata
 8000df4:	20000000 	.word	0x20000000
  ldr r1, =_edata
 8000df8:	2000000c 	.word	0x2000000c
  ldr r2, =_sidata
 8000dfc:	080039d4 	.word	0x080039d4
  ldr r2, =_sbss
 8000e00:	2000000c 	.word	0x2000000c
  ldr r4, =_ebss
 8000e04:	200000c4 	.word	0x200000c4

08000e08 <ADC1_2_IRQHandler>:
 * @retval : None
*/
    .section .text.Default_Handler,"ax",%progbits
Default_Handler:
Infinite_Loop:
  b Infinite_Loop
 8000e08:	e7fe      	b.n	8000e08 <ADC1_2_IRQHandler>
	...

08000e0c <HAL_Init>:
  *         need to ensure that the SysTick time base is always set to 1 millisecond
  *         to have correct HAL operation.
  * @retval HAL status
  */
HAL_StatusTypeDef HAL_Init(void)
{
 8000e0c:	b580      	push	{r7, lr}
 8000e0e:	af00      	add	r7, sp, #0
    defined(STM32F102x6) || defined(STM32F102xB) || \
    defined(STM32F103x6) || defined(STM32F103xB) || defined(STM32F103xE) || defined(STM32F103xG) || \
    defined(STM32F105xC) || defined(STM32F107xC)

  /* Prefetch buffer is not available on value line devices */
  __HAL_FLASH_PREFETCH_BUFFER_ENABLE();
 8000e10:	4b08      	ldr	r3, [pc, #32]	; (8000e34 <HAL_Init+0x28>)
 8000e12:	681b      	ldr	r3, [r3, #0]
 8000e14:	4a07      	ldr	r2, [pc, #28]	; (8000e34 <HAL_Init+0x28>)
 8000e16:	f043 0310 	orr.w	r3, r3, #16
 8000e1a:	6013      	str	r3, [r2, #0]
#endif
#endif /* PREFETCH_ENABLE */

  /* Set Interrupt Group Priority */
  HAL_NVIC_SetPriorityGrouping(NVIC_PRIORITYGROUP_4);
 8000e1c:	2003      	movs	r0, #3
 8000e1e:	f000 f947 	bl	80010b0 <HAL_NVIC_SetPriorityGrouping>

  /* Use systick as time base source and configure 1ms tick (default clock after Reset is HSI) */
  HAL_InitTick(TICK_INT_PRIORITY);
 8000e22:	200f      	movs	r0, #15
 8000e24:	f000 f808 	bl	8000e38 <HAL_InitTick>

  /* Init the low level hardware */
  HAL_MspInit();
 8000e28:	f7ff fecc 	bl	8000bc4 <HAL_MspInit>

  /* Return function status */
  return HAL_OK;
 8000e2c:	2300      	movs	r3, #0
}
 8000e2e:	4618      	mov	r0, r3
 8000e30:	bd80      	pop	{r7, pc}
 8000e32:	bf00      	nop
 8000e34:	40022000 	.word	0x40022000

08000e38 <HAL_InitTick>:
  *       implementation  in user file.
  * @param TickPriority Tick interrupt priority.
  * @retval HAL status
  */
__weak HAL_StatusTypeDef HAL_InitTick(uint32_t TickPriority)
{
 8000e38:	b580      	push	{r7, lr}
 8000e3a:	b082      	sub	sp, #8
 8000e3c:	af00      	add	r7, sp, #0
 8000e3e:	6078      	str	r0, [r7, #4]
  /* Configure the SysTick to have interrupt in 1ms time basis*/
  if (HAL_SYSTICK_Config(SystemCoreClock / (1000U / uwTickFreq)) > 0U)
 8000e40:	4b12      	ldr	r3, [pc, #72]	; (8000e8c <HAL_InitTick+0x54>)
 8000e42:	681a      	ldr	r2, [r3, #0]
 8000e44:	4b12      	ldr	r3, [pc, #72]	; (8000e90 <HAL_InitTick+0x58>)
 8000e46:	781b      	ldrb	r3, [r3, #0]
 8000e48:	4619      	mov	r1, r3
 8000e4a:	f44f 737a 	mov.w	r3, #1000	; 0x3e8
 8000e4e:	fbb3 f3f1 	udiv	r3, r3, r1
 8000e52:	fbb2 f3f3 	udiv	r3, r2, r3
 8000e56:	4618      	mov	r0, r3
 8000e58:	f000 f95f 	bl	800111a <HAL_SYSTICK_Config>
 8000e5c:	4603      	mov	r3, r0
 8000e5e:	2b00      	cmp	r3, #0
 8000e60:	d001      	beq.n	8000e66 <HAL_InitTick+0x2e>
  {
    return HAL_ERROR;
 8000e62:	2301      	movs	r3, #1
 8000e64:	e00e      	b.n	8000e84 <HAL_InitTick+0x4c>
  }

  /* Configure the SysTick IRQ priority */
  if (TickPriority < (1UL << __NVIC_PRIO_BITS))
 8000e66:	687b      	ldr	r3, [r7, #4]
 8000e68:	2b0f      	cmp	r3, #15
 8000e6a:	d80a      	bhi.n	8000e82 <HAL_InitTick+0x4a>
  {
    HAL_NVIC_SetPriority(SysTick_IRQn, TickPriority, 0U);
 8000e6c:	2200      	movs	r2, #0
 8000e6e:	6879      	ldr	r1, [r7, #4]
 8000e70:	f04f 30ff 	mov.w	r0, #4294967295
 8000e74:	f000 f927 	bl	80010c6 <HAL_NVIC_SetPriority>
    uwTickPrio = TickPriority;
 8000e78:	4a06      	ldr	r2, [pc, #24]	; (8000e94 <HAL_InitTick+0x5c>)
 8000e7a:	687b      	ldr	r3, [r7, #4]
 8000e7c:	6013      	str	r3, [r2, #0]
  {
    return HAL_ERROR;
  }

  /* Return function status */
  return HAL_OK;
 8000e7e:	2300      	movs	r3, #0
 8000e80:	e000      	b.n	8000e84 <HAL_InitTick+0x4c>
    return HAL_ERROR;
 8000e82:	2301      	movs	r3, #1
}
 8000e84:	4618      	mov	r0, r3
 8000e86:	3708      	adds	r7, #8
 8000e88:	46bd      	mov	sp, r7
 8000e8a:	bd80      	pop	{r7, pc}
 8000e8c:	20000000 	.word	0x20000000
 8000e90:	20000008 	.word	0x20000008
 8000e94:	20000004 	.word	0x20000004

08000e98 <HAL_IncTick>:
  * @note This function is declared as __weak to be overwritten in case of other
  *      implementations in user file.
  * @retval None
  */
__weak void HAL_IncTick(void)
{
 8000e98:	b480      	push	{r7}
 8000e9a:	af00      	add	r7, sp, #0
  uwTick += uwTickFreq;
 8000e9c:	4b05      	ldr	r3, [pc, #20]	; (8000eb4 <HAL_IncTick+0x1c>)
 8000e9e:	781b      	ldrb	r3, [r3, #0]
 8000ea0:	461a      	mov	r2, r3
 8000ea2:	4b05      	ldr	r3, [pc, #20]	; (8000eb8 <HAL_IncTick+0x20>)
 8000ea4:	681b      	ldr	r3, [r3, #0]
 8000ea6:	4413      	add	r3, r2
 8000ea8:	4a03      	ldr	r2, [pc, #12]	; (8000eb8 <HAL_IncTick+0x20>)
 8000eaa:	6013      	str	r3, [r2, #0]
}
 8000eac:	bf00      	nop
 8000eae:	46bd      	mov	sp, r7
 8000eb0:	bc80      	pop	{r7}
 8000eb2:	4770      	bx	lr
 8000eb4:	20000008 	.word	0x20000008
 8000eb8:	200000c0 	.word	0x200000c0

08000ebc <HAL_GetTick>:
  * @note  This function is declared as __weak to be overwritten in case of other
  *       implementations in user file.
  * @retval tick value
  */
__weak uint32_t HAL_GetTick(void)
{
 8000ebc:	b480      	push	{r7}
 8000ebe:	af00      	add	r7, sp, #0
  return uwTick;
 8000ec0:	4b02      	ldr	r3, [pc, #8]	; (8000ecc <HAL_GetTick+0x10>)
 8000ec2:	681b      	ldr	r3, [r3, #0]
}
 8000ec4:	4618      	mov	r0, r3
 8000ec6:	46bd      	mov	sp, r7
 8000ec8:	bc80      	pop	{r7}
 8000eca:	4770      	bx	lr
 8000ecc:	200000c0 	.word	0x200000c0

08000ed0 <HAL_Delay>:
  *       implementations in user file.
  * @param Delay specifies the delay time length, in milliseconds.
  * @retval None
  */
__weak void HAL_Delay(uint32_t Delay)
{
 8000ed0:	b580      	push	{r7, lr}
 8000ed2:	b084      	sub	sp, #16
 8000ed4:	af00      	add	r7, sp, #0
 8000ed6:	6078      	str	r0, [r7, #4]
  uint32_t tickstart = HAL_GetTick();
 8000ed8:	f7ff fff0 	bl	8000ebc <HAL_GetTick>
 8000edc:	60b8      	str	r0, [r7, #8]
  uint32_t wait = Delay;
 8000ede:	687b      	ldr	r3, [r7, #4]
 8000ee0:	60fb      	str	r3, [r7, #12]

  /* Add a freq to guarantee minimum wait */
  if (wait < HAL_MAX_DELAY)
 8000ee2:	68fb      	ldr	r3, [r7, #12]
 8000ee4:	f1b3 3fff 	cmp.w	r3, #4294967295
 8000ee8:	d005      	beq.n	8000ef6 <HAL_Delay+0x26>
  {
    wait += (uint32_t)(uwTickFreq);
 8000eea:	4b0a      	ldr	r3, [pc, #40]	; (8000f14 <HAL_Delay+0x44>)
 8000eec:	781b      	ldrb	r3, [r3, #0]
 8000eee:	461a      	mov	r2, r3
 8000ef0:	68fb      	ldr	r3, [r7, #12]
 8000ef2:	4413      	add	r3, r2
 8000ef4:	60fb      	str	r3, [r7, #12]
  }

  while ((HAL_GetTick() - tickstart) < wait)
 8000ef6:	bf00      	nop
 8000ef8:	f7ff ffe0 	bl	8000ebc <HAL_GetTick>
 8000efc:	4602      	mov	r2, r0
 8000efe:	68bb      	ldr	r3, [r7, #8]
 8000f00:	1ad3      	subs	r3, r2, r3
 8000f02:	68fa      	ldr	r2, [r7, #12]
 8000f04:	429a      	cmp	r2, r3
 8000f06:	d8f7      	bhi.n	8000ef8 <HAL_Delay+0x28>
  {
  }
}
 8000f08:	bf00      	nop
 8000f0a:	bf00      	nop
 8000f0c:	3710      	adds	r7, #16
 8000f0e:	46bd      	mov	sp, r7
 8000f10:	bd80      	pop	{r7, pc}
 8000f12:	bf00      	nop
 8000f14:	20000008 	.word	0x20000008

08000f18 <__NVIC_SetPriorityGrouping>:
           In case of a conflict between priority grouping and available
           priority bits (__NVIC_PRIO_BITS), the smallest possible priority group is set.
  \param [in]      PriorityGroup  Priority grouping field.
 */
__STATIC_INLINE void __NVIC_SetPriorityGrouping(uint32_t PriorityGroup)
{
 8000f18:	b480      	push	{r7}
 8000f1a:	b085      	sub	sp, #20
 8000f1c:	af00      	add	r7, sp, #0
 8000f1e:	6078      	str	r0, [r7, #4]
  uint32_t reg_value;
  uint32_t PriorityGroupTmp = (PriorityGroup & (uint32_t)0x07UL);             /* only values 0..7 are used          */
 8000f20:	687b      	ldr	r3, [r7, #4]
 8000f22:	f003 0307 	and.w	r3, r3, #7
 8000f26:	60fb      	str	r3, [r7, #12]

  reg_value  =  SCB->AIRCR;                                                   /* read old register configuration    */
 8000f28:	4b0c      	ldr	r3, [pc, #48]	; (8000f5c <__NVIC_SetPriorityGrouping+0x44>)
 8000f2a:	68db      	ldr	r3, [r3, #12]
 8000f2c:	60bb      	str	r3, [r7, #8]
  reg_value &= ~((uint32_t)(SCB_AIRCR_VECTKEY_Msk | SCB_AIRCR_PRIGROUP_Msk)); /* clear bits to change               */
 8000f2e:	68ba      	ldr	r2, [r7, #8]
 8000f30:	f64f 03ff 	movw	r3, #63743	; 0xf8ff
 8000f34:	4013      	ands	r3, r2
 8000f36:	60bb      	str	r3, [r7, #8]
  reg_value  =  (reg_value                                   |
                ((uint32_t)0x5FAUL << SCB_AIRCR_VECTKEY_Pos) |
                (PriorityGroupTmp << SCB_AIRCR_PRIGROUP_Pos) );               /* Insert write key and priority group */
 8000f38:	68fb      	ldr	r3, [r7, #12]
 8000f3a:	021a      	lsls	r2, r3, #8
                ((uint32_t)0x5FAUL << SCB_AIRCR_VECTKEY_Pos) |
 8000f3c:	68bb      	ldr	r3, [r7, #8]
 8000f3e:	4313      	orrs	r3, r2
  reg_value  =  (reg_value                                   |
 8000f40:	f043 63bf 	orr.w	r3, r3, #100139008	; 0x5f80000
 8000f44:	f443 3300 	orr.w	r3, r3, #131072	; 0x20000
 8000f48:	60bb      	str	r3, [r7, #8]
  SCB->AIRCR =  reg_value;
 8000f4a:	4a04      	ldr	r2, [pc, #16]	; (8000f5c <__NVIC_SetPriorityGrouping+0x44>)
 8000f4c:	68bb      	ldr	r3, [r7, #8]
 8000f4e:	60d3      	str	r3, [r2, #12]
}
 8000f50:	bf00      	nop
 8000f52:	3714      	adds	r7, #20
 8000f54:	46bd      	mov	sp, r7
 8000f56:	bc80      	pop	{r7}
 8000f58:	4770      	bx	lr
 8000f5a:	bf00      	nop
 8000f5c:	e000ed00 	.word	0xe000ed00

08000f60 <__NVIC_GetPriorityGrouping>:
  \brief   Get Priority Grouping
  \details Reads the priority grouping field from the NVIC Interrupt Controller.
  \return                Priority grouping field (SCB->AIRCR [10:8] PRIGROUP field).
 */
__STATIC_INLINE uint32_t __NVIC_GetPriorityGrouping(void)
{
 8000f60:	b480      	push	{r7}
 8000f62:	af00      	add	r7, sp, #0
  return ((uint32_t)((SCB->AIRCR & SCB_AIRCR_PRIGROUP_Msk) >> SCB_AIRCR_PRIGROUP_Pos));
 8000f64:	4b04      	ldr	r3, [pc, #16]	; (8000f78 <__NVIC_GetPriorityGrouping+0x18>)
 8000f66:	68db      	ldr	r3, [r3, #12]
 8000f68:	0a1b      	lsrs	r3, r3, #8
 8000f6a:	f003 0307 	and.w	r3, r3, #7
}
 8000f6e:	4618      	mov	r0, r3
 8000f70:	46bd      	mov	sp, r7
 8000f72:	bc80      	pop	{r7}
 8000f74:	4770      	bx	lr
 8000f76:	bf00      	nop
 8000f78:	e000ed00 	.word	0xe000ed00

08000f7c <__NVIC_EnableIRQ>:
  \details Enables a device specific interrupt in the NVIC interrupt controller.
  \param [in]      IRQn  Device specific interrupt number.
  \note    IRQn must not be negative.
 */
__STATIC_INLINE void __NVIC_EnableIRQ(IRQn_Type IRQn)
{
 8000f7c:	b480      	push	{r7}
 8000f7e:	b083      	sub	sp, #12
 8000f80:	af00      	add	r7, sp, #0
 8000f82:	4603      	mov	r3, r0
 8000f84:	71fb      	strb	r3, [r7, #7]
  if ((int32_t)(IRQn) >= 0)
 8000f86:	f997 3007 	ldrsb.w	r3, [r7, #7]
 8000f8a:	2b00      	cmp	r3, #0
 8000f8c:	db0b      	blt.n	8000fa6 <__NVIC_EnableIRQ+0x2a>
  {
    NVIC->ISER[(((uint32_t)IRQn) >> 5UL)] = (uint32_t)(1UL << (((uint32_t)IRQn) & 0x1FUL));
 8000f8e:	79fb      	ldrb	r3, [r7, #7]
 8000f90:	f003 021f 	and.w	r2, r3, #31
 8000f94:	4906      	ldr	r1, [pc, #24]	; (8000fb0 <__NVIC_EnableIRQ+0x34>)
 8000f96:	f997 3007 	ldrsb.w	r3, [r7, #7]
 8000f9a:	095b      	lsrs	r3, r3, #5
 8000f9c:	2001      	movs	r0, #1
 8000f9e:	fa00 f202 	lsl.w	r2, r0, r2
 8000fa2:	f841 2023 	str.w	r2, [r1, r3, lsl #2]
  }
}
 8000fa6:	bf00      	nop
 8000fa8:	370c      	adds	r7, #12
 8000faa:	46bd      	mov	sp, r7
 8000fac:	bc80      	pop	{r7}
 8000fae:	4770      	bx	lr
 8000fb0:	e000e100 	.word	0xe000e100

08000fb4 <__NVIC_SetPriority>:
  \param [in]      IRQn  Interrupt number.
  \param [in]  priority  Priority to set.
  \note    The priority cannot be set for every processor exception.
 */
__STATIC_INLINE void __NVIC_SetPriority(IRQn_Type IRQn, uint32_t priority)
{
 8000fb4:	b480      	push	{r7}
 8000fb6:	b083      	sub	sp, #12
 8000fb8:	af00      	add	r7, sp, #0
 8000fba:	4603      	mov	r3, r0
 8000fbc:	6039      	str	r1, [r7, #0]
 8000fbe:	71fb      	strb	r3, [r7, #7]
  if ((int32_t)(IRQn) >= 0)
 8000fc0:	f997 3007 	ldrsb.w	r3, [r7, #7]
 8000fc4:	2b00      	cmp	r3, #0
 8000fc6:	db0a      	blt.n	8000fde <__NVIC_SetPriority+0x2a>
  {
    NVIC->IP[((uint32_t)IRQn)]               = (uint8_t)((priority << (8U - __NVIC_PRIO_BITS)) & (uint32_t)0xFFUL);
 8000fc8:	683b      	ldr	r3, [r7, #0]
 8000fca:	b2da      	uxtb	r2, r3
 8000fcc:	490c      	ldr	r1, [pc, #48]	; (8001000 <__NVIC_SetPriority+0x4c>)
 8000fce:	f997 3007 	ldrsb.w	r3, [r7, #7]
 8000fd2:	0112      	lsls	r2, r2, #4
 8000fd4:	b2d2      	uxtb	r2, r2
 8000fd6:	440b      	add	r3, r1
 8000fd8:	f883 2300 	strb.w	r2, [r3, #768]	; 0x300
  }
  else
  {
    SCB->SHP[(((uint32_t)IRQn) & 0xFUL)-4UL] = (uint8_t)((priority << (8U - __NVIC_PRIO_BITS)) & (uint32_t)0xFFUL);
  }
}
 8000fdc:	e00a      	b.n	8000ff4 <__NVIC_SetPriority+0x40>
    SCB->SHP[(((uint32_t)IRQn) & 0xFUL)-4UL] = (uint8_t)((priority << (8U - __NVIC_PRIO_BITS)) & (uint32_t)0xFFUL);
 8000fde:	683b      	ldr	r3, [r7, #0]
 8000fe0:	b2da      	uxtb	r2, r3
 8000fe2:	4908      	ldr	r1, [pc, #32]	; (8001004 <__NVIC_SetPriority+0x50>)
 8000fe4:	79fb      	ldrb	r3, [r7, #7]
 8000fe6:	f003 030f 	and.w	r3, r3, #15
 8000fea:	3b04      	subs	r3, #4
 8000fec:	0112      	lsls	r2, r2, #4
 8000fee:	b2d2      	uxtb	r2, r2
 8000ff0:	440b      	add	r3, r1
 8000ff2:	761a      	strb	r2, [r3, #24]
}
 8000ff4:	bf00      	nop
 8000ff6:	370c      	adds	r7, #12
 8000ff8:	46bd      	mov	sp, r7
 8000ffa:	bc80      	pop	{r7}
 8000ffc:	4770      	bx	lr
 8000ffe:	bf00      	nop
 8001000:	e000e100 	.word	0xe000e100
 8001004:	e000ed00 	.word	0xe000ed00

08001008 <NVIC_EncodePriority>:
  \param [in]   PreemptPriority  Preemptive priority value (starting from 0).
  \param [in]       SubPriority  Subpriority value (starting from 0).
  \return                        Encoded priority. Value can be used in the function \ref NVIC_SetPriority().
 */
__STATIC_INLINE uint32_t NVIC_EncodePriority (uint32_t PriorityGroup, uint32_t PreemptPriority, uint32_t SubPriority)
{
 8001008:	b480      	push	{r7}
 800100a:	b089      	sub	sp, #36	; 0x24
 800100c:	af00      	add	r7, sp, #0
 800100e:	60f8      	str	r0, [r7, #12]
 8001010:	60b9      	str	r1, [r7, #8]
 8001012:	607a      	str	r2, [r7, #4]
  uint32_t PriorityGroupTmp = (PriorityGroup & (uint32_t)0x07UL);   /* only values 0..7 are used          */
 8001014:	68fb      	ldr	r3, [r7, #12]
 8001016:	f003 0307 	and.w	r3, r3, #7
 800101a:	61fb      	str	r3, [r7, #28]
  uint32_t PreemptPriorityBits;
  uint32_t SubPriorityBits;

  PreemptPriorityBits = ((7UL - PriorityGroupTmp) > (uint32_t)(__NVIC_PRIO_BITS)) ? (uint32_t)(__NVIC_PRIO_BITS) : (uint32_t)(7UL - PriorityGroupTmp);
 800101c:	69fb      	ldr	r3, [r7, #28]
 800101e:	f1c3 0307 	rsb	r3, r3, #7
 8001022:	2b04      	cmp	r3, #4
 8001024:	bf28      	it	cs
 8001026:	2304      	movcs	r3, #4
 8001028:	61bb      	str	r3, [r7, #24]
  SubPriorityBits     = ((PriorityGroupTmp + (uint32_t)(__NVIC_PRIO_BITS)) < (uint32_t)7UL) ? (uint32_t)0UL : (uint32_t)((PriorityGroupTmp - 7UL) + (uint32_t)(__NVIC_PRIO_BITS));
 800102a:	69fb      	ldr	r3, [r7, #28]
 800102c:	3304      	adds	r3, #4
 800102e:	2b06      	cmp	r3, #6
 8001030:	d902      	bls.n	8001038 <NVIC_EncodePriority+0x30>
 8001032:	69fb      	ldr	r3, [r7, #28]
 8001034:	3b03      	subs	r3, #3
 8001036:	e000      	b.n	800103a <NVIC_EncodePriority+0x32>
 8001038:	2300      	movs	r3, #0
 800103a:	617b      	str	r3, [r7, #20]

  return (
           ((PreemptPriority & (uint32_t)((1UL << (PreemptPriorityBits)) - 1UL)) << SubPriorityBits) |
 800103c:	f04f 32ff 	mov.w	r2, #4294967295
 8001040:	69bb      	ldr	r3, [r7, #24]
 8001042:	fa02 f303 	lsl.w	r3, r2, r3
 8001046:	43da      	mvns	r2, r3
 8001048:	68bb      	ldr	r3, [r7, #8]
 800104a:	401a      	ands	r2, r3
 800104c:	697b      	ldr	r3, [r7, #20]
 800104e:	409a      	lsls	r2, r3
           ((SubPriority     & (uint32_t)((1UL << (SubPriorityBits    )) - 1UL)))
 8001050:	f04f 31ff 	mov.w	r1, #4294967295
 8001054:	697b      	ldr	r3, [r7, #20]
 8001056:	fa01 f303 	lsl.w	r3, r1, r3
 800105a:	43d9      	mvns	r1, r3
 800105c:	687b      	ldr	r3, [r7, #4]
 800105e:	400b      	ands	r3, r1
           ((PreemptPriority & (uint32_t)((1UL << (PreemptPriorityBits)) - 1UL)) << SubPriorityBits) |
 8001060:	4313      	orrs	r3, r2
         );
}
 8001062:	4618      	mov	r0, r3
 8001064:	3724      	adds	r7, #36	; 0x24
 8001066:	46bd      	mov	sp, r7
 8001068:	bc80      	pop	{r7}
 800106a:	4770      	bx	lr

0800106c <SysTick_Config>:
  \note    When the variable <b>__Vendor_SysTickConfig</b> is set to 1, then the
           function <b>SysTick_Config</b> is not included. In this case, the file <b><i>device</i>.h</b>
           must contain a vendor-specific implementation of this function.
 */
__STATIC_INLINE uint32_t SysTick_Config(uint32_t ticks)
{
 800106c:	b580      	push	{r7, lr}
 800106e:	b082      	sub	sp, #8
 8001070:	af00      	add	r7, sp, #0
 8001072:	6078      	str	r0, [r7, #4]
  if ((ticks - 1UL) > SysTick_LOAD_RELOAD_Msk)
 8001074:	687b      	ldr	r3, [r7, #4]
 8001076:	3b01      	subs	r3, #1
 8001078:	f1b3 7f80 	cmp.w	r3, #16777216	; 0x1000000
 800107c:	d301      	bcc.n	8001082 <SysTick_Config+0x16>
  {
    return (1UL);                                                   /* Reload value impossible */
 800107e:	2301      	movs	r3, #1
 8001080:	e00f      	b.n	80010a2 <SysTick_Config+0x36>
  }

  SysTick->LOAD  = (uint32_t)(ticks - 1UL);                         /* set reload register */
 8001082:	4a0a      	ldr	r2, [pc, #40]	; (80010ac <SysTick_Config+0x40>)
 8001084:	687b      	ldr	r3, [r7, #4]
 8001086:	3b01      	subs	r3, #1
 8001088:	6053      	str	r3, [r2, #4]
  NVIC_SetPriority (SysTick_IRQn, (1UL << __NVIC_PRIO_BITS) - 1UL); /* set Priority for Systick Interrupt */
 800108a:	210f      	movs	r1, #15
 800108c:	f04f 30ff 	mov.w	r0, #4294967295
 8001090:	f7ff ff90 	bl	8000fb4 <__NVIC_SetPriority>
  SysTick->VAL   = 0UL;                                             /* Load the SysTick Counter Value */
 8001094:	4b05      	ldr	r3, [pc, #20]	; (80010ac <SysTick_Config+0x40>)
 8001096:	2200      	movs	r2, #0
 8001098:	609a      	str	r2, [r3, #8]
  SysTick->CTRL  = SysTick_CTRL_CLKSOURCE_Msk |
 800109a:	4b04      	ldr	r3, [pc, #16]	; (80010ac <SysTick_Config+0x40>)
 800109c:	2207      	movs	r2, #7
 800109e:	601a      	str	r2, [r3, #0]
                   SysTick_CTRL_TICKINT_Msk   |
                   SysTick_CTRL_ENABLE_Msk;                         /* Enable SysTick IRQ and SysTick Timer */
  return (0UL);                                                     /* Function successful */
 80010a0:	2300      	movs	r3, #0
}
 80010a2:	4618      	mov	r0, r3
 80010a4:	3708      	adds	r7, #8
 80010a6:	46bd      	mov	sp, r7
 80010a8:	bd80      	pop	{r7, pc}
 80010aa:	bf00      	nop
 80010ac:	e000e010 	.word	0xe000e010

080010b0 <HAL_NVIC_SetPriorityGrouping>:
  * @note   When the NVIC_PriorityGroup_0 is selected, IRQ preemption is no more possible. 
  *         The pending IRQ priority will be managed only by the subpriority. 
  * @retval None
  */
void HAL_NVIC_SetPriorityGrouping(uint32_t PriorityGroup)
{
 80010b0:	b580      	push	{r7, lr}
 80010b2:	b082      	sub	sp, #8
 80010b4:	af00      	add	r7, sp, #0
 80010b6:	6078      	str	r0, [r7, #4]
  /* Check the parameters */
  assert_param(IS_NVIC_PRIORITY_GROUP(PriorityGroup));
  
  /* Set the PRIGROUP[10:8] bits according to the PriorityGroup parameter value */
  NVIC_SetPriorityGrouping(PriorityGroup);
 80010b8:	6878      	ldr	r0, [r7, #4]
 80010ba:	f7ff ff2d 	bl	8000f18 <__NVIC_SetPriorityGrouping>
}
 80010be:	bf00      	nop
 80010c0:	3708      	adds	r7, #8
 80010c2:	46bd      	mov	sp, r7
 80010c4:	bd80      	pop	{r7, pc}

080010c6 <HAL_NVIC_SetPriority>:
  *         This parameter can be a value between 0 and 15
  *         A lower priority value indicates a higher priority.          
  * @retval None
  */
void HAL_NVIC_SetPriority(IRQn_Type IRQn, uint32_t PreemptPriority, uint32_t SubPriority)
{ 
 80010c6:	b580      	push	{r7, lr}
 80010c8:	b086      	sub	sp, #24
 80010ca:	af00      	add	r7, sp, #0
 80010cc:	4603      	mov	r3, r0
 80010ce:	60b9      	str	r1, [r7, #8]
 80010d0:	607a      	str	r2, [r7, #4]
 80010d2:	73fb      	strb	r3, [r7, #15]
  uint32_t prioritygroup = 0x00U;
 80010d4:	2300      	movs	r3, #0
 80010d6:	617b      	str	r3, [r7, #20]
  
  /* Check the parameters */
  assert_param(IS_NVIC_SUB_PRIORITY(SubPriority));
  assert_param(IS_NVIC_PREEMPTION_PRIORITY(PreemptPriority));
  
  prioritygroup = NVIC_GetPriorityGrouping();
 80010d8:	f7ff ff42 	bl	8000f60 <__NVIC_GetPriorityGrouping>
 80010dc:	6178      	str	r0, [r7, #20]
  
  NVIC_SetPriority(IRQn, NVIC_EncodePriority(prioritygroup, PreemptPriority, SubPriority));
 80010de:	687a      	ldr	r2, [r7, #4]
 80010e0:	68b9      	ldr	r1, [r7, #8]
 80010e2:	6978      	ldr	r0, [r7, #20]
 80010e4:	f7ff ff90 	bl	8001008 <NVIC_EncodePriority>
 80010e8:	4602      	mov	r2, r0
 80010ea:	f997 300f 	ldrsb.w	r3, [r7, #15]
 80010ee:	4611      	mov	r1, r2
 80010f0:	4618      	mov	r0, r3
 80010f2:	f7ff ff5f 	bl	8000fb4 <__NVIC_SetPriority>
}
 80010f6:	bf00      	nop
 80010f8:	3718      	adds	r7, #24
 80010fa:	46bd      	mov	sp, r7
 80010fc:	bd80      	pop	{r7, pc}

080010fe <HAL_NVIC_EnableIRQ>:
  *         This parameter can be an enumerator of IRQn_Type enumeration
  *         (For the complete STM32 Devices IRQ Channels list, please refer to the appropriate CMSIS device file (stm32f10xxx.h))
  * @retval None
  */
void HAL_NVIC_EnableIRQ(IRQn_Type IRQn)
{
 80010fe:	b580      	push	{r7, lr}
 8001100:	b082      	sub	sp, #8
 8001102:	af00      	add	r7, sp, #0
 8001104:	4603      	mov	r3, r0
 8001106:	71fb      	strb	r3, [r7, #7]
  /* Check the parameters */
  assert_param(IS_NVIC_DEVICE_IRQ(IRQn));

  /* Enable interrupt */
  NVIC_EnableIRQ(IRQn);
 8001108:	f997 3007 	ldrsb.w	r3, [r7, #7]
 800110c:	4618      	mov	r0, r3
 800110e:	f7ff ff35 	bl	8000f7c <__NVIC_EnableIRQ>
}
 8001112:	bf00      	nop
 8001114:	3708      	adds	r7, #8
 8001116:	46bd      	mov	sp, r7
 8001118:	bd80      	pop	{r7, pc}

0800111a <HAL_SYSTICK_Config>:
  * @param  TicksNumb: Specifies the ticks Number of ticks between two interrupts.
  * @retval status:  - 0  Function succeeded.
  *                  - 1  Function failed.
  */
uint32_t HAL_SYSTICK_Config(uint32_t TicksNumb)
{
 800111a:	b580      	push	{r7, lr}
 800111c:	b082      	sub	sp, #8
 800111e:	af00      	add	r7, sp, #0
 8001120:	6078      	str	r0, [r7, #4]
   return SysTick_Config(TicksNumb);
 8001122:	6878      	ldr	r0, [r7, #4]
 8001124:	f7ff ffa2 	bl	800106c <SysTick_Config>
 8001128:	4603      	mov	r3, r0
}
 800112a:	4618      	mov	r0, r3
 800112c:	3708      	adds	r7, #8
 800112e:	46bd      	mov	sp, r7
 8001130:	bd80      	pop	{r7, pc}
	...

08001134 <HAL_DMA_Abort_IT>:
  * @param  hdma  : pointer to a DMA_HandleTypeDef structure that contains
  *                 the configuration information for the specified DMA Channel.
  * @retval HAL status
  */
HAL_StatusTypeDef HAL_DMA_Abort_IT(DMA_HandleTypeDef *hdma)
{  
 8001134:	b580      	push	{r7, lr}
 8001136:	b084      	sub	sp, #16
 8001138:	af00      	add	r7, sp, #0
 800113a:	6078      	str	r0, [r7, #4]
  HAL_StatusTypeDef status = HAL_OK;
 800113c:	2300      	movs	r3, #0
 800113e:	73fb      	strb	r3, [r7, #15]
  
  if(HAL_DMA_STATE_BUSY != hdma->State)
 8001140:	687b      	ldr	r3, [r7, #4]
 8001142:	f893 3021 	ldrb.w	r3, [r3, #33]	; 0x21
 8001146:	2b02      	cmp	r3, #2
 8001148:	d005      	beq.n	8001156 <HAL_DMA_Abort_IT+0x22>
  {
    /* no transfer ongoing */
    hdma->ErrorCode = HAL_DMA_ERROR_NO_XFER;
 800114a:	687b      	ldr	r3, [r7, #4]
 800114c:	2204      	movs	r2, #4
 800114e:	639a      	str	r2, [r3, #56]	; 0x38
        
    status = HAL_ERROR;
 8001150:	2301      	movs	r3, #1
 8001152:	73fb      	strb	r3, [r7, #15]
 8001154:	e051      	b.n	80011fa <HAL_DMA_Abort_IT+0xc6>
  }
  else
  { 
    /* Disable DMA IT */
    __HAL_DMA_DISABLE_IT(hdma, (DMA_IT_TC | DMA_IT_HT | DMA_IT_TE));
 8001156:	687b      	ldr	r3, [r7, #4]
 8001158:	681b      	ldr	r3, [r3, #0]
 800115a:	681a      	ldr	r2, [r3, #0]
 800115c:	687b      	ldr	r3, [r7, #4]
 800115e:	681b      	ldr	r3, [r3, #0]
 8001160:	f022 020e 	bic.w	r2, r2, #14
 8001164:	601a      	str	r2, [r3, #0]

    /* Disable the channel */
    __HAL_DMA_DISABLE(hdma);
 8001166:	687b      	ldr	r3, [r7, #4]
 8001168:	681b      	ldr	r3, [r3, #0]
 800116a:	681a      	ldr	r2, [r3, #0]
 800116c:	687b      	ldr	r3, [r7, #4]
 800116e:	681b      	ldr	r3, [r3, #0]
 8001170:	f022 0201 	bic.w	r2, r2, #1
 8001174:	601a      	str	r2, [r3, #0]

    /* Clear all flags */
    __HAL_DMA_CLEAR_FLAG(hdma, __HAL_DMA_GET_GI_FLAG_INDEX(hdma));
 8001176:	687b      	ldr	r3, [r7, #4]
 8001178:	681b      	ldr	r3, [r3, #0]
 800117a:	4a22      	ldr	r2, [pc, #136]	; (8001204 <HAL_DMA_Abort_IT+0xd0>)
 800117c:	4293      	cmp	r3, r2
 800117e:	d029      	beq.n	80011d4 <HAL_DMA_Abort_IT+0xa0>
 8001180:	687b      	ldr	r3, [r7, #4]
 8001182:	681b      	ldr	r3, [r3, #0]
 8001184:	4a20      	ldr	r2, [pc, #128]	; (8001208 <HAL_DMA_Abort_IT+0xd4>)
 8001186:	4293      	cmp	r3, r2
 8001188:	d022      	beq.n	80011d0 <HAL_DMA_Abort_IT+0x9c>
 800118a:	687b      	ldr	r3, [r7, #4]
 800118c:	681b      	ldr	r3, [r3, #0]
 800118e:	4a1f      	ldr	r2, [pc, #124]	; (800120c <HAL_DMA_Abort_IT+0xd8>)
 8001190:	4293      	cmp	r3, r2
 8001192:	d01a      	beq.n	80011ca <HAL_DMA_Abort_IT+0x96>
 8001194:	687b      	ldr	r3, [r7, #4]
 8001196:	681b      	ldr	r3, [r3, #0]
 8001198:	4a1d      	ldr	r2, [pc, #116]	; (8001210 <HAL_DMA_Abort_IT+0xdc>)
 800119a:	4293      	cmp	r3, r2
 800119c:	d012      	beq.n	80011c4 <HAL_DMA_Abort_IT+0x90>
 800119e:	687b      	ldr	r3, [r7, #4]
 80011a0:	681b      	ldr	r3, [r3, #0]
 80011a2:	4a1c      	ldr	r2, [pc, #112]	; (8001214 <HAL_DMA_Abort_IT+0xe0>)
 80011a4:	4293      	cmp	r3, r2
 80011a6:	d00a      	beq.n	80011be <HAL_DMA_Abort_IT+0x8a>
 80011a8:	687b      	ldr	r3, [r7, #4]
 80011aa:	681b      	ldr	r3, [r3, #0]
 80011ac:	4a1a      	ldr	r2, [pc, #104]	; (8001218 <HAL_DMA_Abort_IT+0xe4>)
 80011ae:	4293      	cmp	r3, r2
 80011b0:	d102      	bne.n	80011b8 <HAL_DMA_Abort_IT+0x84>
 80011b2:	f44f 1380 	mov.w	r3, #1048576	; 0x100000
 80011b6:	e00e      	b.n	80011d6 <HAL_DMA_Abort_IT+0xa2>
 80011b8:	f04f 7380 	mov.w	r3, #16777216	; 0x1000000
 80011bc:	e00b      	b.n	80011d6 <HAL_DMA_Abort_IT+0xa2>
 80011be:	f44f 3380 	mov.w	r3, #65536	; 0x10000
 80011c2:	e008      	b.n	80011d6 <HAL_DMA_Abort_IT+0xa2>
 80011c4:	f44f 5380 	mov.w	r3, #4096	; 0x1000
 80011c8:	e005      	b.n	80011d6 <HAL_DMA_Abort_IT+0xa2>
 80011ca:	f44f 7380 	mov.w	r3, #256	; 0x100
 80011ce:	e002      	b.n	80011d6 <HAL_DMA_Abort_IT+0xa2>
 80011d0:	2310      	movs	r3, #16
 80011d2:	e000      	b.n	80011d6 <HAL_DMA_Abort_IT+0xa2>
 80011d4:	2301      	movs	r3, #1
 80011d6:	4a11      	ldr	r2, [pc, #68]	; (800121c <HAL_DMA_Abort_IT+0xe8>)
 80011d8:	6053      	str	r3, [r2, #4]

    /* Change the DMA state */
    hdma->State = HAL_DMA_STATE_READY;
 80011da:	687b      	ldr	r3, [r7, #4]
 80011dc:	2201      	movs	r2, #1
 80011de:	f883 2021 	strb.w	r2, [r3, #33]	; 0x21

    /* Process Unlocked */
    __HAL_UNLOCK(hdma);
 80011e2:	687b      	ldr	r3, [r7, #4]
 80011e4:	2200      	movs	r2, #0
 80011e6:	f883 2020 	strb.w	r2, [r3, #32]

    /* Call User Abort callback */
    if(hdma->XferAbortCallback != NULL)
 80011ea:	687b      	ldr	r3, [r7, #4]
 80011ec:	6b5b      	ldr	r3, [r3, #52]	; 0x34
 80011ee:	2b00      	cmp	r3, #0
 80011f0:	d003      	beq.n	80011fa <HAL_DMA_Abort_IT+0xc6>
    {
      hdma->XferAbortCallback(hdma);
 80011f2:	687b      	ldr	r3, [r7, #4]
 80011f4:	6b5b      	ldr	r3, [r3, #52]	; 0x34
 80011f6:	6878      	ldr	r0, [r7, #4]
 80011f8:	4798      	blx	r3
    } 
  }
  return status;
 80011fa:	7bfb      	ldrb	r3, [r7, #15]
}
 80011fc:	4618      	mov	r0, r3
 80011fe:	3710      	adds	r7, #16
 8001200:	46bd      	mov	sp, r7
 8001202:	bd80      	pop	{r7, pc}
 8001204:	40020008 	.word	0x40020008
 8001208:	4002001c 	.word	0x4002001c
 800120c:	40020030 	.word	0x40020030
 8001210:	40020044 	.word	0x40020044
 8001214:	40020058 	.word	0x40020058
 8001218:	4002006c 	.word	0x4002006c
 800121c:	40020000 	.word	0x40020000

08001220 <HAL_GPIO_Init>:
  * @param  GPIO_Init: pointer to a GPIO_InitTypeDef structure that contains
  *         the configuration information for the specified GPIO peripheral.
  * @retval None
  */
void HAL_GPIO_Init(GPIO_TypeDef  *GPIOx, GPIO_InitTypeDef *GPIO_Init)
{
 8001220:	b480      	push	{r7}
 8001222:	b08b      	sub	sp, #44	; 0x2c
 8001224:	af00      	add	r7, sp, #0
 8001226:	6078      	str	r0, [r7, #4]
 8001228:	6039      	str	r1, [r7, #0]
  uint32_t position = 0x00u;
 800122a:	2300      	movs	r3, #0
 800122c:	627b      	str	r3, [r7, #36]	; 0x24
  uint32_t ioposition;
  uint32_t iocurrent;
  uint32_t temp;
  uint32_t config = 0x00u;
 800122e:	2300      	movs	r3, #0
 8001230:	623b      	str	r3, [r7, #32]
  assert_param(IS_GPIO_ALL_INSTANCE(GPIOx));
  assert_param(IS_GPIO_PIN(GPIO_Init->Pin));
  assert_param(IS_GPIO_MODE(GPIO_Init->Mode));

  /* Configure the port pins */
  while (((GPIO_Init->Pin) >> position) != 0x00u)
 8001232:	e169      	b.n	8001508 <HAL_GPIO_Init+0x2e8>
  {
    /* Get the IO position */
    ioposition = (0x01uL << position);
 8001234:	2201      	movs	r2, #1
 8001236:	6a7b      	ldr	r3, [r7, #36]	; 0x24
 8001238:	fa02 f303 	lsl.w	r3, r2, r3
 800123c:	61fb      	str	r3, [r7, #28]

    /* Get the current IO position */
    iocurrent = (uint32_t)(GPIO_Init->Pin) & ioposition;
 800123e:	683b      	ldr	r3, [r7, #0]
 8001240:	681b      	ldr	r3, [r3, #0]
 8001242:	69fa      	ldr	r2, [r7, #28]
 8001244:	4013      	ands	r3, r2
 8001246:	61bb      	str	r3, [r7, #24]

    if (iocurrent == ioposition)
 8001248:	69ba      	ldr	r2, [r7, #24]
 800124a:	69fb      	ldr	r3, [r7, #28]
 800124c:	429a      	cmp	r2, r3
 800124e:	f040 8158 	bne.w	8001502 <HAL_GPIO_Init+0x2e2>
    {
      /* Check the Alternate function parameters */
      assert_param(IS_GPIO_AF_INSTANCE(GPIOx));

      /* Based on the required mode, filling config variable with MODEy[1:0] and CNFy[3:2] corresponding bits */
      switch (GPIO_Init->Mode)
 8001252:	683b      	ldr	r3, [r7, #0]
 8001254:	685b      	ldr	r3, [r3, #4]
 8001256:	4a9a      	ldr	r2, [pc, #616]	; (80014c0 <HAL_GPIO_Init+0x2a0>)
 8001258:	4293      	cmp	r3, r2
 800125a:	d05e      	beq.n	800131a <HAL_GPIO_Init+0xfa>
 800125c:	4a98      	ldr	r2, [pc, #608]	; (80014c0 <HAL_GPIO_Init+0x2a0>)
 800125e:	4293      	cmp	r3, r2
 8001260:	d875      	bhi.n	800134e <HAL_GPIO_Init+0x12e>
 8001262:	4a98      	ldr	r2, [pc, #608]	; (80014c4 <HAL_GPIO_Init+0x2a4>)
 8001264:	4293      	cmp	r3, r2
 8001266:	d058      	beq.n	800131a <HAL_GPIO_Init+0xfa>
 8001268:	4a96      	ldr	r2, [pc, #600]	; (80014c4 <HAL_GPIO_Init+0x2a4>)
 800126a:	4293      	cmp	r3, r2
 800126c:	d86f      	bhi.n	800134e <HAL_GPIO_Init+0x12e>
 800126e:	4a96      	ldr	r2, [pc, #600]	; (80014c8 <HAL_GPIO_Init+0x2a8>)
 8001270:	4293      	cmp	r3, r2
 8001272:	d052      	beq.n	800131a <HAL_GPIO_Init+0xfa>
 8001274:	4a94      	ldr	r2, [pc, #592]	; (80014c8 <HAL_GPIO_Init+0x2a8>)
 8001276:	4293      	cmp	r3, r2
 8001278:	d869      	bhi.n	800134e <HAL_GPIO_Init+0x12e>
 800127a:	4a94      	ldr	r2, [pc, #592]	; (80014cc <HAL_GPIO_Init+0x2ac>)
 800127c:	4293      	cmp	r3, r2
 800127e:	d04c      	beq.n	800131a <HAL_GPIO_Init+0xfa>
 8001280:	4a92      	ldr	r2, [pc, #584]	; (80014cc <HAL_GPIO_Init+0x2ac>)
 8001282:	4293      	cmp	r3, r2
 8001284:	d863      	bhi.n	800134e <HAL_GPIO_Init+0x12e>
 8001286:	4a92      	ldr	r2, [pc, #584]	; (80014d0 <HAL_GPIO_Init+0x2b0>)
 8001288:	4293      	cmp	r3, r2
 800128a:	d046      	beq.n	800131a <HAL_GPIO_Init+0xfa>
 800128c:	4a90      	ldr	r2, [pc, #576]	; (80014d0 <HAL_GPIO_Init+0x2b0>)
 800128e:	4293      	cmp	r3, r2
 8001290:	d85d      	bhi.n	800134e <HAL_GPIO_Init+0x12e>
 8001292:	2b12      	cmp	r3, #18
 8001294:	d82a      	bhi.n	80012ec <HAL_GPIO_Init+0xcc>
 8001296:	2b12      	cmp	r3, #18
 8001298:	d859      	bhi.n	800134e <HAL_GPIO_Init+0x12e>
 800129a:	a201      	add	r2, pc, #4	; (adr r2, 80012a0 <HAL_GPIO_Init+0x80>)
 800129c:	f852 f023 	ldr.w	pc, [r2, r3, lsl #2]
 80012a0:	0800131b 	.word	0x0800131b
 80012a4:	080012f5 	.word	0x080012f5
 80012a8:	08001307 	.word	0x08001307
 80012ac:	08001349 	.word	0x08001349
 80012b0:	0800134f 	.word	0x0800134f
 80012b4:	0800134f 	.word	0x0800134f
 80012b8:	0800134f 	.word	0x0800134f
 80012bc:	0800134f 	.word	0x0800134f
 80012c0:	0800134f 	.word	0x0800134f
 80012c4:	0800134f 	.word	0x0800134f
 80012c8:	0800134f 	.word	0x0800134f
 80012cc:	0800134f 	.word	0x0800134f
 80012d0:	0800134f 	.word	0x0800134f
 80012d4:	0800134f 	.word	0x0800134f
 80012d8:	0800134f 	.word	0x0800134f
 80012dc:	0800134f 	.word	0x0800134f
 80012e0:	0800134f 	.word	0x0800134f
 80012e4:	080012fd 	.word	0x080012fd
 80012e8:	08001311 	.word	0x08001311
 80012ec:	4a79      	ldr	r2, [pc, #484]	; (80014d4 <HAL_GPIO_Init+0x2b4>)
 80012ee:	4293      	cmp	r3, r2
 80012f0:	d013      	beq.n	800131a <HAL_GPIO_Init+0xfa>
          config = GPIO_CR_MODE_INPUT + GPIO_CR_CNF_ANALOG;
          break;

        /* Parameters are checked with assert_param */
        default:
          break;
 80012f2:	e02c      	b.n	800134e <HAL_GPIO_Init+0x12e>
          config = GPIO_Init->Speed + GPIO_CR_CNF_GP_OUTPUT_PP;
 80012f4:	683b      	ldr	r3, [r7, #0]
 80012f6:	68db      	ldr	r3, [r3, #12]
 80012f8:	623b      	str	r3, [r7, #32]
          break;
 80012fa:	e029      	b.n	8001350 <HAL_GPIO_Init+0x130>
          config = GPIO_Init->Speed + GPIO_CR_CNF_GP_OUTPUT_OD;
 80012fc:	683b      	ldr	r3, [r7, #0]
 80012fe:	68db      	ldr	r3, [r3, #12]
 8001300:	3304      	adds	r3, #4
 8001302:	623b      	str	r3, [r7, #32]
          break;
 8001304:	e024      	b.n	8001350 <HAL_GPIO_Init+0x130>
          config = GPIO_Init->Speed + GPIO_CR_CNF_AF_OUTPUT_PP;
 8001306:	683b      	ldr	r3, [r7, #0]
 8001308:	68db      	ldr	r3, [r3, #12]
 800130a:	3308      	adds	r3, #8
 800130c:	623b      	str	r3, [r7, #32]
          break;
 800130e:	e01f      	b.n	8001350 <HAL_GPIO_Init+0x130>
          config = GPIO_Init->Speed + GPIO_CR_CNF_AF_OUTPUT_OD;
 8001310:	683b      	ldr	r3, [r7, #0]
 8001312:	68db      	ldr	r3, [r3, #12]
 8001314:	330c      	adds	r3, #12
 8001316:	623b      	str	r3, [r7, #32]
          break;
 8001318:	e01a      	b.n	8001350 <HAL_GPIO_Init+0x130>
          if (GPIO_Init->Pull == GPIO_NOPULL)
 800131a:	683b      	ldr	r3, [r7, #0]
 800131c:	689b      	ldr	r3, [r3, #8]
 800131e:	2b00      	cmp	r3, #0
 8001320:	d102      	bne.n	8001328 <HAL_GPIO_Init+0x108>
            config = GPIO_CR_MODE_INPUT + GPIO_CR_CNF_INPUT_FLOATING;
 8001322:	2304      	movs	r3, #4
 8001324:	623b      	str	r3, [r7, #32]
          break;
 8001326:	e013      	b.n	8001350 <HAL_GPIO_Init+0x130>
          else if (GPIO_Init->Pull == GPIO_PULLUP)
 8001328:	683b      	ldr	r3, [r7, #0]
 800132a:	689b      	ldr	r3, [r3, #8]
 800132c:	2b01      	cmp	r3, #1
 800132e:	d105      	bne.n	800133c <HAL_GPIO_Init+0x11c>
            config = GPIO_CR_MODE_INPUT + GPIO_CR_CNF_INPUT_PU_PD;
 8001330:	2308      	movs	r3, #8
 8001332:	623b      	str	r3, [r7, #32]
            GPIOx->BSRR = ioposition;
 8001334:	687b      	ldr	r3, [r7, #4]
 8001336:	69fa      	ldr	r2, [r7, #28]
 8001338:	611a      	str	r2, [r3, #16]
          break;
 800133a:	e009      	b.n	8001350 <HAL_GPIO_Init+0x130>
            config = GPIO_CR_MODE_INPUT + GPIO_CR_CNF_INPUT_PU_PD;
 800133c:	2308      	movs	r3, #8
 800133e:	623b      	str	r3, [r7, #32]
            GPIOx->BRR = ioposition;
 8001340:	687b      	ldr	r3, [r7, #4]
 8001342:	69fa      	ldr	r2, [r7, #28]
 8001344:	615a      	str	r2, [r3, #20]
          break;
 8001346:	e003      	b.n	8001350 <HAL_GPIO_Init+0x130>
          config = GPIO_CR_MODE_INPUT + GPIO_CR_CNF_ANALOG;
 8001348:	2300      	movs	r3, #0
 800134a:	623b      	str	r3, [r7, #32]
          break;
 800134c:	e000      	b.n	8001350 <HAL_GPIO_Init+0x130>
          break;
 800134e:	bf00      	nop
      }

      /* Check if the current bit belongs to first half or last half of the pin count number
       in order to address CRH or CRL register*/
      configregister = (iocurrent < GPIO_PIN_8) ? &GPIOx->CRL     : &GPIOx->CRH;
 8001350:	69bb      	ldr	r3, [r7, #24]
 8001352:	2bff      	cmp	r3, #255	; 0xff
 8001354:	d801      	bhi.n	800135a <HAL_GPIO_Init+0x13a>
 8001356:	687b      	ldr	r3, [r7, #4]
 8001358:	e001      	b.n	800135e <HAL_GPIO_Init+0x13e>
 800135a:	687b      	ldr	r3, [r7, #4]
 800135c:	3304      	adds	r3, #4
 800135e:	617b      	str	r3, [r7, #20]
      registeroffset = (iocurrent < GPIO_PIN_8) ? (position << 2u) : ((position - 8u) << 2u);
 8001360:	69bb      	ldr	r3, [r7, #24]
 8001362:	2bff      	cmp	r3, #255	; 0xff
 8001364:	d802      	bhi.n	800136c <HAL_GPIO_Init+0x14c>
 8001366:	6a7b      	ldr	r3, [r7, #36]	; 0x24
 8001368:	009b      	lsls	r3, r3, #2
 800136a:	e002      	b.n	8001372 <HAL_GPIO_Init+0x152>
 800136c:	6a7b      	ldr	r3, [r7, #36]	; 0x24
 800136e:	3b08      	subs	r3, #8
 8001370:	009b      	lsls	r3, r3, #2
 8001372:	613b      	str	r3, [r7, #16]

      /* Apply the new configuration of the pin to the register */
      MODIFY_REG((*configregister), ((GPIO_CRL_MODE0 | GPIO_CRL_CNF0) << registeroffset), (config << registeroffset));
 8001374:	697b      	ldr	r3, [r7, #20]
 8001376:	681a      	ldr	r2, [r3, #0]
 8001378:	210f      	movs	r1, #15
 800137a:	693b      	ldr	r3, [r7, #16]
 800137c:	fa01 f303 	lsl.w	r3, r1, r3
 8001380:	43db      	mvns	r3, r3
 8001382:	401a      	ands	r2, r3
 8001384:	6a39      	ldr	r1, [r7, #32]
 8001386:	693b      	ldr	r3, [r7, #16]
 8001388:	fa01 f303 	lsl.w	r3, r1, r3
 800138c:	431a      	orrs	r2, r3
 800138e:	697b      	ldr	r3, [r7, #20]
 8001390:	601a      	str	r2, [r3, #0]

      /*--------------------- EXTI Mode Configuration ------------------------*/
      /* Configure the External Interrupt or event for the current IO */
      if ((GPIO_Init->Mode & EXTI_MODE) == EXTI_MODE)
 8001392:	683b      	ldr	r3, [r7, #0]
 8001394:	685b      	ldr	r3, [r3, #4]
 8001396:	f003 5380 	and.w	r3, r3, #268435456	; 0x10000000
 800139a:	2b00      	cmp	r3, #0
 800139c:	f000 80b1 	beq.w	8001502 <HAL_GPIO_Init+0x2e2>
      {
        /* Enable AFIO Clock */
        __HAL_RCC_AFIO_CLK_ENABLE();
 80013a0:	4b4d      	ldr	r3, [pc, #308]	; (80014d8 <HAL_GPIO_Init+0x2b8>)
 80013a2:	699b      	ldr	r3, [r3, #24]
 80013a4:	4a4c      	ldr	r2, [pc, #304]	; (80014d8 <HAL_GPIO_Init+0x2b8>)
 80013a6:	f043 0301 	orr.w	r3, r3, #1
 80013aa:	6193      	str	r3, [r2, #24]
 80013ac:	4b4a      	ldr	r3, [pc, #296]	; (80014d8 <HAL_GPIO_Init+0x2b8>)
 80013ae:	699b      	ldr	r3, [r3, #24]
 80013b0:	f003 0301 	and.w	r3, r3, #1
 80013b4:	60bb      	str	r3, [r7, #8]
 80013b6:	68bb      	ldr	r3, [r7, #8]
        temp = AFIO->EXTICR[position >> 2u];
 80013b8:	4a48      	ldr	r2, [pc, #288]	; (80014dc <HAL_GPIO_Init+0x2bc>)
 80013ba:	6a7b      	ldr	r3, [r7, #36]	; 0x24
 80013bc:	089b      	lsrs	r3, r3, #2
 80013be:	3302      	adds	r3, #2
 80013c0:	f852 3023 	ldr.w	r3, [r2, r3, lsl #2]
 80013c4:	60fb      	str	r3, [r7, #12]
        CLEAR_BIT(temp, (0x0Fu) << (4u * (position & 0x03u)));
 80013c6:	6a7b      	ldr	r3, [r7, #36]	; 0x24
 80013c8:	f003 0303 	and.w	r3, r3, #3
 80013cc:	009b      	lsls	r3, r3, #2
 80013ce:	220f      	movs	r2, #15
 80013d0:	fa02 f303 	lsl.w	r3, r2, r3
 80013d4:	43db      	mvns	r3, r3
 80013d6:	68fa      	ldr	r2, [r7, #12]
 80013d8:	4013      	ands	r3, r2
 80013da:	60fb      	str	r3, [r7, #12]
        SET_BIT(temp, (GPIO_GET_INDEX(GPIOx)) << (4u * (position & 0x03u)));
 80013dc:	687b      	ldr	r3, [r7, #4]
 80013de:	4a40      	ldr	r2, [pc, #256]	; (80014e0 <HAL_GPIO_Init+0x2c0>)
 80013e0:	4293      	cmp	r3, r2
 80013e2:	d013      	beq.n	800140c <HAL_GPIO_Init+0x1ec>
 80013e4:	687b      	ldr	r3, [r7, #4]
 80013e6:	4a3f      	ldr	r2, [pc, #252]	; (80014e4 <HAL_GPIO_Init+0x2c4>)
 80013e8:	4293      	cmp	r3, r2
 80013ea:	d00d      	beq.n	8001408 <HAL_GPIO_Init+0x1e8>
 80013ec:	687b      	ldr	r3, [r7, #4]
 80013ee:	4a3e      	ldr	r2, [pc, #248]	; (80014e8 <HAL_GPIO_Init+0x2c8>)
 80013f0:	4293      	cmp	r3, r2
 80013f2:	d007      	beq.n	8001404 <HAL_GPIO_Init+0x1e4>
 80013f4:	687b      	ldr	r3, [r7, #4]
 80013f6:	4a3d      	ldr	r2, [pc, #244]	; (80014ec <HAL_GPIO_Init+0x2cc>)
 80013f8:	4293      	cmp	r3, r2
 80013fa:	d101      	bne.n	8001400 <HAL_GPIO_Init+0x1e0>
 80013fc:	2303      	movs	r3, #3
 80013fe:	e006      	b.n	800140e <HAL_GPIO_Init+0x1ee>
 8001400:	2304      	movs	r3, #4
 8001402:	e004      	b.n	800140e <HAL_GPIO_Init+0x1ee>
 8001404:	2302      	movs	r3, #2
 8001406:	e002      	b.n	800140e <HAL_GPIO_Init+0x1ee>
 8001408:	2301      	movs	r3, #1
 800140a:	e000      	b.n	800140e <HAL_GPIO_Init+0x1ee>
 800140c:	2300      	movs	r3, #0
 800140e:	6a7a      	ldr	r2, [r7, #36]	; 0x24
 8001410:	f002 0203 	and.w	r2, r2, #3
 8001414:	0092      	lsls	r2, r2, #2
 8001416:	4093      	lsls	r3, r2
 8001418:	68fa      	ldr	r2, [r7, #12]
 800141a:	4313      	orrs	r3, r2
 800141c:	60fb      	str	r3, [r7, #12]
        AFIO->EXTICR[position >> 2u] = temp;
 800141e:	492f      	ldr	r1, [pc, #188]	; (80014dc <HAL_GPIO_Init+0x2bc>)
 8001420:	6a7b      	ldr	r3, [r7, #36]	; 0x24
 8001422:	089b      	lsrs	r3, r3, #2
 8001424:	3302      	adds	r3, #2
 8001426:	68fa      	ldr	r2, [r7, #12]
 8001428:	f841 2023 	str.w	r2, [r1, r3, lsl #2]


        /* Configure the interrupt mask */
        if ((GPIO_Init->Mode & GPIO_MODE_IT) == GPIO_MODE_IT)
 800142c:	683b      	ldr	r3, [r7, #0]
 800142e:	685b      	ldr	r3, [r3, #4]
 8001430:	f403 3380 	and.w	r3, r3, #65536	; 0x10000
 8001434:	2b00      	cmp	r3, #0
 8001436:	d006      	beq.n	8001446 <HAL_GPIO_Init+0x226>
        {
          SET_BIT(EXTI->IMR, iocurrent);
 8001438:	4b2d      	ldr	r3, [pc, #180]	; (80014f0 <HAL_GPIO_Init+0x2d0>)
 800143a:	681a      	ldr	r2, [r3, #0]
 800143c:	492c      	ldr	r1, [pc, #176]	; (80014f0 <HAL_GPIO_Init+0x2d0>)
 800143e:	69bb      	ldr	r3, [r7, #24]
 8001440:	4313      	orrs	r3, r2
 8001442:	600b      	str	r3, [r1, #0]
 8001444:	e006      	b.n	8001454 <HAL_GPIO_Init+0x234>
        }
        else
        {
          CLEAR_BIT(EXTI->IMR, iocurrent);
 8001446:	4b2a      	ldr	r3, [pc, #168]	; (80014f0 <HAL_GPIO_Init+0x2d0>)
 8001448:	681a      	ldr	r2, [r3, #0]
 800144a:	69bb      	ldr	r3, [r7, #24]
 800144c:	43db      	mvns	r3, r3
 800144e:	4928      	ldr	r1, [pc, #160]	; (80014f0 <HAL_GPIO_Init+0x2d0>)
 8001450:	4013      	ands	r3, r2
 8001452:	600b      	str	r3, [r1, #0]
        }

        /* Configure the event mask */
        if ((GPIO_Init->Mode & GPIO_MODE_EVT) == GPIO_MODE_EVT)
 8001454:	683b      	ldr	r3, [r7, #0]
 8001456:	685b      	ldr	r3, [r3, #4]
 8001458:	f403 3300 	and.w	r3, r3, #131072	; 0x20000
 800145c:	2b00      	cmp	r3, #0
 800145e:	d006      	beq.n	800146e <HAL_GPIO_Init+0x24e>
        {
          SET_BIT(EXTI->EMR, iocurrent);
 8001460:	4b23      	ldr	r3, [pc, #140]	; (80014f0 <HAL_GPIO_Init+0x2d0>)
 8001462:	685a      	ldr	r2, [r3, #4]
 8001464:	4922      	ldr	r1, [pc, #136]	; (80014f0 <HAL_GPIO_Init+0x2d0>)
 8001466:	69bb      	ldr	r3, [r7, #24]
 8001468:	4313      	orrs	r3, r2
 800146a:	604b      	str	r3, [r1, #4]
 800146c:	e006      	b.n	800147c <HAL_GPIO_Init+0x25c>
        }
        else
        {
          CLEAR_BIT(EXTI->EMR, iocurrent);
 800146e:	4b20      	ldr	r3, [pc, #128]	; (80014f0 <HAL_GPIO_Init+0x2d0>)
 8001470:	685a      	ldr	r2, [r3, #4]
 8001472:	69bb      	ldr	r3, [r7, #24]
 8001474:	43db      	mvns	r3, r3
 8001476:	491e      	ldr	r1, [pc, #120]	; (80014f0 <HAL_GPIO_Init+0x2d0>)
 8001478:	4013      	ands	r3, r2
 800147a:	604b      	str	r3, [r1, #4]
        }

        /* Enable or disable the rising trigger */
        if ((GPIO_Init->Mode & RISING_EDGE) == RISING_EDGE)
 800147c:	683b      	ldr	r3, [r7, #0]
 800147e:	685b      	ldr	r3, [r3, #4]
 8001480:	f403 1380 	and.w	r3, r3, #1048576	; 0x100000
 8001484:	2b00      	cmp	r3, #0
 8001486:	d006      	beq.n	8001496 <HAL_GPIO_Init+0x276>
        {
          SET_BIT(EXTI->RTSR, iocurrent);
 8001488:	4b19      	ldr	r3, [pc, #100]	; (80014f0 <HAL_GPIO_Init+0x2d0>)
 800148a:	689a      	ldr	r2, [r3, #8]
 800148c:	4918      	ldr	r1, [pc, #96]	; (80014f0 <HAL_GPIO_Init+0x2d0>)
 800148e:	69bb      	ldr	r3, [r7, #24]
 8001490:	4313      	orrs	r3, r2
 8001492:	608b      	str	r3, [r1, #8]
 8001494:	e006      	b.n	80014a4 <HAL_GPIO_Init+0x284>
        }
        else
        {
          CLEAR_BIT(EXTI->RTSR, iocurrent);
 8001496:	4b16      	ldr	r3, [pc, #88]	; (80014f0 <HAL_GPIO_Init+0x2d0>)
 8001498:	689a      	ldr	r2, [r3, #8]
 800149a:	69bb      	ldr	r3, [r7, #24]
 800149c:	43db      	mvns	r3, r3
 800149e:	4914      	ldr	r1, [pc, #80]	; (80014f0 <HAL_GPIO_Init+0x2d0>)
 80014a0:	4013      	ands	r3, r2
 80014a2:	608b      	str	r3, [r1, #8]
        }

        /* Enable or disable the falling trigger */
        if ((GPIO_Init->Mode & FALLING_EDGE) == FALLING_EDGE)
 80014a4:	683b      	ldr	r3, [r7, #0]
 80014a6:	685b      	ldr	r3, [r3, #4]
 80014a8:	f403 1300 	and.w	r3, r3, #2097152	; 0x200000
 80014ac:	2b00      	cmp	r3, #0
 80014ae:	d021      	beq.n	80014f4 <HAL_GPIO_Init+0x2d4>
        {
          SET_BIT(EXTI->FTSR, iocurrent);
 80014b0:	4b0f      	ldr	r3, [pc, #60]	; (80014f0 <HAL_GPIO_Init+0x2d0>)
 80014b2:	68da      	ldr	r2, [r3, #12]
 80014b4:	490e      	ldr	r1, [pc, #56]	; (80014f0 <HAL_GPIO_Init+0x2d0>)
 80014b6:	69bb      	ldr	r3, [r7, #24]
 80014b8:	4313      	orrs	r3, r2
 80014ba:	60cb      	str	r3, [r1, #12]
 80014bc:	e021      	b.n	8001502 <HAL_GPIO_Init+0x2e2>
 80014be:	bf00      	nop
 80014c0:	10320000 	.word	0x10320000
 80014c4:	10310000 	.word	0x10310000
 80014c8:	10220000 	.word	0x10220000
 80014cc:	10210000 	.word	0x10210000
 80014d0:	10120000 	.word	0x10120000
 80014d4:	10110000 	.word	0x10110000
 80014d8:	40021000 	.word	0x40021000
 80014dc:	40010000 	.word	0x40010000
 80014e0:	40010800 	.word	0x40010800
 80014e4:	40010c00 	.word	0x40010c00
 80014e8:	40011000 	.word	0x40011000
 80014ec:	40011400 	.word	0x40011400
 80014f0:	40010400 	.word	0x40010400
        }
        else
        {
          CLEAR_BIT(EXTI->FTSR, iocurrent);
 80014f4:	4b0b      	ldr	r3, [pc, #44]	; (8001524 <HAL_GPIO_Init+0x304>)
 80014f6:	68da      	ldr	r2, [r3, #12]
 80014f8:	69bb      	ldr	r3, [r7, #24]
 80014fa:	43db      	mvns	r3, r3
 80014fc:	4909      	ldr	r1, [pc, #36]	; (8001524 <HAL_GPIO_Init+0x304>)
 80014fe:	4013      	ands	r3, r2
 8001500:	60cb      	str	r3, [r1, #12]
        }
      }
    }

	position++;
 8001502:	6a7b      	ldr	r3, [r7, #36]	; 0x24
 8001504:	3301      	adds	r3, #1
 8001506:	627b      	str	r3, [r7, #36]	; 0x24
  while (((GPIO_Init->Pin) >> position) != 0x00u)
 8001508:	683b      	ldr	r3, [r7, #0]
 800150a:	681a      	ldr	r2, [r3, #0]
 800150c:	6a7b      	ldr	r3, [r7, #36]	; 0x24
 800150e:	fa22 f303 	lsr.w	r3, r2, r3
 8001512:	2b00      	cmp	r3, #0
 8001514:	f47f ae8e 	bne.w	8001234 <HAL_GPIO_Init+0x14>
  }
}
 8001518:	bf00      	nop
 800151a:	bf00      	nop
 800151c:	372c      	adds	r7, #44	; 0x2c
 800151e:	46bd      	mov	sp, r7
 8001520:	bc80      	pop	{r7}
 8001522:	4770      	bx	lr
 8001524:	40010400 	.word	0x40010400

08001528 <HAL_I2C_Init>:
  * @param  hi2c Pointer to a I2C_HandleTypeDef structure that contains
  *                the configuration information for the specified I2C.
  * @retval HAL status
  */
HAL_StatusTypeDef HAL_I2C_Init(I2C_HandleTypeDef *hi2c)
{
 8001528:	b580      	push	{r7, lr}
 800152a:	b084      	sub	sp, #16
 800152c:	af00      	add	r7, sp, #0
 800152e:	6078      	str	r0, [r7, #4]
  uint32_t freqrange;
  uint32_t pclk1;

  /* Check the I2C handle allocation */
  if (hi2c == NULL)
 8001530:	687b      	ldr	r3, [r7, #4]
 8001532:	2b00      	cmp	r3, #0
 8001534:	d101      	bne.n	800153a <HAL_I2C_Init+0x12>
  {
    return HAL_ERROR;
 8001536:	2301      	movs	r3, #1
 8001538:	e12b      	b.n	8001792 <HAL_I2C_Init+0x26a>
  assert_param(IS_I2C_DUAL_ADDRESS(hi2c->Init.DualAddressMode));
  assert_param(IS_I2C_OWN_ADDRESS2(hi2c->Init.OwnAddress2));
  assert_param(IS_I2C_GENERAL_CALL(hi2c->Init.GeneralCallMode));
  assert_param(IS_I2C_NO_STRETCH(hi2c->Init.NoStretchMode));

  if (hi2c->State == HAL_I2C_STATE_RESET)
 800153a:	687b      	ldr	r3, [r7, #4]
 800153c:	f893 303d 	ldrb.w	r3, [r3, #61]	; 0x3d
 8001540:	b2db      	uxtb	r3, r3
 8001542:	2b00      	cmp	r3, #0
 8001544:	d106      	bne.n	8001554 <HAL_I2C_Init+0x2c>
  {
    /* Allocate lock resource and initialize it */
    hi2c->Lock = HAL_UNLOCKED;
 8001546:	687b      	ldr	r3, [r7, #4]
 8001548:	2200      	movs	r2, #0
 800154a:	f883 203c 	strb.w	r2, [r3, #60]	; 0x3c

    /* Init the low level hardware : GPIO, CLOCK, NVIC */
    hi2c->MspInitCallback(hi2c);
#else
    /* Init the low level hardware : GPIO, CLOCK, NVIC */
    HAL_I2C_MspInit(hi2c);
 800154e:	6878      	ldr	r0, [r7, #4]
 8001550:	f7ff fb6a 	bl	8000c28 <HAL_I2C_MspInit>
#endif /* USE_HAL_I2C_REGISTER_CALLBACKS */
  }

  hi2c->State = HAL_I2C_STATE_BUSY;
 8001554:	687b      	ldr	r3, [r7, #4]
 8001556:	2224      	movs	r2, #36	; 0x24
 8001558:	f883 203d 	strb.w	r2, [r3, #61]	; 0x3d

  /* Disable the selected I2C peripheral */
  __HAL_I2C_DISABLE(hi2c);
 800155c:	687b      	ldr	r3, [r7, #4]
 800155e:	681b      	ldr	r3, [r3, #0]
 8001560:	681a      	ldr	r2, [r3, #0]
 8001562:	687b      	ldr	r3, [r7, #4]
 8001564:	681b      	ldr	r3, [r3, #0]
 8001566:	f022 0201 	bic.w	r2, r2, #1
 800156a:	601a      	str	r2, [r3, #0]

  /*Reset I2C*/
  hi2c->Instance->CR1 |= I2C_CR1_SWRST;
 800156c:	687b      	ldr	r3, [r7, #4]
 800156e:	681b      	ldr	r3, [r3, #0]
 8001570:	681a      	ldr	r2, [r3, #0]
 8001572:	687b      	ldr	r3, [r7, #4]
 8001574:	681b      	ldr	r3, [r3, #0]
 8001576:	f442 4200 	orr.w	r2, r2, #32768	; 0x8000
 800157a:	601a      	str	r2, [r3, #0]
  hi2c->Instance->CR1 &= ~I2C_CR1_SWRST;
 800157c:	687b      	ldr	r3, [r7, #4]
 800157e:	681b      	ldr	r3, [r3, #0]
 8001580:	681a      	ldr	r2, [r3, #0]
 8001582:	687b      	ldr	r3, [r7, #4]
 8001584:	681b      	ldr	r3, [r3, #0]
 8001586:	f422 4200 	bic.w	r2, r2, #32768	; 0x8000
 800158a:	601a      	str	r2, [r3, #0]

  /* Get PCLK1 frequency */
  pclk1 = HAL_RCC_GetPCLK1Freq();
 800158c:	f001 fb6e 	bl	8002c6c <HAL_RCC_GetPCLK1Freq>
 8001590:	60f8      	str	r0, [r7, #12]

  /* Check the minimum allowed PCLK1 frequency */
  if (I2C_MIN_PCLK_FREQ(pclk1, hi2c->Init.ClockSpeed) == 1U)
 8001592:	687b      	ldr	r3, [r7, #4]
 8001594:	685b      	ldr	r3, [r3, #4]
 8001596:	4a81      	ldr	r2, [pc, #516]	; (800179c <HAL_I2C_Init+0x274>)
 8001598:	4293      	cmp	r3, r2
 800159a:	d807      	bhi.n	80015ac <HAL_I2C_Init+0x84>
 800159c:	68fb      	ldr	r3, [r7, #12]
 800159e:	4a80      	ldr	r2, [pc, #512]	; (80017a0 <HAL_I2C_Init+0x278>)
 80015a0:	4293      	cmp	r3, r2
 80015a2:	bf94      	ite	ls
 80015a4:	2301      	movls	r3, #1
 80015a6:	2300      	movhi	r3, #0
 80015a8:	b2db      	uxtb	r3, r3
 80015aa:	e006      	b.n	80015ba <HAL_I2C_Init+0x92>
 80015ac:	68fb      	ldr	r3, [r7, #12]
 80015ae:	4a7d      	ldr	r2, [pc, #500]	; (80017a4 <HAL_I2C_Init+0x27c>)
 80015b0:	4293      	cmp	r3, r2
 80015b2:	bf94      	ite	ls
 80015b4:	2301      	movls	r3, #1
 80015b6:	2300      	movhi	r3, #0
 80015b8:	b2db      	uxtb	r3, r3
 80015ba:	2b00      	cmp	r3, #0
 80015bc:	d001      	beq.n	80015c2 <HAL_I2C_Init+0x9a>
  {
    return HAL_ERROR;
 80015be:	2301      	movs	r3, #1
 80015c0:	e0e7      	b.n	8001792 <HAL_I2C_Init+0x26a>
  }

  /* Calculate frequency range */
  freqrange = I2C_FREQRANGE(pclk1);
 80015c2:	68fb      	ldr	r3, [r7, #12]
 80015c4:	4a78      	ldr	r2, [pc, #480]	; (80017a8 <HAL_I2C_Init+0x280>)
 80015c6:	fba2 2303 	umull	r2, r3, r2, r3
 80015ca:	0c9b      	lsrs	r3, r3, #18
 80015cc:	60bb      	str	r3, [r7, #8]

  /*---------------------------- I2Cx CR2 Configuration ----------------------*/
  /* Configure I2Cx: Frequency range */
  MODIFY_REG(hi2c->Instance->CR2, I2C_CR2_FREQ, freqrange);
 80015ce:	687b      	ldr	r3, [r7, #4]
 80015d0:	681b      	ldr	r3, [r3, #0]
 80015d2:	685b      	ldr	r3, [r3, #4]
 80015d4:	f023 013f 	bic.w	r1, r3, #63	; 0x3f
 80015d8:	687b      	ldr	r3, [r7, #4]
 80015da:	681b      	ldr	r3, [r3, #0]
 80015dc:	68ba      	ldr	r2, [r7, #8]
 80015de:	430a      	orrs	r2, r1
 80015e0:	605a      	str	r2, [r3, #4]

  /*---------------------------- I2Cx TRISE Configuration --------------------*/
  /* Configure I2Cx: Rise Time */
  MODIFY_REG(hi2c->Instance->TRISE, I2C_TRISE_TRISE, I2C_RISE_TIME(freqrange, hi2c->Init.ClockSpeed));
 80015e2:	687b      	ldr	r3, [r7, #4]
 80015e4:	681b      	ldr	r3, [r3, #0]
 80015e6:	6a1b      	ldr	r3, [r3, #32]
 80015e8:	f023 013f 	bic.w	r1, r3, #63	; 0x3f
 80015ec:	687b      	ldr	r3, [r7, #4]
 80015ee:	685b      	ldr	r3, [r3, #4]
 80015f0:	4a6a      	ldr	r2, [pc, #424]	; (800179c <HAL_I2C_Init+0x274>)
 80015f2:	4293      	cmp	r3, r2
 80015f4:	d802      	bhi.n	80015fc <HAL_I2C_Init+0xd4>
 80015f6:	68bb      	ldr	r3, [r7, #8]
 80015f8:	3301      	adds	r3, #1
 80015fa:	e009      	b.n	8001610 <HAL_I2C_Init+0xe8>
 80015fc:	68bb      	ldr	r3, [r7, #8]
 80015fe:	f44f 7296 	mov.w	r2, #300	; 0x12c
 8001602:	fb02 f303 	mul.w	r3, r2, r3
 8001606:	4a69      	ldr	r2, [pc, #420]	; (80017ac <HAL_I2C_Init+0x284>)
 8001608:	fba2 2303 	umull	r2, r3, r2, r3
 800160c:	099b      	lsrs	r3, r3, #6
 800160e:	3301      	adds	r3, #1
 8001610:	687a      	ldr	r2, [r7, #4]
 8001612:	6812      	ldr	r2, [r2, #0]
 8001614:	430b      	orrs	r3, r1
 8001616:	6213      	str	r3, [r2, #32]

  /*---------------------------- I2Cx CCR Configuration ----------------------*/
  /* Configure I2Cx: Speed */
  MODIFY_REG(hi2c->Instance->CCR, (I2C_CCR_FS | I2C_CCR_DUTY | I2C_CCR_CCR), I2C_SPEED(pclk1, hi2c->Init.ClockSpeed, hi2c->Init.DutyCycle));
 8001618:	687b      	ldr	r3, [r7, #4]
 800161a:	681b      	ldr	r3, [r3, #0]
 800161c:	69db      	ldr	r3, [r3, #28]
 800161e:	f423 424f 	bic.w	r2, r3, #52992	; 0xcf00
 8001622:	f022 02ff 	bic.w	r2, r2, #255	; 0xff
 8001626:	687b      	ldr	r3, [r7, #4]
 8001628:	685b      	ldr	r3, [r3, #4]
 800162a:	495c      	ldr	r1, [pc, #368]	; (800179c <HAL_I2C_Init+0x274>)
 800162c:	428b      	cmp	r3, r1
 800162e:	d819      	bhi.n	8001664 <HAL_I2C_Init+0x13c>
 8001630:	68fb      	ldr	r3, [r7, #12]
 8001632:	1e59      	subs	r1, r3, #1
 8001634:	687b      	ldr	r3, [r7, #4]
 8001636:	685b      	ldr	r3, [r3, #4]
 8001638:	005b      	lsls	r3, r3, #1
 800163a:	fbb1 f3f3 	udiv	r3, r1, r3
 800163e:	1c59      	adds	r1, r3, #1
 8001640:	f640 73fc 	movw	r3, #4092	; 0xffc
 8001644:	400b      	ands	r3, r1
 8001646:	2b00      	cmp	r3, #0
 8001648:	d00a      	beq.n	8001660 <HAL_I2C_Init+0x138>
 800164a:	68fb      	ldr	r3, [r7, #12]
 800164c:	1e59      	subs	r1, r3, #1
 800164e:	687b      	ldr	r3, [r7, #4]
 8001650:	685b      	ldr	r3, [r3, #4]
 8001652:	005b      	lsls	r3, r3, #1
 8001654:	fbb1 f3f3 	udiv	r3, r1, r3
 8001658:	3301      	adds	r3, #1
 800165a:	f3c3 030b 	ubfx	r3, r3, #0, #12
 800165e:	e051      	b.n	8001704 <HAL_I2C_Init+0x1dc>
 8001660:	2304      	movs	r3, #4
 8001662:	e04f      	b.n	8001704 <HAL_I2C_Init+0x1dc>
 8001664:	687b      	ldr	r3, [r7, #4]
 8001666:	689b      	ldr	r3, [r3, #8]
 8001668:	2b00      	cmp	r3, #0
 800166a:	d111      	bne.n	8001690 <HAL_I2C_Init+0x168>
 800166c:	68fb      	ldr	r3, [r7, #12]
 800166e:	1e58      	subs	r0, r3, #1
 8001670:	687b      	ldr	r3, [r7, #4]
 8001672:	6859      	ldr	r1, [r3, #4]
 8001674:	460b      	mov	r3, r1
 8001676:	005b      	lsls	r3, r3, #1
 8001678:	440b      	add	r3, r1
 800167a:	fbb0 f3f3 	udiv	r3, r0, r3
 800167e:	3301      	adds	r3, #1
 8001680:	f3c3 030b 	ubfx	r3, r3, #0, #12
 8001684:	2b00      	cmp	r3, #0
 8001686:	bf0c      	ite	eq
 8001688:	2301      	moveq	r3, #1
 800168a:	2300      	movne	r3, #0
 800168c:	b2db      	uxtb	r3, r3
 800168e:	e012      	b.n	80016b6 <HAL_I2C_Init+0x18e>
 8001690:	68fb      	ldr	r3, [r7, #12]
 8001692:	1e58      	subs	r0, r3, #1
 8001694:	687b      	ldr	r3, [r7, #4]
 8001696:	6859      	ldr	r1, [r3, #4]
 8001698:	460b      	mov	r3, r1
 800169a:	009b      	lsls	r3, r3, #2
 800169c:	440b      	add	r3, r1
 800169e:	0099      	lsls	r1, r3, #2
 80016a0:	440b      	add	r3, r1
 80016a2:	fbb0 f3f3 	udiv	r3, r0, r3
 80016a6:	3301      	adds	r3, #1
 80016a8:	f3c3 030b 	ubfx	r3, r3, #0, #12
 80016ac:	2b00      	cmp	r3, #0
 80016ae:	bf0c      	ite	eq
 80016b0:	2301      	moveq	r3, #1
 80016b2:	2300      	movne	r3, #0
 80016b4:	b2db      	uxtb	r3, r3
 80016b6:	2b00      	cmp	r3, #0
 80016b8:	d001      	beq.n	80016be <HAL_I2C_Init+0x196>
 80016ba:	2301      	movs	r3, #1
 80016bc:	e022      	b.n	8001704 <HAL_I2C_Init+0x1dc>
 80016be:	687b      	ldr	r3, [r7, #4]
 80016c0:	689b      	ldr	r3, [r3, #8]
 80016c2:	2b00      	cmp	r3, #0
 80016c4:	d10e      	bne.n	80016e4 <HAL_I2C_Init+0x1bc>
 80016c6:	68fb      	ldr	r3, [r7, #12]
 80016c8:	1e58      	subs	r0, r3, #1
 80016ca:	687b      	ldr	r3, [r7, #4]
 80016cc:	6859      	ldr	r1, [r3, #4]
 80016ce:	460b      	mov	r3, r1
 80016d0:	005b      	lsls	r3, r3, #1
 80016d2:	440b      	add	r3, r1
 80016d4:	fbb0 f3f3 	udiv	r3, r0, r3
 80016d8:	3301      	adds	r3, #1
 80016da:	f3c3 030b 	ubfx	r3, r3, #0, #12
 80016de:	f443 4300 	orr.w	r3, r3, #32768	; 0x8000
 80016e2:	e00f      	b.n	8001704 <HAL_I2C_Init+0x1dc>
 80016e4:	68fb      	ldr	r3, [r7, #12]
 80016e6:	1e58      	subs	r0, r3, #1
 80016e8:	687b      	ldr	r3, [r7, #4]
 80016ea:	6859      	ldr	r1, [r3, #4]
 80016ec:	460b      	mov	r3, r1
 80016ee:	009b      	lsls	r3, r3, #2
 80016f0:	440b      	add	r3, r1
 80016f2:	0099      	lsls	r1, r3, #2
 80016f4:	440b      	add	r3, r1
 80016f6:	fbb0 f3f3 	udiv	r3, r0, r3
 80016fa:	3301      	adds	r3, #1
 80016fc:	f3c3 030b 	ubfx	r3, r3, #0, #12
 8001700:	f443 4340 	orr.w	r3, r3, #49152	; 0xc000
 8001704:	6879      	ldr	r1, [r7, #4]
 8001706:	6809      	ldr	r1, [r1, #0]
 8001708:	4313      	orrs	r3, r2
 800170a:	61cb      	str	r3, [r1, #28]

  /*---------------------------- I2Cx CR1 Configuration ----------------------*/
  /* Configure I2Cx: Generalcall and NoStretch mode */
  MODIFY_REG(hi2c->Instance->CR1, (I2C_CR1_ENGC | I2C_CR1_NOSTRETCH), (hi2c->Init.GeneralCallMode | hi2c->Init.NoStretchMode));
 800170c:	687b      	ldr	r3, [r7, #4]
 800170e:	681b      	ldr	r3, [r3, #0]
 8001710:	681b      	ldr	r3, [r3, #0]
 8001712:	f023 01c0 	bic.w	r1, r3, #192	; 0xc0
 8001716:	687b      	ldr	r3, [r7, #4]
 8001718:	69da      	ldr	r2, [r3, #28]
 800171a:	687b      	ldr	r3, [r7, #4]
 800171c:	6a1b      	ldr	r3, [r3, #32]
 800171e:	431a      	orrs	r2, r3
 8001720:	687b      	ldr	r3, [r7, #4]
 8001722:	681b      	ldr	r3, [r3, #0]
 8001724:	430a      	orrs	r2, r1
 8001726:	601a      	str	r2, [r3, #0]

  /*---------------------------- I2Cx OAR1 Configuration ---------------------*/
  /* Configure I2Cx: Own Address1 and addressing mode */
  MODIFY_REG(hi2c->Instance->OAR1, (I2C_OAR1_ADDMODE | I2C_OAR1_ADD8_9 | I2C_OAR1_ADD1_7 | I2C_OAR1_ADD0), (hi2c->Init.AddressingMode | hi2c->Init.OwnAddress1));
 8001728:	687b      	ldr	r3, [r7, #4]
 800172a:	681b      	ldr	r3, [r3, #0]
 800172c:	689b      	ldr	r3, [r3, #8]
 800172e:	f423 4303 	bic.w	r3, r3, #33536	; 0x8300
 8001732:	f023 03ff 	bic.w	r3, r3, #255	; 0xff
 8001736:	687a      	ldr	r2, [r7, #4]
 8001738:	6911      	ldr	r1, [r2, #16]
 800173a:	687a      	ldr	r2, [r7, #4]
 800173c:	68d2      	ldr	r2, [r2, #12]
 800173e:	4311      	orrs	r1, r2
 8001740:	687a      	ldr	r2, [r7, #4]
 8001742:	6812      	ldr	r2, [r2, #0]
 8001744:	430b      	orrs	r3, r1
 8001746:	6093      	str	r3, [r2, #8]

  /*---------------------------- I2Cx OAR2 Configuration ---------------------*/
  /* Configure I2Cx: Dual mode and Own Address2 */
  MODIFY_REG(hi2c->Instance->OAR2, (I2C_OAR2_ENDUAL | I2C_OAR2_ADD2), (hi2c->Init.DualAddressMode | hi2c->Init.OwnAddress2));
 8001748:	687b      	ldr	r3, [r7, #4]
 800174a:	681b      	ldr	r3, [r3, #0]
 800174c:	68db      	ldr	r3, [r3, #12]
 800174e:	f023 01ff 	bic.w	r1, r3, #255	; 0xff
 8001752:	687b      	ldr	r3, [r7, #4]
 8001754:	695a      	ldr	r2, [r3, #20]
 8001756:	687b      	ldr	r3, [r7, #4]
 8001758:	699b      	ldr	r3, [r3, #24]
 800175a:	431a      	orrs	r2, r3
 800175c:	687b      	ldr	r3, [r7, #4]
 800175e:	681b      	ldr	r3, [r3, #0]
 8001760:	430a      	orrs	r2, r1
 8001762:	60da      	str	r2, [r3, #12]

  /* Enable the selected I2C peripheral */
  __HAL_I2C_ENABLE(hi2c);
 8001764:	687b      	ldr	r3, [r7, #4]
 8001766:	681b      	ldr	r3, [r3, #0]
 8001768:	681a      	ldr	r2, [r3, #0]
 800176a:	687b      	ldr	r3, [r7, #4]
 800176c:	681b      	ldr	r3, [r3, #0]
 800176e:	f042 0201 	orr.w	r2, r2, #1
 8001772:	601a      	str	r2, [r3, #0]

  hi2c->ErrorCode = HAL_I2C_ERROR_NONE;
 8001774:	687b      	ldr	r3, [r7, #4]
 8001776:	2200      	movs	r2, #0
 8001778:	641a      	str	r2, [r3, #64]	; 0x40
  hi2c->State = HAL_I2C_STATE_READY;
 800177a:	687b      	ldr	r3, [r7, #4]
 800177c:	2220      	movs	r2, #32
 800177e:	f883 203d 	strb.w	r2, [r3, #61]	; 0x3d
  hi2c->PreviousState = I2C_STATE_NONE;
 8001782:	687b      	ldr	r3, [r7, #4]
 8001784:	2200      	movs	r2, #0
 8001786:	631a      	str	r2, [r3, #48]	; 0x30
  hi2c->Mode = HAL_I2C_MODE_NONE;
 8001788:	687b      	ldr	r3, [r7, #4]
 800178a:	2200      	movs	r2, #0
 800178c:	f883 203e 	strb.w	r2, [r3, #62]	; 0x3e

  return HAL_OK;
 8001790:	2300      	movs	r3, #0
}
 8001792:	4618      	mov	r0, r3
 8001794:	3710      	adds	r7, #16
 8001796:	46bd      	mov	sp, r7
 8001798:	bd80      	pop	{r7, pc}
 800179a:	bf00      	nop
 800179c:	000186a0 	.word	0x000186a0
 80017a0:	001e847f 	.word	0x001e847f
 80017a4:	003d08ff 	.word	0x003d08ff
 80017a8:	431bde83 	.word	0x431bde83
 80017ac:	10624dd3 	.word	0x10624dd3

080017b0 <HAL_I2C_Master_Transmit>:
  * @param  Size Amount of data to be sent
  * @param  Timeout Timeout duration
  * @retval HAL status
  */
HAL_StatusTypeDef HAL_I2C_Master_Transmit(I2C_HandleTypeDef *hi2c, uint16_t DevAddress, uint8_t *pData, uint16_t Size, uint32_t Timeout)
{
 80017b0:	b580      	push	{r7, lr}
 80017b2:	b088      	sub	sp, #32
 80017b4:	af02      	add	r7, sp, #8
 80017b6:	60f8      	str	r0, [r7, #12]
 80017b8:	607a      	str	r2, [r7, #4]
 80017ba:	461a      	mov	r2, r3
 80017bc:	460b      	mov	r3, r1
 80017be:	817b      	strh	r3, [r7, #10]
 80017c0:	4613      	mov	r3, r2
 80017c2:	813b      	strh	r3, [r7, #8]
  /* Init tickstart for timeout management*/
  uint32_t tickstart = HAL_GetTick();
 80017c4:	f7ff fb7a 	bl	8000ebc <HAL_GetTick>
 80017c8:	6178      	str	r0, [r7, #20]

  if (hi2c->State == HAL_I2C_STATE_READY)
 80017ca:	68fb      	ldr	r3, [r7, #12]
 80017cc:	f893 303d 	ldrb.w	r3, [r3, #61]	; 0x3d
 80017d0:	b2db      	uxtb	r3, r3
 80017d2:	2b20      	cmp	r3, #32
 80017d4:	f040 80e0 	bne.w	8001998 <HAL_I2C_Master_Transmit+0x1e8>
  {
    /* Wait until BUSY flag is reset */
    if (I2C_WaitOnFlagUntilTimeout(hi2c, I2C_FLAG_BUSY, SET, I2C_TIMEOUT_BUSY_FLAG, tickstart) != HAL_OK)
 80017d8:	697b      	ldr	r3, [r7, #20]
 80017da:	9300      	str	r3, [sp, #0]
 80017dc:	2319      	movs	r3, #25
 80017de:	2201      	movs	r2, #1
 80017e0:	4970      	ldr	r1, [pc, #448]	; (80019a4 <HAL_I2C_Master_Transmit+0x1f4>)
 80017e2:	68f8      	ldr	r0, [r7, #12]
 80017e4:	f000 fc92 	bl	800210c <I2C_WaitOnFlagUntilTimeout>
 80017e8:	4603      	mov	r3, r0
 80017ea:	2b00      	cmp	r3, #0
 80017ec:	d001      	beq.n	80017f2 <HAL_I2C_Master_Transmit+0x42>
    {
      return HAL_BUSY;
 80017ee:	2302      	movs	r3, #2
 80017f0:	e0d3      	b.n	800199a <HAL_I2C_Master_Transmit+0x1ea>
    }

    /* Process Locked */
    __HAL_LOCK(hi2c);
 80017f2:	68fb      	ldr	r3, [r7, #12]
 80017f4:	f893 303c 	ldrb.w	r3, [r3, #60]	; 0x3c
 80017f8:	2b01      	cmp	r3, #1
 80017fa:	d101      	bne.n	8001800 <HAL_I2C_Master_Transmit+0x50>
 80017fc:	2302      	movs	r3, #2
 80017fe:	e0cc      	b.n	800199a <HAL_I2C_Master_Transmit+0x1ea>
 8001800:	68fb      	ldr	r3, [r7, #12]
 8001802:	2201      	movs	r2, #1
 8001804:	f883 203c 	strb.w	r2, [r3, #60]	; 0x3c

    /* Check if the I2C is already enabled */
    if ((hi2c->Instance->CR1 & I2C_CR1_PE) != I2C_CR1_PE)
 8001808:	68fb      	ldr	r3, [r7, #12]
 800180a:	681b      	ldr	r3, [r3, #0]
 800180c:	681b      	ldr	r3, [r3, #0]
 800180e:	f003 0301 	and.w	r3, r3, #1
 8001812:	2b01      	cmp	r3, #1
 8001814:	d007      	beq.n	8001826 <HAL_I2C_Master_Transmit+0x76>
    {
      /* Enable I2C peripheral */
      __HAL_I2C_ENABLE(hi2c);
 8001816:	68fb      	ldr	r3, [r7, #12]
 8001818:	681b      	ldr	r3, [r3, #0]
 800181a:	681a      	ldr	r2, [r3, #0]
 800181c:	68fb      	ldr	r3, [r7, #12]
 800181e:	681b      	ldr	r3, [r3, #0]
 8001820:	f042 0201 	orr.w	r2, r2, #1
 8001824:	601a      	str	r2, [r3, #0]
    }

    /* Disable Pos */
    CLEAR_BIT(hi2c->Instance->CR1, I2C_CR1_POS);
 8001826:	68fb      	ldr	r3, [r7, #12]
 8001828:	681b      	ldr	r3, [r3, #0]
 800182a:	681a      	ldr	r2, [r3, #0]
 800182c:	68fb      	ldr	r3, [r7, #12]
 800182e:	681b      	ldr	r3, [r3, #0]
 8001830:	f422 6200 	bic.w	r2, r2, #2048	; 0x800
 8001834:	601a      	str	r2, [r3, #0]

    hi2c->State       = HAL_I2C_STATE_BUSY_TX;
 8001836:	68fb      	ldr	r3, [r7, #12]
 8001838:	2221      	movs	r2, #33	; 0x21
 800183a:	f883 203d 	strb.w	r2, [r3, #61]	; 0x3d
    hi2c->Mode        = HAL_I2C_MODE_MASTER;
 800183e:	68fb      	ldr	r3, [r7, #12]
 8001840:	2210      	movs	r2, #16
 8001842:	f883 203e 	strb.w	r2, [r3, #62]	; 0x3e
    hi2c->ErrorCode   = HAL_I2C_ERROR_NONE;
 8001846:	68fb      	ldr	r3, [r7, #12]
 8001848:	2200      	movs	r2, #0
 800184a:	641a      	str	r2, [r3, #64]	; 0x40

    /* Prepare transfer parameters */
    hi2c->pBuffPtr    = pData;
 800184c:	68fb      	ldr	r3, [r7, #12]
 800184e:	687a      	ldr	r2, [r7, #4]
 8001850:	625a      	str	r2, [r3, #36]	; 0x24
    hi2c->XferCount   = Size;
 8001852:	68fb      	ldr	r3, [r7, #12]
 8001854:	893a      	ldrh	r2, [r7, #8]
 8001856:	855a      	strh	r2, [r3, #42]	; 0x2a
    hi2c->XferSize    = hi2c->XferCount;
 8001858:	68fb      	ldr	r3, [r7, #12]
 800185a:	8d5b      	ldrh	r3, [r3, #42]	; 0x2a
 800185c:	b29a      	uxth	r2, r3
 800185e:	68fb      	ldr	r3, [r7, #12]
 8001860:	851a      	strh	r2, [r3, #40]	; 0x28
    hi2c->XferOptions = I2C_NO_OPTION_FRAME;
 8001862:	68fb      	ldr	r3, [r7, #12]
 8001864:	4a50      	ldr	r2, [pc, #320]	; (80019a8 <HAL_I2C_Master_Transmit+0x1f8>)
 8001866:	62da      	str	r2, [r3, #44]	; 0x2c

    /* Send Slave Address */
    if (I2C_MasterRequestWrite(hi2c, DevAddress, Timeout, tickstart) != HAL_OK)
 8001868:	8979      	ldrh	r1, [r7, #10]
 800186a:	697b      	ldr	r3, [r7, #20]
 800186c:	6a3a      	ldr	r2, [r7, #32]
 800186e:	68f8      	ldr	r0, [r7, #12]
 8001870:	f000 fafc 	bl	8001e6c <I2C_MasterRequestWrite>
 8001874:	4603      	mov	r3, r0
 8001876:	2b00      	cmp	r3, #0
 8001878:	d001      	beq.n	800187e <HAL_I2C_Master_Transmit+0xce>
    {
      return HAL_ERROR;
 800187a:	2301      	movs	r3, #1
 800187c:	e08d      	b.n	800199a <HAL_I2C_Master_Transmit+0x1ea>
    }

    /* Clear ADDR flag */
    __HAL_I2C_CLEAR_ADDRFLAG(hi2c);
 800187e:	2300      	movs	r3, #0
 8001880:	613b      	str	r3, [r7, #16]
 8001882:	68fb      	ldr	r3, [r7, #12]
 8001884:	681b      	ldr	r3, [r3, #0]
 8001886:	695b      	ldr	r3, [r3, #20]
 8001888:	613b      	str	r3, [r7, #16]
 800188a:	68fb      	ldr	r3, [r7, #12]
 800188c:	681b      	ldr	r3, [r3, #0]
 800188e:	699b      	ldr	r3, [r3, #24]
 8001890:	613b      	str	r3, [r7, #16]
 8001892:	693b      	ldr	r3, [r7, #16]

    while (hi2c->XferSize > 0U)
 8001894:	e066      	b.n	8001964 <HAL_I2C_Master_Transmit+0x1b4>
    {
      /* Wait until TXE flag is set */
      if (I2C_WaitOnTXEFlagUntilTimeout(hi2c, Timeout, tickstart) != HAL_OK)
 8001896:	697a      	ldr	r2, [r7, #20]
 8001898:	6a39      	ldr	r1, [r7, #32]
 800189a:	68f8      	ldr	r0, [r7, #12]
 800189c:	f000 fd0c 	bl	80022b8 <I2C_WaitOnTXEFlagUntilTimeout>
 80018a0:	4603      	mov	r3, r0
 80018a2:	2b00      	cmp	r3, #0
 80018a4:	d00d      	beq.n	80018c2 <HAL_I2C_Master_Transmit+0x112>
      {
        if (hi2c->ErrorCode == HAL_I2C_ERROR_AF)
 80018a6:	68fb      	ldr	r3, [r7, #12]
 80018a8:	6c1b      	ldr	r3, [r3, #64]	; 0x40
 80018aa:	2b04      	cmp	r3, #4
 80018ac:	d107      	bne.n	80018be <HAL_I2C_Master_Transmit+0x10e>
        {
          /* Generate Stop */
          SET_BIT(hi2c->Instance->CR1, I2C_CR1_STOP);
 80018ae:	68fb      	ldr	r3, [r7, #12]
 80018b0:	681b      	ldr	r3, [r3, #0]
 80018b2:	681a      	ldr	r2, [r3, #0]
 80018b4:	68fb      	ldr	r3, [r7, #12]
 80018b6:	681b      	ldr	r3, [r3, #0]
 80018b8:	f442 7200 	orr.w	r2, r2, #512	; 0x200
 80018bc:	601a      	str	r2, [r3, #0]
        }
        return HAL_ERROR;
 80018be:	2301      	movs	r3, #1
 80018c0:	e06b      	b.n	800199a <HAL_I2C_Master_Transmit+0x1ea>
      }

      /* Write data to DR */
      hi2c->Instance->DR = *hi2c->pBuffPtr;
 80018c2:	68fb      	ldr	r3, [r7, #12]
 80018c4:	6a5b      	ldr	r3, [r3, #36]	; 0x24
 80018c6:	781a      	ldrb	r2, [r3, #0]
 80018c8:	68fb      	ldr	r3, [r7, #12]
 80018ca:	681b      	ldr	r3, [r3, #0]
 80018cc:	611a      	str	r2, [r3, #16]

      /* Increment Buffer pointer */
      hi2c->pBuffPtr++;
 80018ce:	68fb      	ldr	r3, [r7, #12]
 80018d0:	6a5b      	ldr	r3, [r3, #36]	; 0x24
 80018d2:	1c5a      	adds	r2, r3, #1
 80018d4:	68fb      	ldr	r3, [r7, #12]
 80018d6:	625a      	str	r2, [r3, #36]	; 0x24

      /* Update counter */
      hi2c->XferCount--;
 80018d8:	68fb      	ldr	r3, [r7, #12]
 80018da:	8d5b      	ldrh	r3, [r3, #42]	; 0x2a
 80018dc:	b29b      	uxth	r3, r3
 80018de:	3b01      	subs	r3, #1
 80018e0:	b29a      	uxth	r2, r3
 80018e2:	68fb      	ldr	r3, [r7, #12]
 80018e4:	855a      	strh	r2, [r3, #42]	; 0x2a
      hi2c->XferSize--;
 80018e6:	68fb      	ldr	r3, [r7, #12]
 80018e8:	8d1b      	ldrh	r3, [r3, #40]	; 0x28
 80018ea:	3b01      	subs	r3, #1
 80018ec:	b29a      	uxth	r2, r3
 80018ee:	68fb      	ldr	r3, [r7, #12]
 80018f0:	851a      	strh	r2, [r3, #40]	; 0x28

      if ((__HAL_I2C_GET_FLAG(hi2c, I2C_FLAG_BTF) == SET) && (hi2c->XferSize != 0U))
 80018f2:	68fb      	ldr	r3, [r7, #12]
 80018f4:	681b      	ldr	r3, [r3, #0]
 80018f6:	695b      	ldr	r3, [r3, #20]
 80018f8:	f003 0304 	and.w	r3, r3, #4
 80018fc:	2b04      	cmp	r3, #4
 80018fe:	d11b      	bne.n	8001938 <HAL_I2C_Master_Transmit+0x188>
 8001900:	68fb      	ldr	r3, [r7, #12]
 8001902:	8d1b      	ldrh	r3, [r3, #40]	; 0x28
 8001904:	2b00      	cmp	r3, #0
 8001906:	d017      	beq.n	8001938 <HAL_I2C_Master_Transmit+0x188>
      {
        /* Write data to DR */
        hi2c->Instance->DR = *hi2c->pBuffPtr;
 8001908:	68fb      	ldr	r3, [r7, #12]
 800190a:	6a5b      	ldr	r3, [r3, #36]	; 0x24
 800190c:	781a      	ldrb	r2, [r3, #0]
 800190e:	68fb      	ldr	r3, [r7, #12]
 8001910:	681b      	ldr	r3, [r3, #0]
 8001912:	611a      	str	r2, [r3, #16]

        /* Increment Buffer pointer */
        hi2c->pBuffPtr++;
 8001914:	68fb      	ldr	r3, [r7, #12]
 8001916:	6a5b      	ldr	r3, [r3, #36]	; 0x24
 8001918:	1c5a      	adds	r2, r3, #1
 800191a:	68fb      	ldr	r3, [r7, #12]
 800191c:	625a      	str	r2, [r3, #36]	; 0x24

        /* Update counter */
        hi2c->XferCount--;
 800191e:	68fb      	ldr	r3, [r7, #12]
 8001920:	8d5b      	ldrh	r3, [r3, #42]	; 0x2a
 8001922:	b29b      	uxth	r3, r3
 8001924:	3b01      	subs	r3, #1
 8001926:	b29a      	uxth	r2, r3
 8001928:	68fb      	ldr	r3, [r7, #12]
 800192a:	855a      	strh	r2, [r3, #42]	; 0x2a
        hi2c->XferSize--;
 800192c:	68fb      	ldr	r3, [r7, #12]
 800192e:	8d1b      	ldrh	r3, [r3, #40]	; 0x28
 8001930:	3b01      	subs	r3, #1
 8001932:	b29a      	uxth	r2, r3
 8001934:	68fb      	ldr	r3, [r7, #12]
 8001936:	851a      	strh	r2, [r3, #40]	; 0x28
      }

      /* Wait until BTF flag is set */
      if (I2C_WaitOnBTFFlagUntilTimeout(hi2c, Timeout, tickstart) != HAL_OK)
 8001938:	697a      	ldr	r2, [r7, #20]
 800193a:	6a39      	ldr	r1, [r7, #32]
 800193c:	68f8      	ldr	r0, [r7, #12]
 800193e:	f000 fcfc 	bl	800233a <I2C_WaitOnBTFFlagUntilTimeout>
 8001942:	4603      	mov	r3, r0
 8001944:	2b00      	cmp	r3, #0
 8001946:	d00d      	beq.n	8001964 <HAL_I2C_Master_Transmit+0x1b4>
      {
        if (hi2c->ErrorCode == HAL_I2C_ERROR_AF)
 8001948:	68fb      	ldr	r3, [r7, #12]
 800194a:	6c1b      	ldr	r3, [r3, #64]	; 0x40
 800194c:	2b04      	cmp	r3, #4
 800194e:	d107      	bne.n	8001960 <HAL_I2C_Master_Transmit+0x1b0>
        {
          /* Generate Stop */
          SET_BIT(hi2c->Instance->CR1, I2C_CR1_STOP);
 8001950:	68fb      	ldr	r3, [r7, #12]
 8001952:	681b      	ldr	r3, [r3, #0]
 8001954:	681a      	ldr	r2, [r3, #0]
 8001956:	68fb      	ldr	r3, [r7, #12]
 8001958:	681b      	ldr	r3, [r3, #0]
 800195a:	f442 7200 	orr.w	r2, r2, #512	; 0x200
 800195e:	601a      	str	r2, [r3, #0]
        }
        return HAL_ERROR;
 8001960:	2301      	movs	r3, #1
 8001962:	e01a      	b.n	800199a <HAL_I2C_Master_Transmit+0x1ea>
    while (hi2c->XferSize > 0U)
 8001964:	68fb      	ldr	r3, [r7, #12]
 8001966:	8d1b      	ldrh	r3, [r3, #40]	; 0x28
 8001968:	2b00      	cmp	r3, #0
 800196a:	d194      	bne.n	8001896 <HAL_I2C_Master_Transmit+0xe6>
      }
    }

    /* Generate Stop */
    SET_BIT(hi2c->Instance->CR1, I2C_CR1_STOP);
 800196c:	68fb      	ldr	r3, [r7, #12]
 800196e:	681b      	ldr	r3, [r3, #0]
 8001970:	681a      	ldr	r2, [r3, #0]
 8001972:	68fb      	ldr	r3, [r7, #12]
 8001974:	681b      	ldr	r3, [r3, #0]
 8001976:	f442 7200 	orr.w	r2, r2, #512	; 0x200
 800197a:	601a      	str	r2, [r3, #0]

    hi2c->State = HAL_I2C_STATE_READY;
 800197c:	68fb      	ldr	r3, [r7, #12]
 800197e:	2220      	movs	r2, #32
 8001980:	f883 203d 	strb.w	r2, [r3, #61]	; 0x3d
    hi2c->Mode = HAL_I2C_MODE_NONE;
 8001984:	68fb      	ldr	r3, [r7, #12]
 8001986:	2200      	movs	r2, #0
 8001988:	f883 203e 	strb.w	r2, [r3, #62]	; 0x3e

    /* Process Unlocked */
    __HAL_UNLOCK(hi2c);
 800198c:	68fb      	ldr	r3, [r7, #12]
 800198e:	2200      	movs	r2, #0
 8001990:	f883 203c 	strb.w	r2, [r3, #60]	; 0x3c

    return HAL_OK;
 8001994:	2300      	movs	r3, #0
 8001996:	e000      	b.n	800199a <HAL_I2C_Master_Transmit+0x1ea>
  }
  else
  {
    return HAL_BUSY;
 8001998:	2302      	movs	r3, #2
  }
}
 800199a:	4618      	mov	r0, r3
 800199c:	3718      	adds	r7, #24
 800199e:	46bd      	mov	sp, r7
 80019a0:	bd80      	pop	{r7, pc}
 80019a2:	bf00      	nop
 80019a4:	00100002 	.word	0x00100002
 80019a8:	ffff0000 	.word	0xffff0000

080019ac <HAL_I2C_Master_Receive>:
  * @param  Size Amount of data to be sent
  * @param  Timeout Timeout duration
  * @retval HAL status
  */
HAL_StatusTypeDef HAL_I2C_Master_Receive(I2C_HandleTypeDef *hi2c, uint16_t DevAddress, uint8_t *pData, uint16_t Size, uint32_t Timeout)
{
 80019ac:	b580      	push	{r7, lr}
 80019ae:	b08c      	sub	sp, #48	; 0x30
 80019b0:	af02      	add	r7, sp, #8
 80019b2:	60f8      	str	r0, [r7, #12]
 80019b4:	607a      	str	r2, [r7, #4]
 80019b6:	461a      	mov	r2, r3
 80019b8:	460b      	mov	r3, r1
 80019ba:	817b      	strh	r3, [r7, #10]
 80019bc:	4613      	mov	r3, r2
 80019be:	813b      	strh	r3, [r7, #8]
  __IO uint32_t count = 0U;
 80019c0:	2300      	movs	r3, #0
 80019c2:	623b      	str	r3, [r7, #32]

  /* Init tickstart for timeout management*/
  uint32_t tickstart = HAL_GetTick();
 80019c4:	f7ff fa7a 	bl	8000ebc <HAL_GetTick>
 80019c8:	6278      	str	r0, [r7, #36]	; 0x24

  if (hi2c->State == HAL_I2C_STATE_READY)
 80019ca:	68fb      	ldr	r3, [r7, #12]
 80019cc:	f893 303d 	ldrb.w	r3, [r3, #61]	; 0x3d
 80019d0:	b2db      	uxtb	r3, r3
 80019d2:	2b20      	cmp	r3, #32
 80019d4:	f040 823f 	bne.w	8001e56 <HAL_I2C_Master_Receive+0x4aa>
  {
    /* Wait until BUSY flag is reset */
    if (I2C_WaitOnFlagUntilTimeout(hi2c, I2C_FLAG_BUSY, SET, I2C_TIMEOUT_BUSY_FLAG, tickstart) != HAL_OK)
 80019d8:	6a7b      	ldr	r3, [r7, #36]	; 0x24
 80019da:	9300      	str	r3, [sp, #0]
 80019dc:	2319      	movs	r3, #25
 80019de:	2201      	movs	r2, #1
 80019e0:	497f      	ldr	r1, [pc, #508]	; (8001be0 <HAL_I2C_Master_Receive+0x234>)
 80019e2:	68f8      	ldr	r0, [r7, #12]
 80019e4:	f000 fb92 	bl	800210c <I2C_WaitOnFlagUntilTimeout>
 80019e8:	4603      	mov	r3, r0
 80019ea:	2b00      	cmp	r3, #0
 80019ec:	d001      	beq.n	80019f2 <HAL_I2C_Master_Receive+0x46>
    {
      return HAL_BUSY;
 80019ee:	2302      	movs	r3, #2
 80019f0:	e232      	b.n	8001e58 <HAL_I2C_Master_Receive+0x4ac>
    }

    /* Process Locked */
    __HAL_LOCK(hi2c);
 80019f2:	68fb      	ldr	r3, [r7, #12]
 80019f4:	f893 303c 	ldrb.w	r3, [r3, #60]	; 0x3c
 80019f8:	2b01      	cmp	r3, #1
 80019fa:	d101      	bne.n	8001a00 <HAL_I2C_Master_Receive+0x54>
 80019fc:	2302      	movs	r3, #2
 80019fe:	e22b      	b.n	8001e58 <HAL_I2C_Master_Receive+0x4ac>
 8001a00:	68fb      	ldr	r3, [r7, #12]
 8001a02:	2201      	movs	r2, #1
 8001a04:	f883 203c 	strb.w	r2, [r3, #60]	; 0x3c

    /* Check if the I2C is already enabled */
    if ((hi2c->Instance->CR1 & I2C_CR1_PE) != I2C_CR1_PE)
 8001a08:	68fb      	ldr	r3, [r7, #12]
 8001a0a:	681b      	ldr	r3, [r3, #0]
 8001a0c:	681b      	ldr	r3, [r3, #0]
 8001a0e:	f003 0301 	and.w	r3, r3, #1
 8001a12:	2b01      	cmp	r3, #1
 8001a14:	d007      	beq.n	8001a26 <HAL_I2C_Master_Receive+0x7a>
    {
      /* Enable I2C peripheral */
      __HAL_I2C_ENABLE(hi2c);
 8001a16:	68fb      	ldr	r3, [r7, #12]
 8001a18:	681b      	ldr	r3, [r3, #0]
 8001a1a:	681a      	ldr	r2, [r3, #0]
 8001a1c:	68fb      	ldr	r3, [r7, #12]
 8001a1e:	681b      	ldr	r3, [r3, #0]
 8001a20:	f042 0201 	orr.w	r2, r2, #1
 8001a24:	601a      	str	r2, [r3, #0]
    }

    /* Disable Pos */
    CLEAR_BIT(hi2c->Instance->CR1, I2C_CR1_POS);
 8001a26:	68fb      	ldr	r3, [r7, #12]
 8001a28:	681b      	ldr	r3, [r3, #0]
 8001a2a:	681a      	ldr	r2, [r3, #0]
 8001a2c:	68fb      	ldr	r3, [r7, #12]
 8001a2e:	681b      	ldr	r3, [r3, #0]
 8001a30:	f422 6200 	bic.w	r2, r2, #2048	; 0x800
 8001a34:	601a      	str	r2, [r3, #0]

    hi2c->State       = HAL_I2C_STATE_BUSY_RX;
 8001a36:	68fb      	ldr	r3, [r7, #12]
 8001a38:	2222      	movs	r2, #34	; 0x22
 8001a3a:	f883 203d 	strb.w	r2, [r3, #61]	; 0x3d
    hi2c->Mode        = HAL_I2C_MODE_MASTER;
 8001a3e:	68fb      	ldr	r3, [r7, #12]
 8001a40:	2210      	movs	r2, #16
 8001a42:	f883 203e 	strb.w	r2, [r3, #62]	; 0x3e
    hi2c->ErrorCode   = HAL_I2C_ERROR_NONE;
 8001a46:	68fb      	ldr	r3, [r7, #12]
 8001a48:	2200      	movs	r2, #0
 8001a4a:	641a      	str	r2, [r3, #64]	; 0x40

    /* Prepare transfer parameters */
    hi2c->pBuffPtr    = pData;
 8001a4c:	68fb      	ldr	r3, [r7, #12]
 8001a4e:	687a      	ldr	r2, [r7, #4]
 8001a50:	625a      	str	r2, [r3, #36]	; 0x24
    hi2c->XferCount   = Size;
 8001a52:	68fb      	ldr	r3, [r7, #12]
 8001a54:	893a      	ldrh	r2, [r7, #8]
 8001a56:	855a      	strh	r2, [r3, #42]	; 0x2a
    hi2c->XferSize    = hi2c->XferCount;
 8001a58:	68fb      	ldr	r3, [r7, #12]
 8001a5a:	8d5b      	ldrh	r3, [r3, #42]	; 0x2a
 8001a5c:	b29a      	uxth	r2, r3
 8001a5e:	68fb      	ldr	r3, [r7, #12]
 8001a60:	851a      	strh	r2, [r3, #40]	; 0x28
    hi2c->XferOptions = I2C_NO_OPTION_FRAME;
 8001a62:	68fb      	ldr	r3, [r7, #12]
 8001a64:	4a5f      	ldr	r2, [pc, #380]	; (8001be4 <HAL_I2C_Master_Receive+0x238>)
 8001a66:	62da      	str	r2, [r3, #44]	; 0x2c

    /* Send Slave Address */
    if (I2C_MasterRequestRead(hi2c, DevAddress, Timeout, tickstart) != HAL_OK)
 8001a68:	8979      	ldrh	r1, [r7, #10]
 8001a6a:	6a7b      	ldr	r3, [r7, #36]	; 0x24
 8001a6c:	6b3a      	ldr	r2, [r7, #48]	; 0x30
 8001a6e:	68f8      	ldr	r0, [r7, #12]
 8001a70:	f000 fa7e 	bl	8001f70 <I2C_MasterRequestRead>
 8001a74:	4603      	mov	r3, r0
 8001a76:	2b00      	cmp	r3, #0
 8001a78:	d001      	beq.n	8001a7e <HAL_I2C_Master_Receive+0xd2>
    {
      return HAL_ERROR;
 8001a7a:	2301      	movs	r3, #1
 8001a7c:	e1ec      	b.n	8001e58 <HAL_I2C_Master_Receive+0x4ac>
    }

    if (hi2c->XferSize == 0U)
 8001a7e:	68fb      	ldr	r3, [r7, #12]
 8001a80:	8d1b      	ldrh	r3, [r3, #40]	; 0x28
 8001a82:	2b00      	cmp	r3, #0
 8001a84:	d113      	bne.n	8001aae <HAL_I2C_Master_Receive+0x102>
    {
      /* Clear ADDR flag */
      __HAL_I2C_CLEAR_ADDRFLAG(hi2c);
 8001a86:	2300      	movs	r3, #0
 8001a88:	61fb      	str	r3, [r7, #28]
 8001a8a:	68fb      	ldr	r3, [r7, #12]
 8001a8c:	681b      	ldr	r3, [r3, #0]
 8001a8e:	695b      	ldr	r3, [r3, #20]
 8001a90:	61fb      	str	r3, [r7, #28]
 8001a92:	68fb      	ldr	r3, [r7, #12]
 8001a94:	681b      	ldr	r3, [r3, #0]
 8001a96:	699b      	ldr	r3, [r3, #24]
 8001a98:	61fb      	str	r3, [r7, #28]
 8001a9a:	69fb      	ldr	r3, [r7, #28]

      /* Generate Stop */
      SET_BIT(hi2c->Instance->CR1, I2C_CR1_STOP);
 8001a9c:	68fb      	ldr	r3, [r7, #12]
 8001a9e:	681b      	ldr	r3, [r3, #0]
 8001aa0:	681a      	ldr	r2, [r3, #0]
 8001aa2:	68fb      	ldr	r3, [r7, #12]
 8001aa4:	681b      	ldr	r3, [r3, #0]
 8001aa6:	f442 7200 	orr.w	r2, r2, #512	; 0x200
 8001aaa:	601a      	str	r2, [r3, #0]
 8001aac:	e1c0      	b.n	8001e30 <HAL_I2C_Master_Receive+0x484>
    }
    else if (hi2c->XferSize == 1U)
 8001aae:	68fb      	ldr	r3, [r7, #12]
 8001ab0:	8d1b      	ldrh	r3, [r3, #40]	; 0x28
 8001ab2:	2b01      	cmp	r3, #1
 8001ab4:	d11e      	bne.n	8001af4 <HAL_I2C_Master_Receive+0x148>
    {
      /* Disable Acknowledge */
      CLEAR_BIT(hi2c->Instance->CR1, I2C_CR1_ACK);
 8001ab6:	68fb      	ldr	r3, [r7, #12]
 8001ab8:	681b      	ldr	r3, [r3, #0]
 8001aba:	681a      	ldr	r2, [r3, #0]
 8001abc:	68fb      	ldr	r3, [r7, #12]
 8001abe:	681b      	ldr	r3, [r3, #0]
 8001ac0:	f422 6280 	bic.w	r2, r2, #1024	; 0x400
 8001ac4:	601a      	str	r2, [r3, #0]
  __ASM volatile ("cpsid i" : : : "memory");
 8001ac6:	b672      	cpsid	i
}
 8001ac8:	bf00      	nop
      /* Disable all active IRQs around ADDR clearing and STOP programming because the EV6_3
      software sequence must complete before the current byte end of transfer */
      __disable_irq();

      /* Clear ADDR flag */
      __HAL_I2C_CLEAR_ADDRFLAG(hi2c);
 8001aca:	2300      	movs	r3, #0
 8001acc:	61bb      	str	r3, [r7, #24]
 8001ace:	68fb      	ldr	r3, [r7, #12]
 8001ad0:	681b      	ldr	r3, [r3, #0]
 8001ad2:	695b      	ldr	r3, [r3, #20]
 8001ad4:	61bb      	str	r3, [r7, #24]
 8001ad6:	68fb      	ldr	r3, [r7, #12]
 8001ad8:	681b      	ldr	r3, [r3, #0]
 8001ada:	699b      	ldr	r3, [r3, #24]
 8001adc:	61bb      	str	r3, [r7, #24]
 8001ade:	69bb      	ldr	r3, [r7, #24]

      /* Generate Stop */
      SET_BIT(hi2c->Instance->CR1, I2C_CR1_STOP);
 8001ae0:	68fb      	ldr	r3, [r7, #12]
 8001ae2:	681b      	ldr	r3, [r3, #0]
 8001ae4:	681a      	ldr	r2, [r3, #0]
 8001ae6:	68fb      	ldr	r3, [r7, #12]
 8001ae8:	681b      	ldr	r3, [r3, #0]
 8001aea:	f442 7200 	orr.w	r2, r2, #512	; 0x200
 8001aee:	601a      	str	r2, [r3, #0]
  __ASM volatile ("cpsie i" : : : "memory");
 8001af0:	b662      	cpsie	i
}
 8001af2:	e035      	b.n	8001b60 <HAL_I2C_Master_Receive+0x1b4>

      /* Re-enable IRQs */
      __enable_irq();
    }
    else if (hi2c->XferSize == 2U)
 8001af4:	68fb      	ldr	r3, [r7, #12]
 8001af6:	8d1b      	ldrh	r3, [r3, #40]	; 0x28
 8001af8:	2b02      	cmp	r3, #2
 8001afa:	d11e      	bne.n	8001b3a <HAL_I2C_Master_Receive+0x18e>
    {
      /* Enable Pos */
      SET_BIT(hi2c->Instance->CR1, I2C_CR1_POS);
 8001afc:	68fb      	ldr	r3, [r7, #12]
 8001afe:	681b      	ldr	r3, [r3, #0]
 8001b00:	681a      	ldr	r2, [r3, #0]
 8001b02:	68fb      	ldr	r3, [r7, #12]
 8001b04:	681b      	ldr	r3, [r3, #0]
 8001b06:	f442 6200 	orr.w	r2, r2, #2048	; 0x800
 8001b0a:	601a      	str	r2, [r3, #0]
  __ASM volatile ("cpsid i" : : : "memory");
 8001b0c:	b672      	cpsid	i
}
 8001b0e:	bf00      	nop
      /* Disable all active IRQs around ADDR clearing and STOP programming because the EV6_3
      software sequence must complete before the current byte end of transfer */
      __disable_irq();

      /* Clear ADDR flag */
      __HAL_I2C_CLEAR_ADDRFLAG(hi2c);
 8001b10:	2300      	movs	r3, #0
 8001b12:	617b      	str	r3, [r7, #20]
 8001b14:	68fb      	ldr	r3, [r7, #12]
 8001b16:	681b      	ldr	r3, [r3, #0]
 8001b18:	695b      	ldr	r3, [r3, #20]
 8001b1a:	617b      	str	r3, [r7, #20]
 8001b1c:	68fb      	ldr	r3, [r7, #12]
 8001b1e:	681b      	ldr	r3, [r3, #0]
 8001b20:	699b      	ldr	r3, [r3, #24]
 8001b22:	617b      	str	r3, [r7, #20]
 8001b24:	697b      	ldr	r3, [r7, #20]

      /* Disable Acknowledge */
      CLEAR_BIT(hi2c->Instance->CR1, I2C_CR1_ACK);
 8001b26:	68fb      	ldr	r3, [r7, #12]
 8001b28:	681b      	ldr	r3, [r3, #0]
 8001b2a:	681a      	ldr	r2, [r3, #0]
 8001b2c:	68fb      	ldr	r3, [r7, #12]
 8001b2e:	681b      	ldr	r3, [r3, #0]
 8001b30:	f422 6280 	bic.w	r2, r2, #1024	; 0x400
 8001b34:	601a      	str	r2, [r3, #0]
  __ASM volatile ("cpsie i" : : : "memory");
 8001b36:	b662      	cpsie	i
}
 8001b38:	e012      	b.n	8001b60 <HAL_I2C_Master_Receive+0x1b4>
      __enable_irq();
    }
    else
    {
      /* Enable Acknowledge */
      SET_BIT(hi2c->Instance->CR1, I2C_CR1_ACK);
 8001b3a:	68fb      	ldr	r3, [r7, #12]
 8001b3c:	681b      	ldr	r3, [r3, #0]
 8001b3e:	681a      	ldr	r2, [r3, #0]
 8001b40:	68fb      	ldr	r3, [r7, #12]
 8001b42:	681b      	ldr	r3, [r3, #0]
 8001b44:	f442 6280 	orr.w	r2, r2, #1024	; 0x400
 8001b48:	601a      	str	r2, [r3, #0]

      /* Clear ADDR flag */
      __HAL_I2C_CLEAR_ADDRFLAG(hi2c);
 8001b4a:	2300      	movs	r3, #0
 8001b4c:	613b      	str	r3, [r7, #16]
 8001b4e:	68fb      	ldr	r3, [r7, #12]
 8001b50:	681b      	ldr	r3, [r3, #0]
 8001b52:	695b      	ldr	r3, [r3, #20]
 8001b54:	613b      	str	r3, [r7, #16]
 8001b56:	68fb      	ldr	r3, [r7, #12]
 8001b58:	681b      	ldr	r3, [r3, #0]
 8001b5a:	699b      	ldr	r3, [r3, #24]
 8001b5c:	613b      	str	r3, [r7, #16]
 8001b5e:	693b      	ldr	r3, [r7, #16]
    }

    while (hi2c->XferSize > 0U)
 8001b60:	e166      	b.n	8001e30 <HAL_I2C_Master_Receive+0x484>
    {
      if (hi2c->XferSize <= 3U)
 8001b62:	68fb      	ldr	r3, [r7, #12]
 8001b64:	8d1b      	ldrh	r3, [r3, #40]	; 0x28
 8001b66:	2b03      	cmp	r3, #3
 8001b68:	f200 811f 	bhi.w	8001daa <HAL_I2C_Master_Receive+0x3fe>
      {
        /* One byte */
        if (hi2c->XferSize == 1U)
 8001b6c:	68fb      	ldr	r3, [r7, #12]
 8001b6e:	8d1b      	ldrh	r3, [r3, #40]	; 0x28
 8001b70:	2b01      	cmp	r3, #1
 8001b72:	d123      	bne.n	8001bbc <HAL_I2C_Master_Receive+0x210>
        {
          /* Wait until RXNE flag is set */
          if (I2C_WaitOnRXNEFlagUntilTimeout(hi2c, Timeout, tickstart) != HAL_OK)
 8001b74:	6a7a      	ldr	r2, [r7, #36]	; 0x24
 8001b76:	6b39      	ldr	r1, [r7, #48]	; 0x30
 8001b78:	68f8      	ldr	r0, [r7, #12]
 8001b7a:	f000 fc1f 	bl	80023bc <I2C_WaitOnRXNEFlagUntilTimeout>
 8001b7e:	4603      	mov	r3, r0
 8001b80:	2b00      	cmp	r3, #0
 8001b82:	d001      	beq.n	8001b88 <HAL_I2C_Master_Receive+0x1dc>
          {
            return HAL_ERROR;
 8001b84:	2301      	movs	r3, #1
 8001b86:	e167      	b.n	8001e58 <HAL_I2C_Master_Receive+0x4ac>
          }

          /* Read data from DR */
          *hi2c->pBuffPtr = (uint8_t)hi2c->Instance->DR;
 8001b88:	68fb      	ldr	r3, [r7, #12]
 8001b8a:	681b      	ldr	r3, [r3, #0]
 8001b8c:	691a      	ldr	r2, [r3, #16]
 8001b8e:	68fb      	ldr	r3, [r7, #12]
 8001b90:	6a5b      	ldr	r3, [r3, #36]	; 0x24
 8001b92:	b2d2      	uxtb	r2, r2
 8001b94:	701a      	strb	r2, [r3, #0]

          /* Increment Buffer pointer */
          hi2c->pBuffPtr++;
 8001b96:	68fb      	ldr	r3, [r7, #12]
 8001b98:	6a5b      	ldr	r3, [r3, #36]	; 0x24
 8001b9a:	1c5a      	adds	r2, r3, #1
 8001b9c:	68fb      	ldr	r3, [r7, #12]
 8001b9e:	625a      	str	r2, [r3, #36]	; 0x24

          /* Update counter */
          hi2c->XferSize--;
 8001ba0:	68fb      	ldr	r3, [r7, #12]
 8001ba2:	8d1b      	ldrh	r3, [r3, #40]	; 0x28
 8001ba4:	3b01      	subs	r3, #1
 8001ba6:	b29a      	uxth	r2, r3
 8001ba8:	68fb      	ldr	r3, [r7, #12]
 8001baa:	851a      	strh	r2, [r3, #40]	; 0x28
          hi2c->XferCount--;
 8001bac:	68fb      	ldr	r3, [r7, #12]
 8001bae:	8d5b      	ldrh	r3, [r3, #42]	; 0x2a
 8001bb0:	b29b      	uxth	r3, r3
 8001bb2:	3b01      	subs	r3, #1
 8001bb4:	b29a      	uxth	r2, r3
 8001bb6:	68fb      	ldr	r3, [r7, #12]
 8001bb8:	855a      	strh	r2, [r3, #42]	; 0x2a
 8001bba:	e139      	b.n	8001e30 <HAL_I2C_Master_Receive+0x484>
        }
        /* Two bytes */
        else if (hi2c->XferSize == 2U)
 8001bbc:	68fb      	ldr	r3, [r7, #12]
 8001bbe:	8d1b      	ldrh	r3, [r3, #40]	; 0x28
 8001bc0:	2b02      	cmp	r3, #2
 8001bc2:	d152      	bne.n	8001c6a <HAL_I2C_Master_Receive+0x2be>
        {
          /* Wait until BTF flag is set */
          if (I2C_WaitOnFlagUntilTimeout(hi2c, I2C_FLAG_BTF, RESET, Timeout, tickstart) != HAL_OK)
 8001bc4:	6a7b      	ldr	r3, [r7, #36]	; 0x24
 8001bc6:	9300      	str	r3, [sp, #0]
 8001bc8:	6b3b      	ldr	r3, [r7, #48]	; 0x30
 8001bca:	2200      	movs	r2, #0
 8001bcc:	4906      	ldr	r1, [pc, #24]	; (8001be8 <HAL_I2C_Master_Receive+0x23c>)
 8001bce:	68f8      	ldr	r0, [r7, #12]
 8001bd0:	f000 fa9c 	bl	800210c <I2C_WaitOnFlagUntilTimeout>
 8001bd4:	4603      	mov	r3, r0
 8001bd6:	2b00      	cmp	r3, #0
 8001bd8:	d008      	beq.n	8001bec <HAL_I2C_Master_Receive+0x240>
          {
            return HAL_ERROR;
 8001bda:	2301      	movs	r3, #1
 8001bdc:	e13c      	b.n	8001e58 <HAL_I2C_Master_Receive+0x4ac>
 8001bde:	bf00      	nop
 8001be0:	00100002 	.word	0x00100002
 8001be4:	ffff0000 	.word	0xffff0000
 8001be8:	00010004 	.word	0x00010004
  __ASM volatile ("cpsid i" : : : "memory");
 8001bec:	b672      	cpsid	i
}
 8001bee:	bf00      	nop
          /* Disable all active IRQs around ADDR clearing and STOP programming because the EV6_3
             software sequence must complete before the current byte end of transfer */
          __disable_irq();

          /* Generate Stop */
          SET_BIT(hi2c->Instance->CR1, I2C_CR1_STOP);
 8001bf0:	68fb      	ldr	r3, [r7, #12]
 8001bf2:	681b      	ldr	r3, [r3, #0]
 8001bf4:	681a      	ldr	r2, [r3, #0]
 8001bf6:	68fb      	ldr	r3, [r7, #12]
 8001bf8:	681b      	ldr	r3, [r3, #0]
 8001bfa:	f442 7200 	orr.w	r2, r2, #512	; 0x200
 8001bfe:	601a      	str	r2, [r3, #0]

          /* Read data from DR */
          *hi2c->pBuffPtr = (uint8_t)hi2c->Instance->DR;
 8001c00:	68fb      	ldr	r3, [r7, #12]
 8001c02:	681b      	ldr	r3, [r3, #0]
 8001c04:	691a      	ldr	r2, [r3, #16]
 8001c06:	68fb      	ldr	r3, [r7, #12]
 8001c08:	6a5b      	ldr	r3, [r3, #36]	; 0x24
 8001c0a:	b2d2      	uxtb	r2, r2
 8001c0c:	701a      	strb	r2, [r3, #0]

          /* Increment Buffer pointer */
          hi2c->pBuffPtr++;
 8001c0e:	68fb      	ldr	r3, [r7, #12]
 8001c10:	6a5b      	ldr	r3, [r3, #36]	; 0x24
 8001c12:	1c5a      	adds	r2, r3, #1
 8001c14:	68fb      	ldr	r3, [r7, #12]
 8001c16:	625a      	str	r2, [r3, #36]	; 0x24

          /* Update counter */
          hi2c->XferSize--;
 8001c18:	68fb      	ldr	r3, [r7, #12]
 8001c1a:	8d1b      	ldrh	r3, [r3, #40]	; 0x28
 8001c1c:	3b01      	subs	r3, #1
 8001c1e:	b29a      	uxth	r2, r3
 8001c20:	68fb      	ldr	r3, [r7, #12]
 8001c22:	851a      	strh	r2, [r3, #40]	; 0x28
          hi2c->XferCount--;
 8001c24:	68fb      	ldr	r3, [r7, #12]
 8001c26:	8d5b      	ldrh	r3, [r3, #42]	; 0x2a
 8001c28:	b29b      	uxth	r3, r3
 8001c2a:	3b01      	subs	r3, #1
 8001c2c:	b29a      	uxth	r2, r3
 8001c2e:	68fb      	ldr	r3, [r7, #12]
 8001c30:	855a      	strh	r2, [r3, #42]	; 0x2a
  __ASM volatile ("cpsie i" : : : "memory");
 8001c32:	b662      	cpsie	i
}
 8001c34:	bf00      	nop

          /* Re-enable IRQs */
          __enable_irq();

          /* Read data from DR */
          *hi2c->pBuffPtr = (uint8_t)hi2c->Instance->DR;
 8001c36:	68fb      	ldr	r3, [r7, #12]
 8001c38:	681b      	ldr	r3, [r3, #0]
 8001c3a:	691a      	ldr	r2, [r3, #16]
 8001c3c:	68fb      	ldr	r3, [r7, #12]
 8001c3e:	6a5b      	ldr	r3, [r3, #36]	; 0x24
 8001c40:	b2d2      	uxtb	r2, r2
 8001c42:	701a      	strb	r2, [r3, #0]

          /* Increment Buffer pointer */
          hi2c->pBuffPtr++;
 8001c44:	68fb      	ldr	r3, [r7, #12]
 8001c46:	6a5b      	ldr	r3, [r3, #36]	; 0x24
 8001c48:	1c5a      	adds	r2, r3, #1
 8001c4a:	68fb      	ldr	r3, [r7, #12]
 8001c4c:	625a      	str	r2, [r3, #36]	; 0x24

          /* Update counter */
          hi2c->XferSize--;
 8001c4e:	68fb      	ldr	r3, [r7, #12]
 8001c50:	8d1b      	ldrh	r3, [r3, #40]	; 0x28
 8001c52:	3b01      	subs	r3, #1
 8001c54:	b29a      	uxth	r2, r3
 8001c56:	68fb      	ldr	r3, [r7, #12]
 8001c58:	851a      	strh	r2, [r3, #40]	; 0x28
          hi2c->XferCount--;
 8001c5a:	68fb      	ldr	r3, [r7, #12]
 8001c5c:	8d5b      	ldrh	r3, [r3, #42]	; 0x2a
 8001c5e:	b29b      	uxth	r3, r3
 8001c60:	3b01      	subs	r3, #1
 8001c62:	b29a      	uxth	r2, r3
 8001c64:	68fb      	ldr	r3, [r7, #12]
 8001c66:	855a      	strh	r2, [r3, #42]	; 0x2a
 8001c68:	e0e2      	b.n	8001e30 <HAL_I2C_Master_Receive+0x484>
        }
        /* 3 Last bytes */
        else
        {
          /* Wait until BTF flag is set */
          if (I2C_WaitOnFlagUntilTimeout(hi2c, I2C_FLAG_BTF, RESET, Timeout, tickstart) != HAL_OK)
 8001c6a:	6a7b      	ldr	r3, [r7, #36]	; 0x24
 8001c6c:	9300      	str	r3, [sp, #0]
 8001c6e:	6b3b      	ldr	r3, [r7, #48]	; 0x30
 8001c70:	2200      	movs	r2, #0
 8001c72:	497b      	ldr	r1, [pc, #492]	; (8001e60 <HAL_I2C_Master_Receive+0x4b4>)
 8001c74:	68f8      	ldr	r0, [r7, #12]
 8001c76:	f000 fa49 	bl	800210c <I2C_WaitOnFlagUntilTimeout>
 8001c7a:	4603      	mov	r3, r0
 8001c7c:	2b00      	cmp	r3, #0
 8001c7e:	d001      	beq.n	8001c84 <HAL_I2C_Master_Receive+0x2d8>
          {
            return HAL_ERROR;
 8001c80:	2301      	movs	r3, #1
 8001c82:	e0e9      	b.n	8001e58 <HAL_I2C_Master_Receive+0x4ac>
          }

          /* Disable Acknowledge */
          CLEAR_BIT(hi2c->Instance->CR1, I2C_CR1_ACK);
 8001c84:	68fb      	ldr	r3, [r7, #12]
 8001c86:	681b      	ldr	r3, [r3, #0]
 8001c88:	681a      	ldr	r2, [r3, #0]
 8001c8a:	68fb      	ldr	r3, [r7, #12]
 8001c8c:	681b      	ldr	r3, [r3, #0]
 8001c8e:	f422 6280 	bic.w	r2, r2, #1024	; 0x400
 8001c92:	601a      	str	r2, [r3, #0]
  __ASM volatile ("cpsid i" : : : "memory");
 8001c94:	b672      	cpsid	i
}
 8001c96:	bf00      	nop
          /* Disable all active IRQs around ADDR clearing and STOP programming because the EV6_3
             software sequence must complete before the current byte end of transfer */
          __disable_irq();

          /* Read data from DR */
          *hi2c->pBuffPtr = (uint8_t)hi2c->Instance->DR;
 8001c98:	68fb      	ldr	r3, [r7, #12]
 8001c9a:	681b      	ldr	r3, [r3, #0]
 8001c9c:	691a      	ldr	r2, [r3, #16]
 8001c9e:	68fb      	ldr	r3, [r7, #12]
 8001ca0:	6a5b      	ldr	r3, [r3, #36]	; 0x24
 8001ca2:	b2d2      	uxtb	r2, r2
 8001ca4:	701a      	strb	r2, [r3, #0]

          /* Increment Buffer pointer */
          hi2c->pBuffPtr++;
 8001ca6:	68fb      	ldr	r3, [r7, #12]
 8001ca8:	6a5b      	ldr	r3, [r3, #36]	; 0x24
 8001caa:	1c5a      	adds	r2, r3, #1
 8001cac:	68fb      	ldr	r3, [r7, #12]
 8001cae:	625a      	str	r2, [r3, #36]	; 0x24

          /* Update counter */
          hi2c->XferSize--;
 8001cb0:	68fb      	ldr	r3, [r7, #12]
 8001cb2:	8d1b      	ldrh	r3, [r3, #40]	; 0x28
 8001cb4:	3b01      	subs	r3, #1
 8001cb6:	b29a      	uxth	r2, r3
 8001cb8:	68fb      	ldr	r3, [r7, #12]
 8001cba:	851a      	strh	r2, [r3, #40]	; 0x28
          hi2c->XferCount--;
 8001cbc:	68fb      	ldr	r3, [r7, #12]
 8001cbe:	8d5b      	ldrh	r3, [r3, #42]	; 0x2a
 8001cc0:	b29b      	uxth	r3, r3
 8001cc2:	3b01      	subs	r3, #1
 8001cc4:	b29a      	uxth	r2, r3
 8001cc6:	68fb      	ldr	r3, [r7, #12]
 8001cc8:	855a      	strh	r2, [r3, #42]	; 0x2a

          /* Wait until BTF flag is set */
          count = I2C_TIMEOUT_FLAG * (SystemCoreClock / 25U / 1000U);
 8001cca:	4b66      	ldr	r3, [pc, #408]	; (8001e64 <HAL_I2C_Master_Receive+0x4b8>)
 8001ccc:	681b      	ldr	r3, [r3, #0]
 8001cce:	08db      	lsrs	r3, r3, #3
 8001cd0:	4a65      	ldr	r2, [pc, #404]	; (8001e68 <HAL_I2C_Master_Receive+0x4bc>)
 8001cd2:	fba2 2303 	umull	r2, r3, r2, r3
 8001cd6:	0a1a      	lsrs	r2, r3, #8
 8001cd8:	4613      	mov	r3, r2
 8001cda:	009b      	lsls	r3, r3, #2
 8001cdc:	4413      	add	r3, r2
 8001cde:	00da      	lsls	r2, r3, #3
 8001ce0:	1ad3      	subs	r3, r2, r3
 8001ce2:	623b      	str	r3, [r7, #32]
          do
          {
            count--;
 8001ce4:	6a3b      	ldr	r3, [r7, #32]
 8001ce6:	3b01      	subs	r3, #1
 8001ce8:	623b      	str	r3, [r7, #32]
            if (count == 0U)
 8001cea:	6a3b      	ldr	r3, [r7, #32]
 8001cec:	2b00      	cmp	r3, #0
 8001cee:	d118      	bne.n	8001d22 <HAL_I2C_Master_Receive+0x376>
            {
              hi2c->PreviousState       = I2C_STATE_NONE;
 8001cf0:	68fb      	ldr	r3, [r7, #12]
 8001cf2:	2200      	movs	r2, #0
 8001cf4:	631a      	str	r2, [r3, #48]	; 0x30
              hi2c->State               = HAL_I2C_STATE_READY;
 8001cf6:	68fb      	ldr	r3, [r7, #12]
 8001cf8:	2220      	movs	r2, #32
 8001cfa:	f883 203d 	strb.w	r2, [r3, #61]	; 0x3d
              hi2c->Mode                = HAL_I2C_MODE_NONE;
 8001cfe:	68fb      	ldr	r3, [r7, #12]
 8001d00:	2200      	movs	r2, #0
 8001d02:	f883 203e 	strb.w	r2, [r3, #62]	; 0x3e
              hi2c->ErrorCode           |= HAL_I2C_ERROR_TIMEOUT;
 8001d06:	68fb      	ldr	r3, [r7, #12]
 8001d08:	6c1b      	ldr	r3, [r3, #64]	; 0x40
 8001d0a:	f043 0220 	orr.w	r2, r3, #32
 8001d0e:	68fb      	ldr	r3, [r7, #12]
 8001d10:	641a      	str	r2, [r3, #64]	; 0x40
  __ASM volatile ("cpsie i" : : : "memory");
 8001d12:	b662      	cpsie	i
}
 8001d14:	bf00      	nop

              /* Re-enable IRQs */
              __enable_irq();

              /* Process Unlocked */
              __HAL_UNLOCK(hi2c);
 8001d16:	68fb      	ldr	r3, [r7, #12]
 8001d18:	2200      	movs	r2, #0
 8001d1a:	f883 203c 	strb.w	r2, [r3, #60]	; 0x3c

              return HAL_ERROR;
 8001d1e:	2301      	movs	r3, #1
 8001d20:	e09a      	b.n	8001e58 <HAL_I2C_Master_Receive+0x4ac>
            }
          }
          while (__HAL_I2C_GET_FLAG(hi2c, I2C_FLAG_BTF) == RESET);
 8001d22:	68fb      	ldr	r3, [r7, #12]
 8001d24:	681b      	ldr	r3, [r3, #0]
 8001d26:	695b      	ldr	r3, [r3, #20]
 8001d28:	f003 0304 	and.w	r3, r3, #4
 8001d2c:	2b04      	cmp	r3, #4
 8001d2e:	d1d9      	bne.n	8001ce4 <HAL_I2C_Master_Receive+0x338>

          /* Generate Stop */
          SET_BIT(hi2c->Instance->CR1, I2C_CR1_STOP);
 8001d30:	68fb      	ldr	r3, [r7, #12]
 8001d32:	681b      	ldr	r3, [r3, #0]
 8001d34:	681a      	ldr	r2, [r3, #0]
 8001d36:	68fb      	ldr	r3, [r7, #12]
 8001d38:	681b      	ldr	r3, [r3, #0]
 8001d3a:	f442 7200 	orr.w	r2, r2, #512	; 0x200
 8001d3e:	601a      	str	r2, [r3, #0]

          /* Read data from DR */
          *hi2c->pBuffPtr = (uint8_t)hi2c->Instance->DR;
 8001d40:	68fb      	ldr	r3, [r7, #12]
 8001d42:	681b      	ldr	r3, [r3, #0]
 8001d44:	691a      	ldr	r2, [r3, #16]
 8001d46:	68fb      	ldr	r3, [r7, #12]
 8001d48:	6a5b      	ldr	r3, [r3, #36]	; 0x24
 8001d4a:	b2d2      	uxtb	r2, r2
 8001d4c:	701a      	strb	r2, [r3, #0]

          /* Increment Buffer pointer */
          hi2c->pBuffPtr++;
 8001d4e:	68fb      	ldr	r3, [r7, #12]
 8001d50:	6a5b      	ldr	r3, [r3, #36]	; 0x24
 8001d52:	1c5a      	adds	r2, r3, #1
 8001d54:	68fb      	ldr	r3, [r7, #12]
 8001d56:	625a      	str	r2, [r3, #36]	; 0x24

          /* Update counter */
          hi2c->XferSize--;
 8001d58:	68fb      	ldr	r3, [r7, #12]
 8001d5a:	8d1b      	ldrh	r3, [r3, #40]	; 0x28
 8001d5c:	3b01      	subs	r3, #1
 8001d5e:	b29a      	uxth	r2, r3
 8001d60:	68fb      	ldr	r3, [r7, #12]
 8001d62:	851a      	strh	r2, [r3, #40]	; 0x28
          hi2c->XferCount--;
 8001d64:	68fb      	ldr	r3, [r7, #12]
 8001d66:	8d5b      	ldrh	r3, [r3, #42]	; 0x2a
 8001d68:	b29b      	uxth	r3, r3
 8001d6a:	3b01      	subs	r3, #1
 8001d6c:	b29a      	uxth	r2, r3
 8001d6e:	68fb      	ldr	r3, [r7, #12]
 8001d70:	855a      	strh	r2, [r3, #42]	; 0x2a
  __ASM volatile ("cpsie i" : : : "memory");
 8001d72:	b662      	cpsie	i
}
 8001d74:	bf00      	nop

          /* Re-enable IRQs */
          __enable_irq();

          /* Read data from DR */
          *hi2c->pBuffPtr = (uint8_t)hi2c->Instance->DR;
 8001d76:	68fb      	ldr	r3, [r7, #12]
 8001d78:	681b      	ldr	r3, [r3, #0]
 8001d7a:	691a      	ldr	r2, [r3, #16]
 8001d7c:	68fb      	ldr	r3, [r7, #12]
 8001d7e:	6a5b      	ldr	r3, [r3, #36]	; 0x24
 8001d80:	b2d2      	uxtb	r2, r2
 8001d82:	701a      	strb	r2, [r3, #0]

          /* Increment Buffer pointer */
          hi2c->pBuffPtr++;
 8001d84:	68fb      	ldr	r3, [r7, #12]
 8001d86:	6a5b      	ldr	r3, [r3, #36]	; 0x24
 8001d88:	1c5a      	adds	r2, r3, #1
 8001d8a:	68fb      	ldr	r3, [r7, #12]
 8001d8c:	625a      	str	r2, [r3, #36]	; 0x24

          /* Update counter */
          hi2c->XferSize--;
 8001d8e:	68fb      	ldr	r3, [r7, #12]
 8001d90:	8d1b      	ldrh	r3, [r3, #40]	; 0x28
 8001d92:	3b01      	subs	r3, #1
 8001d94:	b29a      	uxth	r2, r3
 8001d96:	68fb      	ldr	r3, [r7, #12]
 8001d98:	851a      	strh	r2, [r3, #40]	; 0x28
          hi2c->XferCount--;
 8001d9a:	68fb      	ldr	r3, [r7, #12]
 8001d9c:	8d5b      	ldrh	r3, [r3, #42]	; 0x2a
 8001d9e:	b29b      	uxth	r3, r3
 8001da0:	3b01      	subs	r3, #1
 8001da2:	b29a      	uxth	r2, r3
 8001da4:	68fb      	ldr	r3, [r7, #12]
 8001da6:	855a      	strh	r2, [r3, #42]	; 0x2a
 8001da8:	e042      	b.n	8001e30 <HAL_I2C_Master_Receive+0x484>
        }
      }
      else
      {
        /* Wait until RXNE flag is set */
        if (I2C_WaitOnRXNEFlagUntilTimeout(hi2c, Timeout, tickstart) != HAL_OK)
 8001daa:	6a7a      	ldr	r2, [r7, #36]	; 0x24
 8001dac:	6b39      	ldr	r1, [r7, #48]	; 0x30
 8001dae:	68f8      	ldr	r0, [r7, #12]
 8001db0:	f000 fb04 	bl	80023bc <I2C_WaitOnRXNEFlagUntilTimeout>
 8001db4:	4603      	mov	r3, r0
 8001db6:	2b00      	cmp	r3, #0
 8001db8:	d001      	beq.n	8001dbe <HAL_I2C_Master_Receive+0x412>
        {
          return HAL_ERROR;
 8001dba:	2301      	movs	r3, #1
 8001dbc:	e04c      	b.n	8001e58 <HAL_I2C_Master_Receive+0x4ac>
        }

        /* Read data from DR */
        *hi2c->pBuffPtr = (uint8_t)hi2c->Instance->DR;
 8001dbe:	68fb      	ldr	r3, [r7, #12]
 8001dc0:	681b      	ldr	r3, [r3, #0]
 8001dc2:	691a      	ldr	r2, [r3, #16]
 8001dc4:	68fb      	ldr	r3, [r7, #12]
 8001dc6:	6a5b      	ldr	r3, [r3, #36]	; 0x24
 8001dc8:	b2d2      	uxtb	r2, r2
 8001dca:	701a      	strb	r2, [r3, #0]

        /* Increment Buffer pointer */
        hi2c->pBuffPtr++;
 8001dcc:	68fb      	ldr	r3, [r7, #12]
 8001dce:	6a5b      	ldr	r3, [r3, #36]	; 0x24
 8001dd0:	1c5a      	adds	r2, r3, #1
 8001dd2:	68fb      	ldr	r3, [r7, #12]
 8001dd4:	625a      	str	r2, [r3, #36]	; 0x24

        /* Update counter */
        hi2c->XferSize--;
 8001dd6:	68fb      	ldr	r3, [r7, #12]
 8001dd8:	8d1b      	ldrh	r3, [r3, #40]	; 0x28
 8001dda:	3b01      	subs	r3, #1
 8001ddc:	b29a      	uxth	r2, r3
 8001dde:	68fb      	ldr	r3, [r7, #12]
 8001de0:	851a      	strh	r2, [r3, #40]	; 0x28
        hi2c->XferCount--;
 8001de2:	68fb      	ldr	r3, [r7, #12]
 8001de4:	8d5b      	ldrh	r3, [r3, #42]	; 0x2a
 8001de6:	b29b      	uxth	r3, r3
 8001de8:	3b01      	subs	r3, #1
 8001dea:	b29a      	uxth	r2, r3
 8001dec:	68fb      	ldr	r3, [r7, #12]
 8001dee:	855a      	strh	r2, [r3, #42]	; 0x2a

        if (__HAL_I2C_GET_FLAG(hi2c, I2C_FLAG_BTF) == SET)
 8001df0:	68fb      	ldr	r3, [r7, #12]
 8001df2:	681b      	ldr	r3, [r3, #0]
 8001df4:	695b      	ldr	r3, [r3, #20]
 8001df6:	f003 0304 	and.w	r3, r3, #4
 8001dfa:	2b04      	cmp	r3, #4
 8001dfc:	d118      	bne.n	8001e30 <HAL_I2C_Master_Receive+0x484>
        {
          /* Read data from DR */
          *hi2c->pBuffPtr = (uint8_t)hi2c->Instance->DR;
 8001dfe:	68fb      	ldr	r3, [r7, #12]
 8001e00:	681b      	ldr	r3, [r3, #0]
 8001e02:	691a      	ldr	r2, [r3, #16]
 8001e04:	68fb      	ldr	r3, [r7, #12]
 8001e06:	6a5b      	ldr	r3, [r3, #36]	; 0x24
 8001e08:	b2d2      	uxtb	r2, r2
 8001e0a:	701a      	strb	r2, [r3, #0]

          /* Increment Buffer pointer */
          hi2c->pBuffPtr++;
 8001e0c:	68fb      	ldr	r3, [r7, #12]
 8001e0e:	6a5b      	ldr	r3, [r3, #36]	; 0x24
 8001e10:	1c5a      	adds	r2, r3, #1
 8001e12:	68fb      	ldr	r3, [r7, #12]
 8001e14:	625a      	str	r2, [r3, #36]	; 0x24

          /* Update counter */
          hi2c->XferSize--;
 8001e16:	68fb      	ldr	r3, [r7, #12]
 8001e18:	8d1b      	ldrh	r3, [r3, #40]	; 0x28
 8001e1a:	3b01      	subs	r3, #1
 8001e1c:	b29a      	uxth	r2, r3
 8001e1e:	68fb      	ldr	r3, [r7, #12]
 8001e20:	851a      	strh	r2, [r3, #40]	; 0x28
          hi2c->XferCount--;
 8001e22:	68fb      	ldr	r3, [r7, #12]
 8001e24:	8d5b      	ldrh	r3, [r3, #42]	; 0x2a
 8001e26:	b29b      	uxth	r3, r3
 8001e28:	3b01      	subs	r3, #1
 8001e2a:	b29a      	uxth	r2, r3
 8001e2c:	68fb      	ldr	r3, [r7, #12]
 8001e2e:	855a      	strh	r2, [r3, #42]	; 0x2a
    while (hi2c->XferSize > 0U)
 8001e30:	68fb      	ldr	r3, [r7, #12]
 8001e32:	8d1b      	ldrh	r3, [r3, #40]	; 0x28
 8001e34:	2b00      	cmp	r3, #0
 8001e36:	f47f ae94 	bne.w	8001b62 <HAL_I2C_Master_Receive+0x1b6>
        }
      }
    }

    hi2c->State = HAL_I2C_STATE_READY;
 8001e3a:	68fb      	ldr	r3, [r7, #12]
 8001e3c:	2220      	movs	r2, #32
 8001e3e:	f883 203d 	strb.w	r2, [r3, #61]	; 0x3d
    hi2c->Mode = HAL_I2C_MODE_NONE;
 8001e42:	68fb      	ldr	r3, [r7, #12]
 8001e44:	2200      	movs	r2, #0
 8001e46:	f883 203e 	strb.w	r2, [r3, #62]	; 0x3e

    /* Process Unlocked */
    __HAL_UNLOCK(hi2c);
 8001e4a:	68fb      	ldr	r3, [r7, #12]
 8001e4c:	2200      	movs	r2, #0
 8001e4e:	f883 203c 	strb.w	r2, [r3, #60]	; 0x3c

    return HAL_OK;
 8001e52:	2300      	movs	r3, #0
 8001e54:	e000      	b.n	8001e58 <HAL_I2C_Master_Receive+0x4ac>
  }
  else
  {
    return HAL_BUSY;
 8001e56:	2302      	movs	r3, #2
  }
}
 8001e58:	4618      	mov	r0, r3
 8001e5a:	3728      	adds	r7, #40	; 0x28
 8001e5c:	46bd      	mov	sp, r7
 8001e5e:	bd80      	pop	{r7, pc}
 8001e60:	00010004 	.word	0x00010004
 8001e64:	20000000 	.word	0x20000000
 8001e68:	14f8b589 	.word	0x14f8b589

08001e6c <I2C_MasterRequestWrite>:
  * @param  Timeout Timeout duration
  * @param  Tickstart Tick start value
  * @retval HAL status
  */
static HAL_StatusTypeDef I2C_MasterRequestWrite(I2C_HandleTypeDef *hi2c, uint16_t DevAddress, uint32_t Timeout, uint32_t Tickstart)
{
 8001e6c:	b580      	push	{r7, lr}
 8001e6e:	b088      	sub	sp, #32
 8001e70:	af02      	add	r7, sp, #8
 8001e72:	60f8      	str	r0, [r7, #12]
 8001e74:	607a      	str	r2, [r7, #4]
 8001e76:	603b      	str	r3, [r7, #0]
 8001e78:	460b      	mov	r3, r1
 8001e7a:	817b      	strh	r3, [r7, #10]
  /* Declaration of temporary variable to prevent undefined behavior of volatile usage */
  uint32_t CurrentXferOptions = hi2c->XferOptions;
 8001e7c:	68fb      	ldr	r3, [r7, #12]
 8001e7e:	6adb      	ldr	r3, [r3, #44]	; 0x2c
 8001e80:	617b      	str	r3, [r7, #20]

  /* Generate Start condition if first transfer */
  if ((CurrentXferOptions == I2C_FIRST_AND_LAST_FRAME) || (CurrentXferOptions == I2C_FIRST_FRAME) || (CurrentXferOptions == I2C_NO_OPTION_FRAME))
 8001e82:	697b      	ldr	r3, [r7, #20]
 8001e84:	2b08      	cmp	r3, #8
 8001e86:	d006      	beq.n	8001e96 <I2C_MasterRequestWrite+0x2a>
 8001e88:	697b      	ldr	r3, [r7, #20]
 8001e8a:	2b01      	cmp	r3, #1
 8001e8c:	d003      	beq.n	8001e96 <I2C_MasterRequestWrite+0x2a>
 8001e8e:	697b      	ldr	r3, [r7, #20]
 8001e90:	f513 3f80 	cmn.w	r3, #65536	; 0x10000
 8001e94:	d108      	bne.n	8001ea8 <I2C_MasterRequestWrite+0x3c>
  {
    /* Generate Start */
    SET_BIT(hi2c->Instance->CR1, I2C_CR1_START);
 8001e96:	68fb      	ldr	r3, [r7, #12]
 8001e98:	681b      	ldr	r3, [r3, #0]
 8001e9a:	681a      	ldr	r2, [r3, #0]
 8001e9c:	68fb      	ldr	r3, [r7, #12]
 8001e9e:	681b      	ldr	r3, [r3, #0]
 8001ea0:	f442 7280 	orr.w	r2, r2, #256	; 0x100
 8001ea4:	601a      	str	r2, [r3, #0]
 8001ea6:	e00b      	b.n	8001ec0 <I2C_MasterRequestWrite+0x54>
  }
  else if (hi2c->PreviousState == I2C_STATE_MASTER_BUSY_RX)
 8001ea8:	68fb      	ldr	r3, [r7, #12]
 8001eaa:	6b1b      	ldr	r3, [r3, #48]	; 0x30
 8001eac:	2b12      	cmp	r3, #18
 8001eae:	d107      	bne.n	8001ec0 <I2C_MasterRequestWrite+0x54>
  {
    /* Generate ReStart */
    SET_BIT(hi2c->Instance->CR1, I2C_CR1_START);
 8001eb0:	68fb      	ldr	r3, [r7, #12]
 8001eb2:	681b      	ldr	r3, [r3, #0]
 8001eb4:	681a      	ldr	r2, [r3, #0]
 8001eb6:	68fb      	ldr	r3, [r7, #12]
 8001eb8:	681b      	ldr	r3, [r3, #0]
 8001eba:	f442 7280 	orr.w	r2, r2, #256	; 0x100
 8001ebe:	601a      	str	r2, [r3, #0]
  {
    /* Do nothing */
  }

  /* Wait until SB flag is set */
  if (I2C_WaitOnFlagUntilTimeout(hi2c, I2C_FLAG_SB, RESET, Timeout, Tickstart) != HAL_OK)
 8001ec0:	683b      	ldr	r3, [r7, #0]
 8001ec2:	9300      	str	r3, [sp, #0]
 8001ec4:	687b      	ldr	r3, [r7, #4]
 8001ec6:	2200      	movs	r2, #0
 8001ec8:	f04f 1101 	mov.w	r1, #65537	; 0x10001
 8001ecc:	68f8      	ldr	r0, [r7, #12]
 8001ece:	f000 f91d 	bl	800210c <I2C_WaitOnFlagUntilTimeout>
 8001ed2:	4603      	mov	r3, r0
 8001ed4:	2b00      	cmp	r3, #0
 8001ed6:	d00d      	beq.n	8001ef4 <I2C_MasterRequestWrite+0x88>
  {
    if (READ_BIT(hi2c->Instance->CR1, I2C_CR1_START) == I2C_CR1_START)
 8001ed8:	68fb      	ldr	r3, [r7, #12]
 8001eda:	681b      	ldr	r3, [r3, #0]
 8001edc:	681b      	ldr	r3, [r3, #0]
 8001ede:	f403 7380 	and.w	r3, r3, #256	; 0x100
 8001ee2:	f5b3 7f80 	cmp.w	r3, #256	; 0x100
 8001ee6:	d103      	bne.n	8001ef0 <I2C_MasterRequestWrite+0x84>
    {
      hi2c->ErrorCode = HAL_I2C_WRONG_START;
 8001ee8:	68fb      	ldr	r3, [r7, #12]
 8001eea:	f44f 7200 	mov.w	r2, #512	; 0x200
 8001eee:	641a      	str	r2, [r3, #64]	; 0x40
    }
    return HAL_TIMEOUT;
 8001ef0:	2303      	movs	r3, #3
 8001ef2:	e035      	b.n	8001f60 <I2C_MasterRequestWrite+0xf4>
  }

  if (hi2c->Init.AddressingMode == I2C_ADDRESSINGMODE_7BIT)
 8001ef4:	68fb      	ldr	r3, [r7, #12]
 8001ef6:	691b      	ldr	r3, [r3, #16]
 8001ef8:	f5b3 4f80 	cmp.w	r3, #16384	; 0x4000
 8001efc:	d108      	bne.n	8001f10 <I2C_MasterRequestWrite+0xa4>
  {
    /* Send slave address */
    hi2c->Instance->DR = I2C_7BIT_ADD_WRITE(DevAddress);
 8001efe:	897b      	ldrh	r3, [r7, #10]
 8001f00:	b2db      	uxtb	r3, r3
 8001f02:	461a      	mov	r2, r3
 8001f04:	68fb      	ldr	r3, [r7, #12]
 8001f06:	681b      	ldr	r3, [r3, #0]
 8001f08:	f002 02fe 	and.w	r2, r2, #254	; 0xfe
 8001f0c:	611a      	str	r2, [r3, #16]
 8001f0e:	e01b      	b.n	8001f48 <I2C_MasterRequestWrite+0xdc>
  }
  else
  {
    /* Send header of slave address */
    hi2c->Instance->DR = I2C_10BIT_HEADER_WRITE(DevAddress);
 8001f10:	897b      	ldrh	r3, [r7, #10]
 8001f12:	11db      	asrs	r3, r3, #7
 8001f14:	b2db      	uxtb	r3, r3
 8001f16:	f003 0306 	and.w	r3, r3, #6
 8001f1a:	b2db      	uxtb	r3, r3
 8001f1c:	f063 030f 	orn	r3, r3, #15
 8001f20:	b2da      	uxtb	r2, r3
 8001f22:	68fb      	ldr	r3, [r7, #12]
 8001f24:	681b      	ldr	r3, [r3, #0]
 8001f26:	611a      	str	r2, [r3, #16]

    /* Wait until ADD10 flag is set */
    if (I2C_WaitOnMasterAddressFlagUntilTimeout(hi2c, I2C_FLAG_ADD10, Timeout, Tickstart) != HAL_OK)
 8001f28:	683b      	ldr	r3, [r7, #0]
 8001f2a:	687a      	ldr	r2, [r7, #4]
 8001f2c:	490e      	ldr	r1, [pc, #56]	; (8001f68 <I2C_MasterRequestWrite+0xfc>)
 8001f2e:	68f8      	ldr	r0, [r7, #12]
 8001f30:	f000 f943 	bl	80021ba <I2C_WaitOnMasterAddressFlagUntilTimeout>
 8001f34:	4603      	mov	r3, r0
 8001f36:	2b00      	cmp	r3, #0
 8001f38:	d001      	beq.n	8001f3e <I2C_MasterRequestWrite+0xd2>
    {
      return HAL_ERROR;
 8001f3a:	2301      	movs	r3, #1
 8001f3c:	e010      	b.n	8001f60 <I2C_MasterRequestWrite+0xf4>
    }

    /* Send slave address */
    hi2c->Instance->DR = I2C_10BIT_ADDRESS(DevAddress);
 8001f3e:	897b      	ldrh	r3, [r7, #10]
 8001f40:	b2da      	uxtb	r2, r3
 8001f42:	68fb      	ldr	r3, [r7, #12]
 8001f44:	681b      	ldr	r3, [r3, #0]
 8001f46:	611a      	str	r2, [r3, #16]
  }

  /* Wait until ADDR flag is set */
  if (I2C_WaitOnMasterAddressFlagUntilTimeout(hi2c, I2C_FLAG_ADDR, Timeout, Tickstart) != HAL_OK)
 8001f48:	683b      	ldr	r3, [r7, #0]
 8001f4a:	687a      	ldr	r2, [r7, #4]
 8001f4c:	4907      	ldr	r1, [pc, #28]	; (8001f6c <I2C_MasterRequestWrite+0x100>)
 8001f4e:	68f8      	ldr	r0, [r7, #12]
 8001f50:	f000 f933 	bl	80021ba <I2C_WaitOnMasterAddressFlagUntilTimeout>
 8001f54:	4603      	mov	r3, r0
 8001f56:	2b00      	cmp	r3, #0
 8001f58:	d001      	beq.n	8001f5e <I2C_MasterRequestWrite+0xf2>
  {
    return HAL_ERROR;
 8001f5a:	2301      	movs	r3, #1
 8001f5c:	e000      	b.n	8001f60 <I2C_MasterRequestWrite+0xf4>
  }

  return HAL_OK;
 8001f5e:	2300      	movs	r3, #0
}
 8001f60:	4618      	mov	r0, r3
 8001f62:	3718      	adds	r7, #24
 8001f64:	46bd      	mov	sp, r7
 8001f66:	bd80      	pop	{r7, pc}
 8001f68:	00010008 	.word	0x00010008
 8001f6c:	00010002 	.word	0x00010002

08001f70 <I2C_MasterRequestRead>:
  * @param  Timeout Timeout duration
  * @param  Tickstart Tick start value
  * @retval HAL status
  */
static HAL_StatusTypeDef I2C_MasterRequestRead(I2C_HandleTypeDef *hi2c, uint16_t DevAddress, uint32_t Timeout, uint32_t Tickstart)
{
 8001f70:	b580      	push	{r7, lr}
 8001f72:	b088      	sub	sp, #32
 8001f74:	af02      	add	r7, sp, #8
 8001f76:	60f8      	str	r0, [r7, #12]
 8001f78:	607a      	str	r2, [r7, #4]
 8001f7a:	603b      	str	r3, [r7, #0]
 8001f7c:	460b      	mov	r3, r1
 8001f7e:	817b      	strh	r3, [r7, #10]
  /* Declaration of temporary variable to prevent undefined behavior of volatile usage */
  uint32_t CurrentXferOptions = hi2c->XferOptions;
 8001f80:	68fb      	ldr	r3, [r7, #12]
 8001f82:	6adb      	ldr	r3, [r3, #44]	; 0x2c
 8001f84:	617b      	str	r3, [r7, #20]

  /* Enable Acknowledge */
  SET_BIT(hi2c->Instance->CR1, I2C_CR1_ACK);
 8001f86:	68fb      	ldr	r3, [r7, #12]
 8001f88:	681b      	ldr	r3, [r3, #0]
 8001f8a:	681a      	ldr	r2, [r3, #0]
 8001f8c:	68fb      	ldr	r3, [r7, #12]
 8001f8e:	681b      	ldr	r3, [r3, #0]
 8001f90:	f442 6280 	orr.w	r2, r2, #1024	; 0x400
 8001f94:	601a      	str	r2, [r3, #0]

  /* Generate Start condition if first transfer */
  if ((CurrentXferOptions == I2C_FIRST_AND_LAST_FRAME) || (CurrentXferOptions == I2C_FIRST_FRAME)  || (CurrentXferOptions == I2C_NO_OPTION_FRAME))
 8001f96:	697b      	ldr	r3, [r7, #20]
 8001f98:	2b08      	cmp	r3, #8
 8001f9a:	d006      	beq.n	8001faa <I2C_MasterRequestRead+0x3a>
 8001f9c:	697b      	ldr	r3, [r7, #20]
 8001f9e:	2b01      	cmp	r3, #1
 8001fa0:	d003      	beq.n	8001faa <I2C_MasterRequestRead+0x3a>
 8001fa2:	697b      	ldr	r3, [r7, #20]
 8001fa4:	f513 3f80 	cmn.w	r3, #65536	; 0x10000
 8001fa8:	d108      	bne.n	8001fbc <I2C_MasterRequestRead+0x4c>
  {
    /* Generate Start */
    SET_BIT(hi2c->Instance->CR1, I2C_CR1_START);
 8001faa:	68fb      	ldr	r3, [r7, #12]
 8001fac:	681b      	ldr	r3, [r3, #0]
 8001fae:	681a      	ldr	r2, [r3, #0]
 8001fb0:	68fb      	ldr	r3, [r7, #12]
 8001fb2:	681b      	ldr	r3, [r3, #0]
 8001fb4:	f442 7280 	orr.w	r2, r2, #256	; 0x100
 8001fb8:	601a      	str	r2, [r3, #0]
 8001fba:	e00b      	b.n	8001fd4 <I2C_MasterRequestRead+0x64>
  }
  else if (hi2c->PreviousState == I2C_STATE_MASTER_BUSY_TX)
 8001fbc:	68fb      	ldr	r3, [r7, #12]
 8001fbe:	6b1b      	ldr	r3, [r3, #48]	; 0x30
 8001fc0:	2b11      	cmp	r3, #17
 8001fc2:	d107      	bne.n	8001fd4 <I2C_MasterRequestRead+0x64>
  {
    /* Generate ReStart */
    SET_BIT(hi2c->Instance->CR1, I2C_CR1_START);
 8001fc4:	68fb      	ldr	r3, [r7, #12]
 8001fc6:	681b      	ldr	r3, [r3, #0]
 8001fc8:	681a      	ldr	r2, [r3, #0]
 8001fca:	68fb      	ldr	r3, [r7, #12]
 8001fcc:	681b      	ldr	r3, [r3, #0]
 8001fce:	f442 7280 	orr.w	r2, r2, #256	; 0x100
 8001fd2:	601a      	str	r2, [r3, #0]
  {
    /* Do nothing */
  }

  /* Wait until SB flag is set */
  if (I2C_WaitOnFlagUntilTimeout(hi2c, I2C_FLAG_SB, RESET, Timeout, Tickstart) != HAL_OK)
 8001fd4:	683b      	ldr	r3, [r7, #0]
 8001fd6:	9300      	str	r3, [sp, #0]
 8001fd8:	687b      	ldr	r3, [r7, #4]
 8001fda:	2200      	movs	r2, #0
 8001fdc:	f04f 1101 	mov.w	r1, #65537	; 0x10001
 8001fe0:	68f8      	ldr	r0, [r7, #12]
 8001fe2:	f000 f893 	bl	800210c <I2C_WaitOnFlagUntilTimeout>
 8001fe6:	4603      	mov	r3, r0
 8001fe8:	2b00      	cmp	r3, #0
 8001fea:	d00d      	beq.n	8002008 <I2C_MasterRequestRead+0x98>
  {
    if (READ_BIT(hi2c->Instance->CR1, I2C_CR1_START) == I2C_CR1_START)
 8001fec:	68fb      	ldr	r3, [r7, #12]
 8001fee:	681b      	ldr	r3, [r3, #0]
 8001ff0:	681b      	ldr	r3, [r3, #0]
 8001ff2:	f403 7380 	and.w	r3, r3, #256	; 0x100
 8001ff6:	f5b3 7f80 	cmp.w	r3, #256	; 0x100
 8001ffa:	d103      	bne.n	8002004 <I2C_MasterRequestRead+0x94>
    {
      hi2c->ErrorCode = HAL_I2C_WRONG_START;
 8001ffc:	68fb      	ldr	r3, [r7, #12]
 8001ffe:	f44f 7200 	mov.w	r2, #512	; 0x200
 8002002:	641a      	str	r2, [r3, #64]	; 0x40
    }
    return HAL_TIMEOUT;
 8002004:	2303      	movs	r3, #3
 8002006:	e079      	b.n	80020fc <I2C_MasterRequestRead+0x18c>
  }

  if (hi2c->Init.AddressingMode == I2C_ADDRESSINGMODE_7BIT)
 8002008:	68fb      	ldr	r3, [r7, #12]
 800200a:	691b      	ldr	r3, [r3, #16]
 800200c:	f5b3 4f80 	cmp.w	r3, #16384	; 0x4000
 8002010:	d108      	bne.n	8002024 <I2C_MasterRequestRead+0xb4>
  {
    /* Send slave address */
    hi2c->Instance->DR = I2C_7BIT_ADD_READ(DevAddress);
 8002012:	897b      	ldrh	r3, [r7, #10]
 8002014:	b2db      	uxtb	r3, r3
 8002016:	f043 0301 	orr.w	r3, r3, #1
 800201a:	b2da      	uxtb	r2, r3
 800201c:	68fb      	ldr	r3, [r7, #12]
 800201e:	681b      	ldr	r3, [r3, #0]
 8002020:	611a      	str	r2, [r3, #16]
 8002022:	e05f      	b.n	80020e4 <I2C_MasterRequestRead+0x174>
  }
  else
  {
    /* Send header of slave address */
    hi2c->Instance->DR = I2C_10BIT_HEADER_WRITE(DevAddress);
 8002024:	897b      	ldrh	r3, [r7, #10]
 8002026:	11db      	asrs	r3, r3, #7
 8002028:	b2db      	uxtb	r3, r3
 800202a:	f003 0306 	and.w	r3, r3, #6
 800202e:	b2db      	uxtb	r3, r3
 8002030:	f063 030f 	orn	r3, r3, #15
 8002034:	b2da      	uxtb	r2, r3
 8002036:	68fb      	ldr	r3, [r7, #12]
 8002038:	681b      	ldr	r3, [r3, #0]
 800203a:	611a      	str	r2, [r3, #16]

    /* Wait until ADD10 flag is set */
    if (I2C_WaitOnMasterAddressFlagUntilTimeout(hi2c, I2C_FLAG_ADD10, Timeout, Tickstart) != HAL_OK)
 800203c:	683b      	ldr	r3, [r7, #0]
 800203e:	687a      	ldr	r2, [r7, #4]
 8002040:	4930      	ldr	r1, [pc, #192]	; (8002104 <I2C_MasterRequestRead+0x194>)
 8002042:	68f8      	ldr	r0, [r7, #12]
 8002044:	f000 f8b9 	bl	80021ba <I2C_WaitOnMasterAddressFlagUntilTimeout>
 8002048:	4603      	mov	r3, r0
 800204a:	2b00      	cmp	r3, #0
 800204c:	d001      	beq.n	8002052 <I2C_MasterRequestRead+0xe2>
    {
      return HAL_ERROR;
 800204e:	2301      	movs	r3, #1
 8002050:	e054      	b.n	80020fc <I2C_MasterRequestRead+0x18c>
    }

    /* Send slave address */
    hi2c->Instance->DR = I2C_10BIT_ADDRESS(DevAddress);
 8002052:	897b      	ldrh	r3, [r7, #10]
 8002054:	b2da      	uxtb	r2, r3
 8002056:	68fb      	ldr	r3, [r7, #12]
 8002058:	681b      	ldr	r3, [r3, #0]
 800205a:	611a      	str	r2, [r3, #16]

    /* Wait until ADDR flag is set */
    if (I2C_WaitOnMasterAddressFlagUntilTimeout(hi2c, I2C_FLAG_ADDR, Timeout, Tickstart) != HAL_OK)
 800205c:	683b      	ldr	r3, [r7, #0]
 800205e:	687a      	ldr	r2, [r7, #4]
 8002060:	4929      	ldr	r1, [pc, #164]	; (8002108 <I2C_MasterRequestRead+0x198>)
 8002062:	68f8      	ldr	r0, [r7, #12]
 8002064:	f000 f8a9 	bl	80021ba <I2C_WaitOnMasterAddressFlagUntilTimeout>
 8002068:	4603      	mov	r3, r0
 800206a:	2b00      	cmp	r3, #0
 800206c:	d001      	beq.n	8002072 <I2C_MasterRequestRead+0x102>
    {
      return HAL_ERROR;
 800206e:	2301      	movs	r3, #1
 8002070:	e044      	b.n	80020fc <I2C_MasterRequestRead+0x18c>
    }

    /* Clear ADDR flag */
    __HAL_I2C_CLEAR_ADDRFLAG(hi2c);
 8002072:	2300      	movs	r3, #0
 8002074:	613b      	str	r3, [r7, #16]
 8002076:	68fb      	ldr	r3, [r7, #12]
 8002078:	681b      	ldr	r3, [r3, #0]
 800207a:	695b      	ldr	r3, [r3, #20]
 800207c:	613b      	str	r3, [r7, #16]
 800207e:	68fb      	ldr	r3, [r7, #12]
 8002080:	681b      	ldr	r3, [r3, #0]
 8002082:	699b      	ldr	r3, [r3, #24]
 8002084:	613b      	str	r3, [r7, #16]
 8002086:	693b      	ldr	r3, [r7, #16]

    /* Generate Restart */
    SET_BIT(hi2c->Instance->CR1, I2C_CR1_START);
 8002088:	68fb      	ldr	r3, [r7, #12]
 800208a:	681b      	ldr	r3, [r3, #0]
 800208c:	681a      	ldr	r2, [r3, #0]
 800208e:	68fb      	ldr	r3, [r7, #12]
 8002090:	681b      	ldr	r3, [r3, #0]
 8002092:	f442 7280 	orr.w	r2, r2, #256	; 0x100
 8002096:	601a      	str	r2, [r3, #0]

    /* Wait until SB flag is set */
    if (I2C_WaitOnFlagUntilTimeout(hi2c, I2C_FLAG_SB, RESET, Timeout, Tickstart) != HAL_OK)
 8002098:	683b      	ldr	r3, [r7, #0]
 800209a:	9300      	str	r3, [sp, #0]
 800209c:	687b      	ldr	r3, [r7, #4]
 800209e:	2200      	movs	r2, #0
 80020a0:	f04f 1101 	mov.w	r1, #65537	; 0x10001
 80020a4:	68f8      	ldr	r0, [r7, #12]
 80020a6:	f000 f831 	bl	800210c <I2C_WaitOnFlagUntilTimeout>
 80020aa:	4603      	mov	r3, r0
 80020ac:	2b00      	cmp	r3, #0
 80020ae:	d00d      	beq.n	80020cc <I2C_MasterRequestRead+0x15c>
    {
      if (READ_BIT(hi2c->Instance->CR1, I2C_CR1_START) == I2C_CR1_START)
 80020b0:	68fb      	ldr	r3, [r7, #12]
 80020b2:	681b      	ldr	r3, [r3, #0]
 80020b4:	681b      	ldr	r3, [r3, #0]
 80020b6:	f403 7380 	and.w	r3, r3, #256	; 0x100
 80020ba:	f5b3 7f80 	cmp.w	r3, #256	; 0x100
 80020be:	d103      	bne.n	80020c8 <I2C_MasterRequestRead+0x158>
      {
        hi2c->ErrorCode = HAL_I2C_WRONG_START;
 80020c0:	68fb      	ldr	r3, [r7, #12]
 80020c2:	f44f 7200 	mov.w	r2, #512	; 0x200
 80020c6:	641a      	str	r2, [r3, #64]	; 0x40
      }
      return HAL_TIMEOUT;
 80020c8:	2303      	movs	r3, #3
 80020ca:	e017      	b.n	80020fc <I2C_MasterRequestRead+0x18c>
    }

    /* Send header of slave address */
    hi2c->Instance->DR = I2C_10BIT_HEADER_READ(DevAddress);
 80020cc:	897b      	ldrh	r3, [r7, #10]
 80020ce:	11db      	asrs	r3, r3, #7
 80020d0:	b2db      	uxtb	r3, r3
 80020d2:	f003 0306 	and.w	r3, r3, #6
 80020d6:	b2db      	uxtb	r3, r3
 80020d8:	f063 030e 	orn	r3, r3, #14
 80020dc:	b2da      	uxtb	r2, r3
 80020de:	68fb      	ldr	r3, [r7, #12]
 80020e0:	681b      	ldr	r3, [r3, #0]
 80020e2:	611a      	str	r2, [r3, #16]
  }

  /* Wait until ADDR flag is set */
  if (I2C_WaitOnMasterAddressFlagUntilTimeout(hi2c, I2C_FLAG_ADDR, Timeout, Tickstart) != HAL_OK)
 80020e4:	683b      	ldr	r3, [r7, #0]
 80020e6:	687a      	ldr	r2, [r7, #4]
 80020e8:	4907      	ldr	r1, [pc, #28]	; (8002108 <I2C_MasterRequestRead+0x198>)
 80020ea:	68f8      	ldr	r0, [r7, #12]
 80020ec:	f000 f865 	bl	80021ba <I2C_WaitOnMasterAddressFlagUntilTimeout>
 80020f0:	4603      	mov	r3, r0
 80020f2:	2b00      	cmp	r3, #0
 80020f4:	d001      	beq.n	80020fa <I2C_MasterRequestRead+0x18a>
  {
    return HAL_ERROR;
 80020f6:	2301      	movs	r3, #1
 80020f8:	e000      	b.n	80020fc <I2C_MasterRequestRead+0x18c>
  }

  return HAL_OK;
 80020fa:	2300      	movs	r3, #0
}
 80020fc:	4618      	mov	r0, r3
 80020fe:	3718      	adds	r7, #24
 8002100:	46bd      	mov	sp, r7
 8002102:	bd80      	pop	{r7, pc}
 8002104:	00010008 	.word	0x00010008
 8002108:	00010002 	.word	0x00010002

0800210c <I2C_WaitOnFlagUntilTimeout>:
  * @param  Timeout Timeout duration
  * @param  Tickstart Tick start value
  * @retval HAL status
  */
static HAL_StatusTypeDef I2C_WaitOnFlagUntilTimeout(I2C_HandleTypeDef *hi2c, uint32_t Flag, FlagStatus Status, uint32_t Timeout, uint32_t Tickstart)
{
 800210c:	b580      	push	{r7, lr}
 800210e:	b084      	sub	sp, #16
 8002110:	af00      	add	r7, sp, #0
 8002112:	60f8      	str	r0, [r7, #12]
 8002114:	60b9      	str	r1, [r7, #8]
 8002116:	603b      	str	r3, [r7, #0]
 8002118:	4613      	mov	r3, r2
 800211a:	71fb      	strb	r3, [r7, #7]
  /* Wait until flag is set */
  while (__HAL_I2C_GET_FLAG(hi2c, Flag) == Status)
 800211c:	e025      	b.n	800216a <I2C_WaitOnFlagUntilTimeout+0x5e>
  {
    /* Check for the Timeout */
    if (Timeout != HAL_MAX_DELAY)
 800211e:	683b      	ldr	r3, [r7, #0]
 8002120:	f1b3 3fff 	cmp.w	r3, #4294967295
 8002124:	d021      	beq.n	800216a <I2C_WaitOnFlagUntilTimeout+0x5e>
    {
      if (((HAL_GetTick() - Tickstart) > Timeout) || (Timeout == 0U))
 8002126:	f7fe fec9 	bl	8000ebc <HAL_GetTick>
 800212a:	4602      	mov	r2, r0
 800212c:	69bb      	ldr	r3, [r7, #24]
 800212e:	1ad3      	subs	r3, r2, r3
 8002130:	683a      	ldr	r2, [r7, #0]
 8002132:	429a      	cmp	r2, r3
 8002134:	d302      	bcc.n	800213c <I2C_WaitOnFlagUntilTimeout+0x30>
 8002136:	683b      	ldr	r3, [r7, #0]
 8002138:	2b00      	cmp	r3, #0
 800213a:	d116      	bne.n	800216a <I2C_WaitOnFlagUntilTimeout+0x5e>
      {
        hi2c->PreviousState     = I2C_STATE_NONE;
 800213c:	68fb      	ldr	r3, [r7, #12]
 800213e:	2200      	movs	r2, #0
 8002140:	631a      	str	r2, [r3, #48]	; 0x30
        hi2c->State             = HAL_I2C_STATE_READY;
 8002142:	68fb      	ldr	r3, [r7, #12]
 8002144:	2220      	movs	r2, #32
 8002146:	f883 203d 	strb.w	r2, [r3, #61]	; 0x3d
        hi2c->Mode              = HAL_I2C_MODE_NONE;
 800214a:	68fb      	ldr	r3, [r7, #12]
 800214c:	2200      	movs	r2, #0
 800214e:	f883 203e 	strb.w	r2, [r3, #62]	; 0x3e
        hi2c->ErrorCode         |= HAL_I2C_ERROR_TIMEOUT;
 8002152:	68fb      	ldr	r3, [r7, #12]
 8002154:	6c1b      	ldr	r3, [r3, #64]	; 0x40
 8002156:	f043 0220 	orr.w	r2, r3, #32
 800215a:	68fb      	ldr	r3, [r7, #12]
 800215c:	641a      	str	r2, [r3, #64]	; 0x40

        /* Process Unlocked */
        __HAL_UNLOCK(hi2c);
 800215e:	68fb      	ldr	r3, [r7, #12]
 8002160:	2200      	movs	r2, #0
 8002162:	f883 203c 	strb.w	r2, [r3, #60]	; 0x3c

        return HAL_ERROR;
 8002166:	2301      	movs	r3, #1
 8002168:	e023      	b.n	80021b2 <I2C_WaitOnFlagUntilTimeout+0xa6>
  while (__HAL_I2C_GET_FLAG(hi2c, Flag) == Status)
 800216a:	68bb      	ldr	r3, [r7, #8]
 800216c:	0c1b      	lsrs	r3, r3, #16
 800216e:	b2db      	uxtb	r3, r3
 8002170:	2b01      	cmp	r3, #1
 8002172:	d10d      	bne.n	8002190 <I2C_WaitOnFlagUntilTimeout+0x84>
 8002174:	68fb      	ldr	r3, [r7, #12]
 8002176:	681b      	ldr	r3, [r3, #0]
 8002178:	695b      	ldr	r3, [r3, #20]
 800217a:	43da      	mvns	r2, r3
 800217c:	68bb      	ldr	r3, [r7, #8]
 800217e:	4013      	ands	r3, r2
 8002180:	b29b      	uxth	r3, r3
 8002182:	2b00      	cmp	r3, #0
 8002184:	bf0c      	ite	eq
 8002186:	2301      	moveq	r3, #1
 8002188:	2300      	movne	r3, #0
 800218a:	b2db      	uxtb	r3, r3
 800218c:	461a      	mov	r2, r3
 800218e:	e00c      	b.n	80021aa <I2C_WaitOnFlagUntilTimeout+0x9e>
 8002190:	68fb      	ldr	r3, [r7, #12]
 8002192:	681b      	ldr	r3, [r3, #0]
 8002194:	699b      	ldr	r3, [r3, #24]
 8002196:	43da      	mvns	r2, r3
 8002198:	68bb      	ldr	r3, [r7, #8]
 800219a:	4013      	ands	r3, r2
 800219c:	b29b      	uxth	r3, r3
 800219e:	2b00      	cmp	r3, #0
 80021a0:	bf0c      	ite	eq
 80021a2:	2301      	moveq	r3, #1
 80021a4:	2300      	movne	r3, #0
 80021a6:	b2db      	uxtb	r3, r3
 80021a8:	461a      	mov	r2, r3
 80021aa:	79fb      	ldrb	r3, [r7, #7]
 80021ac:	429a      	cmp	r2, r3
 80021ae:	d0b6      	beq.n	800211e <I2C_WaitOnFlagUntilTimeout+0x12>
      }
    }
  }
  return HAL_OK;
 80021b0:	2300      	movs	r3, #0
}
 80021b2:	4618      	mov	r0, r3
 80021b4:	3710      	adds	r7, #16
 80021b6:	46bd      	mov	sp, r7
 80021b8:	bd80      	pop	{r7, pc}

080021ba <I2C_WaitOnMasterAddressFlagUntilTimeout>:
  * @param  Timeout Timeout duration
  * @param  Tickstart Tick start value
  * @retval HAL status
  */
static HAL_StatusTypeDef I2C_WaitOnMasterAddressFlagUntilTimeout(I2C_HandleTypeDef *hi2c, uint32_t Flag, uint32_t Timeout, uint32_t Tickstart)
{
 80021ba:	b580      	push	{r7, lr}
 80021bc:	b084      	sub	sp, #16
 80021be:	af00      	add	r7, sp, #0
 80021c0:	60f8      	str	r0, [r7, #12]
 80021c2:	60b9      	str	r1, [r7, #8]
 80021c4:	607a      	str	r2, [r7, #4]
 80021c6:	603b      	str	r3, [r7, #0]
  while (__HAL_I2C_GET_FLAG(hi2c, Flag) == RESET)
 80021c8:	e051      	b.n	800226e <I2C_WaitOnMasterAddressFlagUntilTimeout+0xb4>
  {
    if (__HAL_I2C_GET_FLAG(hi2c, I2C_FLAG_AF) == SET)
 80021ca:	68fb      	ldr	r3, [r7, #12]
 80021cc:	681b      	ldr	r3, [r3, #0]
 80021ce:	695b      	ldr	r3, [r3, #20]
 80021d0:	f403 6380 	and.w	r3, r3, #1024	; 0x400
 80021d4:	f5b3 6f80 	cmp.w	r3, #1024	; 0x400
 80021d8:	d123      	bne.n	8002222 <I2C_WaitOnMasterAddressFlagUntilTimeout+0x68>
    {
      /* Generate Stop */
      SET_BIT(hi2c->Instance->CR1, I2C_CR1_STOP);
 80021da:	68fb      	ldr	r3, [r7, #12]
 80021dc:	681b      	ldr	r3, [r3, #0]
 80021de:	681a      	ldr	r2, [r3, #0]
 80021e0:	68fb      	ldr	r3, [r7, #12]
 80021e2:	681b      	ldr	r3, [r3, #0]
 80021e4:	f442 7200 	orr.w	r2, r2, #512	; 0x200
 80021e8:	601a      	str	r2, [r3, #0]

      /* Clear AF Flag */
      __HAL_I2C_CLEAR_FLAG(hi2c, I2C_FLAG_AF);
 80021ea:	68fb      	ldr	r3, [r7, #12]
 80021ec:	681b      	ldr	r3, [r3, #0]
 80021ee:	f46f 6280 	mvn.w	r2, #1024	; 0x400
 80021f2:	615a      	str	r2, [r3, #20]

      hi2c->PreviousState       = I2C_STATE_NONE;
 80021f4:	68fb      	ldr	r3, [r7, #12]
 80021f6:	2200      	movs	r2, #0
 80021f8:	631a      	str	r2, [r3, #48]	; 0x30
      hi2c->State               = HAL_I2C_STATE_READY;
 80021fa:	68fb      	ldr	r3, [r7, #12]
 80021fc:	2220      	movs	r2, #32
 80021fe:	f883 203d 	strb.w	r2, [r3, #61]	; 0x3d
      hi2c->Mode                = HAL_I2C_MODE_NONE;
 8002202:	68fb      	ldr	r3, [r7, #12]
 8002204:	2200      	movs	r2, #0
 8002206:	f883 203e 	strb.w	r2, [r3, #62]	; 0x3e
      hi2c->ErrorCode           |= HAL_I2C_ERROR_AF;
 800220a:	68fb      	ldr	r3, [r7, #12]
 800220c:	6c1b      	ldr	r3, [r3, #64]	; 0x40
 800220e:	f043 0204 	orr.w	r2, r3, #4
 8002212:	68fb      	ldr	r3, [r7, #12]
 8002214:	641a      	str	r2, [r3, #64]	; 0x40

      /* Process Unlocked */
      __HAL_UNLOCK(hi2c);
 8002216:	68fb      	ldr	r3, [r7, #12]
 8002218:	2200      	movs	r2, #0
 800221a:	f883 203c 	strb.w	r2, [r3, #60]	; 0x3c

      return HAL_ERROR;
 800221e:	2301      	movs	r3, #1
 8002220:	e046      	b.n	80022b0 <I2C_WaitOnMasterAddressFlagUntilTimeout+0xf6>
    }

    /* Check for the Timeout */
    if (Timeout != HAL_MAX_DELAY)
 8002222:	687b      	ldr	r3, [r7, #4]
 8002224:	f1b3 3fff 	cmp.w	r3, #4294967295
 8002228:	d021      	beq.n	800226e <I2C_WaitOnMasterAddressFlagUntilTimeout+0xb4>
    {
      if (((HAL_GetTick() - Tickstart) > Timeout) || (Timeout == 0U))
 800222a:	f7fe fe47 	bl	8000ebc <HAL_GetTick>
 800222e:	4602      	mov	r2, r0
 8002230:	683b      	ldr	r3, [r7, #0]
 8002232:	1ad3      	subs	r3, r2, r3
 8002234:	687a      	ldr	r2, [r7, #4]
 8002236:	429a      	cmp	r2, r3
 8002238:	d302      	bcc.n	8002240 <I2C_WaitOnMasterAddressFlagUntilTimeout+0x86>
 800223a:	687b      	ldr	r3, [r7, #4]
 800223c:	2b00      	cmp	r3, #0
 800223e:	d116      	bne.n	800226e <I2C_WaitOnMasterAddressFlagUntilTimeout+0xb4>
      {
        hi2c->PreviousState       = I2C_STATE_NONE;
 8002240:	68fb      	ldr	r3, [r7, #12]
 8002242:	2200      	movs	r2, #0
 8002244:	631a      	str	r2, [r3, #48]	; 0x30
        hi2c->State               = HAL_I2C_STATE_READY;
 8002246:	68fb      	ldr	r3, [r7, #12]
 8002248:	2220      	movs	r2, #32
 800224a:	f883 203d 	strb.w	r2, [r3, #61]	; 0x3d
        hi2c->Mode                = HAL_I2C_MODE_NONE;
 800224e:	68fb      	ldr	r3, [r7, #12]
 8002250:	2200      	movs	r2, #0
 8002252:	f883 203e 	strb.w	r2, [r3, #62]	; 0x3e
        hi2c->ErrorCode           |= HAL_I2C_ERROR_TIMEOUT;
 8002256:	68fb      	ldr	r3, [r7, #12]
 8002258:	6c1b      	ldr	r3, [r3, #64]	; 0x40
 800225a:	f043 0220 	orr.w	r2, r3, #32
 800225e:	68fb      	ldr	r3, [r7, #12]
 8002260:	641a      	str	r2, [r3, #64]	; 0x40

        /* Process Unlocked */
        __HAL_UNLOCK(hi2c);
 8002262:	68fb      	ldr	r3, [r7, #12]
 8002264:	2200      	movs	r2, #0
 8002266:	f883 203c 	strb.w	r2, [r3, #60]	; 0x3c

        return HAL_ERROR;
 800226a:	2301      	movs	r3, #1
 800226c:	e020      	b.n	80022b0 <I2C_WaitOnMasterAddressFlagUntilTimeout+0xf6>
  while (__HAL_I2C_GET_FLAG(hi2c, Flag) == RESET)
 800226e:	68bb      	ldr	r3, [r7, #8]
 8002270:	0c1b      	lsrs	r3, r3, #16
 8002272:	b2db      	uxtb	r3, r3
 8002274:	2b01      	cmp	r3, #1
 8002276:	d10c      	bne.n	8002292 <I2C_WaitOnMasterAddressFlagUntilTimeout+0xd8>
 8002278:	68fb      	ldr	r3, [r7, #12]
 800227a:	681b      	ldr	r3, [r3, #0]
 800227c:	695b      	ldr	r3, [r3, #20]
 800227e:	43da      	mvns	r2, r3
 8002280:	68bb      	ldr	r3, [r7, #8]
 8002282:	4013      	ands	r3, r2
 8002284:	b29b      	uxth	r3, r3
 8002286:	2b00      	cmp	r3, #0
 8002288:	bf14      	ite	ne
 800228a:	2301      	movne	r3, #1
 800228c:	2300      	moveq	r3, #0
 800228e:	b2db      	uxtb	r3, r3
 8002290:	e00b      	b.n	80022aa <I2C_WaitOnMasterAddressFlagUntilTimeout+0xf0>
 8002292:	68fb      	ldr	r3, [r7, #12]
 8002294:	681b      	ldr	r3, [r3, #0]
 8002296:	699b      	ldr	r3, [r3, #24]
 8002298:	43da      	mvns	r2, r3
 800229a:	68bb      	ldr	r3, [r7, #8]
 800229c:	4013      	ands	r3, r2
 800229e:	b29b      	uxth	r3, r3
 80022a0:	2b00      	cmp	r3, #0
 80022a2:	bf14      	ite	ne
 80022a4:	2301      	movne	r3, #1
 80022a6:	2300      	moveq	r3, #0
 80022a8:	b2db      	uxtb	r3, r3
 80022aa:	2b00      	cmp	r3, #0
 80022ac:	d18d      	bne.n	80021ca <I2C_WaitOnMasterAddressFlagUntilTimeout+0x10>
      }
    }
  }
  return HAL_OK;
 80022ae:	2300      	movs	r3, #0
}
 80022b0:	4618      	mov	r0, r3
 80022b2:	3710      	adds	r7, #16
 80022b4:	46bd      	mov	sp, r7
 80022b6:	bd80      	pop	{r7, pc}

080022b8 <I2C_WaitOnTXEFlagUntilTimeout>:
  * @param  Timeout Timeout duration
  * @param  Tickstart Tick start value
  * @retval HAL status
  */
static HAL_StatusTypeDef I2C_WaitOnTXEFlagUntilTimeout(I2C_HandleTypeDef *hi2c, uint32_t Timeout, uint32_t Tickstart)
{
 80022b8:	b580      	push	{r7, lr}
 80022ba:	b084      	sub	sp, #16
 80022bc:	af00      	add	r7, sp, #0
 80022be:	60f8      	str	r0, [r7, #12]
 80022c0:	60b9      	str	r1, [r7, #8]
 80022c2:	607a      	str	r2, [r7, #4]
  while (__HAL_I2C_GET_FLAG(hi2c, I2C_FLAG_TXE) == RESET)
 80022c4:	e02d      	b.n	8002322 <I2C_WaitOnTXEFlagUntilTimeout+0x6a>
  {
    /* Check if a NACK is detected */
    if (I2C_IsAcknowledgeFailed(hi2c) != HAL_OK)
 80022c6:	68f8      	ldr	r0, [r7, #12]
 80022c8:	f000 f8ce 	bl	8002468 <I2C_IsAcknowledgeFailed>
 80022cc:	4603      	mov	r3, r0
 80022ce:	2b00      	cmp	r3, #0
 80022d0:	d001      	beq.n	80022d6 <I2C_WaitOnTXEFlagUntilTimeout+0x1e>
    {
      return HAL_ERROR;
 80022d2:	2301      	movs	r3, #1
 80022d4:	e02d      	b.n	8002332 <I2C_WaitOnTXEFlagUntilTimeout+0x7a>
    }

    /* Check for the Timeout */
    if (Timeout != HAL_MAX_DELAY)
 80022d6:	68bb      	ldr	r3, [r7, #8]
 80022d8:	f1b3 3fff 	cmp.w	r3, #4294967295
 80022dc:	d021      	beq.n	8002322 <I2C_WaitOnTXEFlagUntilTimeout+0x6a>
    {
      if (((HAL_GetTick() - Tickstart) > Timeout) || (Timeout == 0U))
 80022de:	f7fe fded 	bl	8000ebc <HAL_GetTick>
 80022e2:	4602      	mov	r2, r0
 80022e4:	687b      	ldr	r3, [r7, #4]
 80022e6:	1ad3      	subs	r3, r2, r3
 80022e8:	68ba      	ldr	r2, [r7, #8]
 80022ea:	429a      	cmp	r2, r3
 80022ec:	d302      	bcc.n	80022f4 <I2C_WaitOnTXEFlagUntilTimeout+0x3c>
 80022ee:	68bb      	ldr	r3, [r7, #8]
 80022f0:	2b00      	cmp	r3, #0
 80022f2:	d116      	bne.n	8002322 <I2C_WaitOnTXEFlagUntilTimeout+0x6a>
      {
        hi2c->PreviousState       = I2C_STATE_NONE;
 80022f4:	68fb      	ldr	r3, [r7, #12]
 80022f6:	2200      	movs	r2, #0
 80022f8:	631a      	str	r2, [r3, #48]	; 0x30
        hi2c->State               = HAL_I2C_STATE_READY;
 80022fa:	68fb      	ldr	r3, [r7, #12]
 80022fc:	2220      	movs	r2, #32
 80022fe:	f883 203d 	strb.w	r2, [r3, #61]	; 0x3d
        hi2c->Mode                = HAL_I2C_MODE_NONE;
 8002302:	68fb      	ldr	r3, [r7, #12]
 8002304:	2200      	movs	r2, #0
 8002306:	f883 203e 	strb.w	r2, [r3, #62]	; 0x3e
        hi2c->ErrorCode           |= HAL_I2C_ERROR_TIMEOUT;
 800230a:	68fb      	ldr	r3, [r7, #12]
 800230c:	6c1b      	ldr	r3, [r3, #64]	; 0x40
 800230e:	f043 0220 	orr.w	r2, r3, #32
 8002312:	68fb      	ldr	r3, [r7, #12]
 8002314:	641a      	str	r2, [r3, #64]	; 0x40

        /* Process Unlocked */
        __HAL_UNLOCK(hi2c);
 8002316:	68fb      	ldr	r3, [r7, #12]
 8002318:	2200      	movs	r2, #0
 800231a:	f883 203c 	strb.w	r2, [r3, #60]	; 0x3c

        return HAL_ERROR;
 800231e:	2301      	movs	r3, #1
 8002320:	e007      	b.n	8002332 <I2C_WaitOnTXEFlagUntilTimeout+0x7a>
  while (__HAL_I2C_GET_FLAG(hi2c, I2C_FLAG_TXE) == RESET)
 8002322:	68fb      	ldr	r3, [r7, #12]
 8002324:	681b      	ldr	r3, [r3, #0]
 8002326:	695b      	ldr	r3, [r3, #20]
 8002328:	f003 0380 	and.w	r3, r3, #128	; 0x80
 800232c:	2b80      	cmp	r3, #128	; 0x80
 800232e:	d1ca      	bne.n	80022c6 <I2C_WaitOnTXEFlagUntilTimeout+0xe>
      }
    }
  }
  return HAL_OK;
 8002330:	2300      	movs	r3, #0
}
 8002332:	4618      	mov	r0, r3
 8002334:	3710      	adds	r7, #16
 8002336:	46bd      	mov	sp, r7
 8002338:	bd80      	pop	{r7, pc}

0800233a <I2C_WaitOnBTFFlagUntilTimeout>:
  * @param  Timeout Timeout duration
  * @param  Tickstart Tick start value
  * @retval HAL status
  */
static HAL_StatusTypeDef I2C_WaitOnBTFFlagUntilTimeout(I2C_HandleTypeDef *hi2c, uint32_t Timeout, uint32_t Tickstart)
{
 800233a:	b580      	push	{r7, lr}
 800233c:	b084      	sub	sp, #16
 800233e:	af00      	add	r7, sp, #0
 8002340:	60f8      	str	r0, [r7, #12]
 8002342:	60b9      	str	r1, [r7, #8]
 8002344:	607a      	str	r2, [r7, #4]
  while (__HAL_I2C_GET_FLAG(hi2c, I2C_FLAG_BTF) == RESET)
 8002346:	e02d      	b.n	80023a4 <I2C_WaitOnBTFFlagUntilTimeout+0x6a>
  {
    /* Check if a NACK is detected */
    if (I2C_IsAcknowledgeFailed(hi2c) != HAL_OK)
 8002348:	68f8      	ldr	r0, [r7, #12]
 800234a:	f000 f88d 	bl	8002468 <I2C_IsAcknowledgeFailed>
 800234e:	4603      	mov	r3, r0
 8002350:	2b00      	cmp	r3, #0
 8002352:	d001      	beq.n	8002358 <I2C_WaitOnBTFFlagUntilTimeout+0x1e>
    {
      return HAL_ERROR;
 8002354:	2301      	movs	r3, #1
 8002356:	e02d      	b.n	80023b4 <I2C_WaitOnBTFFlagUntilTimeout+0x7a>
    }

    /* Check for the Timeout */
    if (Timeout != HAL_MAX_DELAY)
 8002358:	68bb      	ldr	r3, [r7, #8]
 800235a:	f1b3 3fff 	cmp.w	r3, #4294967295
 800235e:	d021      	beq.n	80023a4 <I2C_WaitOnBTFFlagUntilTimeout+0x6a>
    {
      if (((HAL_GetTick() - Tickstart) > Timeout) || (Timeout == 0U))
 8002360:	f7fe fdac 	bl	8000ebc <HAL_GetTick>
 8002364:	4602      	mov	r2, r0
 8002366:	687b      	ldr	r3, [r7, #4]
 8002368:	1ad3      	subs	r3, r2, r3
 800236a:	68ba      	ldr	r2, [r7, #8]
 800236c:	429a      	cmp	r2, r3
 800236e:	d302      	bcc.n	8002376 <I2C_WaitOnBTFFlagUntilTimeout+0x3c>
 8002370:	68bb      	ldr	r3, [r7, #8]
 8002372:	2b00      	cmp	r3, #0
 8002374:	d116      	bne.n	80023a4 <I2C_WaitOnBTFFlagUntilTimeout+0x6a>
      {
        hi2c->PreviousState       = I2C_STATE_NONE;
 8002376:	68fb      	ldr	r3, [r7, #12]
 8002378:	2200      	movs	r2, #0
 800237a:	631a      	str	r2, [r3, #48]	; 0x30
        hi2c->State               = HAL_I2C_STATE_READY;
 800237c:	68fb      	ldr	r3, [r7, #12]
 800237e:	2220      	movs	r2, #32
 8002380:	f883 203d 	strb.w	r2, [r3, #61]	; 0x3d
        hi2c->Mode                = HAL_I2C_MODE_NONE;
 8002384:	68fb      	ldr	r3, [r7, #12]
 8002386:	2200      	movs	r2, #0
 8002388:	f883 203e 	strb.w	r2, [r3, #62]	; 0x3e
        hi2c->ErrorCode           |= HAL_I2C_ERROR_TIMEOUT;
 800238c:	68fb      	ldr	r3, [r7, #12]
 800238e:	6c1b      	ldr	r3, [r3, #64]	; 0x40
 8002390:	f043 0220 	orr.w	r2, r3, #32
 8002394:	68fb      	ldr	r3, [r7, #12]
 8002396:	641a      	str	r2, [r3, #64]	; 0x40

        /* Process Unlocked */
        __HAL_UNLOCK(hi2c);
 8002398:	68fb      	ldr	r3, [r7, #12]
 800239a:	2200      	movs	r2, #0
 800239c:	f883 203c 	strb.w	r2, [r3, #60]	; 0x3c

        return HAL_ERROR;
 80023a0:	2301      	movs	r3, #1
 80023a2:	e007      	b.n	80023b4 <I2C_WaitOnBTFFlagUntilTimeout+0x7a>
  while (__HAL_I2C_GET_FLAG(hi2c, I2C_FLAG_BTF) == RESET)
 80023a4:	68fb      	ldr	r3, [r7, #12]
 80023a6:	681b      	ldr	r3, [r3, #0]
 80023a8:	695b      	ldr	r3, [r3, #20]
 80023aa:	f003 0304 	and.w	r3, r3, #4
 80023ae:	2b04      	cmp	r3, #4
 80023b0:	d1ca      	bne.n	8002348 <I2C_WaitOnBTFFlagUntilTimeout+0xe>
      }
    }
  }
  return HAL_OK;
 80023b2:	2300      	movs	r3, #0
}
 80023b4:	4618      	mov	r0, r3
 80023b6:	3710      	adds	r7, #16
 80023b8:	46bd      	mov	sp, r7
 80023ba:	bd80      	pop	{r7, pc}

080023bc <I2C_WaitOnRXNEFlagUntilTimeout>:
  * @param  Timeout Timeout duration
  * @param  Tickstart Tick start value
  * @retval HAL status
  */
static HAL_StatusTypeDef I2C_WaitOnRXNEFlagUntilTimeout(I2C_HandleTypeDef *hi2c, uint32_t Timeout, uint32_t Tickstart)
{
 80023bc:	b580      	push	{r7, lr}
 80023be:	b084      	sub	sp, #16
 80023c0:	af00      	add	r7, sp, #0
 80023c2:	60f8      	str	r0, [r7, #12]
 80023c4:	60b9      	str	r1, [r7, #8]
 80023c6:	607a      	str	r2, [r7, #4]

  while (__HAL_I2C_GET_FLAG(hi2c, I2C_FLAG_RXNE) == RESET)
 80023c8:	e042      	b.n	8002450 <I2C_WaitOnRXNEFlagUntilTimeout+0x94>
  {
    /* Check if a STOPF is detected */
    if (__HAL_I2C_GET_FLAG(hi2c, I2C_FLAG_STOPF) == SET)
 80023ca:	68fb      	ldr	r3, [r7, #12]
 80023cc:	681b      	ldr	r3, [r3, #0]
 80023ce:	695b      	ldr	r3, [r3, #20]
 80023d0:	f003 0310 	and.w	r3, r3, #16
 80023d4:	2b10      	cmp	r3, #16
 80023d6:	d119      	bne.n	800240c <I2C_WaitOnRXNEFlagUntilTimeout+0x50>
    {
      /* Clear STOP Flag */
      __HAL_I2C_CLEAR_FLAG(hi2c, I2C_FLAG_STOPF);
 80023d8:	68fb      	ldr	r3, [r7, #12]
 80023da:	681b      	ldr	r3, [r3, #0]
 80023dc:	f06f 0210 	mvn.w	r2, #16
 80023e0:	615a      	str	r2, [r3, #20]

      hi2c->PreviousState       = I2C_STATE_NONE;
 80023e2:	68fb      	ldr	r3, [r7, #12]
 80023e4:	2200      	movs	r2, #0
 80023e6:	631a      	str	r2, [r3, #48]	; 0x30
      hi2c->State               = HAL_I2C_STATE_READY;
 80023e8:	68fb      	ldr	r3, [r7, #12]
 80023ea:	2220      	movs	r2, #32
 80023ec:	f883 203d 	strb.w	r2, [r3, #61]	; 0x3d
      hi2c->Mode                = HAL_I2C_MODE_NONE;
 80023f0:	68fb      	ldr	r3, [r7, #12]
 80023f2:	2200      	movs	r2, #0
 80023f4:	f883 203e 	strb.w	r2, [r3, #62]	; 0x3e
      hi2c->ErrorCode           |= HAL_I2C_ERROR_NONE;
 80023f8:	68fb      	ldr	r3, [r7, #12]
 80023fa:	6c1a      	ldr	r2, [r3, #64]	; 0x40
 80023fc:	68fb      	ldr	r3, [r7, #12]
 80023fe:	641a      	str	r2, [r3, #64]	; 0x40

      /* Process Unlocked */
      __HAL_UNLOCK(hi2c);
 8002400:	68fb      	ldr	r3, [r7, #12]
 8002402:	2200      	movs	r2, #0
 8002404:	f883 203c 	strb.w	r2, [r3, #60]	; 0x3c

      return HAL_ERROR;
 8002408:	2301      	movs	r3, #1
 800240a:	e029      	b.n	8002460 <I2C_WaitOnRXNEFlagUntilTimeout+0xa4>
    }

    /* Check for the Timeout */
    if (((HAL_GetTick() - Tickstart) > Timeout) || (Timeout == 0U))
 800240c:	f7fe fd56 	bl	8000ebc <HAL_GetTick>
 8002410:	4602      	mov	r2, r0
 8002412:	687b      	ldr	r3, [r7, #4]
 8002414:	1ad3      	subs	r3, r2, r3
 8002416:	68ba      	ldr	r2, [r7, #8]
 8002418:	429a      	cmp	r2, r3
 800241a:	d302      	bcc.n	8002422 <I2C_WaitOnRXNEFlagUntilTimeout+0x66>
 800241c:	68bb      	ldr	r3, [r7, #8]
 800241e:	2b00      	cmp	r3, #0
 8002420:	d116      	bne.n	8002450 <I2C_WaitOnRXNEFlagUntilTimeout+0x94>
    {
      hi2c->PreviousState       = I2C_STATE_NONE;
 8002422:	68fb      	ldr	r3, [r7, #12]
 8002424:	2200      	movs	r2, #0
 8002426:	631a      	str	r2, [r3, #48]	; 0x30
      hi2c->State               = HAL_I2C_STATE_READY;
 8002428:	68fb      	ldr	r3, [r7, #12]
 800242a:	2220      	movs	r2, #32
 800242c:	f883 203d 	strb.w	r2, [r3, #61]	; 0x3d
      hi2c->Mode                = HAL_I2C_MODE_NONE;
 8002430:	68fb      	ldr	r3, [r7, #12]
 8002432:	2200      	movs	r2, #0
 8002434:	f883 203e 	strb.w	r2, [r3, #62]	; 0x3e
      hi2c->ErrorCode           |= HAL_I2C_ERROR_TIMEOUT;
 8002438:	68fb      	ldr	r3, [r7, #12]
 800243a:	6c1b      	ldr	r3, [r3, #64]	; 0x40
 800243c:	f043 0220 	orr.w	r2, r3, #32
 8002440:	68fb      	ldr	r3, [r7, #12]
 8002442:	641a      	str	r2, [r3, #64]	; 0x40

      /* Process Unlocked */
      __HAL_UNLOCK(hi2c);
 8002444:	68fb      	ldr	r3, [r7, #12]
 8002446:	2200      	movs	r2, #0
 8002448:	f883 203c 	strb.w	r2, [r3, #60]	; 0x3c

      return HAL_ERROR;
 800244c:	2301      	movs	r3, #1
 800244e:	e007      	b.n	8002460 <I2C_WaitOnRXNEFlagUntilTimeout+0xa4>
  while (__HAL_I2C_GET_FLAG(hi2c, I2C_FLAG_RXNE) == RESET)
 8002450:	68fb      	ldr	r3, [r7, #12]
 8002452:	681b      	ldr	r3, [r3, #0]
 8002454:	695b      	ldr	r3, [r3, #20]
 8002456:	f003 0340 	and.w	r3, r3, #64	; 0x40
 800245a:	2b40      	cmp	r3, #64	; 0x40
 800245c:	d1b5      	bne.n	80023ca <I2C_WaitOnRXNEFlagUntilTimeout+0xe>
    }
  }
  return HAL_OK;
 800245e:	2300      	movs	r3, #0
}
 8002460:	4618      	mov	r0, r3
 8002462:	3710      	adds	r7, #16
 8002464:	46bd      	mov	sp, r7
 8002466:	bd80      	pop	{r7, pc}

08002468 <I2C_IsAcknowledgeFailed>:
  * @param  hi2c Pointer to a I2C_HandleTypeDef structure that contains
  *                the configuration information for the specified I2C.
  * @retval HAL status
  */
static HAL_StatusTypeDef I2C_IsAcknowledgeFailed(I2C_HandleTypeDef *hi2c)
{
 8002468:	b480      	push	{r7}
 800246a:	b083      	sub	sp, #12
 800246c:	af00      	add	r7, sp, #0
 800246e:	6078      	str	r0, [r7, #4]
  if (__HAL_I2C_GET_FLAG(hi2c, I2C_FLAG_AF) == SET)
 8002470:	687b      	ldr	r3, [r7, #4]
 8002472:	681b      	ldr	r3, [r3, #0]
 8002474:	695b      	ldr	r3, [r3, #20]
 8002476:	f403 6380 	and.w	r3, r3, #1024	; 0x400
 800247a:	f5b3 6f80 	cmp.w	r3, #1024	; 0x400
 800247e:	d11b      	bne.n	80024b8 <I2C_IsAcknowledgeFailed+0x50>
  {
    /* Clear NACKF Flag */
    __HAL_I2C_CLEAR_FLAG(hi2c, I2C_FLAG_AF);
 8002480:	687b      	ldr	r3, [r7, #4]
 8002482:	681b      	ldr	r3, [r3, #0]
 8002484:	f46f 6280 	mvn.w	r2, #1024	; 0x400
 8002488:	615a      	str	r2, [r3, #20]

    hi2c->PreviousState       = I2C_STATE_NONE;
 800248a:	687b      	ldr	r3, [r7, #4]
 800248c:	2200      	movs	r2, #0
 800248e:	631a      	str	r2, [r3, #48]	; 0x30
    hi2c->State               = HAL_I2C_STATE_READY;
 8002490:	687b      	ldr	r3, [r7, #4]
 8002492:	2220      	movs	r2, #32
 8002494:	f883 203d 	strb.w	r2, [r3, #61]	; 0x3d
    hi2c->Mode                = HAL_I2C_MODE_NONE;
 8002498:	687b      	ldr	r3, [r7, #4]
 800249a:	2200      	movs	r2, #0
 800249c:	f883 203e 	strb.w	r2, [r3, #62]	; 0x3e
    hi2c->ErrorCode           |= HAL_I2C_ERROR_AF;
 80024a0:	687b      	ldr	r3, [r7, #4]
 80024a2:	6c1b      	ldr	r3, [r3, #64]	; 0x40
 80024a4:	f043 0204 	orr.w	r2, r3, #4
 80024a8:	687b      	ldr	r3, [r7, #4]
 80024aa:	641a      	str	r2, [r3, #64]	; 0x40

    /* Process Unlocked */
    __HAL_UNLOCK(hi2c);
 80024ac:	687b      	ldr	r3, [r7, #4]
 80024ae:	2200      	movs	r2, #0
 80024b0:	f883 203c 	strb.w	r2, [r3, #60]	; 0x3c

    return HAL_ERROR;
 80024b4:	2301      	movs	r3, #1
 80024b6:	e000      	b.n	80024ba <I2C_IsAcknowledgeFailed+0x52>
  }
  return HAL_OK;
 80024b8:	2300      	movs	r3, #0
}
 80024ba:	4618      	mov	r0, r3
 80024bc:	370c      	adds	r7, #12
 80024be:	46bd      	mov	sp, r7
 80024c0:	bc80      	pop	{r7}
 80024c2:	4770      	bx	lr

080024c4 <HAL_RCC_OscConfig>:
  *         supported by this macro. User should request a transition to HSE Off
  *         first and then HSE On or HSE Bypass.
  * @retval HAL status
  */
HAL_StatusTypeDef HAL_RCC_OscConfig(RCC_OscInitTypeDef  *RCC_OscInitStruct)
{
 80024c4:	b580      	push	{r7, lr}
 80024c6:	b086      	sub	sp, #24
 80024c8:	af00      	add	r7, sp, #0
 80024ca:	6078      	str	r0, [r7, #4]
  uint32_t tickstart;
  uint32_t pll_config;

  /* Check Null pointer */
  if (RCC_OscInitStruct == NULL)
 80024cc:	687b      	ldr	r3, [r7, #4]
 80024ce:	2b00      	cmp	r3, #0
 80024d0:	d101      	bne.n	80024d6 <HAL_RCC_OscConfig+0x12>
  {
    return HAL_ERROR;
 80024d2:	2301      	movs	r3, #1
 80024d4:	e272      	b.n	80029bc <HAL_RCC_OscConfig+0x4f8>

  /* Check the parameters */
  assert_param(IS_RCC_OSCILLATORTYPE(RCC_OscInitStruct->OscillatorType));

  /*------------------------------- HSE Configuration ------------------------*/
  if (((RCC_OscInitStruct->OscillatorType) & RCC_OSCILLATORTYPE_HSE) == RCC_OSCILLATORTYPE_HSE)
 80024d6:	687b      	ldr	r3, [r7, #4]
 80024d8:	681b      	ldr	r3, [r3, #0]
 80024da:	f003 0301 	and.w	r3, r3, #1
 80024de:	2b00      	cmp	r3, #0
 80024e0:	f000 8087 	beq.w	80025f2 <HAL_RCC_OscConfig+0x12e>
  {
    /* Check the parameters */
    assert_param(IS_RCC_HSE(RCC_OscInitStruct->HSEState));

    /* When the HSE is used as system clock or clock source for PLL in these cases it is not allowed to be disabled */
    if ((__HAL_RCC_GET_SYSCLK_SOURCE() == RCC_SYSCLKSOURCE_STATUS_HSE)
 80024e4:	4b92      	ldr	r3, [pc, #584]	; (8002730 <HAL_RCC_OscConfig+0x26c>)
 80024e6:	685b      	ldr	r3, [r3, #4]
 80024e8:	f003 030c 	and.w	r3, r3, #12
 80024ec:	2b04      	cmp	r3, #4
 80024ee:	d00c      	beq.n	800250a <HAL_RCC_OscConfig+0x46>
        || ((__HAL_RCC_GET_SYSCLK_SOURCE() == RCC_SYSCLKSOURCE_STATUS_PLLCLK) && (__HAL_RCC_GET_PLL_OSCSOURCE() == RCC_PLLSOURCE_HSE)))
 80024f0:	4b8f      	ldr	r3, [pc, #572]	; (8002730 <HAL_RCC_OscConfig+0x26c>)
 80024f2:	685b      	ldr	r3, [r3, #4]
 80024f4:	f003 030c 	and.w	r3, r3, #12
 80024f8:	2b08      	cmp	r3, #8
 80024fa:	d112      	bne.n	8002522 <HAL_RCC_OscConfig+0x5e>
 80024fc:	4b8c      	ldr	r3, [pc, #560]	; (8002730 <HAL_RCC_OscConfig+0x26c>)
 80024fe:	685b      	ldr	r3, [r3, #4]
 8002500:	f403 3380 	and.w	r3, r3, #65536	; 0x10000
 8002504:	f5b3 3f80 	cmp.w	r3, #65536	; 0x10000
 8002508:	d10b      	bne.n	8002522 <HAL_RCC_OscConfig+0x5e>
    {
      if ((__HAL_RCC_GET_FLAG(RCC_FLAG_HSERDY) != RESET) && (RCC_OscInitStruct->HSEState == RCC_HSE_OFF))
 800250a:	4b89      	ldr	r3, [pc, #548]	; (8002730 <HAL_RCC_OscConfig+0x26c>)
 800250c:	681b      	ldr	r3, [r3, #0]
 800250e:	f403 3300 	and.w	r3, r3, #131072	; 0x20000
 8002512:	2b00      	cmp	r3, #0
 8002514:	d06c      	beq.n	80025f0 <HAL_RCC_OscConfig+0x12c>
 8002516:	687b      	ldr	r3, [r7, #4]
 8002518:	685b      	ldr	r3, [r3, #4]
 800251a:	2b00      	cmp	r3, #0
 800251c:	d168      	bne.n	80025f0 <HAL_RCC_OscConfig+0x12c>
      {
        return HAL_ERROR;
 800251e:	2301      	movs	r3, #1
 8002520:	e24c      	b.n	80029bc <HAL_RCC_OscConfig+0x4f8>
      }
    }
    else
    {
      /* Set the new HSE configuration ---------------------------------------*/
      __HAL_RCC_HSE_CONFIG(RCC_OscInitStruct->HSEState);
 8002522:	687b      	ldr	r3, [r7, #4]
 8002524:	685b      	ldr	r3, [r3, #4]
 8002526:	f5b3 3f80 	cmp.w	r3, #65536	; 0x10000
 800252a:	d106      	bne.n	800253a <HAL_RCC_OscConfig+0x76>
 800252c:	4b80      	ldr	r3, [pc, #512]	; (8002730 <HAL_RCC_OscConfig+0x26c>)
 800252e:	681b      	ldr	r3, [r3, #0]
 8002530:	4a7f      	ldr	r2, [pc, #508]	; (8002730 <HAL_RCC_OscConfig+0x26c>)
 8002532:	f443 3380 	orr.w	r3, r3, #65536	; 0x10000
 8002536:	6013      	str	r3, [r2, #0]
 8002538:	e02e      	b.n	8002598 <HAL_RCC_OscConfig+0xd4>
 800253a:	687b      	ldr	r3, [r7, #4]
 800253c:	685b      	ldr	r3, [r3, #4]
 800253e:	2b00      	cmp	r3, #0
 8002540:	d10c      	bne.n	800255c <HAL_RCC_OscConfig+0x98>
 8002542:	4b7b      	ldr	r3, [pc, #492]	; (8002730 <HAL_RCC_OscConfig+0x26c>)
 8002544:	681b      	ldr	r3, [r3, #0]
 8002546:	4a7a      	ldr	r2, [pc, #488]	; (8002730 <HAL_RCC_OscConfig+0x26c>)
 8002548:	f423 3380 	bic.w	r3, r3, #65536	; 0x10000
 800254c:	6013      	str	r3, [r2, #0]
 800254e:	4b78      	ldr	r3, [pc, #480]	; (8002730 <HAL_RCC_OscConfig+0x26c>)
 8002550:	681b      	ldr	r3, [r3, #0]
 8002552:	4a77      	ldr	r2, [pc, #476]	; (8002730 <HAL_RCC_OscConfig+0x26c>)
 8002554:	f423 2380 	bic.w	r3, r3, #262144	; 0x40000
 8002558:	6013      	str	r3, [r2, #0]
 800255a:	e01d      	b.n	8002598 <HAL_RCC_OscConfig+0xd4>
 800255c:	687b      	ldr	r3, [r7, #4]
 800255e:	685b      	ldr	r3, [r3, #4]
 8002560:	f5b3 2fa0 	cmp.w	r3, #327680	; 0x50000
 8002564:	d10c      	bne.n	8002580 <HAL_RCC_OscConfig+0xbc>
 8002566:	4b72      	ldr	r3, [pc, #456]	; (8002730 <HAL_RCC_OscConfig+0x26c>)
 8002568:	681b      	ldr	r3, [r3, #0]
 800256a:	4a71      	ldr	r2, [pc, #452]	; (8002730 <HAL_RCC_OscConfig+0x26c>)
 800256c:	f443 2380 	orr.w	r3, r3, #262144	; 0x40000
 8002570:	6013      	str	r3, [r2, #0]
 8002572:	4b6f      	ldr	r3, [pc, #444]	; (8002730 <HAL_RCC_OscConfig+0x26c>)
 8002574:	681b      	ldr	r3, [r3, #0]
 8002576:	4a6e      	ldr	r2, [pc, #440]	; (8002730 <HAL_RCC_OscConfig+0x26c>)
 8002578:	f443 3380 	orr.w	r3, r3, #65536	; 0x10000
 800257c:	6013      	str	r3, [r2, #0]
 800257e:	e00b      	b.n	8002598 <HAL_RCC_OscConfig+0xd4>
 8002580:	4b6b      	ldr	r3, [pc, #428]	; (8002730 <HAL_RCC_OscConfig+0x26c>)
 8002582:	681b      	ldr	r3, [r3, #0]
 8002584:	4a6a      	ldr	r2, [pc, #424]	; (8002730 <HAL_RCC_OscConfig+0x26c>)
 8002586:	f423 3380 	bic.w	r3, r3, #65536	; 0x10000
 800258a:	6013      	str	r3, [r2, #0]
 800258c:	4b68      	ldr	r3, [pc, #416]	; (8002730 <HAL_RCC_OscConfig+0x26c>)
 800258e:	681b      	ldr	r3, [r3, #0]
 8002590:	4a67      	ldr	r2, [pc, #412]	; (8002730 <HAL_RCC_OscConfig+0x26c>)
 8002592:	f423 2380 	bic.w	r3, r3, #262144	; 0x40000
 8002596:	6013      	str	r3, [r2, #0]


      /* Check the HSE State */
      if (RCC_OscInitStruct->HSEState != RCC_HSE_OFF)
 8002598:	687b      	ldr	r3, [r7, #4]
 800259a:	685b      	ldr	r3, [r3, #4]
 800259c:	2b00      	cmp	r3, #0
 800259e:	d013      	beq.n	80025c8 <HAL_RCC_OscConfig+0x104>
      {
        /* Get Start Tick */
        tickstart = HAL_GetTick();
 80025a0:	f7fe fc8c 	bl	8000ebc <HAL_GetTick>
 80025a4:	6138      	str	r0, [r7, #16]

        /* Wait till HSE is ready */
        while (__HAL_RCC_GET_FLAG(RCC_FLAG_HSERDY) == RESET)
 80025a6:	e008      	b.n	80025ba <HAL_RCC_OscConfig+0xf6>
        {
          if ((HAL_GetTick() - tickstart) > HSE_TIMEOUT_VALUE)
 80025a8:	f7fe fc88 	bl	8000ebc <HAL_GetTick>
 80025ac:	4602      	mov	r2, r0
 80025ae:	693b      	ldr	r3, [r7, #16]
 80025b0:	1ad3      	subs	r3, r2, r3
 80025b2:	2b64      	cmp	r3, #100	; 0x64
 80025b4:	d901      	bls.n	80025ba <HAL_RCC_OscConfig+0xf6>
          {
            return HAL_TIMEOUT;
 80025b6:	2303      	movs	r3, #3
 80025b8:	e200      	b.n	80029bc <HAL_RCC_OscConfig+0x4f8>
        while (__HAL_RCC_GET_FLAG(RCC_FLAG_HSERDY) == RESET)
 80025ba:	4b5d      	ldr	r3, [pc, #372]	; (8002730 <HAL_RCC_OscConfig+0x26c>)
 80025bc:	681b      	ldr	r3, [r3, #0]
 80025be:	f403 3300 	and.w	r3, r3, #131072	; 0x20000
 80025c2:	2b00      	cmp	r3, #0
 80025c4:	d0f0      	beq.n	80025a8 <HAL_RCC_OscConfig+0xe4>
 80025c6:	e014      	b.n	80025f2 <HAL_RCC_OscConfig+0x12e>
        }
      }
      else
      {
        /* Get Start Tick */
        tickstart = HAL_GetTick();
 80025c8:	f7fe fc78 	bl	8000ebc <HAL_GetTick>
 80025cc:	6138      	str	r0, [r7, #16]

        /* Wait till HSE is disabled */
        while (__HAL_RCC_GET_FLAG(RCC_FLAG_HSERDY) != RESET)
 80025ce:	e008      	b.n	80025e2 <HAL_RCC_OscConfig+0x11e>
        {
          if ((HAL_GetTick() - tickstart) > HSE_TIMEOUT_VALUE)
 80025d0:	f7fe fc74 	bl	8000ebc <HAL_GetTick>
 80025d4:	4602      	mov	r2, r0
 80025d6:	693b      	ldr	r3, [r7, #16]
 80025d8:	1ad3      	subs	r3, r2, r3
 80025da:	2b64      	cmp	r3, #100	; 0x64
 80025dc:	d901      	bls.n	80025e2 <HAL_RCC_OscConfig+0x11e>
          {
            return HAL_TIMEOUT;
 80025de:	2303      	movs	r3, #3
 80025e0:	e1ec      	b.n	80029bc <HAL_RCC_OscConfig+0x4f8>
        while (__HAL_RCC_GET_FLAG(RCC_FLAG_HSERDY) != RESET)
 80025e2:	4b53      	ldr	r3, [pc, #332]	; (8002730 <HAL_RCC_OscConfig+0x26c>)
 80025e4:	681b      	ldr	r3, [r3, #0]
 80025e6:	f403 3300 	and.w	r3, r3, #131072	; 0x20000
 80025ea:	2b00      	cmp	r3, #0
 80025ec:	d1f0      	bne.n	80025d0 <HAL_RCC_OscConfig+0x10c>
 80025ee:	e000      	b.n	80025f2 <HAL_RCC_OscConfig+0x12e>
      if ((__HAL_RCC_GET_FLAG(RCC_FLAG_HSERDY) != RESET) && (RCC_OscInitStruct->HSEState == RCC_HSE_OFF))
 80025f0:	bf00      	nop
        }
      }
    }
  }
  /*----------------------------- HSI Configuration --------------------------*/
  if (((RCC_OscInitStruct->OscillatorType) & RCC_OSCILLATORTYPE_HSI) == RCC_OSCILLATORTYPE_HSI)
 80025f2:	687b      	ldr	r3, [r7, #4]
 80025f4:	681b      	ldr	r3, [r3, #0]
 80025f6:	f003 0302 	and.w	r3, r3, #2
 80025fa:	2b00      	cmp	r3, #0
 80025fc:	d063      	beq.n	80026c6 <HAL_RCC_OscConfig+0x202>
    /* Check the parameters */
    assert_param(IS_RCC_HSI(RCC_OscInitStruct->HSIState));
    assert_param(IS_RCC_CALIBRATION_VALUE(RCC_OscInitStruct->HSICalibrationValue));

    /* Check if HSI is used as system clock or as PLL source when PLL is selected as system clock */
    if ((__HAL_RCC_GET_SYSCLK_SOURCE() == RCC_SYSCLKSOURCE_STATUS_HSI)
 80025fe:	4b4c      	ldr	r3, [pc, #304]	; (8002730 <HAL_RCC_OscConfig+0x26c>)
 8002600:	685b      	ldr	r3, [r3, #4]
 8002602:	f003 030c 	and.w	r3, r3, #12
 8002606:	2b00      	cmp	r3, #0
 8002608:	d00b      	beq.n	8002622 <HAL_RCC_OscConfig+0x15e>
        || ((__HAL_RCC_GET_SYSCLK_SOURCE() == RCC_SYSCLKSOURCE_STATUS_PLLCLK) && (__HAL_RCC_GET_PLL_OSCSOURCE() == RCC_PLLSOURCE_HSI_DIV2)))
 800260a:	4b49      	ldr	r3, [pc, #292]	; (8002730 <HAL_RCC_OscConfig+0x26c>)
 800260c:	685b      	ldr	r3, [r3, #4]
 800260e:	f003 030c 	and.w	r3, r3, #12
 8002612:	2b08      	cmp	r3, #8
 8002614:	d11c      	bne.n	8002650 <HAL_RCC_OscConfig+0x18c>
 8002616:	4b46      	ldr	r3, [pc, #280]	; (8002730 <HAL_RCC_OscConfig+0x26c>)
 8002618:	685b      	ldr	r3, [r3, #4]
 800261a:	f403 3380 	and.w	r3, r3, #65536	; 0x10000
 800261e:	2b00      	cmp	r3, #0
 8002620:	d116      	bne.n	8002650 <HAL_RCC_OscConfig+0x18c>
    {
      /* When HSI is used as system clock it will not disabled */
      if ((__HAL_RCC_GET_FLAG(RCC_FLAG_HSIRDY) != RESET) && (RCC_OscInitStruct->HSIState != RCC_HSI_ON))
 8002622:	4b43      	ldr	r3, [pc, #268]	; (8002730 <HAL_RCC_OscConfig+0x26c>)
 8002624:	681b      	ldr	r3, [r3, #0]
 8002626:	f003 0302 	and.w	r3, r3, #2
 800262a:	2b00      	cmp	r3, #0
 800262c:	d005      	beq.n	800263a <HAL_RCC_OscConfig+0x176>
 800262e:	687b      	ldr	r3, [r7, #4]
 8002630:	691b      	ldr	r3, [r3, #16]
 8002632:	2b01      	cmp	r3, #1
 8002634:	d001      	beq.n	800263a <HAL_RCC_OscConfig+0x176>
      {
        return HAL_ERROR;
 8002636:	2301      	movs	r3, #1
 8002638:	e1c0      	b.n	80029bc <HAL_RCC_OscConfig+0x4f8>
      }
      /* Otherwise, just the calibration is allowed */
      else
      {
        /* Adjusts the Internal High Speed oscillator (HSI) calibration value.*/
        __HAL_RCC_HSI_CALIBRATIONVALUE_ADJUST(RCC_OscInitStruct->HSICalibrationValue);
 800263a:	4b3d      	ldr	r3, [pc, #244]	; (8002730 <HAL_RCC_OscConfig+0x26c>)
 800263c:	681b      	ldr	r3, [r3, #0]
 800263e:	f023 02f8 	bic.w	r2, r3, #248	; 0xf8
 8002642:	687b      	ldr	r3, [r7, #4]
 8002644:	695b      	ldr	r3, [r3, #20]
 8002646:	00db      	lsls	r3, r3, #3
 8002648:	4939      	ldr	r1, [pc, #228]	; (8002730 <HAL_RCC_OscConfig+0x26c>)
 800264a:	4313      	orrs	r3, r2
 800264c:	600b      	str	r3, [r1, #0]
      if ((__HAL_RCC_GET_FLAG(RCC_FLAG_HSIRDY) != RESET) && (RCC_OscInitStruct->HSIState != RCC_HSI_ON))
 800264e:	e03a      	b.n	80026c6 <HAL_RCC_OscConfig+0x202>
      }
    }
    else
    {
      /* Check the HSI State */
      if (RCC_OscInitStruct->HSIState != RCC_HSI_OFF)
 8002650:	687b      	ldr	r3, [r7, #4]
 8002652:	691b      	ldr	r3, [r3, #16]
 8002654:	2b00      	cmp	r3, #0
 8002656:	d020      	beq.n	800269a <HAL_RCC_OscConfig+0x1d6>
      {
        /* Enable the Internal High Speed oscillator (HSI). */
        __HAL_RCC_HSI_ENABLE();
 8002658:	4b36      	ldr	r3, [pc, #216]	; (8002734 <HAL_RCC_OscConfig+0x270>)
 800265a:	2201      	movs	r2, #1
 800265c:	601a      	str	r2, [r3, #0]

        /* Get Start Tick */
        tickstart = HAL_GetTick();
 800265e:	f7fe fc2d 	bl	8000ebc <HAL_GetTick>
 8002662:	6138      	str	r0, [r7, #16]

        /* Wait till HSI is ready */
        while (__HAL_RCC_GET_FLAG(RCC_FLAG_HSIRDY) == RESET)
 8002664:	e008      	b.n	8002678 <HAL_RCC_OscConfig+0x1b4>
        {
          if ((HAL_GetTick() - tickstart) > HSI_TIMEOUT_VALUE)
 8002666:	f7fe fc29 	bl	8000ebc <HAL_GetTick>
 800266a:	4602      	mov	r2, r0
 800266c:	693b      	ldr	r3, [r7, #16]
 800266e:	1ad3      	subs	r3, r2, r3
 8002670:	2b02      	cmp	r3, #2
 8002672:	d901      	bls.n	8002678 <HAL_RCC_OscConfig+0x1b4>
          {
            return HAL_TIMEOUT;
 8002674:	2303      	movs	r3, #3
 8002676:	e1a1      	b.n	80029bc <HAL_RCC_OscConfig+0x4f8>
        while (__HAL_RCC_GET_FLAG(RCC_FLAG_HSIRDY) == RESET)
 8002678:	4b2d      	ldr	r3, [pc, #180]	; (8002730 <HAL_RCC_OscConfig+0x26c>)
 800267a:	681b      	ldr	r3, [r3, #0]
 800267c:	f003 0302 	and.w	r3, r3, #2
 8002680:	2b00      	cmp	r3, #0
 8002682:	d0f0      	beq.n	8002666 <HAL_RCC_OscConfig+0x1a2>
          }
        }

        /* Adjusts the Internal High Speed oscillator (HSI) calibration value.*/
        __HAL_RCC_HSI_CALIBRATIONVALUE_ADJUST(RCC_OscInitStruct->HSICalibrationValue);
 8002684:	4b2a      	ldr	r3, [pc, #168]	; (8002730 <HAL_RCC_OscConfig+0x26c>)
 8002686:	681b      	ldr	r3, [r3, #0]
 8002688:	f023 02f8 	bic.w	r2, r3, #248	; 0xf8
 800268c:	687b      	ldr	r3, [r7, #4]
 800268e:	695b      	ldr	r3, [r3, #20]
 8002690:	00db      	lsls	r3, r3, #3
 8002692:	4927      	ldr	r1, [pc, #156]	; (8002730 <HAL_RCC_OscConfig+0x26c>)
 8002694:	4313      	orrs	r3, r2
 8002696:	600b      	str	r3, [r1, #0]
 8002698:	e015      	b.n	80026c6 <HAL_RCC_OscConfig+0x202>
      }
      else
      {
        /* Disable the Internal High Speed oscillator (HSI). */
        __HAL_RCC_HSI_DISABLE();
 800269a:	4b26      	ldr	r3, [pc, #152]	; (8002734 <HAL_RCC_OscConfig+0x270>)
 800269c:	2200      	movs	r2, #0
 800269e:	601a      	str	r2, [r3, #0]

        /* Get Start Tick */
        tickstart = HAL_GetTick();
 80026a0:	f7fe fc0c 	bl	8000ebc <HAL_GetTick>
 80026a4:	6138      	str	r0, [r7, #16]

        /* Wait till HSI is disabled */
        while (__HAL_RCC_GET_FLAG(RCC_FLAG_HSIRDY) != RESET)
 80026a6:	e008      	b.n	80026ba <HAL_RCC_OscConfig+0x1f6>
        {
          if ((HAL_GetTick() - tickstart) > HSI_TIMEOUT_VALUE)
 80026a8:	f7fe fc08 	bl	8000ebc <HAL_GetTick>
 80026ac:	4602      	mov	r2, r0
 80026ae:	693b      	ldr	r3, [r7, #16]
 80026b0:	1ad3      	subs	r3, r2, r3
 80026b2:	2b02      	cmp	r3, #2
 80026b4:	d901      	bls.n	80026ba <HAL_RCC_OscConfig+0x1f6>
          {
            return HAL_TIMEOUT;
 80026b6:	2303      	movs	r3, #3
 80026b8:	e180      	b.n	80029bc <HAL_RCC_OscConfig+0x4f8>
        while (__HAL_RCC_GET_FLAG(RCC_FLAG_HSIRDY) != RESET)
 80026ba:	4b1d      	ldr	r3, [pc, #116]	; (8002730 <HAL_RCC_OscConfig+0x26c>)
 80026bc:	681b      	ldr	r3, [r3, #0]
 80026be:	f003 0302 	and.w	r3, r3, #2
 80026c2:	2b00      	cmp	r3, #0
 80026c4:	d1f0      	bne.n	80026a8 <HAL_RCC_OscConfig+0x1e4>
        }
      }
    }
  }
  /*------------------------------ LSI Configuration -------------------------*/
  if (((RCC_OscInitStruct->OscillatorType) & RCC_OSCILLATORTYPE_LSI) == RCC_OSCILLATORTYPE_LSI)
 80026c6:	687b      	ldr	r3, [r7, #4]
 80026c8:	681b      	ldr	r3, [r3, #0]
 80026ca:	f003 0308 	and.w	r3, r3, #8
 80026ce:	2b00      	cmp	r3, #0
 80026d0:	d03a      	beq.n	8002748 <HAL_RCC_OscConfig+0x284>
  {
    /* Check the parameters */
    assert_param(IS_RCC_LSI(RCC_OscInitStruct->LSIState));

    /* Check the LSI State */
    if (RCC_OscInitStruct->LSIState != RCC_LSI_OFF)
 80026d2:	687b      	ldr	r3, [r7, #4]
 80026d4:	699b      	ldr	r3, [r3, #24]
 80026d6:	2b00      	cmp	r3, #0
 80026d8:	d019      	beq.n	800270e <HAL_RCC_OscConfig+0x24a>
    {
      /* Enable the Internal Low Speed oscillator (LSI). */
      __HAL_RCC_LSI_ENABLE();
 80026da:	4b17      	ldr	r3, [pc, #92]	; (8002738 <HAL_RCC_OscConfig+0x274>)
 80026dc:	2201      	movs	r2, #1
 80026de:	601a      	str	r2, [r3, #0]

      /* Get Start Tick */
      tickstart = HAL_GetTick();
 80026e0:	f7fe fbec 	bl	8000ebc <HAL_GetTick>
 80026e4:	6138      	str	r0, [r7, #16]

      /* Wait till LSI is ready */
      while (__HAL_RCC_GET_FLAG(RCC_FLAG_LSIRDY) == RESET)
 80026e6:	e008      	b.n	80026fa <HAL_RCC_OscConfig+0x236>
      {
        if ((HAL_GetTick() - tickstart) > LSI_TIMEOUT_VALUE)
 80026e8:	f7fe fbe8 	bl	8000ebc <HAL_GetTick>
 80026ec:	4602      	mov	r2, r0
 80026ee:	693b      	ldr	r3, [r7, #16]
 80026f0:	1ad3      	subs	r3, r2, r3
 80026f2:	2b02      	cmp	r3, #2
 80026f4:	d901      	bls.n	80026fa <HAL_RCC_OscConfig+0x236>
        {
          return HAL_TIMEOUT;
 80026f6:	2303      	movs	r3, #3
 80026f8:	e160      	b.n	80029bc <HAL_RCC_OscConfig+0x4f8>
      while (__HAL_RCC_GET_FLAG(RCC_FLAG_LSIRDY) == RESET)
 80026fa:	4b0d      	ldr	r3, [pc, #52]	; (8002730 <HAL_RCC_OscConfig+0x26c>)
 80026fc:	6a5b      	ldr	r3, [r3, #36]	; 0x24
 80026fe:	f003 0302 	and.w	r3, r3, #2
 8002702:	2b00      	cmp	r3, #0
 8002704:	d0f0      	beq.n	80026e8 <HAL_RCC_OscConfig+0x224>
        }
      }
      /*  To have a fully stabilized clock in the specified range, a software delay of 1ms
          should be added.*/
      RCC_Delay(1);
 8002706:	2001      	movs	r0, #1
 8002708:	f000 fad8 	bl	8002cbc <RCC_Delay>
 800270c:	e01c      	b.n	8002748 <HAL_RCC_OscConfig+0x284>
    }
    else
    {
      /* Disable the Internal Low Speed oscillator (LSI). */
      __HAL_RCC_LSI_DISABLE();
 800270e:	4b0a      	ldr	r3, [pc, #40]	; (8002738 <HAL_RCC_OscConfig+0x274>)
 8002710:	2200      	movs	r2, #0
 8002712:	601a      	str	r2, [r3, #0]

      /* Get Start Tick */
      tickstart = HAL_GetTick();
 8002714:	f7fe fbd2 	bl	8000ebc <HAL_GetTick>
 8002718:	6138      	str	r0, [r7, #16]

      /* Wait till LSI is disabled */
      while (__HAL_RCC_GET_FLAG(RCC_FLAG_LSIRDY) != RESET)
 800271a:	e00f      	b.n	800273c <HAL_RCC_OscConfig+0x278>
      {
        if ((HAL_GetTick() - tickstart) > LSI_TIMEOUT_VALUE)
 800271c:	f7fe fbce 	bl	8000ebc <HAL_GetTick>
 8002720:	4602      	mov	r2, r0
 8002722:	693b      	ldr	r3, [r7, #16]
 8002724:	1ad3      	subs	r3, r2, r3
 8002726:	2b02      	cmp	r3, #2
 8002728:	d908      	bls.n	800273c <HAL_RCC_OscConfig+0x278>
        {
          return HAL_TIMEOUT;
 800272a:	2303      	movs	r3, #3
 800272c:	e146      	b.n	80029bc <HAL_RCC_OscConfig+0x4f8>
 800272e:	bf00      	nop
 8002730:	40021000 	.word	0x40021000
 8002734:	42420000 	.word	0x42420000
 8002738:	42420480 	.word	0x42420480
      while (__HAL_RCC_GET_FLAG(RCC_FLAG_LSIRDY) != RESET)
 800273c:	4b92      	ldr	r3, [pc, #584]	; (8002988 <HAL_RCC_OscConfig+0x4c4>)
 800273e:	6a5b      	ldr	r3, [r3, #36]	; 0x24
 8002740:	f003 0302 	and.w	r3, r3, #2
 8002744:	2b00      	cmp	r3, #0
 8002746:	d1e9      	bne.n	800271c <HAL_RCC_OscConfig+0x258>
        }
      }
    }
  }
  /*------------------------------ LSE Configuration -------------------------*/
  if (((RCC_OscInitStruct->OscillatorType) & RCC_OSCILLATORTYPE_LSE) == RCC_OSCILLATORTYPE_LSE)
 8002748:	687b      	ldr	r3, [r7, #4]
 800274a:	681b      	ldr	r3, [r3, #0]
 800274c:	f003 0304 	and.w	r3, r3, #4
 8002750:	2b00      	cmp	r3, #0
 8002752:	f000 80a6 	beq.w	80028a2 <HAL_RCC_OscConfig+0x3de>
  {
    FlagStatus       pwrclkchanged = RESET;
 8002756:	2300      	movs	r3, #0
 8002758:	75fb      	strb	r3, [r7, #23]
    /* Check the parameters */
    assert_param(IS_RCC_LSE(RCC_OscInitStruct->LSEState));

    /* Update LSE configuration in Backup Domain control register    */
    /* Requires to enable write access to Backup Domain of necessary */
    if (__HAL_RCC_PWR_IS_CLK_DISABLED())
 800275a:	4b8b      	ldr	r3, [pc, #556]	; (8002988 <HAL_RCC_OscConfig+0x4c4>)
 800275c:	69db      	ldr	r3, [r3, #28]
 800275e:	f003 5380 	and.w	r3, r3, #268435456	; 0x10000000
 8002762:	2b00      	cmp	r3, #0
 8002764:	d10d      	bne.n	8002782 <HAL_RCC_OscConfig+0x2be>
    {
      __HAL_RCC_PWR_CLK_ENABLE();
 8002766:	4b88      	ldr	r3, [pc, #544]	; (8002988 <HAL_RCC_OscConfig+0x4c4>)
 8002768:	69db      	ldr	r3, [r3, #28]
 800276a:	4a87      	ldr	r2, [pc, #540]	; (8002988 <HAL_RCC_OscConfig+0x4c4>)
 800276c:	f043 5380 	orr.w	r3, r3, #268435456	; 0x10000000
 8002770:	61d3      	str	r3, [r2, #28]
 8002772:	4b85      	ldr	r3, [pc, #532]	; (8002988 <HAL_RCC_OscConfig+0x4c4>)
 8002774:	69db      	ldr	r3, [r3, #28]
 8002776:	f003 5380 	and.w	r3, r3, #268435456	; 0x10000000
 800277a:	60bb      	str	r3, [r7, #8]
 800277c:	68bb      	ldr	r3, [r7, #8]
      pwrclkchanged = SET;
 800277e:	2301      	movs	r3, #1
 8002780:	75fb      	strb	r3, [r7, #23]
    }

    if (HAL_IS_BIT_CLR(PWR->CR, PWR_CR_DBP))
 8002782:	4b82      	ldr	r3, [pc, #520]	; (800298c <HAL_RCC_OscConfig+0x4c8>)
 8002784:	681b      	ldr	r3, [r3, #0]
 8002786:	f403 7380 	and.w	r3, r3, #256	; 0x100
 800278a:	2b00      	cmp	r3, #0
 800278c:	d118      	bne.n	80027c0 <HAL_RCC_OscConfig+0x2fc>
    {
      /* Enable write access to Backup domain */
      SET_BIT(PWR->CR, PWR_CR_DBP);
 800278e:	4b7f      	ldr	r3, [pc, #508]	; (800298c <HAL_RCC_OscConfig+0x4c8>)
 8002790:	681b      	ldr	r3, [r3, #0]
 8002792:	4a7e      	ldr	r2, [pc, #504]	; (800298c <HAL_RCC_OscConfig+0x4c8>)
 8002794:	f443 7380 	orr.w	r3, r3, #256	; 0x100
 8002798:	6013      	str	r3, [r2, #0]

      /* Wait for Backup domain Write protection disable */
      tickstart = HAL_GetTick();
 800279a:	f7fe fb8f 	bl	8000ebc <HAL_GetTick>
 800279e:	6138      	str	r0, [r7, #16]

      while (HAL_IS_BIT_CLR(PWR->CR, PWR_CR_DBP))
 80027a0:	e008      	b.n	80027b4 <HAL_RCC_OscConfig+0x2f0>
      {
        if ((HAL_GetTick() - tickstart) > RCC_DBP_TIMEOUT_VALUE)
 80027a2:	f7fe fb8b 	bl	8000ebc <HAL_GetTick>
 80027a6:	4602      	mov	r2, r0
 80027a8:	693b      	ldr	r3, [r7, #16]
 80027aa:	1ad3      	subs	r3, r2, r3
 80027ac:	2b64      	cmp	r3, #100	; 0x64
 80027ae:	d901      	bls.n	80027b4 <HAL_RCC_OscConfig+0x2f0>
        {
          return HAL_TIMEOUT;
 80027b0:	2303      	movs	r3, #3
 80027b2:	e103      	b.n	80029bc <HAL_RCC_OscConfig+0x4f8>
      while (HAL_IS_BIT_CLR(PWR->CR, PWR_CR_DBP))
 80027b4:	4b75      	ldr	r3, [pc, #468]	; (800298c <HAL_RCC_OscConfig+0x4c8>)
 80027b6:	681b      	ldr	r3, [r3, #0]
 80027b8:	f403 7380 	and.w	r3, r3, #256	; 0x100
 80027bc:	2b00      	cmp	r3, #0
 80027be:	d0f0      	beq.n	80027a2 <HAL_RCC_OscConfig+0x2de>
        }
      }
    }

    /* Set the new LSE configuration -----------------------------------------*/
    __HAL_RCC_LSE_CONFIG(RCC_OscInitStruct->LSEState);
 80027c0:	687b      	ldr	r3, [r7, #4]
 80027c2:	68db      	ldr	r3, [r3, #12]
 80027c4:	2b01      	cmp	r3, #1
 80027c6:	d106      	bne.n	80027d6 <HAL_RCC_OscConfig+0x312>
 80027c8:	4b6f      	ldr	r3, [pc, #444]	; (8002988 <HAL_RCC_OscConfig+0x4c4>)
 80027ca:	6a1b      	ldr	r3, [r3, #32]
 80027cc:	4a6e      	ldr	r2, [pc, #440]	; (8002988 <HAL_RCC_OscConfig+0x4c4>)
 80027ce:	f043 0301 	orr.w	r3, r3, #1
 80027d2:	6213      	str	r3, [r2, #32]
 80027d4:	e02d      	b.n	8002832 <HAL_RCC_OscConfig+0x36e>
 80027d6:	687b      	ldr	r3, [r7, #4]
 80027d8:	68db      	ldr	r3, [r3, #12]
 80027da:	2b00      	cmp	r3, #0
 80027dc:	d10c      	bne.n	80027f8 <HAL_RCC_OscConfig+0x334>
 80027de:	4b6a      	ldr	r3, [pc, #424]	; (8002988 <HAL_RCC_OscConfig+0x4c4>)
 80027e0:	6a1b      	ldr	r3, [r3, #32]
 80027e2:	4a69      	ldr	r2, [pc, #420]	; (8002988 <HAL_RCC_OscConfig+0x4c4>)
 80027e4:	f023 0301 	bic.w	r3, r3, #1
 80027e8:	6213      	str	r3, [r2, #32]
 80027ea:	4b67      	ldr	r3, [pc, #412]	; (8002988 <HAL_RCC_OscConfig+0x4c4>)
 80027ec:	6a1b      	ldr	r3, [r3, #32]
 80027ee:	4a66      	ldr	r2, [pc, #408]	; (8002988 <HAL_RCC_OscConfig+0x4c4>)
 80027f0:	f023 0304 	bic.w	r3, r3, #4
 80027f4:	6213      	str	r3, [r2, #32]
 80027f6:	e01c      	b.n	8002832 <HAL_RCC_OscConfig+0x36e>
 80027f8:	687b      	ldr	r3, [r7, #4]
 80027fa:	68db      	ldr	r3, [r3, #12]
 80027fc:	2b05      	cmp	r3, #5
 80027fe:	d10c      	bne.n	800281a <HAL_RCC_OscConfig+0x356>
 8002800:	4b61      	ldr	r3, [pc, #388]	; (8002988 <HAL_RCC_OscConfig+0x4c4>)
 8002802:	6a1b      	ldr	r3, [r3, #32]
 8002804:	4a60      	ldr	r2, [pc, #384]	; (8002988 <HAL_RCC_OscConfig+0x4c4>)
 8002806:	f043 0304 	orr.w	r3, r3, #4
 800280a:	6213      	str	r3, [r2, #32]
 800280c:	4b5e      	ldr	r3, [pc, #376]	; (8002988 <HAL_RCC_OscConfig+0x4c4>)
 800280e:	6a1b      	ldr	r3, [r3, #32]
 8002810:	4a5d      	ldr	r2, [pc, #372]	; (8002988 <HAL_RCC_OscConfig+0x4c4>)
 8002812:	f043 0301 	orr.w	r3, r3, #1
 8002816:	6213      	str	r3, [r2, #32]
 8002818:	e00b      	b.n	8002832 <HAL_RCC_OscConfig+0x36e>
 800281a:	4b5b      	ldr	r3, [pc, #364]	; (8002988 <HAL_RCC_OscConfig+0x4c4>)
 800281c:	6a1b      	ldr	r3, [r3, #32]
 800281e:	4a5a      	ldr	r2, [pc, #360]	; (8002988 <HAL_RCC_OscConfig+0x4c4>)
 8002820:	f023 0301 	bic.w	r3, r3, #1
 8002824:	6213      	str	r3, [r2, #32]
 8002826:	4b58      	ldr	r3, [pc, #352]	; (8002988 <HAL_RCC_OscConfig+0x4c4>)
 8002828:	6a1b      	ldr	r3, [r3, #32]
 800282a:	4a57      	ldr	r2, [pc, #348]	; (8002988 <HAL_RCC_OscConfig+0x4c4>)
 800282c:	f023 0304 	bic.w	r3, r3, #4
 8002830:	6213      	str	r3, [r2, #32]
    /* Check the LSE State */
    if (RCC_OscInitStruct->LSEState != RCC_LSE_OFF)
 8002832:	687b      	ldr	r3, [r7, #4]
 8002834:	68db      	ldr	r3, [r3, #12]
 8002836:	2b00      	cmp	r3, #0
 8002838:	d015      	beq.n	8002866 <HAL_RCC_OscConfig+0x3a2>
    {
      /* Get Start Tick */
      tickstart = HAL_GetTick();
 800283a:	f7fe fb3f 	bl	8000ebc <HAL_GetTick>
 800283e:	6138      	str	r0, [r7, #16]

      /* Wait till LSE is ready */
      while (__HAL_RCC_GET_FLAG(RCC_FLAG_LSERDY) == RESET)
 8002840:	e00a      	b.n	8002858 <HAL_RCC_OscConfig+0x394>
      {
        if ((HAL_GetTick() - tickstart) > RCC_LSE_TIMEOUT_VALUE)
 8002842:	f7fe fb3b 	bl	8000ebc <HAL_GetTick>
 8002846:	4602      	mov	r2, r0
 8002848:	693b      	ldr	r3, [r7, #16]
 800284a:	1ad3      	subs	r3, r2, r3
 800284c:	f241 3288 	movw	r2, #5000	; 0x1388
 8002850:	4293      	cmp	r3, r2
 8002852:	d901      	bls.n	8002858 <HAL_RCC_OscConfig+0x394>
        {
          return HAL_TIMEOUT;
 8002854:	2303      	movs	r3, #3
 8002856:	e0b1      	b.n	80029bc <HAL_RCC_OscConfig+0x4f8>
      while (__HAL_RCC_GET_FLAG(RCC_FLAG_LSERDY) == RESET)
 8002858:	4b4b      	ldr	r3, [pc, #300]	; (8002988 <HAL_RCC_OscConfig+0x4c4>)
 800285a:	6a1b      	ldr	r3, [r3, #32]
 800285c:	f003 0302 	and.w	r3, r3, #2
 8002860:	2b00      	cmp	r3, #0
 8002862:	d0ee      	beq.n	8002842 <HAL_RCC_OscConfig+0x37e>
 8002864:	e014      	b.n	8002890 <HAL_RCC_OscConfig+0x3cc>
      }
    }
    else
    {
      /* Get Start Tick */
      tickstart = HAL_GetTick();
 8002866:	f7fe fb29 	bl	8000ebc <HAL_GetTick>
 800286a:	6138      	str	r0, [r7, #16]

      /* Wait till LSE is disabled */
      while (__HAL_RCC_GET_FLAG(RCC_FLAG_LSERDY) != RESET)
 800286c:	e00a      	b.n	8002884 <HAL_RCC_OscConfig+0x3c0>
      {
        if ((HAL_GetTick() - tickstart) > RCC_LSE_TIMEOUT_VALUE)
 800286e:	f7fe fb25 	bl	8000ebc <HAL_GetTick>
 8002872:	4602      	mov	r2, r0
 8002874:	693b      	ldr	r3, [r7, #16]
 8002876:	1ad3      	subs	r3, r2, r3
 8002878:	f241 3288 	movw	r2, #5000	; 0x1388
 800287c:	4293      	cmp	r3, r2
 800287e:	d901      	bls.n	8002884 <HAL_RCC_OscConfig+0x3c0>
        {
          return HAL_TIMEOUT;
 8002880:	2303      	movs	r3, #3
 8002882:	e09b      	b.n	80029bc <HAL_RCC_OscConfig+0x4f8>
      while (__HAL_RCC_GET_FLAG(RCC_FLAG_LSERDY) != RESET)
 8002884:	4b40      	ldr	r3, [pc, #256]	; (8002988 <HAL_RCC_OscConfig+0x4c4>)
 8002886:	6a1b      	ldr	r3, [r3, #32]
 8002888:	f003 0302 	and.w	r3, r3, #2
 800288c:	2b00      	cmp	r3, #0
 800288e:	d1ee      	bne.n	800286e <HAL_RCC_OscConfig+0x3aa>
        }
      }
    }

    /* Require to disable power clock if necessary */
    if (pwrclkchanged == SET)
 8002890:	7dfb      	ldrb	r3, [r7, #23]
 8002892:	2b01      	cmp	r3, #1
 8002894:	d105      	bne.n	80028a2 <HAL_RCC_OscConfig+0x3de>
    {
      __HAL_RCC_PWR_CLK_DISABLE();
 8002896:	4b3c      	ldr	r3, [pc, #240]	; (8002988 <HAL_RCC_OscConfig+0x4c4>)
 8002898:	69db      	ldr	r3, [r3, #28]
 800289a:	4a3b      	ldr	r2, [pc, #236]	; (8002988 <HAL_RCC_OscConfig+0x4c4>)
 800289c:	f023 5380 	bic.w	r3, r3, #268435456	; 0x10000000
 80028a0:	61d3      	str	r3, [r2, #28]

#endif /* RCC_CR_PLL2ON */
  /*-------------------------------- PLL Configuration -----------------------*/
  /* Check the parameters */
  assert_param(IS_RCC_PLL(RCC_OscInitStruct->PLL.PLLState));
  if ((RCC_OscInitStruct->PLL.PLLState) != RCC_PLL_NONE)
 80028a2:	687b      	ldr	r3, [r7, #4]
 80028a4:	69db      	ldr	r3, [r3, #28]
 80028a6:	2b00      	cmp	r3, #0
 80028a8:	f000 8087 	beq.w	80029ba <HAL_RCC_OscConfig+0x4f6>
  {
    /* Check if the PLL is used as system clock or not */
    if (__HAL_RCC_GET_SYSCLK_SOURCE() != RCC_SYSCLKSOURCE_STATUS_PLLCLK)
 80028ac:	4b36      	ldr	r3, [pc, #216]	; (8002988 <HAL_RCC_OscConfig+0x4c4>)
 80028ae:	685b      	ldr	r3, [r3, #4]
 80028b0:	f003 030c 	and.w	r3, r3, #12
 80028b4:	2b08      	cmp	r3, #8
 80028b6:	d061      	beq.n	800297c <HAL_RCC_OscConfig+0x4b8>
    {
      if ((RCC_OscInitStruct->PLL.PLLState) == RCC_PLL_ON)
 80028b8:	687b      	ldr	r3, [r7, #4]
 80028ba:	69db      	ldr	r3, [r3, #28]
 80028bc:	2b02      	cmp	r3, #2
 80028be:	d146      	bne.n	800294e <HAL_RCC_OscConfig+0x48a>
        /* Check the parameters */
        assert_param(IS_RCC_PLLSOURCE(RCC_OscInitStruct->PLL.PLLSource));
        assert_param(IS_RCC_PLL_MUL(RCC_OscInitStruct->PLL.PLLMUL));

        /* Disable the main PLL. */
        __HAL_RCC_PLL_DISABLE();
 80028c0:	4b33      	ldr	r3, [pc, #204]	; (8002990 <HAL_RCC_OscConfig+0x4cc>)
 80028c2:	2200      	movs	r2, #0
 80028c4:	601a      	str	r2, [r3, #0]

        /* Get Start Tick */
        tickstart = HAL_GetTick();
 80028c6:	f7fe faf9 	bl	8000ebc <HAL_GetTick>
 80028ca:	6138      	str	r0, [r7, #16]

        /* Wait till PLL is disabled */
        while (__HAL_RCC_GET_FLAG(RCC_FLAG_PLLRDY)  != RESET)
 80028cc:	e008      	b.n	80028e0 <HAL_RCC_OscConfig+0x41c>
        {
          if ((HAL_GetTick() - tickstart) > PLL_TIMEOUT_VALUE)
 80028ce:	f7fe faf5 	bl	8000ebc <HAL_GetTick>
 80028d2:	4602      	mov	r2, r0
 80028d4:	693b      	ldr	r3, [r7, #16]
 80028d6:	1ad3      	subs	r3, r2, r3
 80028d8:	2b02      	cmp	r3, #2
 80028da:	d901      	bls.n	80028e0 <HAL_RCC_OscConfig+0x41c>
          {
            return HAL_TIMEOUT;
 80028dc:	2303      	movs	r3, #3
 80028de:	e06d      	b.n	80029bc <HAL_RCC_OscConfig+0x4f8>
        while (__HAL_RCC_GET_FLAG(RCC_FLAG_PLLRDY)  != RESET)
 80028e0:	4b29      	ldr	r3, [pc, #164]	; (8002988 <HAL_RCC_OscConfig+0x4c4>)
 80028e2:	681b      	ldr	r3, [r3, #0]
 80028e4:	f003 7300 	and.w	r3, r3, #33554432	; 0x2000000
 80028e8:	2b00      	cmp	r3, #0
 80028ea:	d1f0      	bne.n	80028ce <HAL_RCC_OscConfig+0x40a>
          }
        }

        /* Configure the HSE prediv factor --------------------------------*/
        /* It can be written only when the PLL is disabled. Not used in PLL source is different than HSE */
        if (RCC_OscInitStruct->PLL.PLLSource == RCC_PLLSOURCE_HSE)
 80028ec:	687b      	ldr	r3, [r7, #4]
 80028ee:	6a1b      	ldr	r3, [r3, #32]
 80028f0:	f5b3 3f80 	cmp.w	r3, #65536	; 0x10000
 80028f4:	d108      	bne.n	8002908 <HAL_RCC_OscConfig+0x444>
          /* Set PREDIV1 source */
          SET_BIT(RCC->CFGR2, RCC_OscInitStruct->Prediv1Source);
#endif /* RCC_CFGR2_PREDIV1SRC */

          /* Set PREDIV1 Value */
          __HAL_RCC_HSE_PREDIV_CONFIG(RCC_OscInitStruct->HSEPredivValue);
 80028f6:	4b24      	ldr	r3, [pc, #144]	; (8002988 <HAL_RCC_OscConfig+0x4c4>)
 80028f8:	685b      	ldr	r3, [r3, #4]
 80028fa:	f423 3200 	bic.w	r2, r3, #131072	; 0x20000
 80028fe:	687b      	ldr	r3, [r7, #4]
 8002900:	689b      	ldr	r3, [r3, #8]
 8002902:	4921      	ldr	r1, [pc, #132]	; (8002988 <HAL_RCC_OscConfig+0x4c4>)
 8002904:	4313      	orrs	r3, r2
 8002906:	604b      	str	r3, [r1, #4]
        }

        /* Configure the main PLL clock source and multiplication factors. */
        __HAL_RCC_PLL_CONFIG(RCC_OscInitStruct->PLL.PLLSource,
 8002908:	4b1f      	ldr	r3, [pc, #124]	; (8002988 <HAL_RCC_OscConfig+0x4c4>)
 800290a:	685b      	ldr	r3, [r3, #4]
 800290c:	f423 1274 	bic.w	r2, r3, #3997696	; 0x3d0000
 8002910:	687b      	ldr	r3, [r7, #4]
 8002912:	6a19      	ldr	r1, [r3, #32]
 8002914:	687b      	ldr	r3, [r7, #4]
 8002916:	6a5b      	ldr	r3, [r3, #36]	; 0x24
 8002918:	430b      	orrs	r3, r1
 800291a:	491b      	ldr	r1, [pc, #108]	; (8002988 <HAL_RCC_OscConfig+0x4c4>)
 800291c:	4313      	orrs	r3, r2
 800291e:	604b      	str	r3, [r1, #4]
                             RCC_OscInitStruct->PLL.PLLMUL);
        /* Enable the main PLL. */
        __HAL_RCC_PLL_ENABLE();
 8002920:	4b1b      	ldr	r3, [pc, #108]	; (8002990 <HAL_RCC_OscConfig+0x4cc>)
 8002922:	2201      	movs	r2, #1
 8002924:	601a      	str	r2, [r3, #0]

        /* Get Start Tick */
        tickstart = HAL_GetTick();
 8002926:	f7fe fac9 	bl	8000ebc <HAL_GetTick>
 800292a:	6138      	str	r0, [r7, #16]

        /* Wait till PLL is ready */
        while (__HAL_RCC_GET_FLAG(RCC_FLAG_PLLRDY)  == RESET)
 800292c:	e008      	b.n	8002940 <HAL_RCC_OscConfig+0x47c>
        {
          if ((HAL_GetTick() - tickstart) > PLL_TIMEOUT_VALUE)
 800292e:	f7fe fac5 	bl	8000ebc <HAL_GetTick>
 8002932:	4602      	mov	r2, r0
 8002934:	693b      	ldr	r3, [r7, #16]
 8002936:	1ad3      	subs	r3, r2, r3
 8002938:	2b02      	cmp	r3, #2
 800293a:	d901      	bls.n	8002940 <HAL_RCC_OscConfig+0x47c>
          {
            return HAL_TIMEOUT;
 800293c:	2303      	movs	r3, #3
 800293e:	e03d      	b.n	80029bc <HAL_RCC_OscConfig+0x4f8>
        while (__HAL_RCC_GET_FLAG(RCC_FLAG_PLLRDY)  == RESET)
 8002940:	4b11      	ldr	r3, [pc, #68]	; (8002988 <HAL_RCC_OscConfig+0x4c4>)
 8002942:	681b      	ldr	r3, [r3, #0]
 8002944:	f003 7300 	and.w	r3, r3, #33554432	; 0x2000000
 8002948:	2b00      	cmp	r3, #0
 800294a:	d0f0      	beq.n	800292e <HAL_RCC_OscConfig+0x46a>
 800294c:	e035      	b.n	80029ba <HAL_RCC_OscConfig+0x4f6>
        }
      }
      else
      {
        /* Disable the main PLL. */
        __HAL_RCC_PLL_DISABLE();
 800294e:	4b10      	ldr	r3, [pc, #64]	; (8002990 <HAL_RCC_OscConfig+0x4cc>)
 8002950:	2200      	movs	r2, #0
 8002952:	601a      	str	r2, [r3, #0]

        /* Get Start Tick */
        tickstart = HAL_GetTick();
 8002954:	f7fe fab2 	bl	8000ebc <HAL_GetTick>
 8002958:	6138      	str	r0, [r7, #16]

        /* Wait till PLL is disabled */
        while (__HAL_RCC_GET_FLAG(RCC_FLAG_PLLRDY)  != RESET)
 800295a:	e008      	b.n	800296e <HAL_RCC_OscConfig+0x4aa>
        {
          if ((HAL_GetTick() - tickstart) > PLL_TIMEOUT_VALUE)
 800295c:	f7fe faae 	bl	8000ebc <HAL_GetTick>
 8002960:	4602      	mov	r2, r0
 8002962:	693b      	ldr	r3, [r7, #16]
 8002964:	1ad3      	subs	r3, r2, r3
 8002966:	2b02      	cmp	r3, #2
 8002968:	d901      	bls.n	800296e <HAL_RCC_OscConfig+0x4aa>
          {
            return HAL_TIMEOUT;
 800296a:	2303      	movs	r3, #3
 800296c:	e026      	b.n	80029bc <HAL_RCC_OscConfig+0x4f8>
        while (__HAL_RCC_GET_FLAG(RCC_FLAG_PLLRDY)  != RESET)
 800296e:	4b06      	ldr	r3, [pc, #24]	; (8002988 <HAL_RCC_OscConfig+0x4c4>)
 8002970:	681b      	ldr	r3, [r3, #0]
 8002972:	f003 7300 	and.w	r3, r3, #33554432	; 0x2000000
 8002976:	2b00      	cmp	r3, #0
 8002978:	d1f0      	bne.n	800295c <HAL_RCC_OscConfig+0x498>
 800297a:	e01e      	b.n	80029ba <HAL_RCC_OscConfig+0x4f6>
      }
    }
    else
    {
      /* Check if there is a request to disable the PLL used as System clock source */
      if ((RCC_OscInitStruct->PLL.PLLState) == RCC_PLL_OFF)
 800297c:	687b      	ldr	r3, [r7, #4]
 800297e:	69db      	ldr	r3, [r3, #28]
 8002980:	2b01      	cmp	r3, #1
 8002982:	d107      	bne.n	8002994 <HAL_RCC_OscConfig+0x4d0>
      {
        return HAL_ERROR;
 8002984:	2301      	movs	r3, #1
 8002986:	e019      	b.n	80029bc <HAL_RCC_OscConfig+0x4f8>
 8002988:	40021000 	.word	0x40021000
 800298c:	40007000 	.word	0x40007000
 8002990:	42420060 	.word	0x42420060
      }
      else
      {
        /* Do not return HAL_ERROR if request repeats the current configuration */
        pll_config = RCC->CFGR;
 8002994:	4b0b      	ldr	r3, [pc, #44]	; (80029c4 <HAL_RCC_OscConfig+0x500>)
 8002996:	685b      	ldr	r3, [r3, #4]
 8002998:	60fb      	str	r3, [r7, #12]
        if ((READ_BIT(pll_config, RCC_CFGR_PLLSRC) != RCC_OscInitStruct->PLL.PLLSource) ||
 800299a:	68fb      	ldr	r3, [r7, #12]
 800299c:	f403 3280 	and.w	r2, r3, #65536	; 0x10000
 80029a0:	687b      	ldr	r3, [r7, #4]
 80029a2:	6a1b      	ldr	r3, [r3, #32]
 80029a4:	429a      	cmp	r2, r3
 80029a6:	d106      	bne.n	80029b6 <HAL_RCC_OscConfig+0x4f2>
            (READ_BIT(pll_config, RCC_CFGR_PLLMULL) != RCC_OscInitStruct->PLL.PLLMUL))
 80029a8:	68fb      	ldr	r3, [r7, #12]
 80029aa:	f403 1270 	and.w	r2, r3, #3932160	; 0x3c0000
 80029ae:	687b      	ldr	r3, [r7, #4]
 80029b0:	6a5b      	ldr	r3, [r3, #36]	; 0x24
        if ((READ_BIT(pll_config, RCC_CFGR_PLLSRC) != RCC_OscInitStruct->PLL.PLLSource) ||
 80029b2:	429a      	cmp	r2, r3
 80029b4:	d001      	beq.n	80029ba <HAL_RCC_OscConfig+0x4f6>
        {
          return HAL_ERROR;
 80029b6:	2301      	movs	r3, #1
 80029b8:	e000      	b.n	80029bc <HAL_RCC_OscConfig+0x4f8>
        }
      }
    }
  }

  return HAL_OK;
 80029ba:	2300      	movs	r3, #0
}
 80029bc:	4618      	mov	r0, r3
 80029be:	3718      	adds	r7, #24
 80029c0:	46bd      	mov	sp, r7
 80029c2:	bd80      	pop	{r7, pc}
 80029c4:	40021000 	.word	0x40021000

080029c8 <HAL_RCC_ClockConfig>:
  *         You can use @ref HAL_RCC_GetClockConfig() function to know which clock is
  *         currently used as system clock source.
  * @retval HAL status
  */
HAL_StatusTypeDef HAL_RCC_ClockConfig(RCC_ClkInitTypeDef  *RCC_ClkInitStruct, uint32_t FLatency)
{
 80029c8:	b580      	push	{r7, lr}
 80029ca:	b084      	sub	sp, #16
 80029cc:	af00      	add	r7, sp, #0
 80029ce:	6078      	str	r0, [r7, #4]
 80029d0:	6039      	str	r1, [r7, #0]
  uint32_t tickstart;

  /* Check Null pointer */
  if (RCC_ClkInitStruct == NULL)
 80029d2:	687b      	ldr	r3, [r7, #4]
 80029d4:	2b00      	cmp	r3, #0
 80029d6:	d101      	bne.n	80029dc <HAL_RCC_ClockConfig+0x14>
  {
    return HAL_ERROR;
 80029d8:	2301      	movs	r3, #1
 80029da:	e0d0      	b.n	8002b7e <HAL_RCC_ClockConfig+0x1b6>
  must be correctly programmed according to the frequency of the CPU clock
    (HCLK) of the device. */

#if defined(FLASH_ACR_LATENCY)
  /* Increasing the number of wait states because of higher CPU frequency */
  if (FLatency > __HAL_FLASH_GET_LATENCY())
 80029dc:	4b6a      	ldr	r3, [pc, #424]	; (8002b88 <HAL_RCC_ClockConfig+0x1c0>)
 80029de:	681b      	ldr	r3, [r3, #0]
 80029e0:	f003 0307 	and.w	r3, r3, #7
 80029e4:	683a      	ldr	r2, [r7, #0]
 80029e6:	429a      	cmp	r2, r3
 80029e8:	d910      	bls.n	8002a0c <HAL_RCC_ClockConfig+0x44>
  {
    /* Program the new number of wait states to the LATENCY bits in the FLASH_ACR register */
    __HAL_FLASH_SET_LATENCY(FLatency);
 80029ea:	4b67      	ldr	r3, [pc, #412]	; (8002b88 <HAL_RCC_ClockConfig+0x1c0>)
 80029ec:	681b      	ldr	r3, [r3, #0]
 80029ee:	f023 0207 	bic.w	r2, r3, #7
 80029f2:	4965      	ldr	r1, [pc, #404]	; (8002b88 <HAL_RCC_ClockConfig+0x1c0>)
 80029f4:	683b      	ldr	r3, [r7, #0]
 80029f6:	4313      	orrs	r3, r2
 80029f8:	600b      	str	r3, [r1, #0]

    /* Check that the new number of wait states is taken into account to access the Flash
    memory by reading the FLASH_ACR register */
    if (__HAL_FLASH_GET_LATENCY() != FLatency)
 80029fa:	4b63      	ldr	r3, [pc, #396]	; (8002b88 <HAL_RCC_ClockConfig+0x1c0>)
 80029fc:	681b      	ldr	r3, [r3, #0]
 80029fe:	f003 0307 	and.w	r3, r3, #7
 8002a02:	683a      	ldr	r2, [r7, #0]
 8002a04:	429a      	cmp	r2, r3
 8002a06:	d001      	beq.n	8002a0c <HAL_RCC_ClockConfig+0x44>
  {
    return HAL_ERROR;
 8002a08:	2301      	movs	r3, #1
 8002a0a:	e0b8      	b.n	8002b7e <HAL_RCC_ClockConfig+0x1b6>
  }
}

#endif /* FLASH_ACR_LATENCY */
/*-------------------------- HCLK Configuration --------------------------*/
if (((RCC_ClkInitStruct->ClockType) & RCC_CLOCKTYPE_HCLK) == RCC_CLOCKTYPE_HCLK)
 8002a0c:	687b      	ldr	r3, [r7, #4]
 8002a0e:	681b      	ldr	r3, [r3, #0]
 8002a10:	f003 0302 	and.w	r3, r3, #2
 8002a14:	2b00      	cmp	r3, #0
 8002a16:	d020      	beq.n	8002a5a <HAL_RCC_ClockConfig+0x92>
  {
    /* Set the highest APBx dividers in order to ensure that we do not go through
    a non-spec phase whatever we decrease or increase HCLK. */
    if (((RCC_ClkInitStruct->ClockType) & RCC_CLOCKTYPE_PCLK1) == RCC_CLOCKTYPE_PCLK1)
 8002a18:	687b      	ldr	r3, [r7, #4]
 8002a1a:	681b      	ldr	r3, [r3, #0]
 8002a1c:	f003 0304 	and.w	r3, r3, #4
 8002a20:	2b00      	cmp	r3, #0
 8002a22:	d005      	beq.n	8002a30 <HAL_RCC_ClockConfig+0x68>
    {
      MODIFY_REG(RCC->CFGR, RCC_CFGR_PPRE1, RCC_HCLK_DIV16);
 8002a24:	4b59      	ldr	r3, [pc, #356]	; (8002b8c <HAL_RCC_ClockConfig+0x1c4>)
 8002a26:	685b      	ldr	r3, [r3, #4]
 8002a28:	4a58      	ldr	r2, [pc, #352]	; (8002b8c <HAL_RCC_ClockConfig+0x1c4>)
 8002a2a:	f443 63e0 	orr.w	r3, r3, #1792	; 0x700
 8002a2e:	6053      	str	r3, [r2, #4]
    }

    if (((RCC_ClkInitStruct->ClockType) & RCC_CLOCKTYPE_PCLK2) == RCC_CLOCKTYPE_PCLK2)
 8002a30:	687b      	ldr	r3, [r7, #4]
 8002a32:	681b      	ldr	r3, [r3, #0]
 8002a34:	f003 0308 	and.w	r3, r3, #8
 8002a38:	2b00      	cmp	r3, #0
 8002a3a:	d005      	beq.n	8002a48 <HAL_RCC_ClockConfig+0x80>
    {
      MODIFY_REG(RCC->CFGR, RCC_CFGR_PPRE2, (RCC_HCLK_DIV16 << 3));
 8002a3c:	4b53      	ldr	r3, [pc, #332]	; (8002b8c <HAL_RCC_ClockConfig+0x1c4>)
 8002a3e:	685b      	ldr	r3, [r3, #4]
 8002a40:	4a52      	ldr	r2, [pc, #328]	; (8002b8c <HAL_RCC_ClockConfig+0x1c4>)
 8002a42:	f443 5360 	orr.w	r3, r3, #14336	; 0x3800
 8002a46:	6053      	str	r3, [r2, #4]
    }

    /* Set the new HCLK clock divider */
    assert_param(IS_RCC_HCLK(RCC_ClkInitStruct->AHBCLKDivider));
    MODIFY_REG(RCC->CFGR, RCC_CFGR_HPRE, RCC_ClkInitStruct->AHBCLKDivider);
 8002a48:	4b50      	ldr	r3, [pc, #320]	; (8002b8c <HAL_RCC_ClockConfig+0x1c4>)
 8002a4a:	685b      	ldr	r3, [r3, #4]
 8002a4c:	f023 02f0 	bic.w	r2, r3, #240	; 0xf0
 8002a50:	687b      	ldr	r3, [r7, #4]
 8002a52:	689b      	ldr	r3, [r3, #8]
 8002a54:	494d      	ldr	r1, [pc, #308]	; (8002b8c <HAL_RCC_ClockConfig+0x1c4>)
 8002a56:	4313      	orrs	r3, r2
 8002a58:	604b      	str	r3, [r1, #4]
  }

  /*------------------------- SYSCLK Configuration ---------------------------*/
  if (((RCC_ClkInitStruct->ClockType) & RCC_CLOCKTYPE_SYSCLK) == RCC_CLOCKTYPE_SYSCLK)
 8002a5a:	687b      	ldr	r3, [r7, #4]
 8002a5c:	681b      	ldr	r3, [r3, #0]
 8002a5e:	f003 0301 	and.w	r3, r3, #1
 8002a62:	2b00      	cmp	r3, #0
 8002a64:	d040      	beq.n	8002ae8 <HAL_RCC_ClockConfig+0x120>
  {
    assert_param(IS_RCC_SYSCLKSOURCE(RCC_ClkInitStruct->SYSCLKSource));

    /* HSE is selected as System Clock Source */
    if (RCC_ClkInitStruct->SYSCLKSource == RCC_SYSCLKSOURCE_HSE)
 8002a66:	687b      	ldr	r3, [r7, #4]
 8002a68:	685b      	ldr	r3, [r3, #4]
 8002a6a:	2b01      	cmp	r3, #1
 8002a6c:	d107      	bne.n	8002a7e <HAL_RCC_ClockConfig+0xb6>
    {
      /* Check the HSE ready flag */
      if (__HAL_RCC_GET_FLAG(RCC_FLAG_HSERDY) == RESET)
 8002a6e:	4b47      	ldr	r3, [pc, #284]	; (8002b8c <HAL_RCC_ClockConfig+0x1c4>)
 8002a70:	681b      	ldr	r3, [r3, #0]
 8002a72:	f403 3300 	and.w	r3, r3, #131072	; 0x20000
 8002a76:	2b00      	cmp	r3, #0
 8002a78:	d115      	bne.n	8002aa6 <HAL_RCC_ClockConfig+0xde>
      {
        return HAL_ERROR;
 8002a7a:	2301      	movs	r3, #1
 8002a7c:	e07f      	b.n	8002b7e <HAL_RCC_ClockConfig+0x1b6>
      }
    }
    /* PLL is selected as System Clock Source */
    else if (RCC_ClkInitStruct->SYSCLKSource == RCC_SYSCLKSOURCE_PLLCLK)
 8002a7e:	687b      	ldr	r3, [r7, #4]
 8002a80:	685b      	ldr	r3, [r3, #4]
 8002a82:	2b02      	cmp	r3, #2
 8002a84:	d107      	bne.n	8002a96 <HAL_RCC_ClockConfig+0xce>
    {
      /* Check the PLL ready flag */
      if (__HAL_RCC_GET_FLAG(RCC_FLAG_PLLRDY) == RESET)
 8002a86:	4b41      	ldr	r3, [pc, #260]	; (8002b8c <HAL_RCC_ClockConfig+0x1c4>)
 8002a88:	681b      	ldr	r3, [r3, #0]
 8002a8a:	f003 7300 	and.w	r3, r3, #33554432	; 0x2000000
 8002a8e:	2b00      	cmp	r3, #0
 8002a90:	d109      	bne.n	8002aa6 <HAL_RCC_ClockConfig+0xde>
      {
        return HAL_ERROR;
 8002a92:	2301      	movs	r3, #1
 8002a94:	e073      	b.n	8002b7e <HAL_RCC_ClockConfig+0x1b6>
    }
    /* HSI is selected as System Clock Source */
    else
    {
      /* Check the HSI ready flag */
      if (__HAL_RCC_GET_FLAG(RCC_FLAG_HSIRDY) == RESET)
 8002a96:	4b3d      	ldr	r3, [pc, #244]	; (8002b8c <HAL_RCC_ClockConfig+0x1c4>)
 8002a98:	681b      	ldr	r3, [r3, #0]
 8002a9a:	f003 0302 	and.w	r3, r3, #2
 8002a9e:	2b00      	cmp	r3, #0
 8002aa0:	d101      	bne.n	8002aa6 <HAL_RCC_ClockConfig+0xde>
      {
        return HAL_ERROR;
 8002aa2:	2301      	movs	r3, #1
 8002aa4:	e06b      	b.n	8002b7e <HAL_RCC_ClockConfig+0x1b6>
      }
    }
    __HAL_RCC_SYSCLK_CONFIG(RCC_ClkInitStruct->SYSCLKSource);
 8002aa6:	4b39      	ldr	r3, [pc, #228]	; (8002b8c <HAL_RCC_ClockConfig+0x1c4>)
 8002aa8:	685b      	ldr	r3, [r3, #4]
 8002aaa:	f023 0203 	bic.w	r2, r3, #3
 8002aae:	687b      	ldr	r3, [r7, #4]
 8002ab0:	685b      	ldr	r3, [r3, #4]
 8002ab2:	4936      	ldr	r1, [pc, #216]	; (8002b8c <HAL_RCC_ClockConfig+0x1c4>)
 8002ab4:	4313      	orrs	r3, r2
 8002ab6:	604b      	str	r3, [r1, #4]

    /* Get Start Tick */
    tickstart = HAL_GetTick();
 8002ab8:	f7fe fa00 	bl	8000ebc <HAL_GetTick>
 8002abc:	60f8      	str	r0, [r7, #12]

    while (__HAL_RCC_GET_SYSCLK_SOURCE() != (RCC_ClkInitStruct->SYSCLKSource << RCC_CFGR_SWS_Pos))
 8002abe:	e00a      	b.n	8002ad6 <HAL_RCC_ClockConfig+0x10e>
    {
      if ((HAL_GetTick() - tickstart) > CLOCKSWITCH_TIMEOUT_VALUE)
 8002ac0:	f7fe f9fc 	bl	8000ebc <HAL_GetTick>
 8002ac4:	4602      	mov	r2, r0
 8002ac6:	68fb      	ldr	r3, [r7, #12]
 8002ac8:	1ad3      	subs	r3, r2, r3
 8002aca:	f241 3288 	movw	r2, #5000	; 0x1388
 8002ace:	4293      	cmp	r3, r2
 8002ad0:	d901      	bls.n	8002ad6 <HAL_RCC_ClockConfig+0x10e>
      {
        return HAL_TIMEOUT;
 8002ad2:	2303      	movs	r3, #3
 8002ad4:	e053      	b.n	8002b7e <HAL_RCC_ClockConfig+0x1b6>
    while (__HAL_RCC_GET_SYSCLK_SOURCE() != (RCC_ClkInitStruct->SYSCLKSource << RCC_CFGR_SWS_Pos))
 8002ad6:	4b2d      	ldr	r3, [pc, #180]	; (8002b8c <HAL_RCC_ClockConfig+0x1c4>)
 8002ad8:	685b      	ldr	r3, [r3, #4]
 8002ada:	f003 020c 	and.w	r2, r3, #12
 8002ade:	687b      	ldr	r3, [r7, #4]
 8002ae0:	685b      	ldr	r3, [r3, #4]
 8002ae2:	009b      	lsls	r3, r3, #2
 8002ae4:	429a      	cmp	r2, r3
 8002ae6:	d1eb      	bne.n	8002ac0 <HAL_RCC_ClockConfig+0xf8>
    }
  }

#if defined(FLASH_ACR_LATENCY)
  /* Decreasing the number of wait states because of lower CPU frequency */
  if (FLatency < __HAL_FLASH_GET_LATENCY())
 8002ae8:	4b27      	ldr	r3, [pc, #156]	; (8002b88 <HAL_RCC_ClockConfig+0x1c0>)
 8002aea:	681b      	ldr	r3, [r3, #0]
 8002aec:	f003 0307 	and.w	r3, r3, #7
 8002af0:	683a      	ldr	r2, [r7, #0]
 8002af2:	429a      	cmp	r2, r3
 8002af4:	d210      	bcs.n	8002b18 <HAL_RCC_ClockConfig+0x150>
  {
    /* Program the new number of wait states to the LATENCY bits in the FLASH_ACR register */
    __HAL_FLASH_SET_LATENCY(FLatency);
 8002af6:	4b24      	ldr	r3, [pc, #144]	; (8002b88 <HAL_RCC_ClockConfig+0x1c0>)
 8002af8:	681b      	ldr	r3, [r3, #0]
 8002afa:	f023 0207 	bic.w	r2, r3, #7
 8002afe:	4922      	ldr	r1, [pc, #136]	; (8002b88 <HAL_RCC_ClockConfig+0x1c0>)
 8002b00:	683b      	ldr	r3, [r7, #0]
 8002b02:	4313      	orrs	r3, r2
 8002b04:	600b      	str	r3, [r1, #0]

    /* Check that the new number of wait states is taken into account to access the Flash
    memory by reading the FLASH_ACR register */
    if (__HAL_FLASH_GET_LATENCY() != FLatency)
 8002b06:	4b20      	ldr	r3, [pc, #128]	; (8002b88 <HAL_RCC_ClockConfig+0x1c0>)
 8002b08:	681b      	ldr	r3, [r3, #0]
 8002b0a:	f003 0307 	and.w	r3, r3, #7
 8002b0e:	683a      	ldr	r2, [r7, #0]
 8002b10:	429a      	cmp	r2, r3
 8002b12:	d001      	beq.n	8002b18 <HAL_RCC_ClockConfig+0x150>
  {
    return HAL_ERROR;
 8002b14:	2301      	movs	r3, #1
 8002b16:	e032      	b.n	8002b7e <HAL_RCC_ClockConfig+0x1b6>
  }
}
#endif /* FLASH_ACR_LATENCY */

/*-------------------------- PCLK1 Configuration ---------------------------*/
if (((RCC_ClkInitStruct->ClockType) & RCC_CLOCKTYPE_PCLK1) == RCC_CLOCKTYPE_PCLK1)
 8002b18:	687b      	ldr	r3, [r7, #4]
 8002b1a:	681b      	ldr	r3, [r3, #0]
 8002b1c:	f003 0304 	and.w	r3, r3, #4
 8002b20:	2b00      	cmp	r3, #0
 8002b22:	d008      	beq.n	8002b36 <HAL_RCC_ClockConfig+0x16e>
  {
    assert_param(IS_RCC_PCLK(RCC_ClkInitStruct->APB1CLKDivider));
    MODIFY_REG(RCC->CFGR, RCC_CFGR_PPRE1, RCC_ClkInitStruct->APB1CLKDivider);
 8002b24:	4b19      	ldr	r3, [pc, #100]	; (8002b8c <HAL_RCC_ClockConfig+0x1c4>)
 8002b26:	685b      	ldr	r3, [r3, #4]
 8002b28:	f423 62e0 	bic.w	r2, r3, #1792	; 0x700
 8002b2c:	687b      	ldr	r3, [r7, #4]
 8002b2e:	68db      	ldr	r3, [r3, #12]
 8002b30:	4916      	ldr	r1, [pc, #88]	; (8002b8c <HAL_RCC_ClockConfig+0x1c4>)
 8002b32:	4313      	orrs	r3, r2
 8002b34:	604b      	str	r3, [r1, #4]
  }

  /*-------------------------- PCLK2 Configuration ---------------------------*/
  if (((RCC_ClkInitStruct->ClockType) & RCC_CLOCKTYPE_PCLK2) == RCC_CLOCKTYPE_PCLK2)
 8002b36:	687b      	ldr	r3, [r7, #4]
 8002b38:	681b      	ldr	r3, [r3, #0]
 8002b3a:	f003 0308 	and.w	r3, r3, #8
 8002b3e:	2b00      	cmp	r3, #0
 8002b40:	d009      	beq.n	8002b56 <HAL_RCC_ClockConfig+0x18e>
  {
    assert_param(IS_RCC_PCLK(RCC_ClkInitStruct->APB2CLKDivider));
    MODIFY_REG(RCC->CFGR, RCC_CFGR_PPRE2, ((RCC_ClkInitStruct->APB2CLKDivider) << 3));
 8002b42:	4b12      	ldr	r3, [pc, #72]	; (8002b8c <HAL_RCC_ClockConfig+0x1c4>)
 8002b44:	685b      	ldr	r3, [r3, #4]
 8002b46:	f423 5260 	bic.w	r2, r3, #14336	; 0x3800
 8002b4a:	687b      	ldr	r3, [r7, #4]
 8002b4c:	691b      	ldr	r3, [r3, #16]
 8002b4e:	00db      	lsls	r3, r3, #3
 8002b50:	490e      	ldr	r1, [pc, #56]	; (8002b8c <HAL_RCC_ClockConfig+0x1c4>)
 8002b52:	4313      	orrs	r3, r2
 8002b54:	604b      	str	r3, [r1, #4]
  }

  /* Update the SystemCoreClock global variable */
  SystemCoreClock = HAL_RCC_GetSysClockFreq() >> AHBPrescTable[(RCC->CFGR & RCC_CFGR_HPRE) >> RCC_CFGR_HPRE_Pos];
 8002b56:	f000 f821 	bl	8002b9c <HAL_RCC_GetSysClockFreq>
 8002b5a:	4602      	mov	r2, r0
 8002b5c:	4b0b      	ldr	r3, [pc, #44]	; (8002b8c <HAL_RCC_ClockConfig+0x1c4>)
 8002b5e:	685b      	ldr	r3, [r3, #4]
 8002b60:	091b      	lsrs	r3, r3, #4
 8002b62:	f003 030f 	and.w	r3, r3, #15
 8002b66:	490a      	ldr	r1, [pc, #40]	; (8002b90 <HAL_RCC_ClockConfig+0x1c8>)
 8002b68:	5ccb      	ldrb	r3, [r1, r3]
 8002b6a:	fa22 f303 	lsr.w	r3, r2, r3
 8002b6e:	4a09      	ldr	r2, [pc, #36]	; (8002b94 <HAL_RCC_ClockConfig+0x1cc>)
 8002b70:	6013      	str	r3, [r2, #0]

  /* Configure the source of time base considering new system clocks settings*/
  HAL_InitTick(uwTickPrio);
 8002b72:	4b09      	ldr	r3, [pc, #36]	; (8002b98 <HAL_RCC_ClockConfig+0x1d0>)
 8002b74:	681b      	ldr	r3, [r3, #0]
 8002b76:	4618      	mov	r0, r3
 8002b78:	f7fe f95e 	bl	8000e38 <HAL_InitTick>

  return HAL_OK;
 8002b7c:	2300      	movs	r3, #0
}
 8002b7e:	4618      	mov	r0, r3
 8002b80:	3710      	adds	r7, #16
 8002b82:	46bd      	mov	sp, r7
 8002b84:	bd80      	pop	{r7, pc}
 8002b86:	bf00      	nop
 8002b88:	40022000 	.word	0x40022000
 8002b8c:	40021000 	.word	0x40021000
 8002b90:	080039b4 	.word	0x080039b4
 8002b94:	20000000 	.word	0x20000000
 8002b98:	20000004 	.word	0x20000004

08002b9c <HAL_RCC_GetSysClockFreq>:
  *         right SYSCLK value. Otherwise, any configuration based on this function will be incorrect.
  *
  * @retval SYSCLK frequency
  */
uint32_t HAL_RCC_GetSysClockFreq(void)
{
 8002b9c:	b490      	push	{r4, r7}
 8002b9e:	b08a      	sub	sp, #40	; 0x28
 8002ba0:	af00      	add	r7, sp, #0
#if defined(RCC_CFGR2_PREDIV1SRC)
  const uint8_t aPLLMULFactorTable[14] = {0, 0, 4, 5, 6, 7, 8, 9, 0, 0, 0, 0, 0, 13};
  const uint8_t aPredivFactorTable[16] = {1, 2, 3, 4, 5, 6, 7, 8, 9, 10, 11, 12, 13, 14, 15, 16};
#else
  const uint8_t aPLLMULFactorTable[16] = {2, 3, 4, 5, 6, 7, 8, 9, 10, 11, 12, 13, 14, 15, 16, 16};
 8002ba2:	4b29      	ldr	r3, [pc, #164]	; (8002c48 <HAL_RCC_GetSysClockFreq+0xac>)
 8002ba4:	1d3c      	adds	r4, r7, #4
 8002ba6:	cb0f      	ldmia	r3, {r0, r1, r2, r3}
 8002ba8:	e884 000f 	stmia.w	r4, {r0, r1, r2, r3}
#if defined(RCC_CFGR2_PREDIV1)
  const uint8_t aPredivFactorTable[16] = {1, 2, 3, 4, 5, 6, 7, 8, 9, 10, 11, 12, 13, 14, 15, 16};
#else
  const uint8_t aPredivFactorTable[2] = {1, 2};
 8002bac:	f240 2301 	movw	r3, #513	; 0x201
 8002bb0:	803b      	strh	r3, [r7, #0]
#endif /*RCC_CFGR2_PREDIV1*/

#endif
  uint32_t tmpreg = 0U, prediv = 0U, pllclk = 0U, pllmul = 0U;
 8002bb2:	2300      	movs	r3, #0
 8002bb4:	61fb      	str	r3, [r7, #28]
 8002bb6:	2300      	movs	r3, #0
 8002bb8:	61bb      	str	r3, [r7, #24]
 8002bba:	2300      	movs	r3, #0
 8002bbc:	627b      	str	r3, [r7, #36]	; 0x24
 8002bbe:	2300      	movs	r3, #0
 8002bc0:	617b      	str	r3, [r7, #20]
  uint32_t sysclockfreq = 0U;
 8002bc2:	2300      	movs	r3, #0
 8002bc4:	623b      	str	r3, [r7, #32]
#if defined(RCC_CFGR2_PREDIV1SRC)
  uint32_t prediv2 = 0U, pll2mul = 0U;
#endif /*RCC_CFGR2_PREDIV1SRC*/

  tmpreg = RCC->CFGR;
 8002bc6:	4b21      	ldr	r3, [pc, #132]	; (8002c4c <HAL_RCC_GetSysClockFreq+0xb0>)
 8002bc8:	685b      	ldr	r3, [r3, #4]
 8002bca:	61fb      	str	r3, [r7, #28]

  /* Get SYSCLK source -------------------------------------------------------*/
  switch (tmpreg & RCC_CFGR_SWS)
 8002bcc:	69fb      	ldr	r3, [r7, #28]
 8002bce:	f003 030c 	and.w	r3, r3, #12
 8002bd2:	2b04      	cmp	r3, #4
 8002bd4:	d002      	beq.n	8002bdc <HAL_RCC_GetSysClockFreq+0x40>
 8002bd6:	2b08      	cmp	r3, #8
 8002bd8:	d003      	beq.n	8002be2 <HAL_RCC_GetSysClockFreq+0x46>
 8002bda:	e02b      	b.n	8002c34 <HAL_RCC_GetSysClockFreq+0x98>
  {
    case RCC_SYSCLKSOURCE_STATUS_HSE:  /* HSE used as system clock */
    {
      sysclockfreq = HSE_VALUE;
 8002bdc:	4b1c      	ldr	r3, [pc, #112]	; (8002c50 <HAL_RCC_GetSysClockFreq+0xb4>)
 8002bde:	623b      	str	r3, [r7, #32]
      break;
 8002be0:	e02b      	b.n	8002c3a <HAL_RCC_GetSysClockFreq+0x9e>
    }
    case RCC_SYSCLKSOURCE_STATUS_PLLCLK:  /* PLL used as system clock */
    {
      pllmul = aPLLMULFactorTable[(uint32_t)(tmpreg & RCC_CFGR_PLLMULL) >> RCC_CFGR_PLLMULL_Pos];
 8002be2:	69fb      	ldr	r3, [r7, #28]
 8002be4:	0c9b      	lsrs	r3, r3, #18
 8002be6:	f003 030f 	and.w	r3, r3, #15
 8002bea:	3328      	adds	r3, #40	; 0x28
 8002bec:	443b      	add	r3, r7
 8002bee:	f813 3c24 	ldrb.w	r3, [r3, #-36]
 8002bf2:	617b      	str	r3, [r7, #20]
      if ((tmpreg & RCC_CFGR_PLLSRC) != RCC_PLLSOURCE_HSI_DIV2)
 8002bf4:	69fb      	ldr	r3, [r7, #28]
 8002bf6:	f403 3380 	and.w	r3, r3, #65536	; 0x10000
 8002bfa:	2b00      	cmp	r3, #0
 8002bfc:	d012      	beq.n	8002c24 <HAL_RCC_GetSysClockFreq+0x88>
      {
#if defined(RCC_CFGR2_PREDIV1)
        prediv = aPredivFactorTable[(uint32_t)(RCC->CFGR2 & RCC_CFGR2_PREDIV1) >> RCC_CFGR2_PREDIV1_Pos];
#else
        prediv = aPredivFactorTable[(uint32_t)(RCC->CFGR & RCC_CFGR_PLLXTPRE) >> RCC_CFGR_PLLXTPRE_Pos];
 8002bfe:	4b13      	ldr	r3, [pc, #76]	; (8002c4c <HAL_RCC_GetSysClockFreq+0xb0>)
 8002c00:	685b      	ldr	r3, [r3, #4]
 8002c02:	0c5b      	lsrs	r3, r3, #17
 8002c04:	f003 0301 	and.w	r3, r3, #1
 8002c08:	3328      	adds	r3, #40	; 0x28
 8002c0a:	443b      	add	r3, r7
 8002c0c:	f813 3c28 	ldrb.w	r3, [r3, #-40]
 8002c10:	61bb      	str	r3, [r7, #24]
        {
          pllclk = pllclk / 2;
        }
#else
        /* HSE used as PLL clock source : PLLCLK = HSE/PREDIV1 * PLLMUL */
        pllclk = (uint32_t)((HSE_VALUE  * pllmul) / prediv);
 8002c12:	697b      	ldr	r3, [r7, #20]
 8002c14:	4a0e      	ldr	r2, [pc, #56]	; (8002c50 <HAL_RCC_GetSysClockFreq+0xb4>)
 8002c16:	fb03 f202 	mul.w	r2, r3, r2
 8002c1a:	69bb      	ldr	r3, [r7, #24]
 8002c1c:	fbb2 f3f3 	udiv	r3, r2, r3
 8002c20:	627b      	str	r3, [r7, #36]	; 0x24
 8002c22:	e004      	b.n	8002c2e <HAL_RCC_GetSysClockFreq+0x92>
#endif /*RCC_CFGR2_PREDIV1SRC*/
      }
      else
      {
        /* HSI used as PLL clock source : PLLCLK = HSI/2 * PLLMUL */
        pllclk = (uint32_t)((HSI_VALUE >> 1) * pllmul);
 8002c24:	697b      	ldr	r3, [r7, #20]
 8002c26:	4a0b      	ldr	r2, [pc, #44]	; (8002c54 <HAL_RCC_GetSysClockFreq+0xb8>)
 8002c28:	fb02 f303 	mul.w	r3, r2, r3
 8002c2c:	627b      	str	r3, [r7, #36]	; 0x24
      }
      sysclockfreq = pllclk;
 8002c2e:	6a7b      	ldr	r3, [r7, #36]	; 0x24
 8002c30:	623b      	str	r3, [r7, #32]
      break;
 8002c32:	e002      	b.n	8002c3a <HAL_RCC_GetSysClockFreq+0x9e>
    }
    case RCC_SYSCLKSOURCE_STATUS_HSI:  /* HSI used as system clock source */
    default: /* HSI used as system clock */
    {
      sysclockfreq = HSI_VALUE;
 8002c34:	4b06      	ldr	r3, [pc, #24]	; (8002c50 <HAL_RCC_GetSysClockFreq+0xb4>)
 8002c36:	623b      	str	r3, [r7, #32]
      break;
 8002c38:	bf00      	nop
    }
  }
  return sysclockfreq;
 8002c3a:	6a3b      	ldr	r3, [r7, #32]
}
 8002c3c:	4618      	mov	r0, r3
 8002c3e:	3728      	adds	r7, #40	; 0x28
 8002c40:	46bd      	mov	sp, r7
 8002c42:	bc90      	pop	{r4, r7}
 8002c44:	4770      	bx	lr
 8002c46:	bf00      	nop
 8002c48:	080039a4 	.word	0x080039a4
 8002c4c:	40021000 	.word	0x40021000
 8002c50:	007a1200 	.word	0x007a1200
 8002c54:	003d0900 	.word	0x003d0900

08002c58 <HAL_RCC_GetHCLKFreq>:
  * @note   The SystemCoreClock CMSIS variable is used to store System Clock Frequency
  *         and updated within this function
  * @retval HCLK frequency
  */
uint32_t HAL_RCC_GetHCLKFreq(void)
{
 8002c58:	b480      	push	{r7}
 8002c5a:	af00      	add	r7, sp, #0
  return SystemCoreClock;
 8002c5c:	4b02      	ldr	r3, [pc, #8]	; (8002c68 <HAL_RCC_GetHCLKFreq+0x10>)
 8002c5e:	681b      	ldr	r3, [r3, #0]
}
 8002c60:	4618      	mov	r0, r3
 8002c62:	46bd      	mov	sp, r7
 8002c64:	bc80      	pop	{r7}
 8002c66:	4770      	bx	lr
 8002c68:	20000000 	.word	0x20000000

08002c6c <HAL_RCC_GetPCLK1Freq>:
  * @note   Each time PCLK1 changes, this function must be called to update the
  *         right PCLK1 value. Otherwise, any configuration based on this function will be incorrect.
  * @retval PCLK1 frequency
  */
uint32_t HAL_RCC_GetPCLK1Freq(void)
{
 8002c6c:	b580      	push	{r7, lr}
 8002c6e:	af00      	add	r7, sp, #0
  /* Get HCLK source and Compute PCLK1 frequency ---------------------------*/
  return (HAL_RCC_GetHCLKFreq() >> APBPrescTable[(RCC->CFGR & RCC_CFGR_PPRE1) >> RCC_CFGR_PPRE1_Pos]);
 8002c70:	f7ff fff2 	bl	8002c58 <HAL_RCC_GetHCLKFreq>
 8002c74:	4602      	mov	r2, r0
 8002c76:	4b05      	ldr	r3, [pc, #20]	; (8002c8c <HAL_RCC_GetPCLK1Freq+0x20>)
 8002c78:	685b      	ldr	r3, [r3, #4]
 8002c7a:	0a1b      	lsrs	r3, r3, #8
 8002c7c:	f003 0307 	and.w	r3, r3, #7
 8002c80:	4903      	ldr	r1, [pc, #12]	; (8002c90 <HAL_RCC_GetPCLK1Freq+0x24>)
 8002c82:	5ccb      	ldrb	r3, [r1, r3]
 8002c84:	fa22 f303 	lsr.w	r3, r2, r3
}
 8002c88:	4618      	mov	r0, r3
 8002c8a:	bd80      	pop	{r7, pc}
 8002c8c:	40021000 	.word	0x40021000
 8002c90:	080039c4 	.word	0x080039c4

08002c94 <HAL_RCC_GetPCLK2Freq>:
  * @note   Each time PCLK2 changes, this function must be called to update the
  *         right PCLK2 value. Otherwise, any configuration based on this function will be incorrect.
  * @retval PCLK2 frequency
  */
uint32_t HAL_RCC_GetPCLK2Freq(void)
{
 8002c94:	b580      	push	{r7, lr}
 8002c96:	af00      	add	r7, sp, #0
  /* Get HCLK source and Compute PCLK2 frequency ---------------------------*/
  return (HAL_RCC_GetHCLKFreq() >> APBPrescTable[(RCC->CFGR & RCC_CFGR_PPRE2) >> RCC_CFGR_PPRE2_Pos]);
 8002c98:	f7ff ffde 	bl	8002c58 <HAL_RCC_GetHCLKFreq>
 8002c9c:	4602      	mov	r2, r0
 8002c9e:	4b05      	ldr	r3, [pc, #20]	; (8002cb4 <HAL_RCC_GetPCLK2Freq+0x20>)
 8002ca0:	685b      	ldr	r3, [r3, #4]
 8002ca2:	0adb      	lsrs	r3, r3, #11
 8002ca4:	f003 0307 	and.w	r3, r3, #7
 8002ca8:	4903      	ldr	r1, [pc, #12]	; (8002cb8 <HAL_RCC_GetPCLK2Freq+0x24>)
 8002caa:	5ccb      	ldrb	r3, [r1, r3]
 8002cac:	fa22 f303 	lsr.w	r3, r2, r3
}
 8002cb0:	4618      	mov	r0, r3
 8002cb2:	bd80      	pop	{r7, pc}
 8002cb4:	40021000 	.word	0x40021000
 8002cb8:	080039c4 	.word	0x080039c4

08002cbc <RCC_Delay>:
  * @brief  This function provides delay (in milliseconds) based on CPU cycles method.
  * @param  mdelay: specifies the delay time length, in milliseconds.
  * @retval None
  */
static void RCC_Delay(uint32_t mdelay)
{
 8002cbc:	b480      	push	{r7}
 8002cbe:	b085      	sub	sp, #20
 8002cc0:	af00      	add	r7, sp, #0
 8002cc2:	6078      	str	r0, [r7, #4]
  __IO uint32_t Delay = mdelay * (SystemCoreClock / 8U / 1000U);
 8002cc4:	4b0a      	ldr	r3, [pc, #40]	; (8002cf0 <RCC_Delay+0x34>)
 8002cc6:	681b      	ldr	r3, [r3, #0]
 8002cc8:	4a0a      	ldr	r2, [pc, #40]	; (8002cf4 <RCC_Delay+0x38>)
 8002cca:	fba2 2303 	umull	r2, r3, r2, r3
 8002cce:	0a5b      	lsrs	r3, r3, #9
 8002cd0:	687a      	ldr	r2, [r7, #4]
 8002cd2:	fb02 f303 	mul.w	r3, r2, r3
 8002cd6:	60fb      	str	r3, [r7, #12]
  do
  {
    __NOP();
 8002cd8:	bf00      	nop
  }
  while (Delay --);
 8002cda:	68fb      	ldr	r3, [r7, #12]
 8002cdc:	1e5a      	subs	r2, r3, #1
 8002cde:	60fa      	str	r2, [r7, #12]
 8002ce0:	2b00      	cmp	r3, #0
 8002ce2:	d1f9      	bne.n	8002cd8 <RCC_Delay+0x1c>
}
 8002ce4:	bf00      	nop
 8002ce6:	bf00      	nop
 8002ce8:	3714      	adds	r7, #20
 8002cea:	46bd      	mov	sp, r7
 8002cec:	bc80      	pop	{r7}
 8002cee:	4770      	bx	lr
 8002cf0:	20000000 	.word	0x20000000
 8002cf4:	10624dd3 	.word	0x10624dd3

08002cf8 <HAL_USART_Init>:
  * @param  husart Pointer to a USART_HandleTypeDef structure that contains
  *                the configuration information for the specified USART module.
  * @retval HAL status
  */
HAL_StatusTypeDef HAL_USART_Init(USART_HandleTypeDef *husart)
{
 8002cf8:	b580      	push	{r7, lr}
 8002cfa:	b082      	sub	sp, #8
 8002cfc:	af00      	add	r7, sp, #0
 8002cfe:	6078      	str	r0, [r7, #4]
  /* Check the USART handle allocation */
  if (husart == NULL)
 8002d00:	687b      	ldr	r3, [r7, #4]
 8002d02:	2b00      	cmp	r3, #0
 8002d04:	d101      	bne.n	8002d0a <HAL_USART_Init+0x12>
  {
    return HAL_ERROR;
 8002d06:	2301      	movs	r3, #1
 8002d08:	e033      	b.n	8002d72 <HAL_USART_Init+0x7a>
  }

  /* Check the parameters */
  assert_param(IS_USART_INSTANCE(husart->Instance));

  if (husart->State == HAL_USART_STATE_RESET)
 8002d0a:	687b      	ldr	r3, [r7, #4]
 8002d0c:	f893 303d 	ldrb.w	r3, [r3, #61]	; 0x3d
 8002d10:	b2db      	uxtb	r3, r3
 8002d12:	2b00      	cmp	r3, #0
 8002d14:	d106      	bne.n	8002d24 <HAL_USART_Init+0x2c>
  {
    /* Allocate lock resource and initialize it */
    husart->Lock = HAL_UNLOCKED;
 8002d16:	687b      	ldr	r3, [r7, #4]
 8002d18:	2200      	movs	r2, #0
 8002d1a:	f883 203c 	strb.w	r2, [r3, #60]	; 0x3c

    /* Init the low level hardware */
    husart->MspInitCallback(husart);
#else
    /* Init the low level hardware : GPIO, CLOCK */
    HAL_USART_MspInit(husart);
 8002d1e:	6878      	ldr	r0, [r7, #4]
 8002d20:	f7fd ffc2 	bl	8000ca8 <HAL_USART_MspInit>
#endif /* USE_HAL_USART_REGISTER_CALLBACKS */
  }

  husart->State = HAL_USART_STATE_BUSY;
 8002d24:	687b      	ldr	r3, [r7, #4]
 8002d26:	2202      	movs	r2, #2
 8002d28:	f883 203d 	strb.w	r2, [r3, #61]	; 0x3d

  /* Set the USART Communication parameters */
  USART_SetConfig(husart);
 8002d2c:	6878      	ldr	r0, [r7, #4]
 8002d2e:	f000 fb61 	bl	80033f4 <USART_SetConfig>

  /* In USART mode, the following bits must be kept cleared:
     - LINEN bit in the USART_CR2 register
     - HDSEL, SCEN and IREN bits in the USART_CR3 register */
  CLEAR_BIT(husart->Instance->CR2, USART_CR2_LINEN);
 8002d32:	687b      	ldr	r3, [r7, #4]
 8002d34:	681b      	ldr	r3, [r3, #0]
 8002d36:	691a      	ldr	r2, [r3, #16]
 8002d38:	687b      	ldr	r3, [r7, #4]
 8002d3a:	681b      	ldr	r3, [r3, #0]
 8002d3c:	f422 4280 	bic.w	r2, r2, #16384	; 0x4000
 8002d40:	611a      	str	r2, [r3, #16]
  CLEAR_BIT(husart->Instance->CR3, (USART_CR3_SCEN | USART_CR3_HDSEL | USART_CR3_IREN));
 8002d42:	687b      	ldr	r3, [r7, #4]
 8002d44:	681b      	ldr	r3, [r3, #0]
 8002d46:	695a      	ldr	r2, [r3, #20]
 8002d48:	687b      	ldr	r3, [r7, #4]
 8002d4a:	681b      	ldr	r3, [r3, #0]
 8002d4c:	f022 022a 	bic.w	r2, r2, #42	; 0x2a
 8002d50:	615a      	str	r2, [r3, #20]

  /* Enable the Peripheral */
  __HAL_USART_ENABLE(husart);
 8002d52:	687b      	ldr	r3, [r7, #4]
 8002d54:	681b      	ldr	r3, [r3, #0]
 8002d56:	68da      	ldr	r2, [r3, #12]
 8002d58:	687b      	ldr	r3, [r7, #4]
 8002d5a:	681b      	ldr	r3, [r3, #0]
 8002d5c:	f442 5200 	orr.w	r2, r2, #8192	; 0x2000
 8002d60:	60da      	str	r2, [r3, #12]

  /* Initialize the USART state */
  husart->ErrorCode = HAL_USART_ERROR_NONE;
 8002d62:	687b      	ldr	r3, [r7, #4]
 8002d64:	2200      	movs	r2, #0
 8002d66:	641a      	str	r2, [r3, #64]	; 0x40
  husart->State = HAL_USART_STATE_READY;
 8002d68:	687b      	ldr	r3, [r7, #4]
 8002d6a:	2201      	movs	r2, #1
 8002d6c:	f883 203d 	strb.w	r2, [r3, #61]	; 0x3d

  return HAL_OK;
 8002d70:	2300      	movs	r3, #0
}
 8002d72:	4618      	mov	r0, r3
 8002d74:	3708      	adds	r7, #8
 8002d76:	46bd      	mov	sp, r7
 8002d78:	bd80      	pop	{r7, pc}
	...

08002d7c <HAL_USART_IRQHandler>:
  * @param  husart Pointer to a USART_HandleTypeDef structure that contains
  *                the configuration information for the specified USART module.
  * @retval None
  */
void HAL_USART_IRQHandler(USART_HandleTypeDef *husart)
{
 8002d7c:	b580      	push	{r7, lr}
 8002d7e:	b088      	sub	sp, #32
 8002d80:	af00      	add	r7, sp, #0
 8002d82:	6078      	str	r0, [r7, #4]
  uint32_t isrflags = READ_REG(husart->Instance->SR);
 8002d84:	687b      	ldr	r3, [r7, #4]
 8002d86:	681b      	ldr	r3, [r3, #0]
 8002d88:	681b      	ldr	r3, [r3, #0]
 8002d8a:	61fb      	str	r3, [r7, #28]
  uint32_t cr1its   = READ_REG(husart->Instance->CR1);
 8002d8c:	687b      	ldr	r3, [r7, #4]
 8002d8e:	681b      	ldr	r3, [r3, #0]
 8002d90:	68db      	ldr	r3, [r3, #12]
 8002d92:	61bb      	str	r3, [r7, #24]
  uint32_t cr3its   = READ_REG(husart->Instance->CR3);
 8002d94:	687b      	ldr	r3, [r7, #4]
 8002d96:	681b      	ldr	r3, [r3, #0]
 8002d98:	695b      	ldr	r3, [r3, #20]
 8002d9a:	617b      	str	r3, [r7, #20]
  uint32_t errorflags = 0x00U;
 8002d9c:	2300      	movs	r3, #0
 8002d9e:	613b      	str	r3, [r7, #16]
  uint32_t dmarequest = 0x00U;
 8002da0:	2300      	movs	r3, #0
 8002da2:	60fb      	str	r3, [r7, #12]

  /* If no error occurs */
  errorflags = (isrflags & (uint32_t)(USART_SR_PE | USART_SR_FE | USART_SR_ORE | USART_SR_NE));
 8002da4:	69fb      	ldr	r3, [r7, #28]
 8002da6:	f003 030f 	and.w	r3, r3, #15
 8002daa:	613b      	str	r3, [r7, #16]
  if (errorflags == RESET)
 8002dac:	693b      	ldr	r3, [r7, #16]
 8002dae:	2b00      	cmp	r3, #0
 8002db0:	d117      	bne.n	8002de2 <HAL_USART_IRQHandler+0x66>
  {
    /* USART in mode Receiver -------------------------------------------------*/
    if (((isrflags & USART_SR_RXNE) != RESET) && ((cr1its & USART_CR1_RXNEIE) != RESET))
 8002db2:	69fb      	ldr	r3, [r7, #28]
 8002db4:	f003 0320 	and.w	r3, r3, #32
 8002db8:	2b00      	cmp	r3, #0
 8002dba:	d012      	beq.n	8002de2 <HAL_USART_IRQHandler+0x66>
 8002dbc:	69bb      	ldr	r3, [r7, #24]
 8002dbe:	f003 0320 	and.w	r3, r3, #32
 8002dc2:	2b00      	cmp	r3, #0
 8002dc4:	d00d      	beq.n	8002de2 <HAL_USART_IRQHandler+0x66>
    {
      if (husart->State == HAL_USART_STATE_BUSY_RX)
 8002dc6:	687b      	ldr	r3, [r7, #4]
 8002dc8:	f893 303d 	ldrb.w	r3, [r3, #61]	; 0x3d
 8002dcc:	b2db      	uxtb	r3, r3
 8002dce:	2b22      	cmp	r3, #34	; 0x22
 8002dd0:	d103      	bne.n	8002dda <HAL_USART_IRQHandler+0x5e>
      {
        USART_Receive_IT(husart);
 8002dd2:	6878      	ldr	r0, [r7, #4]
 8002dd4:	f000 f9b4 	bl	8003140 <USART_Receive_IT>
      }
      else
      {
        USART_TransmitReceive_IT(husart);
      }
      return;
 8002dd8:	e0e9      	b.n	8002fae <HAL_USART_IRQHandler+0x232>
        USART_TransmitReceive_IT(husart);
 8002dda:	6878      	ldr	r0, [r7, #4]
 8002ddc:	f000 fa36 	bl	800324c <USART_TransmitReceive_IT>
      return;
 8002de0:	e0e5      	b.n	8002fae <HAL_USART_IRQHandler+0x232>
    }
  }
  /* If some errors occur */
  if ((errorflags != RESET) && (((cr3its & USART_CR3_EIE) != RESET) || ((cr1its & (USART_CR1_RXNEIE | USART_CR1_PEIE)) != RESET)))
 8002de2:	693b      	ldr	r3, [r7, #16]
 8002de4:	2b00      	cmp	r3, #0
 8002de6:	f000 80bb 	beq.w	8002f60 <HAL_USART_IRQHandler+0x1e4>
 8002dea:	697b      	ldr	r3, [r7, #20]
 8002dec:	f003 0301 	and.w	r3, r3, #1
 8002df0:	2b00      	cmp	r3, #0
 8002df2:	d105      	bne.n	8002e00 <HAL_USART_IRQHandler+0x84>
 8002df4:	69bb      	ldr	r3, [r7, #24]
 8002df6:	f403 7390 	and.w	r3, r3, #288	; 0x120
 8002dfa:	2b00      	cmp	r3, #0
 8002dfc:	f000 80b0 	beq.w	8002f60 <HAL_USART_IRQHandler+0x1e4>
  {
    /* USART parity error interrupt occurred ----------------------------------*/
    if (((isrflags & USART_SR_PE) != RESET) && ((cr1its & USART_CR1_PEIE) != RESET))
 8002e00:	69fb      	ldr	r3, [r7, #28]
 8002e02:	f003 0301 	and.w	r3, r3, #1
 8002e06:	2b00      	cmp	r3, #0
 8002e08:	d00a      	beq.n	8002e20 <HAL_USART_IRQHandler+0xa4>
 8002e0a:	69bb      	ldr	r3, [r7, #24]
 8002e0c:	f403 7380 	and.w	r3, r3, #256	; 0x100
 8002e10:	2b00      	cmp	r3, #0
 8002e12:	d005      	beq.n	8002e20 <HAL_USART_IRQHandler+0xa4>
    {
      husart->ErrorCode |= HAL_USART_ERROR_PE;
 8002e14:	687b      	ldr	r3, [r7, #4]
 8002e16:	6c1b      	ldr	r3, [r3, #64]	; 0x40
 8002e18:	f043 0201 	orr.w	r2, r3, #1
 8002e1c:	687b      	ldr	r3, [r7, #4]
 8002e1e:	641a      	str	r2, [r3, #64]	; 0x40
    }

    /* USART noise error interrupt occurred --------------------------------*/
    if (((isrflags & USART_SR_NE) != RESET) && ((cr3its & USART_CR3_EIE) != RESET))
 8002e20:	69fb      	ldr	r3, [r7, #28]
 8002e22:	f003 0304 	and.w	r3, r3, #4
 8002e26:	2b00      	cmp	r3, #0
 8002e28:	d00a      	beq.n	8002e40 <HAL_USART_IRQHandler+0xc4>
 8002e2a:	697b      	ldr	r3, [r7, #20]
 8002e2c:	f003 0301 	and.w	r3, r3, #1
 8002e30:	2b00      	cmp	r3, #0
 8002e32:	d005      	beq.n	8002e40 <HAL_USART_IRQHandler+0xc4>
    {
      husart->ErrorCode |= HAL_USART_ERROR_NE;
 8002e34:	687b      	ldr	r3, [r7, #4]
 8002e36:	6c1b      	ldr	r3, [r3, #64]	; 0x40
 8002e38:	f043 0202 	orr.w	r2, r3, #2
 8002e3c:	687b      	ldr	r3, [r7, #4]
 8002e3e:	641a      	str	r2, [r3, #64]	; 0x40
    }

    /* USART frame error interrupt occurred --------------------------------*/
    if (((isrflags & USART_SR_FE) != RESET) && ((cr3its & USART_CR3_EIE) != RESET))
 8002e40:	69fb      	ldr	r3, [r7, #28]
 8002e42:	f003 0302 	and.w	r3, r3, #2
 8002e46:	2b00      	cmp	r3, #0
 8002e48:	d00a      	beq.n	8002e60 <HAL_USART_IRQHandler+0xe4>
 8002e4a:	697b      	ldr	r3, [r7, #20]
 8002e4c:	f003 0301 	and.w	r3, r3, #1
 8002e50:	2b00      	cmp	r3, #0
 8002e52:	d005      	beq.n	8002e60 <HAL_USART_IRQHandler+0xe4>
    {
      husart->ErrorCode |= HAL_USART_ERROR_FE;
 8002e54:	687b      	ldr	r3, [r7, #4]
 8002e56:	6c1b      	ldr	r3, [r3, #64]	; 0x40
 8002e58:	f043 0204 	orr.w	r2, r3, #4
 8002e5c:	687b      	ldr	r3, [r7, #4]
 8002e5e:	641a      	str	r2, [r3, #64]	; 0x40
    }

    /* USART Over-Run interrupt occurred -----------------------------------*/
    if (((isrflags & USART_SR_ORE) != RESET) && (((cr1its & USART_CR1_RXNEIE) != RESET) || ((cr3its & USART_CR3_EIE) != RESET)))
 8002e60:	69fb      	ldr	r3, [r7, #28]
 8002e62:	f003 0308 	and.w	r3, r3, #8
 8002e66:	2b00      	cmp	r3, #0
 8002e68:	d00f      	beq.n	8002e8a <HAL_USART_IRQHandler+0x10e>
 8002e6a:	69bb      	ldr	r3, [r7, #24]
 8002e6c:	f003 0320 	and.w	r3, r3, #32
 8002e70:	2b00      	cmp	r3, #0
 8002e72:	d104      	bne.n	8002e7e <HAL_USART_IRQHandler+0x102>
 8002e74:	697b      	ldr	r3, [r7, #20]
 8002e76:	f003 0301 	and.w	r3, r3, #1
 8002e7a:	2b00      	cmp	r3, #0
 8002e7c:	d005      	beq.n	8002e8a <HAL_USART_IRQHandler+0x10e>
    {
      husart->ErrorCode |= HAL_USART_ERROR_ORE;
 8002e7e:	687b      	ldr	r3, [r7, #4]
 8002e80:	6c1b      	ldr	r3, [r3, #64]	; 0x40
 8002e82:	f043 0208 	orr.w	r2, r3, #8
 8002e86:	687b      	ldr	r3, [r7, #4]
 8002e88:	641a      	str	r2, [r3, #64]	; 0x40
    }

    if (husart->ErrorCode != HAL_USART_ERROR_NONE)
 8002e8a:	687b      	ldr	r3, [r7, #4]
 8002e8c:	6c1b      	ldr	r3, [r3, #64]	; 0x40
 8002e8e:	2b00      	cmp	r3, #0
 8002e90:	f000 808c 	beq.w	8002fac <HAL_USART_IRQHandler+0x230>
    {
      /* USART in mode Receiver -----------------------------------------------*/
      if (((isrflags & USART_SR_RXNE) != RESET) && ((cr1its & USART_CR1_RXNEIE) != RESET))
 8002e94:	69fb      	ldr	r3, [r7, #28]
 8002e96:	f003 0320 	and.w	r3, r3, #32
 8002e9a:	2b00      	cmp	r3, #0
 8002e9c:	d011      	beq.n	8002ec2 <HAL_USART_IRQHandler+0x146>
 8002e9e:	69bb      	ldr	r3, [r7, #24]
 8002ea0:	f003 0320 	and.w	r3, r3, #32
 8002ea4:	2b00      	cmp	r3, #0
 8002ea6:	d00c      	beq.n	8002ec2 <HAL_USART_IRQHandler+0x146>
      {
        if (husart->State == HAL_USART_STATE_BUSY_RX)
 8002ea8:	687b      	ldr	r3, [r7, #4]
 8002eaa:	f893 303d 	ldrb.w	r3, [r3, #61]	; 0x3d
 8002eae:	b2db      	uxtb	r3, r3
 8002eb0:	2b22      	cmp	r3, #34	; 0x22
 8002eb2:	d103      	bne.n	8002ebc <HAL_USART_IRQHandler+0x140>
        {
          USART_Receive_IT(husart);
 8002eb4:	6878      	ldr	r0, [r7, #4]
 8002eb6:	f000 f943 	bl	8003140 <USART_Receive_IT>
 8002eba:	e002      	b.n	8002ec2 <HAL_USART_IRQHandler+0x146>
        }
        else
        {
          USART_TransmitReceive_IT(husart);
 8002ebc:	6878      	ldr	r0, [r7, #4]
 8002ebe:	f000 f9c5 	bl	800324c <USART_TransmitReceive_IT>
        }
      }
      /* If Overrun error occurs, or if any error occurs in DMA mode reception,
      consider error as blocking */
      dmarequest = HAL_IS_BIT_SET(husart->Instance->CR3, USART_CR3_DMAR);
 8002ec2:	687b      	ldr	r3, [r7, #4]
 8002ec4:	681b      	ldr	r3, [r3, #0]
 8002ec6:	695b      	ldr	r3, [r3, #20]
 8002ec8:	f003 0340 	and.w	r3, r3, #64	; 0x40
 8002ecc:	2b00      	cmp	r3, #0
 8002ece:	bf14      	ite	ne
 8002ed0:	2301      	movne	r3, #1
 8002ed2:	2300      	moveq	r3, #0
 8002ed4:	b2db      	uxtb	r3, r3
 8002ed6:	60fb      	str	r3, [r7, #12]
      if (((husart->ErrorCode & HAL_USART_ERROR_ORE) != RESET) || dmarequest)
 8002ed8:	687b      	ldr	r3, [r7, #4]
 8002eda:	6c1b      	ldr	r3, [r3, #64]	; 0x40
 8002edc:	f003 0308 	and.w	r3, r3, #8
 8002ee0:	2b00      	cmp	r3, #0
 8002ee2:	d102      	bne.n	8002eea <HAL_USART_IRQHandler+0x16e>
 8002ee4:	68fb      	ldr	r3, [r7, #12]
 8002ee6:	2b00      	cmp	r3, #0
 8002ee8:	d031      	beq.n	8002f4e <HAL_USART_IRQHandler+0x1d2>
      {
        /* Set the USART state ready to be able to start again the process,
        Disable Rx Interrupts, and disable Rx DMA request, if ongoing */
        USART_EndRxTransfer(husart);
 8002eea:	6878      	ldr	r0, [r7, #4]
 8002eec:	f000 f888 	bl	8003000 <USART_EndRxTransfer>

        /* Disable the USART DMA Rx request if enabled */
        if (HAL_IS_BIT_SET(husart->Instance->CR3, USART_CR3_DMAR))
 8002ef0:	687b      	ldr	r3, [r7, #4]
 8002ef2:	681b      	ldr	r3, [r3, #0]
 8002ef4:	695b      	ldr	r3, [r3, #20]
 8002ef6:	f003 0340 	and.w	r3, r3, #64	; 0x40
 8002efa:	2b00      	cmp	r3, #0
 8002efc:	d023      	beq.n	8002f46 <HAL_USART_IRQHandler+0x1ca>
        {
          CLEAR_BIT(husart->Instance->CR3, USART_CR3_DMAR);
 8002efe:	687b      	ldr	r3, [r7, #4]
 8002f00:	681b      	ldr	r3, [r3, #0]
 8002f02:	695a      	ldr	r2, [r3, #20]
 8002f04:	687b      	ldr	r3, [r7, #4]
 8002f06:	681b      	ldr	r3, [r3, #0]
 8002f08:	f022 0240 	bic.w	r2, r2, #64	; 0x40
 8002f0c:	615a      	str	r2, [r3, #20]

          /* Abort the USART DMA Rx channel */
          if (husart->hdmarx != NULL)
 8002f0e:	687b      	ldr	r3, [r7, #4]
 8002f10:	6b9b      	ldr	r3, [r3, #56]	; 0x38
 8002f12:	2b00      	cmp	r3, #0
 8002f14:	d013      	beq.n	8002f3e <HAL_USART_IRQHandler+0x1c2>
          {
            /* Set the USART DMA Abort callback :
            will lead to call HAL_USART_ErrorCallback() at end of DMA abort procedure */
            husart->hdmarx->XferAbortCallback = USART_DMAAbortOnError;
 8002f16:	687b      	ldr	r3, [r7, #4]
 8002f18:	6b9b      	ldr	r3, [r3, #56]	; 0x38
 8002f1a:	4a26      	ldr	r2, [pc, #152]	; (8002fb4 <HAL_USART_IRQHandler+0x238>)
 8002f1c:	635a      	str	r2, [r3, #52]	; 0x34

            if (HAL_DMA_Abort_IT(husart->hdmarx) != HAL_OK)
 8002f1e:	687b      	ldr	r3, [r7, #4]
 8002f20:	6b9b      	ldr	r3, [r3, #56]	; 0x38
 8002f22:	4618      	mov	r0, r3
 8002f24:	f7fe f906 	bl	8001134 <HAL_DMA_Abort_IT>
 8002f28:	4603      	mov	r3, r0
 8002f2a:	2b00      	cmp	r3, #0
 8002f2c:	d016      	beq.n	8002f5c <HAL_USART_IRQHandler+0x1e0>
            {
              /* Call Directly XferAbortCallback function in case of error */
              husart->hdmarx->XferAbortCallback(husart->hdmarx);
 8002f2e:	687b      	ldr	r3, [r7, #4]
 8002f30:	6b9b      	ldr	r3, [r3, #56]	; 0x38
 8002f32:	6b5b      	ldr	r3, [r3, #52]	; 0x34
 8002f34:	687a      	ldr	r2, [r7, #4]
 8002f36:	6b92      	ldr	r2, [r2, #56]	; 0x38
 8002f38:	4610      	mov	r0, r2
 8002f3a:	4798      	blx	r3
        if (HAL_IS_BIT_SET(husart->Instance->CR3, USART_CR3_DMAR))
 8002f3c:	e00e      	b.n	8002f5c <HAL_USART_IRQHandler+0x1e0>
#if (USE_HAL_USART_REGISTER_CALLBACKS == 1)
            /* Call registered Error Callback */
            husart->ErrorCallback(husart);
#else
            /* Call legacy weak Error Callback */
            HAL_USART_ErrorCallback(husart);
 8002f3e:	6878      	ldr	r0, [r7, #4]
 8002f40:	f000 f855 	bl	8002fee <HAL_USART_ErrorCallback>
        if (HAL_IS_BIT_SET(husart->Instance->CR3, USART_CR3_DMAR))
 8002f44:	e00a      	b.n	8002f5c <HAL_USART_IRQHandler+0x1e0>
#if (USE_HAL_USART_REGISTER_CALLBACKS == 1)
          /* Call registered Error Callback */
          husart->ErrorCallback(husart);
#else
          /* Call legacy weak Error Callback */
          HAL_USART_ErrorCallback(husart);
 8002f46:	6878      	ldr	r0, [r7, #4]
 8002f48:	f000 f851 	bl	8002fee <HAL_USART_ErrorCallback>
        if (HAL_IS_BIT_SET(husart->Instance->CR3, USART_CR3_DMAR))
 8002f4c:	e006      	b.n	8002f5c <HAL_USART_IRQHandler+0x1e0>
#if (USE_HAL_USART_REGISTER_CALLBACKS == 1)
        /* Call registered Error Callback */
        husart->ErrorCallback(husart);
#else
        /* Call legacy weak Error Callback */
        HAL_USART_ErrorCallback(husart);
 8002f4e:	6878      	ldr	r0, [r7, #4]
 8002f50:	f000 f84d 	bl	8002fee <HAL_USART_ErrorCallback>
#endif /* USE_HAL_USART_REGISTER_CALLBACKS */
        husart->ErrorCode = HAL_USART_ERROR_NONE;
 8002f54:	687b      	ldr	r3, [r7, #4]
 8002f56:	2200      	movs	r2, #0
 8002f58:	641a      	str	r2, [r3, #64]	; 0x40
      }
    }
    return;
 8002f5a:	e027      	b.n	8002fac <HAL_USART_IRQHandler+0x230>
        if (HAL_IS_BIT_SET(husart->Instance->CR3, USART_CR3_DMAR))
 8002f5c:	bf00      	nop
    return;
 8002f5e:	e025      	b.n	8002fac <HAL_USART_IRQHandler+0x230>
  }

  /* USART in mode Transmitter -----------------------------------------------*/
  if (((isrflags & USART_SR_TXE) != RESET) && ((cr1its & USART_CR1_TXEIE) != RESET))
 8002f60:	69fb      	ldr	r3, [r7, #28]
 8002f62:	f003 0380 	and.w	r3, r3, #128	; 0x80
 8002f66:	2b00      	cmp	r3, #0
 8002f68:	d012      	beq.n	8002f90 <HAL_USART_IRQHandler+0x214>
 8002f6a:	69bb      	ldr	r3, [r7, #24]
 8002f6c:	f003 0380 	and.w	r3, r3, #128	; 0x80
 8002f70:	2b00      	cmp	r3, #0
 8002f72:	d00d      	beq.n	8002f90 <HAL_USART_IRQHandler+0x214>
  {
    if (husart->State == HAL_USART_STATE_BUSY_TX)
 8002f74:	687b      	ldr	r3, [r7, #4]
 8002f76:	f893 303d 	ldrb.w	r3, [r3, #61]	; 0x3d
 8002f7a:	b2db      	uxtb	r3, r3
 8002f7c:	2b12      	cmp	r3, #18
 8002f7e:	d103      	bne.n	8002f88 <HAL_USART_IRQHandler+0x20c>
    {
      USART_Transmit_IT(husart);
 8002f80:	6878      	ldr	r0, [r7, #4]
 8002f82:	f000 f86e 	bl	8003062 <USART_Transmit_IT>
    }
    else
    {
      USART_TransmitReceive_IT(husart);
    }
    return;
 8002f86:	e012      	b.n	8002fae <HAL_USART_IRQHandler+0x232>
      USART_TransmitReceive_IT(husart);
 8002f88:	6878      	ldr	r0, [r7, #4]
 8002f8a:	f000 f95f 	bl	800324c <USART_TransmitReceive_IT>
    return;
 8002f8e:	e00e      	b.n	8002fae <HAL_USART_IRQHandler+0x232>
  }

  /* USART in mode Transmitter (transmission end) ----------------------------*/
  if (((isrflags & USART_SR_TC) != RESET) && ((cr1its & USART_CR1_TCIE) != RESET))
 8002f90:	69fb      	ldr	r3, [r7, #28]
 8002f92:	f003 0340 	and.w	r3, r3, #64	; 0x40
 8002f96:	2b00      	cmp	r3, #0
 8002f98:	d009      	beq.n	8002fae <HAL_USART_IRQHandler+0x232>
 8002f9a:	69bb      	ldr	r3, [r7, #24]
 8002f9c:	f003 0340 	and.w	r3, r3, #64	; 0x40
 8002fa0:	2b00      	cmp	r3, #0
 8002fa2:	d004      	beq.n	8002fae <HAL_USART_IRQHandler+0x232>
  {
    USART_EndTransmit_IT(husart);
 8002fa4:	6878      	ldr	r0, [r7, #4]
 8002fa6:	f000 f8ab 	bl	8003100 <USART_EndTransmit_IT>
    return;
 8002faa:	e000      	b.n	8002fae <HAL_USART_IRQHandler+0x232>
    return;
 8002fac:	bf00      	nop
  }
}
 8002fae:	3720      	adds	r7, #32
 8002fb0:	46bd      	mov	sp, r7
 8002fb2:	bd80      	pop	{r7, pc}
 8002fb4:	0800303b 	.word	0x0800303b

08002fb8 <HAL_USART_TxCpltCallback>:
  * @param  husart Pointer to a USART_HandleTypeDef structure that contains
  *                the configuration information for the specified USART module.
  * @retval None
  */
__weak void HAL_USART_TxCpltCallback(USART_HandleTypeDef *husart)
{
 8002fb8:	b480      	push	{r7}
 8002fba:	b083      	sub	sp, #12
 8002fbc:	af00      	add	r7, sp, #0
 8002fbe:	6078      	str	r0, [r7, #4]
  /* Prevent unused argument(s) compilation warning */
  UNUSED(husart);
  /* NOTE: This function should not be modified, when the callback is needed,
           the HAL_USART_TxCpltCallback could be implemented in the user file
   */
}
 8002fc0:	bf00      	nop
 8002fc2:	370c      	adds	r7, #12
 8002fc4:	46bd      	mov	sp, r7
 8002fc6:	bc80      	pop	{r7}
 8002fc8:	4770      	bx	lr

08002fca <HAL_USART_RxCpltCallback>:
  * @param  husart Pointer to a USART_HandleTypeDef structure that contains
  *                the configuration information for the specified USART module.
  * @retval None
  */
__weak void HAL_USART_RxCpltCallback(USART_HandleTypeDef *husart)
{
 8002fca:	b480      	push	{r7}
 8002fcc:	b083      	sub	sp, #12
 8002fce:	af00      	add	r7, sp, #0
 8002fd0:	6078      	str	r0, [r7, #4]
  /* Prevent unused argument(s) compilation warning */
  UNUSED(husart);
  /* NOTE: This function should not be modified, when the callback is needed,
           the HAL_USART_RxCpltCallback could be implemented in the user file
   */
}
 8002fd2:	bf00      	nop
 8002fd4:	370c      	adds	r7, #12
 8002fd6:	46bd      	mov	sp, r7
 8002fd8:	bc80      	pop	{r7}
 8002fda:	4770      	bx	lr

08002fdc <HAL_USART_TxRxCpltCallback>:
  * @param  husart Pointer to a USART_HandleTypeDef structure that contains
  *                the configuration information for the specified USART module.
  * @retval None
  */
__weak void HAL_USART_TxRxCpltCallback(USART_HandleTypeDef *husart)
{
 8002fdc:	b480      	push	{r7}
 8002fde:	b083      	sub	sp, #12
 8002fe0:	af00      	add	r7, sp, #0
 8002fe2:	6078      	str	r0, [r7, #4]
  /* Prevent unused argument(s) compilation warning */
  UNUSED(husart);
  /* NOTE: This function should not be modified, when the callback is needed,
           the HAL_USART_TxRxCpltCallback could be implemented in the user file
   */
}
 8002fe4:	bf00      	nop
 8002fe6:	370c      	adds	r7, #12
 8002fe8:	46bd      	mov	sp, r7
 8002fea:	bc80      	pop	{r7}
 8002fec:	4770      	bx	lr

08002fee <HAL_USART_ErrorCallback>:
  * @param  husart Pointer to a USART_HandleTypeDef structure that contains
  *                the configuration information for the specified USART module.
  * @retval None
  */
__weak void HAL_USART_ErrorCallback(USART_HandleTypeDef *husart)
{
 8002fee:	b480      	push	{r7}
 8002ff0:	b083      	sub	sp, #12
 8002ff2:	af00      	add	r7, sp, #0
 8002ff4:	6078      	str	r0, [r7, #4]
  /* Prevent unused argument(s) compilation warning */
  UNUSED(husart);
  /* NOTE: This function should not be modified, when the callback is needed,
           the HAL_USART_ErrorCallback could be implemented in the user file
   */
}
 8002ff6:	bf00      	nop
 8002ff8:	370c      	adds	r7, #12
 8002ffa:	46bd      	mov	sp, r7
 8002ffc:	bc80      	pop	{r7}
 8002ffe:	4770      	bx	lr

08003000 <USART_EndRxTransfer>:
  * @brief  End ongoing Rx transfer on USART peripheral (following error detection or Reception completion).
  * @param  husart USART handle.
  * @retval None
  */
static void USART_EndRxTransfer(USART_HandleTypeDef *husart)
{
 8003000:	b480      	push	{r7}
 8003002:	b083      	sub	sp, #12
 8003004:	af00      	add	r7, sp, #0
 8003006:	6078      	str	r0, [r7, #4]
  /* Disable RXNE, PE and ERR interrupts */
  CLEAR_BIT(husart->Instance->CR1, (USART_CR1_RXNEIE | USART_CR1_PEIE));
 8003008:	687b      	ldr	r3, [r7, #4]
 800300a:	681b      	ldr	r3, [r3, #0]
 800300c:	68da      	ldr	r2, [r3, #12]
 800300e:	687b      	ldr	r3, [r7, #4]
 8003010:	681b      	ldr	r3, [r3, #0]
 8003012:	f422 7290 	bic.w	r2, r2, #288	; 0x120
 8003016:	60da      	str	r2, [r3, #12]
  CLEAR_BIT(husart->Instance->CR3, USART_CR3_EIE);
 8003018:	687b      	ldr	r3, [r7, #4]
 800301a:	681b      	ldr	r3, [r3, #0]
 800301c:	695a      	ldr	r2, [r3, #20]
 800301e:	687b      	ldr	r3, [r7, #4]
 8003020:	681b      	ldr	r3, [r3, #0]
 8003022:	f022 0201 	bic.w	r2, r2, #1
 8003026:	615a      	str	r2, [r3, #20]

  /* At end of Rx process, restore husart->State to Ready */
  husart->State = HAL_USART_STATE_READY;
 8003028:	687b      	ldr	r3, [r7, #4]
 800302a:	2201      	movs	r2, #1
 800302c:	f883 203d 	strb.w	r2, [r3, #61]	; 0x3d
}
 8003030:	bf00      	nop
 8003032:	370c      	adds	r7, #12
 8003034:	46bd      	mov	sp, r7
 8003036:	bc80      	pop	{r7}
 8003038:	4770      	bx	lr

0800303a <USART_DMAAbortOnError>:
  *         (To be called at end of DMA Abort procedure following error occurrence).
  * @param  hdma DMA handle.
  * @retval None
  */
static void USART_DMAAbortOnError(DMA_HandleTypeDef *hdma)
{
 800303a:	b580      	push	{r7, lr}
 800303c:	b084      	sub	sp, #16
 800303e:	af00      	add	r7, sp, #0
 8003040:	6078      	str	r0, [r7, #4]
  USART_HandleTypeDef *husart = (USART_HandleTypeDef *)((DMA_HandleTypeDef *)hdma)->Parent;
 8003042:	687b      	ldr	r3, [r7, #4]
 8003044:	6a5b      	ldr	r3, [r3, #36]	; 0x24
 8003046:	60fb      	str	r3, [r7, #12]
  husart->RxXferCount = 0x00U;
 8003048:	68fb      	ldr	r3, [r7, #12]
 800304a:	2200      	movs	r2, #0
 800304c:	865a      	strh	r2, [r3, #50]	; 0x32
  husart->TxXferCount = 0x00U;
 800304e:	68fb      	ldr	r3, [r7, #12]
 8003050:	2200      	movs	r2, #0
 8003052:	855a      	strh	r2, [r3, #42]	; 0x2a
#if (USE_HAL_USART_REGISTER_CALLBACKS == 1)
  /* Call registered Error Callback */
  husart->ErrorCallback(husart);
#else
  /* Call legacy weak Error Callback */
  HAL_USART_ErrorCallback(husart);
 8003054:	68f8      	ldr	r0, [r7, #12]
 8003056:	f7ff ffca 	bl	8002fee <HAL_USART_ErrorCallback>
#endif /* USE_HAL_USART_REGISTER_CALLBACKS */
}
 800305a:	bf00      	nop
 800305c:	3710      	adds	r7, #16
 800305e:	46bd      	mov	sp, r7
 8003060:	bd80      	pop	{r7, pc}

08003062 <USART_Transmit_IT>:
  *                the configuration information for the specified USART module.
  * @retval HAL status
  * @note   The USART errors are not managed to avoid the overrun error.
  */
static HAL_StatusTypeDef USART_Transmit_IT(USART_HandleTypeDef *husart)
{
 8003062:	b480      	push	{r7}
 8003064:	b085      	sub	sp, #20
 8003066:	af00      	add	r7, sp, #0
 8003068:	6078      	str	r0, [r7, #4]
  uint16_t *tmp;

  if (husart->State == HAL_USART_STATE_BUSY_TX)
 800306a:	687b      	ldr	r3, [r7, #4]
 800306c:	f893 303d 	ldrb.w	r3, [r3, #61]	; 0x3d
 8003070:	b2db      	uxtb	r3, r3
 8003072:	2b12      	cmp	r3, #18
 8003074:	d13e      	bne.n	80030f4 <USART_Transmit_IT+0x92>
  {
    if ((husart->Init.WordLength == USART_WORDLENGTH_9B) && (husart->Init.Parity == USART_PARITY_NONE))
 8003076:	687b      	ldr	r3, [r7, #4]
 8003078:	689b      	ldr	r3, [r3, #8]
 800307a:	f5b3 5f80 	cmp.w	r3, #4096	; 0x1000
 800307e:	d114      	bne.n	80030aa <USART_Transmit_IT+0x48>
 8003080:	687b      	ldr	r3, [r7, #4]
 8003082:	691b      	ldr	r3, [r3, #16]
 8003084:	2b00      	cmp	r3, #0
 8003086:	d110      	bne.n	80030aa <USART_Transmit_IT+0x48>
    {
      tmp = (uint16_t *) husart->pTxBuffPtr;
 8003088:	687b      	ldr	r3, [r7, #4]
 800308a:	6a5b      	ldr	r3, [r3, #36]	; 0x24
 800308c:	60fb      	str	r3, [r7, #12]
      husart->Instance->DR = (uint16_t)(*tmp & (uint16_t)0x01FF);
 800308e:	68fb      	ldr	r3, [r7, #12]
 8003090:	881b      	ldrh	r3, [r3, #0]
 8003092:	461a      	mov	r2, r3
 8003094:	687b      	ldr	r3, [r7, #4]
 8003096:	681b      	ldr	r3, [r3, #0]
 8003098:	f3c2 0208 	ubfx	r2, r2, #0, #9
 800309c:	605a      	str	r2, [r3, #4]
      husart->pTxBuffPtr += 2U;
 800309e:	687b      	ldr	r3, [r7, #4]
 80030a0:	6a5b      	ldr	r3, [r3, #36]	; 0x24
 80030a2:	1c9a      	adds	r2, r3, #2
 80030a4:	687b      	ldr	r3, [r7, #4]
 80030a6:	625a      	str	r2, [r3, #36]	; 0x24
 80030a8:	e008      	b.n	80030bc <USART_Transmit_IT+0x5a>
    }
    else
    {
      husart->Instance->DR = (uint8_t)(*husart->pTxBuffPtr++ & (uint8_t)0x00FF);
 80030aa:	687b      	ldr	r3, [r7, #4]
 80030ac:	6a5b      	ldr	r3, [r3, #36]	; 0x24
 80030ae:	1c59      	adds	r1, r3, #1
 80030b0:	687a      	ldr	r2, [r7, #4]
 80030b2:	6251      	str	r1, [r2, #36]	; 0x24
 80030b4:	781a      	ldrb	r2, [r3, #0]
 80030b6:	687b      	ldr	r3, [r7, #4]
 80030b8:	681b      	ldr	r3, [r3, #0]
 80030ba:	605a      	str	r2, [r3, #4]
    }

    if (--husart->TxXferCount == 0U)
 80030bc:	687b      	ldr	r3, [r7, #4]
 80030be:	8d5b      	ldrh	r3, [r3, #42]	; 0x2a
 80030c0:	b29b      	uxth	r3, r3
 80030c2:	3b01      	subs	r3, #1
 80030c4:	b29b      	uxth	r3, r3
 80030c6:	687a      	ldr	r2, [r7, #4]
 80030c8:	4619      	mov	r1, r3
 80030ca:	8551      	strh	r1, [r2, #42]	; 0x2a
 80030cc:	2b00      	cmp	r3, #0
 80030ce:	d10f      	bne.n	80030f0 <USART_Transmit_IT+0x8e>
    {
      /* Disable the USART Transmit data register empty Interrupt */
      CLEAR_BIT(husart->Instance->CR1, USART_CR1_TXEIE);
 80030d0:	687b      	ldr	r3, [r7, #4]
 80030d2:	681b      	ldr	r3, [r3, #0]
 80030d4:	68da      	ldr	r2, [r3, #12]
 80030d6:	687b      	ldr	r3, [r7, #4]
 80030d8:	681b      	ldr	r3, [r3, #0]
 80030da:	f022 0280 	bic.w	r2, r2, #128	; 0x80
 80030de:	60da      	str	r2, [r3, #12]

      /* Enable the USART Transmit Complete Interrupt */
      SET_BIT(husart->Instance->CR1, USART_CR1_TCIE);
 80030e0:	687b      	ldr	r3, [r7, #4]
 80030e2:	681b      	ldr	r3, [r3, #0]
 80030e4:	68da      	ldr	r2, [r3, #12]
 80030e6:	687b      	ldr	r3, [r7, #4]
 80030e8:	681b      	ldr	r3, [r3, #0]
 80030ea:	f042 0240 	orr.w	r2, r2, #64	; 0x40
 80030ee:	60da      	str	r2, [r3, #12]
    }
    return HAL_OK;
 80030f0:	2300      	movs	r3, #0
 80030f2:	e000      	b.n	80030f6 <USART_Transmit_IT+0x94>
  }
  else
  {
    return HAL_BUSY;
 80030f4:	2302      	movs	r3, #2
  }
}
 80030f6:	4618      	mov	r0, r3
 80030f8:	3714      	adds	r7, #20
 80030fa:	46bd      	mov	sp, r7
 80030fc:	bc80      	pop	{r7}
 80030fe:	4770      	bx	lr

08003100 <USART_EndTransmit_IT>:
  * @param  husart Pointer to a USART_HandleTypeDef structure that contains
  *                the configuration information for the specified USART module.
  * @retval HAL status
  */
static HAL_StatusTypeDef USART_EndTransmit_IT(USART_HandleTypeDef *husart)
{
 8003100:	b580      	push	{r7, lr}
 8003102:	b082      	sub	sp, #8
 8003104:	af00      	add	r7, sp, #0
 8003106:	6078      	str	r0, [r7, #4]
  /* Disable the USART Transmit Complete Interrupt */
  CLEAR_BIT(husart->Instance->CR1, USART_CR1_TCIE);
 8003108:	687b      	ldr	r3, [r7, #4]
 800310a:	681b      	ldr	r3, [r3, #0]
 800310c:	68da      	ldr	r2, [r3, #12]
 800310e:	687b      	ldr	r3, [r7, #4]
 8003110:	681b      	ldr	r3, [r3, #0]
 8003112:	f022 0240 	bic.w	r2, r2, #64	; 0x40
 8003116:	60da      	str	r2, [r3, #12]

  /* Disable the USART Error Interrupt: (Frame error, noise error, overrun error) */
  CLEAR_BIT(husart->Instance->CR3, USART_CR3_EIE);
 8003118:	687b      	ldr	r3, [r7, #4]
 800311a:	681b      	ldr	r3, [r3, #0]
 800311c:	695a      	ldr	r2, [r3, #20]
 800311e:	687b      	ldr	r3, [r7, #4]
 8003120:	681b      	ldr	r3, [r3, #0]
 8003122:	f022 0201 	bic.w	r2, r2, #1
 8003126:	615a      	str	r2, [r3, #20]

  husart->State = HAL_USART_STATE_READY;
 8003128:	687b      	ldr	r3, [r7, #4]
 800312a:	2201      	movs	r2, #1
 800312c:	f883 203d 	strb.w	r2, [r3, #61]	; 0x3d
#if (USE_HAL_USART_REGISTER_CALLBACKS == 1)
  /* Call registered Tx Complete Callback */
  husart->TxCpltCallback(husart);
#else
  /* Call legacy weak Tx Complete Callback */
  HAL_USART_TxCpltCallback(husart);
 8003130:	6878      	ldr	r0, [r7, #4]
 8003132:	f7ff ff41 	bl	8002fb8 <HAL_USART_TxCpltCallback>
#endif /* USE_HAL_USART_REGISTER_CALLBACKS */

  return HAL_OK;
 8003136:	2300      	movs	r3, #0
}
 8003138:	4618      	mov	r0, r3
 800313a:	3708      	adds	r7, #8
 800313c:	46bd      	mov	sp, r7
 800313e:	bd80      	pop	{r7, pc}

08003140 <USART_Receive_IT>:
  * @param  husart Pointer to a USART_HandleTypeDef structure that contains
  *                the configuration information for the specified USART module.
  * @retval HAL status
  */
static HAL_StatusTypeDef USART_Receive_IT(USART_HandleTypeDef *husart)
{
 8003140:	b580      	push	{r7, lr}
 8003142:	b084      	sub	sp, #16
 8003144:	af00      	add	r7, sp, #0
 8003146:	6078      	str	r0, [r7, #4]
  uint8_t  *pdata8bits;
  uint16_t *pdata16bits;

  if (husart->State == HAL_USART_STATE_BUSY_RX)
 8003148:	687b      	ldr	r3, [r7, #4]
 800314a:	f893 303d 	ldrb.w	r3, [r3, #61]	; 0x3d
 800314e:	b2db      	uxtb	r3, r3
 8003150:	2b22      	cmp	r3, #34	; 0x22
 8003152:	d176      	bne.n	8003242 <USART_Receive_IT+0x102>
  {
    if ((husart->Init.WordLength == USART_WORDLENGTH_9B) && (husart->Init.Parity == USART_PARITY_NONE))
 8003154:	687b      	ldr	r3, [r7, #4]
 8003156:	689b      	ldr	r3, [r3, #8]
 8003158:	f5b3 5f80 	cmp.w	r3, #4096	; 0x1000
 800315c:	d117      	bne.n	800318e <USART_Receive_IT+0x4e>
 800315e:	687b      	ldr	r3, [r7, #4]
 8003160:	691b      	ldr	r3, [r3, #16]
 8003162:	2b00      	cmp	r3, #0
 8003164:	d113      	bne.n	800318e <USART_Receive_IT+0x4e>
    {
      pdata8bits  = NULL;
 8003166:	2300      	movs	r3, #0
 8003168:	60fb      	str	r3, [r7, #12]
      pdata16bits = (uint16_t *) husart->pRxBuffPtr;
 800316a:	687b      	ldr	r3, [r7, #4]
 800316c:	6adb      	ldr	r3, [r3, #44]	; 0x2c
 800316e:	60bb      	str	r3, [r7, #8]
      *pdata16bits = (uint16_t)(husart->Instance->DR & (uint16_t)0x01FF);
 8003170:	687b      	ldr	r3, [r7, #4]
 8003172:	681b      	ldr	r3, [r3, #0]
 8003174:	685b      	ldr	r3, [r3, #4]
 8003176:	b29b      	uxth	r3, r3
 8003178:	f3c3 0308 	ubfx	r3, r3, #0, #9
 800317c:	b29a      	uxth	r2, r3
 800317e:	68bb      	ldr	r3, [r7, #8]
 8003180:	801a      	strh	r2, [r3, #0]
      husart->pRxBuffPtr += 2U;
 8003182:	687b      	ldr	r3, [r7, #4]
 8003184:	6adb      	ldr	r3, [r3, #44]	; 0x2c
 8003186:	1c9a      	adds	r2, r3, #2
 8003188:	687b      	ldr	r3, [r7, #4]
 800318a:	62da      	str	r2, [r3, #44]	; 0x2c
 800318c:	e026      	b.n	80031dc <USART_Receive_IT+0x9c>
    }
    else
    {
      pdata8bits = (uint8_t *) husart->pRxBuffPtr;
 800318e:	687b      	ldr	r3, [r7, #4]
 8003190:	6adb      	ldr	r3, [r3, #44]	; 0x2c
 8003192:	60fb      	str	r3, [r7, #12]
      pdata16bits  = NULL;
 8003194:	2300      	movs	r3, #0
 8003196:	60bb      	str	r3, [r7, #8]

      if ((husart->Init.WordLength == USART_WORDLENGTH_9B) || ((husart->Init.WordLength == USART_WORDLENGTH_8B) && (husart->Init.Parity == USART_PARITY_NONE)))
 8003198:	687b      	ldr	r3, [r7, #4]
 800319a:	689b      	ldr	r3, [r3, #8]
 800319c:	f5b3 5f80 	cmp.w	r3, #4096	; 0x1000
 80031a0:	d007      	beq.n	80031b2 <USART_Receive_IT+0x72>
 80031a2:	687b      	ldr	r3, [r7, #4]
 80031a4:	689b      	ldr	r3, [r3, #8]
 80031a6:	2b00      	cmp	r3, #0
 80031a8:	d10a      	bne.n	80031c0 <USART_Receive_IT+0x80>
 80031aa:	687b      	ldr	r3, [r7, #4]
 80031ac:	691b      	ldr	r3, [r3, #16]
 80031ae:	2b00      	cmp	r3, #0
 80031b0:	d106      	bne.n	80031c0 <USART_Receive_IT+0x80>
      {
        *pdata8bits = (uint8_t)(husart->Instance->DR & (uint8_t)0x00FF);
 80031b2:	687b      	ldr	r3, [r7, #4]
 80031b4:	681b      	ldr	r3, [r3, #0]
 80031b6:	685b      	ldr	r3, [r3, #4]
 80031b8:	b2da      	uxtb	r2, r3
 80031ba:	68fb      	ldr	r3, [r7, #12]
 80031bc:	701a      	strb	r2, [r3, #0]
 80031be:	e008      	b.n	80031d2 <USART_Receive_IT+0x92>
      }
      else
      {
        *pdata8bits = (uint8_t)(husart->Instance->DR & (uint8_t)0x007F);
 80031c0:	687b      	ldr	r3, [r7, #4]
 80031c2:	681b      	ldr	r3, [r3, #0]
 80031c4:	685b      	ldr	r3, [r3, #4]
 80031c6:	b2db      	uxtb	r3, r3
 80031c8:	f003 037f 	and.w	r3, r3, #127	; 0x7f
 80031cc:	b2da      	uxtb	r2, r3
 80031ce:	68fb      	ldr	r3, [r7, #12]
 80031d0:	701a      	strb	r2, [r3, #0]
      }

      husart->pRxBuffPtr += 1U;
 80031d2:	687b      	ldr	r3, [r7, #4]
 80031d4:	6adb      	ldr	r3, [r3, #44]	; 0x2c
 80031d6:	1c5a      	adds	r2, r3, #1
 80031d8:	687b      	ldr	r3, [r7, #4]
 80031da:	62da      	str	r2, [r3, #44]	; 0x2c
    }

    husart->RxXferCount--;
 80031dc:	687b      	ldr	r3, [r7, #4]
 80031de:	8e5b      	ldrh	r3, [r3, #50]	; 0x32
 80031e0:	b29b      	uxth	r3, r3
 80031e2:	3b01      	subs	r3, #1
 80031e4:	b29a      	uxth	r2, r3
 80031e6:	687b      	ldr	r3, [r7, #4]
 80031e8:	865a      	strh	r2, [r3, #50]	; 0x32

    if (husart->RxXferCount == 0U)
 80031ea:	687b      	ldr	r3, [r7, #4]
 80031ec:	8e5b      	ldrh	r3, [r3, #50]	; 0x32
 80031ee:	b29b      	uxth	r3, r3
 80031f0:	2b00      	cmp	r3, #0
 80031f2:	d120      	bne.n	8003236 <USART_Receive_IT+0xf6>
    {
      /* Disable the USART RXNE Interrupt */
      CLEAR_BIT(husart->Instance->CR1, USART_CR1_RXNEIE);
 80031f4:	687b      	ldr	r3, [r7, #4]
 80031f6:	681b      	ldr	r3, [r3, #0]
 80031f8:	68da      	ldr	r2, [r3, #12]
 80031fa:	687b      	ldr	r3, [r7, #4]
 80031fc:	681b      	ldr	r3, [r3, #0]
 80031fe:	f022 0220 	bic.w	r2, r2, #32
 8003202:	60da      	str	r2, [r3, #12]

      /* Disable the USART Parity Error Interrupt */
      CLEAR_BIT(husart->Instance->CR1, USART_CR1_PEIE);
 8003204:	687b      	ldr	r3, [r7, #4]
 8003206:	681b      	ldr	r3, [r3, #0]
 8003208:	68da      	ldr	r2, [r3, #12]
 800320a:	687b      	ldr	r3, [r7, #4]
 800320c:	681b      	ldr	r3, [r3, #0]
 800320e:	f422 7280 	bic.w	r2, r2, #256	; 0x100
 8003212:	60da      	str	r2, [r3, #12]

      /* Disable the USART Error Interrupt: (Frame error, noise error, overrun error) */
      CLEAR_BIT(husart->Instance->CR3, USART_CR3_EIE);
 8003214:	687b      	ldr	r3, [r7, #4]
 8003216:	681b      	ldr	r3, [r3, #0]
 8003218:	695a      	ldr	r2, [r3, #20]
 800321a:	687b      	ldr	r3, [r7, #4]
 800321c:	681b      	ldr	r3, [r3, #0]
 800321e:	f022 0201 	bic.w	r2, r2, #1
 8003222:	615a      	str	r2, [r3, #20]

      husart->State = HAL_USART_STATE_READY;
 8003224:	687b      	ldr	r3, [r7, #4]
 8003226:	2201      	movs	r2, #1
 8003228:	f883 203d 	strb.w	r2, [r3, #61]	; 0x3d
#if (USE_HAL_USART_REGISTER_CALLBACKS == 1)
      /* Call registered Rx Complete Callback */
      husart->RxCpltCallback(husart);
#else
      /* Call legacy weak Rx Complete Callback */
      HAL_USART_RxCpltCallback(husart);
 800322c:	6878      	ldr	r0, [r7, #4]
 800322e:	f7ff fecc 	bl	8002fca <HAL_USART_RxCpltCallback>
#endif /* USE_HAL_USART_REGISTER_CALLBACKS */

      return HAL_OK;
 8003232:	2300      	movs	r3, #0
 8003234:	e006      	b.n	8003244 <USART_Receive_IT+0x104>
    else
    {
      /* Send dummy byte in order to generate the clock for the slave to send the next data.
      * Whatever the frame length (7, 8 or 9-bit long), the same dummy value
      * can be written for all the cases. */
      husart->Instance->DR = (DUMMY_DATA & (uint16_t)0x0FF);
 8003236:	687b      	ldr	r3, [r7, #4]
 8003238:	681b      	ldr	r3, [r3, #0]
 800323a:	22ff      	movs	r2, #255	; 0xff
 800323c:	605a      	str	r2, [r3, #4]
    }
    return HAL_OK;
 800323e:	2300      	movs	r3, #0
 8003240:	e000      	b.n	8003244 <USART_Receive_IT+0x104>
  }
  else
  {
    return HAL_BUSY;
 8003242:	2302      	movs	r3, #2
  }
}
 8003244:	4618      	mov	r0, r3
 8003246:	3710      	adds	r7, #16
 8003248:	46bd      	mov	sp, r7
 800324a:	bd80      	pop	{r7, pc}

0800324c <USART_TransmitReceive_IT>:
  * @param  husart Pointer to a USART_HandleTypeDef structure that contains
  *                the configuration information for the specified USART module.
  * @retval HAL status
  */
static HAL_StatusTypeDef USART_TransmitReceive_IT(USART_HandleTypeDef *husart)
{
 800324c:	b580      	push	{r7, lr}
 800324e:	b084      	sub	sp, #16
 8003250:	af00      	add	r7, sp, #0
 8003252:	6078      	str	r0, [r7, #4]
  uint8_t  *pdata8bits;
  uint16_t *pdata16bits;

  if (husart->State == HAL_USART_STATE_BUSY_TX_RX)
 8003254:	687b      	ldr	r3, [r7, #4]
 8003256:	f893 303d 	ldrb.w	r3, [r3, #61]	; 0x3d
 800325a:	b2db      	uxtb	r3, r3
 800325c:	2b32      	cmp	r3, #50	; 0x32
 800325e:	f040 80c4 	bne.w	80033ea <USART_TransmitReceive_IT+0x19e>
  {
    if (husart->TxXferCount != 0x00U)
 8003262:	687b      	ldr	r3, [r7, #4]
 8003264:	8d5b      	ldrh	r3, [r3, #42]	; 0x2a
 8003266:	b29b      	uxth	r3, r3
 8003268:	2b00      	cmp	r3, #0
 800326a:	d03f      	beq.n	80032ec <USART_TransmitReceive_IT+0xa0>
    {
      if (__HAL_USART_GET_FLAG(husart, USART_FLAG_TXE) != RESET)
 800326c:	687b      	ldr	r3, [r7, #4]
 800326e:	681b      	ldr	r3, [r3, #0]
 8003270:	681b      	ldr	r3, [r3, #0]
 8003272:	f003 0380 	and.w	r3, r3, #128	; 0x80
 8003276:	2b80      	cmp	r3, #128	; 0x80
 8003278:	d138      	bne.n	80032ec <USART_TransmitReceive_IT+0xa0>
      {
        if ((husart->Init.WordLength == USART_WORDLENGTH_9B) && (husart->Init.Parity == USART_PARITY_NONE))
 800327a:	687b      	ldr	r3, [r7, #4]
 800327c:	689b      	ldr	r3, [r3, #8]
 800327e:	f5b3 5f80 	cmp.w	r3, #4096	; 0x1000
 8003282:	d116      	bne.n	80032b2 <USART_TransmitReceive_IT+0x66>
 8003284:	687b      	ldr	r3, [r7, #4]
 8003286:	691b      	ldr	r3, [r3, #16]
 8003288:	2b00      	cmp	r3, #0
 800328a:	d112      	bne.n	80032b2 <USART_TransmitReceive_IT+0x66>
        {
          pdata8bits  = NULL;
 800328c:	2300      	movs	r3, #0
 800328e:	60fb      	str	r3, [r7, #12]
          pdata16bits = (uint16_t *) husart->pTxBuffPtr;
 8003290:	687b      	ldr	r3, [r7, #4]
 8003292:	6a5b      	ldr	r3, [r3, #36]	; 0x24
 8003294:	60bb      	str	r3, [r7, #8]
          husart->Instance->DR = (uint16_t)(*pdata16bits & (uint16_t)0x01FF);
 8003296:	68bb      	ldr	r3, [r7, #8]
 8003298:	881b      	ldrh	r3, [r3, #0]
 800329a:	461a      	mov	r2, r3
 800329c:	687b      	ldr	r3, [r7, #4]
 800329e:	681b      	ldr	r3, [r3, #0]
 80032a0:	f3c2 0208 	ubfx	r2, r2, #0, #9
 80032a4:	605a      	str	r2, [r3, #4]
          husart->pTxBuffPtr += 2U;
 80032a6:	687b      	ldr	r3, [r7, #4]
 80032a8:	6a5b      	ldr	r3, [r3, #36]	; 0x24
 80032aa:	1c9a      	adds	r2, r3, #2
 80032ac:	687b      	ldr	r3, [r7, #4]
 80032ae:	625a      	str	r2, [r3, #36]	; 0x24
 80032b0:	e008      	b.n	80032c4 <USART_TransmitReceive_IT+0x78>
        }
        else
        {
          husart->Instance->DR = (uint8_t)(*husart->pTxBuffPtr++ & (uint8_t)0x00FF);
 80032b2:	687b      	ldr	r3, [r7, #4]
 80032b4:	6a5b      	ldr	r3, [r3, #36]	; 0x24
 80032b6:	1c59      	adds	r1, r3, #1
 80032b8:	687a      	ldr	r2, [r7, #4]
 80032ba:	6251      	str	r1, [r2, #36]	; 0x24
 80032bc:	781a      	ldrb	r2, [r3, #0]
 80032be:	687b      	ldr	r3, [r7, #4]
 80032c0:	681b      	ldr	r3, [r3, #0]
 80032c2:	605a      	str	r2, [r3, #4]
        }

        husart->TxXferCount--;
 80032c4:	687b      	ldr	r3, [r7, #4]
 80032c6:	8d5b      	ldrh	r3, [r3, #42]	; 0x2a
 80032c8:	b29b      	uxth	r3, r3
 80032ca:	3b01      	subs	r3, #1
 80032cc:	b29a      	uxth	r2, r3
 80032ce:	687b      	ldr	r3, [r7, #4]
 80032d0:	855a      	strh	r2, [r3, #42]	; 0x2a

        /* Check the latest data transmitted */
        if (husart->TxXferCount == 0U)
 80032d2:	687b      	ldr	r3, [r7, #4]
 80032d4:	8d5b      	ldrh	r3, [r3, #42]	; 0x2a
 80032d6:	b29b      	uxth	r3, r3
 80032d8:	2b00      	cmp	r3, #0
 80032da:	d107      	bne.n	80032ec <USART_TransmitReceive_IT+0xa0>
        {
          CLEAR_BIT(husart->Instance->CR1, USART_CR1_TXEIE);
 80032dc:	687b      	ldr	r3, [r7, #4]
 80032de:	681b      	ldr	r3, [r3, #0]
 80032e0:	68da      	ldr	r2, [r3, #12]
 80032e2:	687b      	ldr	r3, [r7, #4]
 80032e4:	681b      	ldr	r3, [r3, #0]
 80032e6:	f022 0280 	bic.w	r2, r2, #128	; 0x80
 80032ea:	60da      	str	r2, [r3, #12]
        }
      }
    }

    if (husart->RxXferCount != 0x00U)
 80032ec:	687b      	ldr	r3, [r7, #4]
 80032ee:	8e5b      	ldrh	r3, [r3, #50]	; 0x32
 80032f0:	b29b      	uxth	r3, r3
 80032f2:	2b00      	cmp	r3, #0
 80032f4:	d051      	beq.n	800339a <USART_TransmitReceive_IT+0x14e>
    {
      if (__HAL_USART_GET_FLAG(husart, USART_FLAG_RXNE) != RESET)
 80032f6:	687b      	ldr	r3, [r7, #4]
 80032f8:	681b      	ldr	r3, [r3, #0]
 80032fa:	681b      	ldr	r3, [r3, #0]
 80032fc:	f003 0320 	and.w	r3, r3, #32
 8003300:	2b20      	cmp	r3, #32
 8003302:	d14a      	bne.n	800339a <USART_TransmitReceive_IT+0x14e>
      {
        if ((husart->Init.WordLength == USART_WORDLENGTH_9B) && (husart->Init.Parity == USART_PARITY_NONE))
 8003304:	687b      	ldr	r3, [r7, #4]
 8003306:	689b      	ldr	r3, [r3, #8]
 8003308:	f5b3 5f80 	cmp.w	r3, #4096	; 0x1000
 800330c:	d117      	bne.n	800333e <USART_TransmitReceive_IT+0xf2>
 800330e:	687b      	ldr	r3, [r7, #4]
 8003310:	691b      	ldr	r3, [r3, #16]
 8003312:	2b00      	cmp	r3, #0
 8003314:	d113      	bne.n	800333e <USART_TransmitReceive_IT+0xf2>
        {
           pdata8bits  = NULL;
 8003316:	2300      	movs	r3, #0
 8003318:	60fb      	str	r3, [r7, #12]
           pdata16bits = (uint16_t *) husart->pRxBuffPtr;
 800331a:	687b      	ldr	r3, [r7, #4]
 800331c:	6adb      	ldr	r3, [r3, #44]	; 0x2c
 800331e:	60bb      	str	r3, [r7, #8]
           *pdata16bits = (uint16_t)(husart->Instance->DR & (uint16_t)0x01FF);
 8003320:	687b      	ldr	r3, [r7, #4]
 8003322:	681b      	ldr	r3, [r3, #0]
 8003324:	685b      	ldr	r3, [r3, #4]
 8003326:	b29b      	uxth	r3, r3
 8003328:	f3c3 0308 	ubfx	r3, r3, #0, #9
 800332c:	b29a      	uxth	r2, r3
 800332e:	68bb      	ldr	r3, [r7, #8]
 8003330:	801a      	strh	r2, [r3, #0]
           husart->pRxBuffPtr += 2U;
 8003332:	687b      	ldr	r3, [r7, #4]
 8003334:	6adb      	ldr	r3, [r3, #44]	; 0x2c
 8003336:	1c9a      	adds	r2, r3, #2
 8003338:	687b      	ldr	r3, [r7, #4]
 800333a:	62da      	str	r2, [r3, #44]	; 0x2c
 800333c:	e026      	b.n	800338c <USART_TransmitReceive_IT+0x140>
        }
        else
        {
          pdata8bits = (uint8_t *) husart->pRxBuffPtr;
 800333e:	687b      	ldr	r3, [r7, #4]
 8003340:	6adb      	ldr	r3, [r3, #44]	; 0x2c
 8003342:	60fb      	str	r3, [r7, #12]
          pdata16bits  = NULL;
 8003344:	2300      	movs	r3, #0
 8003346:	60bb      	str	r3, [r7, #8]
          if ((husart->Init.WordLength == USART_WORDLENGTH_9B) || ((husart->Init.WordLength == USART_WORDLENGTH_8B) && (husart->Init.Parity == USART_PARITY_NONE)))
 8003348:	687b      	ldr	r3, [r7, #4]
 800334a:	689b      	ldr	r3, [r3, #8]
 800334c:	f5b3 5f80 	cmp.w	r3, #4096	; 0x1000
 8003350:	d007      	beq.n	8003362 <USART_TransmitReceive_IT+0x116>
 8003352:	687b      	ldr	r3, [r7, #4]
 8003354:	689b      	ldr	r3, [r3, #8]
 8003356:	2b00      	cmp	r3, #0
 8003358:	d10a      	bne.n	8003370 <USART_TransmitReceive_IT+0x124>
 800335a:	687b      	ldr	r3, [r7, #4]
 800335c:	691b      	ldr	r3, [r3, #16]
 800335e:	2b00      	cmp	r3, #0
 8003360:	d106      	bne.n	8003370 <USART_TransmitReceive_IT+0x124>
          {
            *pdata8bits = (uint8_t)(husart->Instance->DR & (uint8_t)0x00FF);
 8003362:	687b      	ldr	r3, [r7, #4]
 8003364:	681b      	ldr	r3, [r3, #0]
 8003366:	685b      	ldr	r3, [r3, #4]
 8003368:	b2da      	uxtb	r2, r3
 800336a:	68fb      	ldr	r3, [r7, #12]
 800336c:	701a      	strb	r2, [r3, #0]
 800336e:	e008      	b.n	8003382 <USART_TransmitReceive_IT+0x136>
          }
          else
          {
            *pdata8bits = (uint8_t)(husart->Instance->DR & (uint8_t)0x007F);
 8003370:	687b      	ldr	r3, [r7, #4]
 8003372:	681b      	ldr	r3, [r3, #0]
 8003374:	685b      	ldr	r3, [r3, #4]
 8003376:	b2db      	uxtb	r3, r3
 8003378:	f003 037f 	and.w	r3, r3, #127	; 0x7f
 800337c:	b2da      	uxtb	r2, r3
 800337e:	68fb      	ldr	r3, [r7, #12]
 8003380:	701a      	strb	r2, [r3, #0]
          }
          husart->pRxBuffPtr += 1U;
 8003382:	687b      	ldr	r3, [r7, #4]
 8003384:	6adb      	ldr	r3, [r3, #44]	; 0x2c
 8003386:	1c5a      	adds	r2, r3, #1
 8003388:	687b      	ldr	r3, [r7, #4]
 800338a:	62da      	str	r2, [r3, #44]	; 0x2c
        }

        husart->RxXferCount--;
 800338c:	687b      	ldr	r3, [r7, #4]
 800338e:	8e5b      	ldrh	r3, [r3, #50]	; 0x32
 8003390:	b29b      	uxth	r3, r3
 8003392:	3b01      	subs	r3, #1
 8003394:	b29a      	uxth	r2, r3
 8003396:	687b      	ldr	r3, [r7, #4]
 8003398:	865a      	strh	r2, [r3, #50]	; 0x32
      }
    }

    /* Check the latest data received */
    if (husart->RxXferCount == 0U)
 800339a:	687b      	ldr	r3, [r7, #4]
 800339c:	8e5b      	ldrh	r3, [r3, #50]	; 0x32
 800339e:	b29b      	uxth	r3, r3
 80033a0:	2b00      	cmp	r3, #0
 80033a2:	d120      	bne.n	80033e6 <USART_TransmitReceive_IT+0x19a>
    {
      /* Disable the USART RXNE Interrupt */
      CLEAR_BIT(husart->Instance->CR1, USART_CR1_RXNEIE);
 80033a4:	687b      	ldr	r3, [r7, #4]
 80033a6:	681b      	ldr	r3, [r3, #0]
 80033a8:	68da      	ldr	r2, [r3, #12]
 80033aa:	687b      	ldr	r3, [r7, #4]
 80033ac:	681b      	ldr	r3, [r3, #0]
 80033ae:	f022 0220 	bic.w	r2, r2, #32
 80033b2:	60da      	str	r2, [r3, #12]

      /* Disable the USART Parity Error Interrupt */
      CLEAR_BIT(husart->Instance->CR1, USART_CR1_PEIE);
 80033b4:	687b      	ldr	r3, [r7, #4]
 80033b6:	681b      	ldr	r3, [r3, #0]
 80033b8:	68da      	ldr	r2, [r3, #12]
 80033ba:	687b      	ldr	r3, [r7, #4]
 80033bc:	681b      	ldr	r3, [r3, #0]
 80033be:	f422 7280 	bic.w	r2, r2, #256	; 0x100
 80033c2:	60da      	str	r2, [r3, #12]

      /* Disable the USART Error Interrupt: (Frame error, noise error, overrun error) */
      CLEAR_BIT(husart->Instance->CR3, USART_CR3_EIE);
 80033c4:	687b      	ldr	r3, [r7, #4]
 80033c6:	681b      	ldr	r3, [r3, #0]
 80033c8:	695a      	ldr	r2, [r3, #20]
 80033ca:	687b      	ldr	r3, [r7, #4]
 80033cc:	681b      	ldr	r3, [r3, #0]
 80033ce:	f022 0201 	bic.w	r2, r2, #1
 80033d2:	615a      	str	r2, [r3, #20]

      husart->State = HAL_USART_STATE_READY;
 80033d4:	687b      	ldr	r3, [r7, #4]
 80033d6:	2201      	movs	r2, #1
 80033d8:	f883 203d 	strb.w	r2, [r3, #61]	; 0x3d
#if (USE_HAL_USART_REGISTER_CALLBACKS == 1)
      /* Call registered Tx Rx Complete Callback */
      husart->TxRxCpltCallback(husart);
#else
      /* Call legacy weak Tx Rx Complete Callback */
      HAL_USART_TxRxCpltCallback(husart);
 80033dc:	6878      	ldr	r0, [r7, #4]
 80033de:	f7ff fdfd 	bl	8002fdc <HAL_USART_TxRxCpltCallback>
#endif /* USE_HAL_USART_REGISTER_CALLBACKS */

      return HAL_OK;
 80033e2:	2300      	movs	r3, #0
 80033e4:	e002      	b.n	80033ec <USART_TransmitReceive_IT+0x1a0>
    }

    return HAL_OK;
 80033e6:	2300      	movs	r3, #0
 80033e8:	e000      	b.n	80033ec <USART_TransmitReceive_IT+0x1a0>
  }
  else
  {
    return HAL_BUSY;
 80033ea:	2302      	movs	r3, #2
  }
}
 80033ec:	4618      	mov	r0, r3
 80033ee:	3710      	adds	r7, #16
 80033f0:	46bd      	mov	sp, r7
 80033f2:	bd80      	pop	{r7, pc}

080033f4 <USART_SetConfig>:
  * @param  husart Pointer to a USART_HandleTypeDef structure that contains
  *                the configuration information for the specified USART module.
  * @retval None
  */
static void USART_SetConfig(USART_HandleTypeDef *husart)
{
 80033f4:	b580      	push	{r7, lr}
 80033f6:	b084      	sub	sp, #16
 80033f8:	af00      	add	r7, sp, #0
 80033fa:	6078      	str	r0, [r7, #4]
  uint32_t tmpreg = 0x00U;
 80033fc:	2300      	movs	r3, #0
 80033fe:	60fb      	str	r3, [r7, #12]
  assert_param(IS_USART_PARITY(husart->Init.Parity));
  assert_param(IS_USART_MODE(husart->Init.Mode));

  /* The LBCL, CPOL and CPHA bits have to be selected when both the transmitter and the
     receiver are disabled (TE=RE=0) to ensure that the clock pulses function correctly. */
  CLEAR_BIT(husart->Instance->CR1, (USART_CR1_TE | USART_CR1_RE));
 8003400:	687b      	ldr	r3, [r7, #4]
 8003402:	681b      	ldr	r3, [r3, #0]
 8003404:	68da      	ldr	r2, [r3, #12]
 8003406:	687b      	ldr	r3, [r7, #4]
 8003408:	681b      	ldr	r3, [r3, #0]
 800340a:	f022 020c 	bic.w	r2, r2, #12
 800340e:	60da      	str	r2, [r3, #12]

  /*---------------------------- USART CR2 Configuration ---------------------*/
  tmpreg = husart->Instance->CR2;
 8003410:	687b      	ldr	r3, [r7, #4]
 8003412:	681b      	ldr	r3, [r3, #0]
 8003414:	691b      	ldr	r3, [r3, #16]
 8003416:	60fb      	str	r3, [r7, #12]
  /* Clear CLKEN, CPOL, CPHA and LBCL bits */
  tmpreg &= (uint32_t)~((uint32_t)(USART_CR2_CPHA | USART_CR2_CPOL | USART_CR2_CLKEN | USART_CR2_LBCL | USART_CR2_STOP));
 8003418:	68fb      	ldr	r3, [r7, #12]
 800341a:	f423 537c 	bic.w	r3, r3, #16128	; 0x3f00
 800341e:	60fb      	str	r3, [r7, #12]
  /* Configure the USART Clock, CPOL, CPHA and LastBit -----------------------*/
  /* Set CPOL bit according to husart->Init.CLKPolarity value */
  /* Set CPHA bit according to husart->Init.CLKPhase value */
  /* Set LBCL bit according to husart->Init.CLKLastBit value */
  /* Set Stop Bits: Set STOP[13:12] bits according to husart->Init.StopBits value */
  tmpreg |= (uint32_t)(USART_CLOCK_ENABLE | husart->Init.CLKPolarity |
 8003420:	687b      	ldr	r3, [r7, #4]
 8003422:	699a      	ldr	r2, [r3, #24]
                       husart->Init.CLKPhase | husart->Init.CLKLastBit | husart->Init.StopBits);
 8003424:	687b      	ldr	r3, [r7, #4]
 8003426:	69db      	ldr	r3, [r3, #28]
  tmpreg |= (uint32_t)(USART_CLOCK_ENABLE | husart->Init.CLKPolarity |
 8003428:	431a      	orrs	r2, r3
                       husart->Init.CLKPhase | husart->Init.CLKLastBit | husart->Init.StopBits);
 800342a:	687b      	ldr	r3, [r7, #4]
 800342c:	6a1b      	ldr	r3, [r3, #32]
 800342e:	431a      	orrs	r2, r3
 8003430:	687b      	ldr	r3, [r7, #4]
 8003432:	68db      	ldr	r3, [r3, #12]
  tmpreg |= (uint32_t)(USART_CLOCK_ENABLE | husart->Init.CLKPolarity |
 8003434:	431a      	orrs	r2, r3
 8003436:	68fb      	ldr	r3, [r7, #12]
 8003438:	4313      	orrs	r3, r2
 800343a:	f443 6300 	orr.w	r3, r3, #2048	; 0x800
 800343e:	60fb      	str	r3, [r7, #12]
  /* Write to USART CR2 */
  WRITE_REG(husart->Instance->CR2, (uint32_t)tmpreg);
 8003440:	687b      	ldr	r3, [r7, #4]
 8003442:	681b      	ldr	r3, [r3, #0]
 8003444:	68fa      	ldr	r2, [r7, #12]
 8003446:	611a      	str	r2, [r3, #16]

  /*-------------------------- USART CR1 Configuration -----------------------*/
  tmpreg = husart->Instance->CR1;
 8003448:	687b      	ldr	r3, [r7, #4]
 800344a:	681b      	ldr	r3, [r3, #0]
 800344c:	68db      	ldr	r3, [r3, #12]
 800344e:	60fb      	str	r3, [r7, #12]

  /* Clear M, PCE, PS, TE and RE bits */
  tmpreg &= (uint32_t)~((uint32_t)(USART_CR1_M | USART_CR1_PCE | USART_CR1_PS | USART_CR1_TE | USART_CR1_RE));
 8003450:	68fb      	ldr	r3, [r7, #12]
 8003452:	f423 53b0 	bic.w	r3, r3, #5632	; 0x1600
 8003456:	f023 030c 	bic.w	r3, r3, #12
 800345a:	60fb      	str	r3, [r7, #12]
  /* Configure the USART Word Length, Parity and mode:
     Set the M bits according to husart->Init.WordLength value
     Set PCE and PS bits according to husart->Init.Parity value
     Set TE and RE bits according to husart->Init.Mode value
   */
  tmpreg |= (uint32_t)husart->Init.WordLength | husart->Init.Parity | husart->Init.Mode;
 800345c:	687b      	ldr	r3, [r7, #4]
 800345e:	689a      	ldr	r2, [r3, #8]
 8003460:	687b      	ldr	r3, [r7, #4]
 8003462:	691b      	ldr	r3, [r3, #16]
 8003464:	431a      	orrs	r2, r3
 8003466:	687b      	ldr	r3, [r7, #4]
 8003468:	695b      	ldr	r3, [r3, #20]
 800346a:	4313      	orrs	r3, r2
 800346c:	68fa      	ldr	r2, [r7, #12]
 800346e:	4313      	orrs	r3, r2
 8003470:	60fb      	str	r3, [r7, #12]

  /* Write to USART CR1 */
  WRITE_REG(husart->Instance->CR1, (uint32_t)tmpreg);
 8003472:	687b      	ldr	r3, [r7, #4]
 8003474:	681b      	ldr	r3, [r3, #0]
 8003476:	68fa      	ldr	r2, [r7, #12]
 8003478:	60da      	str	r2, [r3, #12]

  /*-------------------------- USART CR3 Configuration -----------------------*/
  /* Clear CTSE and RTSE bits */
  CLEAR_BIT(husart->Instance->CR3, (USART_CR3_RTSE | USART_CR3_CTSE));
 800347a:	687b      	ldr	r3, [r7, #4]
 800347c:	681b      	ldr	r3, [r3, #0]
 800347e:	695a      	ldr	r2, [r3, #20]
 8003480:	687b      	ldr	r3, [r7, #4]
 8003482:	681b      	ldr	r3, [r3, #0]
 8003484:	f422 7240 	bic.w	r2, r2, #768	; 0x300
 8003488:	615a      	str	r2, [r3, #20]

  /*-------------------------- USART BRR Configuration -----------------------*/
  if((husart->Instance == USART1))
 800348a:	687b      	ldr	r3, [r7, #4]
 800348c:	681b      	ldr	r3, [r3, #0]
 800348e:	4a53      	ldr	r2, [pc, #332]	; (80035dc <USART_SetConfig+0x1e8>)
 8003490:	4293      	cmp	r3, r2
 8003492:	d14f      	bne.n	8003534 <USART_SetConfig+0x140>
  {
    pclk = HAL_RCC_GetPCLK2Freq();
 8003494:	f7ff fbfe 	bl	8002c94 <HAL_RCC_GetPCLK2Freq>
 8003498:	60b8      	str	r0, [r7, #8]
    husart->Instance->BRR = USART_BRR(pclk, husart->Init.BaudRate);
 800349a:	68ba      	ldr	r2, [r7, #8]
 800349c:	4613      	mov	r3, r2
 800349e:	009b      	lsls	r3, r3, #2
 80034a0:	4413      	add	r3, r2
 80034a2:	009a      	lsls	r2, r3, #2
 80034a4:	441a      	add	r2, r3
 80034a6:	687b      	ldr	r3, [r7, #4]
 80034a8:	685b      	ldr	r3, [r3, #4]
 80034aa:	009b      	lsls	r3, r3, #2
 80034ac:	fbb2 f3f3 	udiv	r3, r2, r3
 80034b0:	4a4b      	ldr	r2, [pc, #300]	; (80035e0 <USART_SetConfig+0x1ec>)
 80034b2:	fba2 2303 	umull	r2, r3, r2, r3
 80034b6:	095b      	lsrs	r3, r3, #5
 80034b8:	0119      	lsls	r1, r3, #4
 80034ba:	68ba      	ldr	r2, [r7, #8]
 80034bc:	4613      	mov	r3, r2
 80034be:	009b      	lsls	r3, r3, #2
 80034c0:	4413      	add	r3, r2
 80034c2:	009a      	lsls	r2, r3, #2
 80034c4:	441a      	add	r2, r3
 80034c6:	687b      	ldr	r3, [r7, #4]
 80034c8:	685b      	ldr	r3, [r3, #4]
 80034ca:	009b      	lsls	r3, r3, #2
 80034cc:	fbb2 f2f3 	udiv	r2, r2, r3
 80034d0:	4b43      	ldr	r3, [pc, #268]	; (80035e0 <USART_SetConfig+0x1ec>)
 80034d2:	fba3 0302 	umull	r0, r3, r3, r2
 80034d6:	095b      	lsrs	r3, r3, #5
 80034d8:	2064      	movs	r0, #100	; 0x64
 80034da:	fb00 f303 	mul.w	r3, r0, r3
 80034de:	1ad3      	subs	r3, r2, r3
 80034e0:	011b      	lsls	r3, r3, #4
 80034e2:	3332      	adds	r3, #50	; 0x32
 80034e4:	4a3e      	ldr	r2, [pc, #248]	; (80035e0 <USART_SetConfig+0x1ec>)
 80034e6:	fba2 2303 	umull	r2, r3, r2, r3
 80034ea:	095b      	lsrs	r3, r3, #5
 80034ec:	005b      	lsls	r3, r3, #1
 80034ee:	f403 73f0 	and.w	r3, r3, #480	; 0x1e0
 80034f2:	4419      	add	r1, r3
 80034f4:	68ba      	ldr	r2, [r7, #8]
 80034f6:	4613      	mov	r3, r2
 80034f8:	009b      	lsls	r3, r3, #2
 80034fa:	4413      	add	r3, r2
 80034fc:	009a      	lsls	r2, r3, #2
 80034fe:	441a      	add	r2, r3
 8003500:	687b      	ldr	r3, [r7, #4]
 8003502:	685b      	ldr	r3, [r3, #4]
 8003504:	009b      	lsls	r3, r3, #2
 8003506:	fbb2 f2f3 	udiv	r2, r2, r3
 800350a:	4b35      	ldr	r3, [pc, #212]	; (80035e0 <USART_SetConfig+0x1ec>)
 800350c:	fba3 0302 	umull	r0, r3, r3, r2
 8003510:	095b      	lsrs	r3, r3, #5
 8003512:	2064      	movs	r0, #100	; 0x64
 8003514:	fb00 f303 	mul.w	r3, r0, r3
 8003518:	1ad3      	subs	r3, r2, r3
 800351a:	011b      	lsls	r3, r3, #4
 800351c:	3332      	adds	r3, #50	; 0x32
 800351e:	4a30      	ldr	r2, [pc, #192]	; (80035e0 <USART_SetConfig+0x1ec>)
 8003520:	fba2 2303 	umull	r2, r3, r2, r3
 8003524:	095b      	lsrs	r3, r3, #5
 8003526:	f003 020f 	and.w	r2, r3, #15
 800352a:	687b      	ldr	r3, [r7, #4]
 800352c:	681b      	ldr	r3, [r3, #0]
 800352e:	440a      	add	r2, r1
 8003530:	609a      	str	r2, [r3, #8]
  else
  {
    pclk = HAL_RCC_GetPCLK1Freq();
    husart->Instance->BRR = USART_BRR(pclk, husart->Init.BaudRate);
  }
}
 8003532:	e04e      	b.n	80035d2 <USART_SetConfig+0x1de>
    pclk = HAL_RCC_GetPCLK1Freq();
 8003534:	f7ff fb9a 	bl	8002c6c <HAL_RCC_GetPCLK1Freq>
 8003538:	60b8      	str	r0, [r7, #8]
    husart->Instance->BRR = USART_BRR(pclk, husart->Init.BaudRate);
 800353a:	68ba      	ldr	r2, [r7, #8]
 800353c:	4613      	mov	r3, r2
 800353e:	009b      	lsls	r3, r3, #2
 8003540:	4413      	add	r3, r2
 8003542:	009a      	lsls	r2, r3, #2
 8003544:	441a      	add	r2, r3
 8003546:	687b      	ldr	r3, [r7, #4]
 8003548:	685b      	ldr	r3, [r3, #4]
 800354a:	009b      	lsls	r3, r3, #2
 800354c:	fbb2 f3f3 	udiv	r3, r2, r3
 8003550:	4a23      	ldr	r2, [pc, #140]	; (80035e0 <USART_SetConfig+0x1ec>)
 8003552:	fba2 2303 	umull	r2, r3, r2, r3
 8003556:	095b      	lsrs	r3, r3, #5
 8003558:	0119      	lsls	r1, r3, #4
 800355a:	68ba      	ldr	r2, [r7, #8]
 800355c:	4613      	mov	r3, r2
 800355e:	009b      	lsls	r3, r3, #2
 8003560:	4413      	add	r3, r2
 8003562:	009a      	lsls	r2, r3, #2
 8003564:	441a      	add	r2, r3
 8003566:	687b      	ldr	r3, [r7, #4]
 8003568:	685b      	ldr	r3, [r3, #4]
 800356a:	009b      	lsls	r3, r3, #2
 800356c:	fbb2 f2f3 	udiv	r2, r2, r3
 8003570:	4b1b      	ldr	r3, [pc, #108]	; (80035e0 <USART_SetConfig+0x1ec>)
 8003572:	fba3 0302 	umull	r0, r3, r3, r2
 8003576:	095b      	lsrs	r3, r3, #5
 8003578:	2064      	movs	r0, #100	; 0x64
 800357a:	fb00 f303 	mul.w	r3, r0, r3
 800357e:	1ad3      	subs	r3, r2, r3
 8003580:	011b      	lsls	r3, r3, #4
 8003582:	3332      	adds	r3, #50	; 0x32
 8003584:	4a16      	ldr	r2, [pc, #88]	; (80035e0 <USART_SetConfig+0x1ec>)
 8003586:	fba2 2303 	umull	r2, r3, r2, r3
 800358a:	095b      	lsrs	r3, r3, #5
 800358c:	005b      	lsls	r3, r3, #1
 800358e:	f403 73f0 	and.w	r3, r3, #480	; 0x1e0
 8003592:	4419      	add	r1, r3
 8003594:	68ba      	ldr	r2, [r7, #8]
 8003596:	4613      	mov	r3, r2
 8003598:	009b      	lsls	r3, r3, #2
 800359a:	4413      	add	r3, r2
 800359c:	009a      	lsls	r2, r3, #2
 800359e:	441a      	add	r2, r3
 80035a0:	687b      	ldr	r3, [r7, #4]
 80035a2:	685b      	ldr	r3, [r3, #4]
 80035a4:	009b      	lsls	r3, r3, #2
 80035a6:	fbb2 f2f3 	udiv	r2, r2, r3
 80035aa:	4b0d      	ldr	r3, [pc, #52]	; (80035e0 <USART_SetConfig+0x1ec>)
 80035ac:	fba3 0302 	umull	r0, r3, r3, r2
 80035b0:	095b      	lsrs	r3, r3, #5
 80035b2:	2064      	movs	r0, #100	; 0x64
 80035b4:	fb00 f303 	mul.w	r3, r0, r3
 80035b8:	1ad3      	subs	r3, r2, r3
 80035ba:	011b      	lsls	r3, r3, #4
 80035bc:	3332      	adds	r3, #50	; 0x32
 80035be:	4a08      	ldr	r2, [pc, #32]	; (80035e0 <USART_SetConfig+0x1ec>)
 80035c0:	fba2 2303 	umull	r2, r3, r2, r3
 80035c4:	095b      	lsrs	r3, r3, #5
 80035c6:	f003 020f 	and.w	r2, r3, #15
 80035ca:	687b      	ldr	r3, [r7, #4]
 80035cc:	681b      	ldr	r3, [r3, #0]
 80035ce:	440a      	add	r2, r1
 80035d0:	609a      	str	r2, [r3, #8]
}
 80035d2:	bf00      	nop
 80035d4:	3710      	adds	r7, #16
 80035d6:	46bd      	mov	sp, r7
 80035d8:	bd80      	pop	{r7, pc}
 80035da:	bf00      	nop
 80035dc:	40013800 	.word	0x40013800
 80035e0:	51eb851f 	.word	0x51eb851f

080035e4 <memset>:
 80035e4:	4603      	mov	r3, r0
 80035e6:	4402      	add	r2, r0
 80035e8:	4293      	cmp	r3, r2
 80035ea:	d100      	bne.n	80035ee <memset+0xa>
 80035ec:	4770      	bx	lr
 80035ee:	f803 1b01 	strb.w	r1, [r3], #1
 80035f2:	e7f9      	b.n	80035e8 <memset+0x4>

080035f4 <__libc_init_array>:
 80035f4:	b570      	push	{r4, r5, r6, lr}
 80035f6:	2600      	movs	r6, #0
 80035f8:	4d0c      	ldr	r5, [pc, #48]	; (800362c <__libc_init_array+0x38>)
 80035fa:	4c0d      	ldr	r4, [pc, #52]	; (8003630 <__libc_init_array+0x3c>)
 80035fc:	1b64      	subs	r4, r4, r5
 80035fe:	10a4      	asrs	r4, r4, #2
 8003600:	42a6      	cmp	r6, r4
 8003602:	d109      	bne.n	8003618 <__libc_init_array+0x24>
 8003604:	f000 f81a 	bl	800363c <_init>
 8003608:	2600      	movs	r6, #0
 800360a:	4d0a      	ldr	r5, [pc, #40]	; (8003634 <__libc_init_array+0x40>)
 800360c:	4c0a      	ldr	r4, [pc, #40]	; (8003638 <__libc_init_array+0x44>)
 800360e:	1b64      	subs	r4, r4, r5
 8003610:	10a4      	asrs	r4, r4, #2
 8003612:	42a6      	cmp	r6, r4
 8003614:	d105      	bne.n	8003622 <__libc_init_array+0x2e>
 8003616:	bd70      	pop	{r4, r5, r6, pc}
 8003618:	f855 3b04 	ldr.w	r3, [r5], #4
 800361c:	4798      	blx	r3
 800361e:	3601      	adds	r6, #1
 8003620:	e7ee      	b.n	8003600 <__libc_init_array+0xc>
 8003622:	f855 3b04 	ldr.w	r3, [r5], #4
 8003626:	4798      	blx	r3
 8003628:	3601      	adds	r6, #1
 800362a:	e7f2      	b.n	8003612 <__libc_init_array+0x1e>
 800362c:	080039cc 	.word	0x080039cc
 8003630:	080039cc 	.word	0x080039cc
 8003634:	080039cc 	.word	0x080039cc
 8003638:	080039d0 	.word	0x080039d0

0800363c <_init>:
 800363c:	b5f8      	push	{r3, r4, r5, r6, r7, lr}
 800363e:	bf00      	nop
 8003640:	bcf8      	pop	{r3, r4, r5, r6, r7}
 8003642:	bc08      	pop	{r3}
 8003644:	469e      	mov	lr, r3
 8003646:	4770      	bx	lr

08003648 <_fini>:
 8003648:	b5f8      	push	{r3, r4, r5, r6, r7, lr}
 800364a:	bf00      	nop
 800364c:	bcf8      	pop	{r3, r4, r5, r6, r7}
 800364e:	bc08      	pop	{r3}
 8003650:	469e      	mov	lr, r3
 8003652:	4770      	bx	lr
