
Encrypt_M3.elf:     file format elf32-littlearm

Sections:
Idx Name          Size      VMA       LMA       File off  Algn
  0 .isr_vector   0000010c  08000000  08000000  00010000  2**0
                  CONTENTS, ALLOC, LOAD, READONLY, DATA
  1 .text         0000334c  0800010c  0800010c  0001010c  2**2
                  CONTENTS, ALLOC, LOAD, READONLY, CODE
  2 .rodata       000003ac  08003458  08003458  00013458  2**2
                  CONTENTS, ALLOC, LOAD, READONLY, DATA
  3 .ARM.extab    00000000  08003804  08003804  0002000c  2**0
                  CONTENTS
  4 .ARM          00000000  08003804  08003804  0002000c  2**0
                  CONTENTS
  5 .preinit_array 00000000  08003804  08003804  0002000c  2**0
                  CONTENTS, ALLOC, LOAD, DATA
  6 .init_array   00000004  08003804  08003804  00013804  2**2
                  CONTENTS, ALLOC, LOAD, DATA
  7 .fini_array   00000004  08003808  08003808  00013808  2**2
                  CONTENTS, ALLOC, LOAD, DATA
  8 .data         0000000c  20000000  0800380c  00020000  2**2
                  CONTENTS, ALLOC, LOAD, DATA
  9 .bss          000000b8  2000000c  08003818  0002000c  2**2
                  ALLOC
 10 ._user_heap_stack 00000604  200000c4  08003818  000200c4  2**0
                  ALLOC
 11 .ARM.attributes 00000029  00000000  00000000  0002000c  2**0
                  CONTENTS, READONLY
 12 .debug_info   0000934b  00000000  00000000  00020035  2**0
                  CONTENTS, READONLY, DEBUGGING, OCTETS
 13 .debug_abbrev 00001923  00000000  00000000  00029380  2**0
                  CONTENTS, READONLY, DEBUGGING, OCTETS
 14 .debug_aranges 00000938  00000000  00000000  0002aca8  2**3
                  CONTENTS, READONLY, DEBUGGING, OCTETS
 15 .debug_ranges 00000898  00000000  00000000  0002b5e0  2**3
                  CONTENTS, READONLY, DEBUGGING, OCTETS
 16 .debug_macro  000166cb  00000000  00000000  0002be78  2**0
                  CONTENTS, READONLY, DEBUGGING, OCTETS
 17 .debug_line   0000b1c2  00000000  00000000  00042543  2**0
                  CONTENTS, READONLY, DEBUGGING, OCTETS
 18 .debug_str    0008087b  00000000  00000000  0004d705  2**0
                  CONTENTS, READONLY, DEBUGGING, OCTETS
 19 .comment      00000050  00000000  00000000  000cdf80  2**0
                  CONTENTS, READONLY
 20 .debug_frame  0000259c  00000000  00000000  000cdfd0  2**2
                  CONTENTS, READONLY, DEBUGGING, OCTETS

Disassembly of section .text:

0800010c <__do_global_dtors_aux>:
 800010c:	b510      	push	{r4, lr}
 800010e:	4c05      	ldr	r4, [pc, #20]	; (8000124 <__do_global_dtors_aux+0x18>)
 8000110:	7823      	ldrb	r3, [r4, #0]
 8000112:	b933      	cbnz	r3, 8000122 <__do_global_dtors_aux+0x16>
 8000114:	4b04      	ldr	r3, [pc, #16]	; (8000128 <__do_global_dtors_aux+0x1c>)
 8000116:	b113      	cbz	r3, 800011e <__do_global_dtors_aux+0x12>
 8000118:	4804      	ldr	r0, [pc, #16]	; (800012c <__do_global_dtors_aux+0x20>)
 800011a:	f3af 8000 	nop.w
 800011e:	2301      	movs	r3, #1
 8000120:	7023      	strb	r3, [r4, #0]
 8000122:	bd10      	pop	{r4, pc}
 8000124:	2000000c 	.word	0x2000000c
 8000128:	00000000 	.word	0x00000000
 800012c:	08003440 	.word	0x08003440

08000130 <frame_dummy>:
 8000130:	b508      	push	{r3, lr}
 8000132:	4b03      	ldr	r3, [pc, #12]	; (8000140 <frame_dummy+0x10>)
 8000134:	b11b      	cbz	r3, 800013e <frame_dummy+0xe>
 8000136:	4903      	ldr	r1, [pc, #12]	; (8000144 <frame_dummy+0x14>)
 8000138:	4803      	ldr	r0, [pc, #12]	; (8000148 <frame_dummy+0x18>)
 800013a:	f3af 8000 	nop.w
 800013e:	bd08      	pop	{r3, pc}
 8000140:	00000000 	.word	0x00000000
 8000144:	20000010 	.word	0x20000010
 8000148:	08003440 	.word	0x08003440

0800014c <atCRC>:
#include "ATSHA204.h"

extern I2C_HandleTypeDef hi2c2;

void atCRC(uint8_t *data, uint8_t size)
{
 800014c:	b480      	push	{r7}
 800014e:	b087      	sub	sp, #28
 8000150:	af00      	add	r7, sp, #0
 8000152:	6078      	str	r0, [r7, #4]
 8000154:	460b      	mov	r3, r1
 8000156:	70fb      	strb	r3, [r7, #3]
    uint8_t counter;
    uint16_t crc_register = 0;
 8000158:	2300      	movs	r3, #0
 800015a:	82bb      	strh	r3, [r7, #20]
    uint16_t polynom = 0x8005;
 800015c:	f248 0305 	movw	r3, #32773	; 0x8005
 8000160:	823b      	strh	r3, [r7, #16]
    uint8_t shift_register;
    uint8_t data_bit, crc_bit;

    for (counter = 1; counter < (size - 2); counter++)
 8000162:	2301      	movs	r3, #1
 8000164:	75fb      	strb	r3, [r7, #23]
 8000166:	e027      	b.n	80001b8 <atCRC+0x6c>
    {
        for (shift_register = 0x01; shift_register > 0x00; shift_register <<= 1)
 8000168:	2301      	movs	r3, #1
 800016a:	74fb      	strb	r3, [r7, #19]
 800016c:	e01e      	b.n	80001ac <atCRC+0x60>
        {
            data_bit = (data[counter] & shift_register) ? 1 : 0;
 800016e:	7dfb      	ldrb	r3, [r7, #23]
 8000170:	687a      	ldr	r2, [r7, #4]
 8000172:	4413      	add	r3, r2
 8000174:	781a      	ldrb	r2, [r3, #0]
 8000176:	7cfb      	ldrb	r3, [r7, #19]
 8000178:	4013      	ands	r3, r2
 800017a:	b2db      	uxtb	r3, r3
 800017c:	2b00      	cmp	r3, #0
 800017e:	bf14      	ite	ne
 8000180:	2301      	movne	r3, #1
 8000182:	2300      	moveq	r3, #0
 8000184:	b2db      	uxtb	r3, r3
 8000186:	73fb      	strb	r3, [r7, #15]
            crc_bit = crc_register >> 15;
 8000188:	8abb      	ldrh	r3, [r7, #20]
 800018a:	0bdb      	lsrs	r3, r3, #15
 800018c:	b29b      	uxth	r3, r3
 800018e:	73bb      	strb	r3, [r7, #14]
            crc_register <<= 1;
 8000190:	8abb      	ldrh	r3, [r7, #20]
 8000192:	005b      	lsls	r3, r3, #1
 8000194:	82bb      	strh	r3, [r7, #20]
            if (data_bit != crc_bit)
 8000196:	7bfa      	ldrb	r2, [r7, #15]
 8000198:	7bbb      	ldrb	r3, [r7, #14]
 800019a:	429a      	cmp	r2, r3
 800019c:	d003      	beq.n	80001a6 <atCRC+0x5a>
            {
                crc_register ^= polynom;
 800019e:	8aba      	ldrh	r2, [r7, #20]
 80001a0:	8a3b      	ldrh	r3, [r7, #16]
 80001a2:	4053      	eors	r3, r2
 80001a4:	82bb      	strh	r3, [r7, #20]
        for (shift_register = 0x01; shift_register > 0x00; shift_register <<= 1)
 80001a6:	7cfb      	ldrb	r3, [r7, #19]
 80001a8:	005b      	lsls	r3, r3, #1
 80001aa:	74fb      	strb	r3, [r7, #19]
 80001ac:	7cfb      	ldrb	r3, [r7, #19]
 80001ae:	2b00      	cmp	r3, #0
 80001b0:	d1dd      	bne.n	800016e <atCRC+0x22>
    for (counter = 1; counter < (size - 2); counter++)
 80001b2:	7dfb      	ldrb	r3, [r7, #23]
 80001b4:	3301      	adds	r3, #1
 80001b6:	75fb      	strb	r3, [r7, #23]
 80001b8:	7dfa      	ldrb	r2, [r7, #23]
 80001ba:	78fb      	ldrb	r3, [r7, #3]
 80001bc:	3b02      	subs	r3, #2
 80001be:	429a      	cmp	r2, r3
 80001c0:	dbd2      	blt.n	8000168 <atCRC+0x1c>
            }
        }
    }
    data[size - 2] = (uint8_t)(crc_register & 0x00FF);
 80001c2:	78fb      	ldrb	r3, [r7, #3]
 80001c4:	3b02      	subs	r3, #2
 80001c6:	687a      	ldr	r2, [r7, #4]
 80001c8:	4413      	add	r3, r2
 80001ca:	8aba      	ldrh	r2, [r7, #20]
 80001cc:	b2d2      	uxtb	r2, r2
 80001ce:	701a      	strb	r2, [r3, #0]
    data[size - 1] = (uint8_t)(crc_register >> 8);
 80001d0:	8abb      	ldrh	r3, [r7, #20]
 80001d2:	0a1b      	lsrs	r3, r3, #8
 80001d4:	b299      	uxth	r1, r3
 80001d6:	78fb      	ldrb	r3, [r7, #3]
 80001d8:	3b01      	subs	r3, #1
 80001da:	687a      	ldr	r2, [r7, #4]
 80001dc:	4413      	add	r3, r2
 80001de:	b2ca      	uxtb	r2, r1
 80001e0:	701a      	strb	r2, [r3, #0]
}
 80001e2:	bf00      	nop
 80001e4:	371c      	adds	r7, #28
 80001e6:	46bd      	mov	sp, r7
 80001e8:	bc80      	pop	{r7}
 80001ea:	4770      	bx	lr

080001ec <WakeUp>:
						 0xE5, 0xE6, 0xE7, 0xE8, 0xE9, 0xEA, 0xE0, 0xE1, 0xE2, 0xE3, 0xE4, 0xE5, 0xE6, 0xE7, 0xE8, 0xE9};
uint8_t DATA4[] = 		{0xF0, 0xF1, 0xF2, 0xF3, 0xF4, 0xF5, 0xF6, 0xF7, 0xF8, 0xF9, 0xFA, 0xF0, 0xF1, 0xF2, 0xF3, 0xF4,
						 0xF5, 0xF6, 0xF7, 0xF8, 0xF9, 0xFA, 0xF0, 0xF1, 0xF2, 0xF3, 0xF4, 0xF5, 0xF6, 0xF7, 0xF8, 0xF9};


void WakeUp(uint8_t *receiv){
 80001ec:	b580      	push	{r7, lr}
 80001ee:	b086      	sub	sp, #24
 80001f0:	af02      	add	r7, sp, #8
 80001f2:	6078      	str	r0, [r7, #4]

	uint8_t data = 0;
 80001f4:	2300      	movs	r3, #0
 80001f6:	73fb      	strb	r3, [r7, #15]

	HAL_I2C_Master_Receive(&hi2c2, 0xFE, &data, sizeof(data), 1000);
 80001f8:	f107 020f 	add.w	r2, r7, #15
 80001fc:	f44f 737a 	mov.w	r3, #1000	; 0x3e8
 8000200:	9300      	str	r3, [sp, #0]
 8000202:	2301      	movs	r3, #1
 8000204:	21fe      	movs	r1, #254	; 0xfe
 8000206:	4818      	ldr	r0, [pc, #96]	; (8000268 <WakeUp+0x7c>)
 8000208:	f001 fad2 	bl	80017b0 <HAL_I2C_Master_Receive>
	HAL_Delay(5); // 2.5 ms para acordar; 45 ms para entrar em sleep
 800020c:	2005      	movs	r0, #5
 800020e:	f000 fd61 	bl	8000cd4 <HAL_Delay>
	// first read: 0 byte read - should receive an ACK

	HAL_I2C_Master_Receive(&hi2c2, I2C_ADDRESS, &data, 1, 1000);
 8000212:	f107 020f 	add.w	r2, r7, #15
 8000216:	f44f 737a 	mov.w	r3, #1000	; 0x3e8
 800021a:	9300      	str	r3, [sp, #0]
 800021c:	2301      	movs	r3, #1
 800021e:	21c8      	movs	r1, #200	; 0xc8
 8000220:	4811      	ldr	r0, [pc, #68]	; (8000268 <WakeUp+0x7c>)
 8000222:	f001 fac5 	bl	80017b0 <HAL_I2C_Master_Receive>
	HAL_Delay(5);
 8000226:	2005      	movs	r0, #5
 8000228:	f000 fd54 	bl	8000cd4 <HAL_Delay>

	// Read 88bytes
	HAL_I2C_Master_Transmit(&hi2c2, I2C_ADDRESS, &data, sizeof(data), 1000);		// Send 1 byte
 800022c:	f107 020f 	add.w	r2, r7, #15
 8000230:	f44f 737a 	mov.w	r3, #1000	; 0x3e8
 8000234:	9300      	str	r3, [sp, #0]
 8000236:	2301      	movs	r3, #1
 8000238:	21c8      	movs	r1, #200	; 0xc8
 800023a:	480b      	ldr	r0, [pc, #44]	; (8000268 <WakeUp+0x7c>)
 800023c:	f001 f9ba 	bl	80015b4 <HAL_I2C_Master_Transmit>
	HAL_Delay(5);
 8000240:	2005      	movs	r0, #5
 8000242:	f000 fd47 	bl	8000cd4 <HAL_Delay>
	HAL_I2C_Master_Receive(&hi2c2, I2C_ADDRESS, receiv, 4, 1000); 		    	// Receiv: 0x04, 0x11, 0x33, 0x43.
 8000246:	f44f 737a 	mov.w	r3, #1000	; 0x3e8
 800024a:	9300      	str	r3, [sp, #0]
 800024c:	2304      	movs	r3, #4
 800024e:	687a      	ldr	r2, [r7, #4]
 8000250:	21c8      	movs	r1, #200	; 0xc8
 8000252:	4805      	ldr	r0, [pc, #20]	; (8000268 <WakeUp+0x7c>)
 8000254:	f001 faac 	bl	80017b0 <HAL_I2C_Master_Receive>
	HAL_Delay(5);
 8000258:	2005      	movs	r0, #5
 800025a:	f000 fd3b 	bl	8000cd4 <HAL_Delay>
}
 800025e:	bf00      	nop
 8000260:	3710      	adds	r7, #16
 8000262:	46bd      	mov	sp, r7
 8000264:	bd80      	pop	{r7, pc}
 8000266:	bf00      	nop
 8000268:	20000028 	.word	0x20000028

0800026c <ReadConfig>:


void ReadConfig(uint8_t *data, uint16_t size, uint8_t *receiv) {
 800026c:	b580      	push	{r7, lr}
 800026e:	b086      	sub	sp, #24
 8000270:	af02      	add	r7, sp, #8
 8000272:	60f8      	str	r0, [r7, #12]
 8000274:	460b      	mov	r3, r1
 8000276:	607a      	str	r2, [r7, #4]
 8000278:	817b      	strh	r3, [r7, #10]

	HAL_I2C_Master_Transmit(&hi2c2, I2C_ADDRESS, data, 8, 1000); 		    // Send read command
 800027a:	f44f 737a 	mov.w	r3, #1000	; 0x3e8
 800027e:	9300      	str	r3, [sp, #0]
 8000280:	2308      	movs	r3, #8
 8000282:	68fa      	ldr	r2, [r7, #12]
 8000284:	21c8      	movs	r1, #200	; 0xc8
 8000286:	480b      	ldr	r0, [pc, #44]	; (80002b4 <ReadConfig+0x48>)
 8000288:	f001 f994 	bl	80015b4 <HAL_I2C_Master_Transmit>
	HAL_Delay(5);
 800028c:	2005      	movs	r0, #5
 800028e:	f000 fd21 	bl	8000cd4 <HAL_Delay>
	HAL_I2C_Master_Receive(&hi2c2, I2C_ADDRESS, receiv, size, 1000); 	        // Receive: data packet size, 0x01 0x23..., CRC_LSB, CRC_MSB
 8000292:	897b      	ldrh	r3, [r7, #10]
 8000294:	f44f 727a 	mov.w	r2, #1000	; 0x3e8
 8000298:	9200      	str	r2, [sp, #0]
 800029a:	687a      	ldr	r2, [r7, #4]
 800029c:	21c8      	movs	r1, #200	; 0xc8
 800029e:	4805      	ldr	r0, [pc, #20]	; (80002b4 <ReadConfig+0x48>)
 80002a0:	f001 fa86 	bl	80017b0 <HAL_I2C_Master_Receive>
	HAL_Delay(5);
 80002a4:	2005      	movs	r0, #5
 80002a6:	f000 fd15 	bl	8000cd4 <HAL_Delay>
}
 80002aa:	bf00      	nop
 80002ac:	3710      	adds	r7, #16
 80002ae:	46bd      	mov	sp, r7
 80002b0:	bd80      	pop	{r7, pc}
 80002b2:	bf00      	nop
 80002b4:	20000028 	.word	0x20000028

080002b8 <BlockConfigZone>:
	HAL_I2C_Master_Transmit(&hi2c2, I2C_ADDRESS, configSlot14_15, sizeof(configSlot14_15), 1000);
	HAL_Delay(5);
}


void BlockConfigZone(uint8_t *receiv){
 80002b8:	b580      	push	{r7, lr}
 80002ba:	b086      	sub	sp, #24
 80002bc:	af02      	add	r7, sp, #8
 80002be:	6078      	str	r0, [r7, #4]

	// Lock command: {COMMAND, COUNT, OPCODE, ZONE, CRC_88_LSB,  CRC_88_MSB, CRC_LSB, CRC_MSB}
	uint8_t blockConfig[] = { COMMAND, SIZE_BLOCK_CONFIG, COMMAND_LOCK, ZONE_CONFIG_LOCK, 0xb5, 0x0b,/*0xc4, 0xe1*/ 0x00, 0x00};
 80002c0:	4a14      	ldr	r2, [pc, #80]	; (8000314 <BlockConfigZone+0x5c>)
 80002c2:	f107 0308 	add.w	r3, r7, #8
 80002c6:	e892 0003 	ldmia.w	r2, {r0, r1}
 80002ca:	e883 0003 	stmia.w	r3, {r0, r1}
	atCRC(blockConfig,sizeof(blockConfig));
 80002ce:	f107 0308 	add.w	r3, r7, #8
 80002d2:	2108      	movs	r1, #8
 80002d4:	4618      	mov	r0, r3
 80002d6:	f7ff ff39 	bl	800014c <atCRC>
	HAL_I2C_Master_Transmit(&hi2c2, I2C_ADDRESS, blockConfig, sizeof(blockConfig), 1000);
 80002da:	f107 0208 	add.w	r2, r7, #8
 80002de:	f44f 737a 	mov.w	r3, #1000	; 0x3e8
 80002e2:	9300      	str	r3, [sp, #0]
 80002e4:	2308      	movs	r3, #8
 80002e6:	21c8      	movs	r1, #200	; 0xc8
 80002e8:	480b      	ldr	r0, [pc, #44]	; (8000318 <BlockConfigZone+0x60>)
 80002ea:	f001 f963 	bl	80015b4 <HAL_I2C_Master_Transmit>
	HAL_Delay(5);
 80002ee:	2005      	movs	r0, #5
 80002f0:	f000 fcf0 	bl	8000cd4 <HAL_Delay>
	HAL_I2C_Master_Receive(&hi2c2, I2C_ADDRESS, receiv, 1, 1000);
 80002f4:	f44f 737a 	mov.w	r3, #1000	; 0x3e8
 80002f8:	9300      	str	r3, [sp, #0]
 80002fa:	2301      	movs	r3, #1
 80002fc:	687a      	ldr	r2, [r7, #4]
 80002fe:	21c8      	movs	r1, #200	; 0xc8
 8000300:	4805      	ldr	r0, [pc, #20]	; (8000318 <BlockConfigZone+0x60>)
 8000302:	f001 fa55 	bl	80017b0 <HAL_I2C_Master_Receive>
	HAL_Delay(5);
 8000306:	2005      	movs	r0, #5
 8000308:	f000 fce4 	bl	8000cd4 <HAL_Delay>
}
 800030c:	bf00      	nop
 800030e:	3710      	adds	r7, #16
 8000310:	46bd      	mov	sp, r7
 8000312:	bd80      	pop	{r7, pc}
 8000314:	080034b8 	.word	0x080034b8
 8000318:	20000028 	.word	0x20000028

0800031c <BlockDataZone>:
		HAL_I2C_Master_Transmit(&hi2c2, 0xC8, writeOTP, sizeof(writeOTP), 1000);
		HAL_Delay(5);
	}
}

void BlockDataZone(void){
 800031c:	b580      	push	{r7, lr}
 800031e:	b084      	sub	sp, #16
 8000320:	af02      	add	r7, sp, #8

	// Lock command: {COMMAND, COUNT, OPCODE, ZONE, CRC_DATA_OTP_LSB, CRC_DATA_OTP_MSB, CRC_LSB, CRC_MSB}
	//Data and OTP Zone: Seus conteúdos são concatenados nessa ordem para criar a entrada para o algoritmo CRC
	uint8_t blockConfig[] = { COMMAND, SIZE_BLOCK_CONFIG, COMMAND_LOCK, ZONE_DATA_LOCK, 0x04, 0x58, /*0x66, 0xc7*/ 0x00, 0x00};
 8000322:	4a0d      	ldr	r2, [pc, #52]	; (8000358 <BlockDataZone+0x3c>)
 8000324:	463b      	mov	r3, r7
 8000326:	e892 0003 	ldmia.w	r2, {r0, r1}
 800032a:	e883 0003 	stmia.w	r3, {r0, r1}
	atCRC(blockConfig,sizeof(blockConfig));
 800032e:	463b      	mov	r3, r7
 8000330:	2108      	movs	r1, #8
 8000332:	4618      	mov	r0, r3
 8000334:	f7ff ff0a 	bl	800014c <atCRC>
	HAL_I2C_Master_Transmit(&hi2c2, I2C_ADDRESS, blockConfig, sizeof(blockConfig), 1000);
 8000338:	463a      	mov	r2, r7
 800033a:	f44f 737a 	mov.w	r3, #1000	; 0x3e8
 800033e:	9300      	str	r3, [sp, #0]
 8000340:	2308      	movs	r3, #8
 8000342:	21c8      	movs	r1, #200	; 0xc8
 8000344:	4805      	ldr	r0, [pc, #20]	; (800035c <BlockDataZone+0x40>)
 8000346:	f001 f935 	bl	80015b4 <HAL_I2C_Master_Transmit>
	HAL_Delay(5);
 800034a:	2005      	movs	r0, #5
 800034c:	f000 fcc2 	bl	8000cd4 <HAL_Delay>
}
 8000350:	bf00      	nop
 8000352:	3708      	adds	r7, #8
 8000354:	46bd      	mov	sp, r7
 8000356:	bd80      	pop	{r7, pc}
 8000358:	08003740 	.word	0x08003740
 800035c:	20000028 	.word	0x20000028

08000360 <ReadDataZone>:


void ReadDataZone(uint8_t *data, uint16_t size, uint8_t *receiv) {
 8000360:	b580      	push	{r7, lr}
 8000362:	b086      	sub	sp, #24
 8000364:	af02      	add	r7, sp, #8
 8000366:	60f8      	str	r0, [r7, #12]
 8000368:	460b      	mov	r3, r1
 800036a:	607a      	str	r2, [r7, #4]
 800036c:	817b      	strh	r3, [r7, #10]

	HAL_I2C_Master_Transmit(&hi2c2, I2C_ADDRESS, data, 8, 1000);
 800036e:	f44f 737a 	mov.w	r3, #1000	; 0x3e8
 8000372:	9300      	str	r3, [sp, #0]
 8000374:	2308      	movs	r3, #8
 8000376:	68fa      	ldr	r2, [r7, #12]
 8000378:	21c8      	movs	r1, #200	; 0xc8
 800037a:	480b      	ldr	r0, [pc, #44]	; (80003a8 <ReadDataZone+0x48>)
 800037c:	f001 f91a 	bl	80015b4 <HAL_I2C_Master_Transmit>
	HAL_Delay(5);
 8000380:	2005      	movs	r0, #5
 8000382:	f000 fca7 	bl	8000cd4 <HAL_Delay>
	HAL_I2C_Master_Receive(&hi2c2, I2C_ADDRESS, receiv, size, 1000);
 8000386:	897b      	ldrh	r3, [r7, #10]
 8000388:	f44f 727a 	mov.w	r2, #1000	; 0x3e8
 800038c:	9200      	str	r2, [sp, #0]
 800038e:	687a      	ldr	r2, [r7, #4]
 8000390:	21c8      	movs	r1, #200	; 0xc8
 8000392:	4805      	ldr	r0, [pc, #20]	; (80003a8 <ReadDataZone+0x48>)
 8000394:	f001 fa0c 	bl	80017b0 <HAL_I2C_Master_Receive>
	HAL_Delay(5);
 8000398:	2005      	movs	r0, #5
 800039a:	f000 fc9b 	bl	8000cd4 <HAL_Delay>
}
 800039e:	bf00      	nop
 80003a0:	3710      	adds	r7, #16
 80003a2:	46bd      	mov	sp, r7
 80003a4:	bd80      	pop	{r7, pc}
 80003a6:	bf00      	nop
 80003a8:	20000028 	.word	0x20000028

080003ac <TempKeyGen>:
	HAL_I2C_Master_Receive(&hi2c2, I2C_ADDRESS, receiv, size, 1000);
	HAL_Delay(5);
}


void TempKeyGen(uint8_t *data, uint8_t *NumIn, uint8_t mode, uint8_t size_in, uint8_t size_out, uint8_t *receive){
 80003ac:	e92d 43f0 	stmdb	sp!, {r4, r5, r6, r7, r8, r9, lr}
 80003b0:	b08b      	sub	sp, #44	; 0x2c
 80003b2:	af02      	add	r7, sp, #8
 80003b4:	60f8      	str	r0, [r7, #12]
 80003b6:	60b9      	str	r1, [r7, #8]
 80003b8:	4611      	mov	r1, r2
 80003ba:	461a      	mov	r2, r3
 80003bc:	460b      	mov	r3, r1
 80003be:	71fb      	strb	r3, [r7, #7]
 80003c0:	4613      	mov	r3, r2
 80003c2:	71bb      	strb	r3, [r7, #6]
 80003c4:	466b      	mov	r3, sp
 80003c6:	461e      	mov	r6, r3

	 uint8_t op_mode;
	 op_mode = mode;
 80003c8:	79fb      	ldrb	r3, [r7, #7]
 80003ca:	777b      	strb	r3, [r7, #29]
	// Tempkey [] = {RandOut, NumIn_receiv, COMMAND_NONCE, NONCE_MODE0, LSB_Param, CRC_LSB, CRC_MSB};
	uint8_t Tempkey[size_in];
 80003cc:	79b9      	ldrb	r1, [r7, #6]
 80003ce:	460b      	mov	r3, r1
 80003d0:	3b01      	subs	r3, #1
 80003d2:	61bb      	str	r3, [r7, #24]
 80003d4:	b2cb      	uxtb	r3, r1
 80003d6:	2200      	movs	r2, #0
 80003d8:	4698      	mov	r8, r3
 80003da:	4691      	mov	r9, r2
 80003dc:	f04f 0200 	mov.w	r2, #0
 80003e0:	f04f 0300 	mov.w	r3, #0
 80003e4:	ea4f 03c9 	mov.w	r3, r9, lsl #3
 80003e8:	ea43 7358 	orr.w	r3, r3, r8, lsr #29
 80003ec:	ea4f 02c8 	mov.w	r2, r8, lsl #3
 80003f0:	b2cb      	uxtb	r3, r1
 80003f2:	2200      	movs	r2, #0
 80003f4:	461c      	mov	r4, r3
 80003f6:	4615      	mov	r5, r2
 80003f8:	f04f 0200 	mov.w	r2, #0
 80003fc:	f04f 0300 	mov.w	r3, #0
 8000400:	00eb      	lsls	r3, r5, #3
 8000402:	ea43 7354 	orr.w	r3, r3, r4, lsr #29
 8000406:	00e2      	lsls	r2, r4, #3
 8000408:	460b      	mov	r3, r1
 800040a:	3307      	adds	r3, #7
 800040c:	08db      	lsrs	r3, r3, #3
 800040e:	00db      	lsls	r3, r3, #3
 8000410:	ebad 0d03 	sub.w	sp, sp, r3
 8000414:	ab02      	add	r3, sp, #8
 8000416:	3300      	adds	r3, #0
 8000418:	617b      	str	r3, [r7, #20]
	uint8_t LSB_Param = 0x00;
 800041a:	2300      	movs	r3, #0
 800041c:	74fb      	strb	r3, [r7, #19]

	// op_mode = 0x00 -> nonce_gen ; 0x01 -> gendig_gen
	if (op_mode == 0) {
 800041e:	7f7b      	ldrb	r3, [r7, #29]
 8000420:	2b00      	cmp	r3, #0
 8000422:	d121      	bne.n	8000468 <TempKeyGen+0xbc>
		for (uint8_t i = 0; i < 33; i++) {
 8000424:	2300      	movs	r3, #0
 8000426:	77bb      	strb	r3, [r7, #30]
 8000428:	e00a      	b.n	8000440 <TempKeyGen+0x94>
    		Tempkey[i] = data[i+1];
 800042a:	7fbb      	ldrb	r3, [r7, #30]
 800042c:	3301      	adds	r3, #1
 800042e:	68fa      	ldr	r2, [r7, #12]
 8000430:	441a      	add	r2, r3
 8000432:	7fbb      	ldrb	r3, [r7, #30]
 8000434:	7810      	ldrb	r0, [r2, #0]
 8000436:	697a      	ldr	r2, [r7, #20]
 8000438:	54d0      	strb	r0, [r2, r3]
		for (uint8_t i = 0; i < 33; i++) {
 800043a:	7fbb      	ldrb	r3, [r7, #30]
 800043c:	3301      	adds	r3, #1
 800043e:	77bb      	strb	r3, [r7, #30]
 8000440:	7fbb      	ldrb	r3, [r7, #30]
 8000442:	2b20      	cmp	r3, #32
 8000444:	d9f1      	bls.n	800042a <TempKeyGen+0x7e>
    	}

		for (uint8_t i = 0; i < 21; i++){
 8000446:	2300      	movs	r3, #0
 8000448:	77fb      	strb	r3, [r7, #31]
 800044a:	e00a      	b.n	8000462 <TempKeyGen+0xb6>
			Tempkey[33 + i] = NumIn[i];
 800044c:	7ffb      	ldrb	r3, [r7, #31]
 800044e:	68ba      	ldr	r2, [r7, #8]
 8000450:	441a      	add	r2, r3
 8000452:	7ffb      	ldrb	r3, [r7, #31]
 8000454:	3321      	adds	r3, #33	; 0x21
 8000456:	7810      	ldrb	r0, [r2, #0]
 8000458:	697a      	ldr	r2, [r7, #20]
 800045a:	54d0      	strb	r0, [r2, r3]
		for (uint8_t i = 0; i < 21; i++){
 800045c:	7ffb      	ldrb	r3, [r7, #31]
 800045e:	3301      	adds	r3, #1
 8000460:	77fb      	strb	r3, [r7, #31]
 8000462:	7ffb      	ldrb	r3, [r7, #31]
 8000464:	2b14      	cmp	r3, #20
 8000466:	d9f1      	bls.n	800044c <TempKeyGen+0xa0>
		}
	}

	Tempkey[sizeof(Tempkey) - 5] = COMMAND_NONCE ;
 8000468:	460b      	mov	r3, r1
 800046a:	3b05      	subs	r3, #5
 800046c:	697a      	ldr	r2, [r7, #20]
 800046e:	2016      	movs	r0, #22
 8000470:	54d0      	strb	r0, [r2, r3]
	Tempkey[sizeof(Tempkey) - 4] = NONCE_MODE0;
 8000472:	460b      	mov	r3, r1
 8000474:	3b04      	subs	r3, #4
 8000476:	697a      	ldr	r2, [r7, #20]
 8000478:	2000      	movs	r0, #0
 800047a:	54d0      	strb	r0, [r2, r3]
	Tempkey[sizeof(Tempkey) - 3] = LSB_Param;
 800047c:	460b      	mov	r3, r1
 800047e:	3b03      	subs	r3, #3
 8000480:	697a      	ldr	r2, [r7, #20]
 8000482:	7cf8      	ldrb	r0, [r7, #19]
 8000484:	54d0      	strb	r0, [r2, r3]
	Tempkey[sizeof(Tempkey) - 2] = 0x00;
 8000486:	460b      	mov	r3, r1
 8000488:	3b02      	subs	r3, #2
 800048a:	697a      	ldr	r2, [r7, #20]
 800048c:	2000      	movs	r0, #0
 800048e:	54d0      	strb	r0, [r2, r3]
	Tempkey[sizeof(Tempkey) - 1] = 0x00;
 8000490:	460b      	mov	r3, r1
 8000492:	3b01      	subs	r3, #1
 8000494:	697a      	ldr	r2, [r7, #20]
 8000496:	2000      	movs	r0, #0
 8000498:	54d0      	strb	r0, [r2, r3]

	atCRC(Tempkey,sizeof(Tempkey));
 800049a:	6978      	ldr	r0, [r7, #20]
 800049c:	f7ff fe56 	bl	800014c <atCRC>
	HAL_I2C_Master_Transmit(&hi2c2, I2C_ADDRESS, Tempkey, size_in, 1000);
 80004a0:	79bb      	ldrb	r3, [r7, #6]
 80004a2:	b29b      	uxth	r3, r3
 80004a4:	f44f 727a 	mov.w	r2, #1000	; 0x3e8
 80004a8:	9200      	str	r2, [sp, #0]
 80004aa:	697a      	ldr	r2, [r7, #20]
 80004ac:	21c8      	movs	r1, #200	; 0xc8
 80004ae:	480d      	ldr	r0, [pc, #52]	; (80004e4 <TempKeyGen+0x138>)
 80004b0:	f001 f880 	bl	80015b4 <HAL_I2C_Master_Transmit>
	HAL_Delay(30);
 80004b4:	201e      	movs	r0, #30
 80004b6:	f000 fc0d 	bl	8000cd4 <HAL_Delay>
	HAL_I2C_Master_Receive(&hi2c2, I2C_ADDRESS, receive, size_out, 1000);
 80004ba:	f897 3040 	ldrb.w	r3, [r7, #64]	; 0x40
 80004be:	b29b      	uxth	r3, r3
 80004c0:	f44f 727a 	mov.w	r2, #1000	; 0x3e8
 80004c4:	9200      	str	r2, [sp, #0]
 80004c6:	6c7a      	ldr	r2, [r7, #68]	; 0x44
 80004c8:	21c8      	movs	r1, #200	; 0xc8
 80004ca:	4806      	ldr	r0, [pc, #24]	; (80004e4 <TempKeyGen+0x138>)
 80004cc:	f001 f970 	bl	80017b0 <HAL_I2C_Master_Receive>
	HAL_Delay(5);
 80004d0:	2005      	movs	r0, #5
 80004d2:	f000 fbff 	bl	8000cd4 <HAL_Delay>
 80004d6:	46b5      	mov	sp, r6
}
 80004d8:	bf00      	nop
 80004da:	3724      	adds	r7, #36	; 0x24
 80004dc:	46bd      	mov	sp, r7
 80004de:	e8bd 83f0 	ldmia.w	sp!, {r4, r5, r6, r7, r8, r9, pc}
 80004e2:	bf00      	nop
 80004e4:	20000028 	.word	0x20000028

080004e8 <main>:
/**
  * @brief  The application entry point.
  * @retval int
  */
int main(void)
{
 80004e8:	b5b0      	push	{r4, r5, r7, lr}
 80004ea:	b0ee      	sub	sp, #440	; 0x1b8
 80004ec:	af02      	add	r7, sp, #8

  /* MCU Configuration--------------------------------------------------------*/

  /* Reset of all peripherals, Initializes the Flash interface and the Systick. */

	HAL_Init();
 80004ee:	f000 fb8f 	bl	8000c10 <HAL_Init>
  /* USER CODE BEGIN Init */

  /* USER CODE END Init */

  /* Configure the system clock */
  SystemClock_Config();
 80004f2:	f000 f989 	bl	8000808 <SystemClock_Config>
  /* USER CODE BEGIN SysInit */

  /* USER CODE END SysInit */

  /* Initialize all configured peripherals */
  MX_GPIO_Init();
 80004f6:	f000 fa27 	bl	8000948 <MX_GPIO_Init>
  MX_USART1_Init();
 80004fa:	f000 f9f9 	bl	80008f0 <MX_USART1_Init>
  MX_I2C2_Init();
 80004fe:	f000 f9c9 	bl	8000894 <MX_I2C2_Init>
  /* USER CODE BEGIN 2 */

  // read configuration zone: {COMMAND, COUNT, OPCODE, ZONE, ADDRESS_1, ADDRESS_2, CRC_LSB, CRC_MSB}
  uint8_t readCommand0[8] = {0x03, 0x07, 0x02, 0x80, 0x00, 0x00, 0x09, 0xAD};
 8000502:	4ab5      	ldr	r2, [pc, #724]	; (80007d8 <main+0x2f0>)
 8000504:	f507 73d4 	add.w	r3, r7, #424	; 0x1a8
 8000508:	e892 0003 	ldmia.w	r2, {r0, r1}
 800050c:	e883 0003 	stmia.w	r3, {r0, r1}
  uint8_t readCommand1[8] = {0x03, 0x07, 0x02, 0x80, 0x08, 0x00, 0x0a, 0x4d};
 8000510:	4ab2      	ldr	r2, [pc, #712]	; (80007dc <main+0x2f4>)
 8000512:	f507 73d0 	add.w	r3, r7, #416	; 0x1a0
 8000516:	e892 0003 	ldmia.w	r2, {r0, r1}
 800051a:	e883 0003 	stmia.w	r3, {r0, r1}
  uint8_t readCommand2[8] = {0x03, 0x07, 0x02, 0x00, 0x10, 0x00, 0x1d, 0x9d};
 800051e:	4ab0      	ldr	r2, [pc, #704]	; (80007e0 <main+0x2f8>)
 8000520:	f507 73cc 	add.w	r3, r7, #408	; 0x198
 8000524:	e892 0003 	ldmia.w	r2, {r0, r1}
 8000528:	e883 0003 	stmia.w	r3, {r0, r1}
  uint8_t readCommand3[8] = {0x03, 0x07, 0x02, 0x00, 0x11, 0x00, 0x14, 0x1d};
 800052c:	4aad      	ldr	r2, [pc, #692]	; (80007e4 <main+0x2fc>)
 800052e:	f507 73c8 	add.w	r3, r7, #400	; 0x190
 8000532:	e892 0003 	ldmia.w	r2, {r0, r1}
 8000536:	e883 0003 	stmia.w	r3, {r0, r1}
  uint8_t readCommand4[8] = {0x03, 0x07, 0x02, 0x00, 0x12, 0x00, 0x1b, 0x1d};
 800053a:	4aab      	ldr	r2, [pc, #684]	; (80007e8 <main+0x300>)
 800053c:	f507 73c4 	add.w	r3, r7, #392	; 0x188
 8000540:	e892 0003 	ldmia.w	r2, {r0, r1}
 8000544:	e883 0003 	stmia.w	r3, {r0, r1}
  uint8_t readCommand5[8] = {0x03, 0x07, 0x02, 0x00, 0x13, 0x00, 0x12, 0x9d};
 8000548:	4aa8      	ldr	r2, [pc, #672]	; (80007ec <main+0x304>)
 800054a:	f507 73c0 	add.w	r3, r7, #384	; 0x180
 800054e:	e892 0003 	ldmia.w	r2, {r0, r1}
 8000552:	e883 0003 	stmia.w	r3, {r0, r1}
  uint8_t readCommand6[8] = {0x03, 0x07, 0x02, 0x00, 0x14, 0x00, 0x1e, 0xdd};
 8000556:	4aa6      	ldr	r2, [pc, #664]	; (80007f0 <main+0x308>)
 8000558:	f507 73bc 	add.w	r3, r7, #376	; 0x178
 800055c:	e892 0003 	ldmia.w	r2, {r0, r1}
 8000560:	e883 0003 	stmia.w	r3, {r0, r1}
  uint8_t readCommand7[8] = {0x03, 0x07, 0x02, 0x00, 0x15, 0x00, 0x17, 0x5d};
 8000564:	4aa3      	ldr	r2, [pc, #652]	; (80007f4 <main+0x30c>)
 8000566:	f507 73b8 	add.w	r3, r7, #368	; 0x170
 800056a:	e892 0003 	ldmia.w	r2, {r0, r1}
 800056e:	e883 0003 	stmia.w	r3, {r0, r1}

  uint8_t readMASTERKEY[8] = {0x03, 0x07, 0x02, 0x82, 0x70, 0x00, 0x09, 0x8c};
 8000572:	4aa1      	ldr	r2, [pc, #644]	; (80007f8 <main+0x310>)
 8000574:	f507 73b4 	add.w	r3, r7, #360	; 0x168
 8000578:	e892 0003 	ldmia.w	r2, {r0, r1}
 800057c:	e883 0003 	stmia.w	r3, {r0, r1}
  uint8_t readDATA0[8] = {0x03, 0x07, 0x02, 0x82, 0x10, 0x00, 0x09, 0x98};
 8000580:	4a9e      	ldr	r2, [pc, #632]	; (80007fc <main+0x314>)
 8000582:	f507 73b0 	add.w	r3, r7, #352	; 0x160
 8000586:	e892 0003 	ldmia.w	r2, {r0, r1}
 800058a:	e883 0003 	stmia.w	r3, {r0, r1}
  uint8_t readDATA2[8] = {0x03, 0x07, 0x02, 0x82, 0x50, 0x00, 0x0a, 0x14};
 800058e:	4a9c      	ldr	r2, [pc, #624]	; (8000800 <main+0x318>)
 8000590:	f507 73ac 	add.w	r3, r7, #344	; 0x158
 8000594:	e892 0003 	ldmia.w	r2, {r0, r1}
 8000598:	e883 0003 	stmia.w	r3, {r0, r1}

  uint8_t temp_nonce[] = {};

  uint8_t receiv_MASTERKEY[35] = {0};
 800059c:	2300      	movs	r3, #0
 800059e:	f8c7 3134 	str.w	r3, [r7, #308]	; 0x134
 80005a2:	f507 739c 	add.w	r3, r7, #312	; 0x138
 80005a6:	221f      	movs	r2, #31
 80005a8:	2100      	movs	r1, #0
 80005aa:	4618      	mov	r0, r3
 80005ac:	f002 ff40 	bl	8003430 <memset>


  // NONCE
  uint8_t NumIn[20]= {0x01, 0x02, 0x03, 0x04, 0x05, 0x06, 0x07, 0x08, 0x09, 0x00,
 80005b0:	4b94      	ldr	r3, [pc, #592]	; (8000804 <main+0x31c>)
 80005b2:	f507 7490 	add.w	r4, r7, #288	; 0x120
 80005b6:	461d      	mov	r5, r3
 80005b8:	cd0f      	ldmia	r5!, {r0, r1, r2, r3}
 80005ba:	c40f      	stmia	r4!, {r0, r1, r2, r3}
 80005bc:	682b      	ldr	r3, [r5, #0]
 80005be:	6023      	str	r3, [r4, #0]
		  	  	  	  0x01, 0x02, 0x03, 0x04, 0x05, 0x06, 0x07, 0x08, 0x09, 0x00};
  uint8_t nonce_receiv[35] = {0};
 80005c0:	2300      	movs	r3, #0
 80005c2:	f8c7 30fc 	str.w	r3, [r7, #252]	; 0xfc
 80005c6:	f507 7380 	add.w	r3, r7, #256	; 0x100
 80005ca:	221f      	movs	r2, #31
 80005cc:	2100      	movs	r1, #0
 80005ce:	4618      	mov	r0, r3
 80005d0:	f002 ff2e 	bl	8003430 <memset>
  uint8_t tempnonce[35] = {0};
 80005d4:	2300      	movs	r3, #0
 80005d6:	f8c7 30d8 	str.w	r3, [r7, #216]	; 0xd8
 80005da:	f107 03dc 	add.w	r3, r7, #220	; 0xdc
 80005de:	221f      	movs	r2, #31
 80005e0:	2100      	movs	r1, #0
 80005e2:	4618      	mov	r0, r3
 80005e4:	f002 ff24 	bl	8003430 <memset>


  // SHA-256
  uint8_t sha_init[1] = {0};
 80005e8:	2300      	movs	r3, #0
 80005ea:	f887 30d4 	strb.w	r3, [r7, #212]	; 0xd4
  uint8_t SHA_receiv[35] = {0};
 80005ee:	f507 73d8 	add.w	r3, r7, #432	; 0x1b0
 80005f2:	f5a3 7380 	sub.w	r3, r3, #256	; 0x100
 80005f6:	2200      	movs	r2, #0
 80005f8:	601a      	str	r2, [r3, #0]
 80005fa:	3304      	adds	r3, #4
 80005fc:	221f      	movs	r2, #31
 80005fe:	2100      	movs	r1, #0
 8000600:	4618      	mov	r0, r3
 8000602:	f002 ff15 	bl	8003430 <memset>

  // GENDIG
  uint8_t gendig_receiv[4] = {0};
 8000606:	f507 73d8 	add.w	r3, r7, #432	; 0x1b0
 800060a:	f5a3 7382 	sub.w	r3, r3, #260	; 0x104
 800060e:	2200      	movs	r2, #0
 8000610:	601a      	str	r2, [r3, #0]

  uint8_t receiv_DATA2[35] = {0};
 8000612:	f507 73d8 	add.w	r3, r7, #432	; 0x1b0
 8000616:	f5a3 7394 	sub.w	r3, r3, #296	; 0x128
 800061a:	2200      	movs	r2, #0
 800061c:	601a      	str	r2, [r3, #0]
 800061e:	3304      	adds	r3, #4
 8000620:	221f      	movs	r2, #31
 8000622:	2100      	movs	r1, #0
 8000624:	4618      	mov	r0, r3
 8000626:	f002 ff03 	bl	8003430 <memset>


  uint8_t read_byte[4];
  uint8_t receiv_ack[1] = {0};
 800062a:	f507 73d8 	add.w	r3, r7, #432	; 0x1b0
 800062e:	f5a3 7398 	sub.w	r3, r3, #304	; 0x130
 8000632:	2200      	movs	r2, #0
 8000634:	701a      	strb	r2, [r3, #0]

  //uint8_t read_config[32] = {0};
  uint8_t read_config0[35] = {0};
 8000636:	f507 73d8 	add.w	r3, r7, #432	; 0x1b0
 800063a:	f5a3 73aa 	sub.w	r3, r3, #340	; 0x154
 800063e:	2200      	movs	r2, #0
 8000640:	601a      	str	r2, [r3, #0]
 8000642:	3304      	adds	r3, #4
 8000644:	221f      	movs	r2, #31
 8000646:	2100      	movs	r1, #0
 8000648:	4618      	mov	r0, r3
 800064a:	f002 fef1 	bl	8003430 <memset>
  uint8_t read_config1[35] = {0};
 800064e:	f507 73d8 	add.w	r3, r7, #432	; 0x1b0
 8000652:	f5a3 73bc 	sub.w	r3, r3, #376	; 0x178
 8000656:	2200      	movs	r2, #0
 8000658:	601a      	str	r2, [r3, #0]
 800065a:	3304      	adds	r3, #4
 800065c:	221f      	movs	r2, #31
 800065e:	2100      	movs	r1, #0
 8000660:	4618      	mov	r0, r3
 8000662:	f002 fee5 	bl	8003430 <memset>
  uint8_t read_config2[7] = {0};
 8000666:	f507 73d8 	add.w	r3, r7, #432	; 0x1b0
 800066a:	f5a3 73c0 	sub.w	r3, r3, #384	; 0x180
 800066e:	2200      	movs	r2, #0
 8000670:	601a      	str	r2, [r3, #0]
 8000672:	3304      	adds	r3, #4
 8000674:	2100      	movs	r1, #0
 8000676:	460a      	mov	r2, r1
 8000678:	801a      	strh	r2, [r3, #0]
 800067a:	460a      	mov	r2, r1
 800067c:	709a      	strb	r2, [r3, #2]
  uint8_t read_config3[7] = {0};
 800067e:	f507 73d8 	add.w	r3, r7, #432	; 0x1b0
 8000682:	f5a3 73c4 	sub.w	r3, r3, #392	; 0x188
 8000686:	2200      	movs	r2, #0
 8000688:	601a      	str	r2, [r3, #0]
 800068a:	3304      	adds	r3, #4
 800068c:	2100      	movs	r1, #0
 800068e:	460a      	mov	r2, r1
 8000690:	801a      	strh	r2, [r3, #0]
 8000692:	460a      	mov	r2, r1
 8000694:	709a      	strb	r2, [r3, #2]
  uint8_t read_config4[7] = {0};
 8000696:	f507 73d8 	add.w	r3, r7, #432	; 0x1b0
 800069a:	f5a3 73c8 	sub.w	r3, r3, #400	; 0x190
 800069e:	2200      	movs	r2, #0
 80006a0:	601a      	str	r2, [r3, #0]
 80006a2:	3304      	adds	r3, #4
 80006a4:	2100      	movs	r1, #0
 80006a6:	460a      	mov	r2, r1
 80006a8:	801a      	strh	r2, [r3, #0]
 80006aa:	460a      	mov	r2, r1
 80006ac:	709a      	strb	r2, [r3, #2]
  uint8_t read_config5[7] = {0};
 80006ae:	f507 73d8 	add.w	r3, r7, #432	; 0x1b0
 80006b2:	f5a3 73cc 	sub.w	r3, r3, #408	; 0x198
 80006b6:	2200      	movs	r2, #0
 80006b8:	601a      	str	r2, [r3, #0]
 80006ba:	3304      	adds	r3, #4
 80006bc:	2100      	movs	r1, #0
 80006be:	460a      	mov	r2, r1
 80006c0:	801a      	strh	r2, [r3, #0]
 80006c2:	460a      	mov	r2, r1
 80006c4:	709a      	strb	r2, [r3, #2]
  uint8_t read_config6[7] = {0};
 80006c6:	f507 73d8 	add.w	r3, r7, #432	; 0x1b0
 80006ca:	f5a3 73d0 	sub.w	r3, r3, #416	; 0x1a0
 80006ce:	2200      	movs	r2, #0
 80006d0:	601a      	str	r2, [r3, #0]
 80006d2:	3304      	adds	r3, #4
 80006d4:	2100      	movs	r1, #0
 80006d6:	460a      	mov	r2, r1
 80006d8:	801a      	strh	r2, [r3, #0]
 80006da:	460a      	mov	r2, r1
 80006dc:	709a      	strb	r2, [r3, #2]
  uint8_t read_config7[7] = {0};
 80006de:	f507 73d8 	add.w	r3, r7, #432	; 0x1b0
 80006e2:	f5a3 73d4 	sub.w	r3, r3, #424	; 0x1a8
 80006e6:	2200      	movs	r2, #0
 80006e8:	601a      	str	r2, [r3, #0]
 80006ea:	3304      	adds	r3, #4
 80006ec:	2100      	movs	r1, #0
 80006ee:	460a      	mov	r2, r1
 80006f0:	801a      	strh	r2, [r3, #0]
 80006f2:	460a      	mov	r2, r1
 80006f4:	709a      	strb	r2, [r3, #2]
  uint8_t read_config8[7] = {0};
 80006f6:	f507 73d8 	add.w	r3, r7, #432	; 0x1b0
 80006fa:	f5a3 73d8 	sub.w	r3, r3, #432	; 0x1b0
 80006fe:	2200      	movs	r2, #0
 8000700:	601a      	str	r2, [r3, #0]
 8000702:	3304      	adds	r3, #4
 8000704:	2100      	movs	r1, #0
 8000706:	460a      	mov	r2, r1
 8000708:	801a      	strh	r2, [r3, #0]
 800070a:	460a      	mov	r2, r1
 800070c:	709a      	strb	r2, [r3, #2]

  /* Infinite loop */
  /* USER CODE BEGIN WHILE */
  while (1)
  {
	  WakeUp(read_byte);
 800070e:	f107 0384 	add.w	r3, r7, #132	; 0x84
 8000712:	4618      	mov	r0, r3
 8000714:	f7ff fd6a 	bl	80001ec <WakeUp>
	 // WriteConfigZone();
	  BlockConfigZone(receiv_ack);
 8000718:	f107 0380 	add.w	r3, r7, #128	; 0x80
 800071c:	4618      	mov	r0, r3
 800071e:	f7ff fdcb 	bl	80002b8 <BlockConfigZone>
	 // WriteDataZone();
	 // WriteOTPZone();
	  BlockDataZone();
 8000722:	f7ff fdfb 	bl	800031c <BlockDataZone>

	  ReadConfig(readCommand0, 35, read_config0);
 8000726:	f107 025c 	add.w	r2, r7, #92	; 0x5c
 800072a:	f507 73d4 	add.w	r3, r7, #424	; 0x1a8
 800072e:	2123      	movs	r1, #35	; 0x23
 8000730:	4618      	mov	r0, r3
 8000732:	f7ff fd9b 	bl	800026c <ReadConfig>
	  ReadConfig(readCommand1, 35, read_config1);
 8000736:	f107 0238 	add.w	r2, r7, #56	; 0x38
 800073a:	f507 73d0 	add.w	r3, r7, #416	; 0x1a0
 800073e:	2123      	movs	r1, #35	; 0x23
 8000740:	4618      	mov	r0, r3
 8000742:	f7ff fd93 	bl	800026c <ReadConfig>
	  ReadConfig(readCommand2, 7, read_config2);
 8000746:	f107 0230 	add.w	r2, r7, #48	; 0x30
 800074a:	f507 73cc 	add.w	r3, r7, #408	; 0x198
 800074e:	2107      	movs	r1, #7
 8000750:	4618      	mov	r0, r3
 8000752:	f7ff fd8b 	bl	800026c <ReadConfig>
	  ReadConfig(readCommand3, 7, read_config3);
 8000756:	f107 0228 	add.w	r2, r7, #40	; 0x28
 800075a:	f507 73c8 	add.w	r3, r7, #400	; 0x190
 800075e:	2107      	movs	r1, #7
 8000760:	4618      	mov	r0, r3
 8000762:	f7ff fd83 	bl	800026c <ReadConfig>
	  ReadConfig(readCommand4, 7, read_config4);
 8000766:	f107 0220 	add.w	r2, r7, #32
 800076a:	f507 73c4 	add.w	r3, r7, #392	; 0x188
 800076e:	2107      	movs	r1, #7
 8000770:	4618      	mov	r0, r3
 8000772:	f7ff fd7b 	bl	800026c <ReadConfig>
	  ReadConfig(readCommand5, 7, read_config5);
 8000776:	f107 0218 	add.w	r2, r7, #24
 800077a:	f507 73c0 	add.w	r3, r7, #384	; 0x180
 800077e:	2107      	movs	r1, #7
 8000780:	4618      	mov	r0, r3
 8000782:	f7ff fd73 	bl	800026c <ReadConfig>
	  ReadConfig(readCommand6, 7, read_config6);
 8000786:	f107 0210 	add.w	r2, r7, #16
 800078a:	f507 73bc 	add.w	r3, r7, #376	; 0x178
 800078e:	2107      	movs	r1, #7
 8000790:	4618      	mov	r0, r3
 8000792:	f7ff fd6b 	bl	800026c <ReadConfig>
	  ReadConfig(readCommand7, 7, read_config7);
 8000796:	f107 0208 	add.w	r2, r7, #8
 800079a:	f507 73b8 	add.w	r3, r7, #368	; 0x170
 800079e:	2107      	movs	r1, #7
 80007a0:	4618      	mov	r0, r3
 80007a2:	f7ff fd63 	bl	800026c <ReadConfig>

	  ReadDataZone(readMASTERKEY, 35, receiv_MASTERKEY);
 80007a6:	f507 729a 	add.w	r2, r7, #308	; 0x134
 80007aa:	f507 73b4 	add.w	r3, r7, #360	; 0x168
 80007ae:	2123      	movs	r1, #35	; 0x23
 80007b0:	4618      	mov	r0, r3
 80007b2:	f7ff fdd5 	bl	8000360 <ReadDataZone>
	  //CommandNonce(NumIn, 35, nonce_receiv);
	  TempKeyGen(nonce_receiv, NumIn, 0, 55, 35, tempnonce);
 80007b6:	f507 7190 	add.w	r1, r7, #288	; 0x120
 80007ba:	f107 00fc 	add.w	r0, r7, #252	; 0xfc
 80007be:	f107 03d8 	add.w	r3, r7, #216	; 0xd8
 80007c2:	9301      	str	r3, [sp, #4]
 80007c4:	2323      	movs	r3, #35	; 0x23
 80007c6:	9300      	str	r3, [sp, #0]
 80007c8:	2337      	movs	r3, #55	; 0x37
 80007ca:	2200      	movs	r2, #0
 80007cc:	f7ff fdee 	bl	80003ac <TempKeyGen>
	  //SHACommandInit(1, sha_init);
	  //SHACommandCompute(35, SHA_receiv);

	  //ReadEncript(readDATA2, 35, receiv_DATA2);

	  HAL_Delay(10);
 80007d0:	200a      	movs	r0, #10
 80007d2:	f000 fa7f 	bl	8000cd4 <HAL_Delay>
	  WakeUp(read_byte);
 80007d6:	e79a      	b.n	800070e <main+0x226>
 80007d8:	08003770 	.word	0x08003770
 80007dc:	08003778 	.word	0x08003778
 80007e0:	08003780 	.word	0x08003780
 80007e4:	08003788 	.word	0x08003788
 80007e8:	08003790 	.word	0x08003790
 80007ec:	08003798 	.word	0x08003798
 80007f0:	080037a0 	.word	0x080037a0
 80007f4:	080037a8 	.word	0x080037a8
 80007f8:	080037b0 	.word	0x080037b0
 80007fc:	080037b8 	.word	0x080037b8
 8000800:	080037c0 	.word	0x080037c0
 8000804:	080037c8 	.word	0x080037c8

08000808 <SystemClock_Config>:
/**
  * @brief System Clock Configuration
  * @retval None
  */
void SystemClock_Config(void)
{
 8000808:	b580      	push	{r7, lr}
 800080a:	b090      	sub	sp, #64	; 0x40
 800080c:	af00      	add	r7, sp, #0
  RCC_OscInitTypeDef RCC_OscInitStruct = {0};
 800080e:	f107 0318 	add.w	r3, r7, #24
 8000812:	2228      	movs	r2, #40	; 0x28
 8000814:	2100      	movs	r1, #0
 8000816:	4618      	mov	r0, r3
 8000818:	f002 fe0a 	bl	8003430 <memset>
  RCC_ClkInitTypeDef RCC_ClkInitStruct = {0};
 800081c:	1d3b      	adds	r3, r7, #4
 800081e:	2200      	movs	r2, #0
 8000820:	601a      	str	r2, [r3, #0]
 8000822:	605a      	str	r2, [r3, #4]
 8000824:	609a      	str	r2, [r3, #8]
 8000826:	60da      	str	r2, [r3, #12]
 8000828:	611a      	str	r2, [r3, #16]

  /** Initializes the RCC Oscillators according to the specified parameters
  * in the RCC_OscInitTypeDef structure.
  */
  RCC_OscInitStruct.OscillatorType = RCC_OSCILLATORTYPE_HSE;
 800082a:	2301      	movs	r3, #1
 800082c:	61bb      	str	r3, [r7, #24]
  RCC_OscInitStruct.HSEState = RCC_HSE_ON;
 800082e:	f44f 3380 	mov.w	r3, #65536	; 0x10000
 8000832:	61fb      	str	r3, [r7, #28]
  RCC_OscInitStruct.HSEPredivValue = RCC_HSE_PREDIV_DIV1;
 8000834:	2300      	movs	r3, #0
 8000836:	623b      	str	r3, [r7, #32]
  RCC_OscInitStruct.HSIState = RCC_HSI_ON;
 8000838:	2301      	movs	r3, #1
 800083a:	62bb      	str	r3, [r7, #40]	; 0x28
  RCC_OscInitStruct.PLL.PLLState = RCC_PLL_ON;
 800083c:	2302      	movs	r3, #2
 800083e:	637b      	str	r3, [r7, #52]	; 0x34
  RCC_OscInitStruct.PLL.PLLSource = RCC_PLLSOURCE_HSE;
 8000840:	f44f 3380 	mov.w	r3, #65536	; 0x10000
 8000844:	63bb      	str	r3, [r7, #56]	; 0x38
  RCC_OscInitStruct.PLL.PLLMUL = RCC_PLL_MUL9;
 8000846:	f44f 13e0 	mov.w	r3, #1835008	; 0x1c0000
 800084a:	63fb      	str	r3, [r7, #60]	; 0x3c
  if (HAL_RCC_OscConfig(&RCC_OscInitStruct) != HAL_OK)
 800084c:	f107 0318 	add.w	r3, r7, #24
 8000850:	4618      	mov	r0, r3
 8000852:	f001 fd39 	bl	80022c8 <HAL_RCC_OscConfig>
 8000856:	4603      	mov	r3, r0
 8000858:	2b00      	cmp	r3, #0
 800085a:	d001      	beq.n	8000860 <SystemClock_Config+0x58>
  {
    Error_Handler();
 800085c:	f000 f8ae 	bl	80009bc <Error_Handler>
  }

  /** Initializes the CPU, AHB and APB buses clocks
  */
  RCC_ClkInitStruct.ClockType = RCC_CLOCKTYPE_HCLK|RCC_CLOCKTYPE_SYSCLK
 8000860:	230f      	movs	r3, #15
 8000862:	607b      	str	r3, [r7, #4]
                              |RCC_CLOCKTYPE_PCLK1|RCC_CLOCKTYPE_PCLK2;
  RCC_ClkInitStruct.SYSCLKSource = RCC_SYSCLKSOURCE_PLLCLK;
 8000864:	2302      	movs	r3, #2
 8000866:	60bb      	str	r3, [r7, #8]
  RCC_ClkInitStruct.AHBCLKDivider = RCC_SYSCLK_DIV1;
 8000868:	2300      	movs	r3, #0
 800086a:	60fb      	str	r3, [r7, #12]
  RCC_ClkInitStruct.APB1CLKDivider = RCC_HCLK_DIV2;
 800086c:	f44f 6380 	mov.w	r3, #1024	; 0x400
 8000870:	613b      	str	r3, [r7, #16]
  RCC_ClkInitStruct.APB2CLKDivider = RCC_HCLK_DIV1;
 8000872:	2300      	movs	r3, #0
 8000874:	617b      	str	r3, [r7, #20]

  if (HAL_RCC_ClockConfig(&RCC_ClkInitStruct, FLASH_LATENCY_2) != HAL_OK)
 8000876:	1d3b      	adds	r3, r7, #4
 8000878:	2102      	movs	r1, #2
 800087a:	4618      	mov	r0, r3
 800087c:	f001 ffa6 	bl	80027cc <HAL_RCC_ClockConfig>
 8000880:	4603      	mov	r3, r0
 8000882:	2b00      	cmp	r3, #0
 8000884:	d001      	beq.n	800088a <SystemClock_Config+0x82>
  {
    Error_Handler();
 8000886:	f000 f899 	bl	80009bc <Error_Handler>
  }
}
 800088a:	bf00      	nop
 800088c:	3740      	adds	r7, #64	; 0x40
 800088e:	46bd      	mov	sp, r7
 8000890:	bd80      	pop	{r7, pc}
	...

08000894 <MX_I2C2_Init>:
  * @brief I2C2 Initialization Function
  * @param None
  * @retval None
  */
static void MX_I2C2_Init(void)
{
 8000894:	b580      	push	{r7, lr}
 8000896:	af00      	add	r7, sp, #0
  /* USER CODE END I2C2_Init 0 */

  /* USER CODE BEGIN I2C2_Init 1 */

  /* USER CODE END I2C2_Init 1 */
  hi2c2.Instance = I2C2;
 8000898:	4b12      	ldr	r3, [pc, #72]	; (80008e4 <MX_I2C2_Init+0x50>)
 800089a:	4a13      	ldr	r2, [pc, #76]	; (80008e8 <MX_I2C2_Init+0x54>)
 800089c:	601a      	str	r2, [r3, #0]
  hi2c2.Init.ClockSpeed = 100000;
 800089e:	4b11      	ldr	r3, [pc, #68]	; (80008e4 <MX_I2C2_Init+0x50>)
 80008a0:	4a12      	ldr	r2, [pc, #72]	; (80008ec <MX_I2C2_Init+0x58>)
 80008a2:	605a      	str	r2, [r3, #4]
  hi2c2.Init.DutyCycle = I2C_DUTYCYCLE_2;
 80008a4:	4b0f      	ldr	r3, [pc, #60]	; (80008e4 <MX_I2C2_Init+0x50>)
 80008a6:	2200      	movs	r2, #0
 80008a8:	609a      	str	r2, [r3, #8]
  hi2c2.Init.OwnAddress1 = 0;
 80008aa:	4b0e      	ldr	r3, [pc, #56]	; (80008e4 <MX_I2C2_Init+0x50>)
 80008ac:	2200      	movs	r2, #0
 80008ae:	60da      	str	r2, [r3, #12]
  hi2c2.Init.AddressingMode = I2C_ADDRESSINGMODE_7BIT;
 80008b0:	4b0c      	ldr	r3, [pc, #48]	; (80008e4 <MX_I2C2_Init+0x50>)
 80008b2:	f44f 4280 	mov.w	r2, #16384	; 0x4000
 80008b6:	611a      	str	r2, [r3, #16]
  hi2c2.Init.DualAddressMode = I2C_DUALADDRESS_DISABLE;
 80008b8:	4b0a      	ldr	r3, [pc, #40]	; (80008e4 <MX_I2C2_Init+0x50>)
 80008ba:	2200      	movs	r2, #0
 80008bc:	615a      	str	r2, [r3, #20]
  hi2c2.Init.OwnAddress2 = 0;
 80008be:	4b09      	ldr	r3, [pc, #36]	; (80008e4 <MX_I2C2_Init+0x50>)
 80008c0:	2200      	movs	r2, #0
 80008c2:	619a      	str	r2, [r3, #24]
  hi2c2.Init.GeneralCallMode = I2C_GENERALCALL_DISABLE;
 80008c4:	4b07      	ldr	r3, [pc, #28]	; (80008e4 <MX_I2C2_Init+0x50>)
 80008c6:	2200      	movs	r2, #0
 80008c8:	61da      	str	r2, [r3, #28]
  hi2c2.Init.NoStretchMode = I2C_NOSTRETCH_DISABLE;
 80008ca:	4b06      	ldr	r3, [pc, #24]	; (80008e4 <MX_I2C2_Init+0x50>)
 80008cc:	2200      	movs	r2, #0
 80008ce:	621a      	str	r2, [r3, #32]
  if (HAL_I2C_Init(&hi2c2) != HAL_OK)
 80008d0:	4804      	ldr	r0, [pc, #16]	; (80008e4 <MX_I2C2_Init+0x50>)
 80008d2:	f000 fd2b 	bl	800132c <HAL_I2C_Init>
 80008d6:	4603      	mov	r3, r0
 80008d8:	2b00      	cmp	r3, #0
 80008da:	d001      	beq.n	80008e0 <MX_I2C2_Init+0x4c>
  {
    Error_Handler();
 80008dc:	f000 f86e 	bl	80009bc <Error_Handler>
  }
  /* USER CODE BEGIN I2C2_Init 2 */

  /* USER CODE END I2C2_Init 2 */

}
 80008e0:	bf00      	nop
 80008e2:	bd80      	pop	{r7, pc}
 80008e4:	20000028 	.word	0x20000028
 80008e8:	40005800 	.word	0x40005800
 80008ec:	000186a0 	.word	0x000186a0

080008f0 <MX_USART1_Init>:
  * @brief USART1 Initialization Function
  * @param None
  * @retval None
  */
static void MX_USART1_Init(void)
{
 80008f0:	b580      	push	{r7, lr}
 80008f2:	af00      	add	r7, sp, #0
  /* USER CODE END USART1_Init 0 */

  /* USER CODE BEGIN USART1_Init 1 */

  /* USER CODE END USART1_Init 1 */
  husart1.Instance = USART1;
 80008f4:	4b12      	ldr	r3, [pc, #72]	; (8000940 <MX_USART1_Init+0x50>)
 80008f6:	4a13      	ldr	r2, [pc, #76]	; (8000944 <MX_USART1_Init+0x54>)
 80008f8:	601a      	str	r2, [r3, #0]
  husart1.Init.BaudRate = 115200;
 80008fa:	4b11      	ldr	r3, [pc, #68]	; (8000940 <MX_USART1_Init+0x50>)
 80008fc:	f44f 32e1 	mov.w	r2, #115200	; 0x1c200
 8000900:	605a      	str	r2, [r3, #4]
  husart1.Init.WordLength = USART_WORDLENGTH_8B;
 8000902:	4b0f      	ldr	r3, [pc, #60]	; (8000940 <MX_USART1_Init+0x50>)
 8000904:	2200      	movs	r2, #0
 8000906:	609a      	str	r2, [r3, #8]
  husart1.Init.StopBits = USART_STOPBITS_1;
 8000908:	4b0d      	ldr	r3, [pc, #52]	; (8000940 <MX_USART1_Init+0x50>)
 800090a:	2200      	movs	r2, #0
 800090c:	60da      	str	r2, [r3, #12]
  husart1.Init.Parity = USART_PARITY_NONE;
 800090e:	4b0c      	ldr	r3, [pc, #48]	; (8000940 <MX_USART1_Init+0x50>)
 8000910:	2200      	movs	r2, #0
 8000912:	611a      	str	r2, [r3, #16]
  husart1.Init.Mode = USART_MODE_TX_RX;
 8000914:	4b0a      	ldr	r3, [pc, #40]	; (8000940 <MX_USART1_Init+0x50>)
 8000916:	220c      	movs	r2, #12
 8000918:	615a      	str	r2, [r3, #20]
  husart1.Init.CLKPolarity = USART_POLARITY_LOW;
 800091a:	4b09      	ldr	r3, [pc, #36]	; (8000940 <MX_USART1_Init+0x50>)
 800091c:	2200      	movs	r2, #0
 800091e:	619a      	str	r2, [r3, #24]
  husart1.Init.CLKPhase = USART_PHASE_1EDGE;
 8000920:	4b07      	ldr	r3, [pc, #28]	; (8000940 <MX_USART1_Init+0x50>)
 8000922:	2200      	movs	r2, #0
 8000924:	61da      	str	r2, [r3, #28]
  husart1.Init.CLKLastBit = USART_LASTBIT_DISABLE;
 8000926:	4b06      	ldr	r3, [pc, #24]	; (8000940 <MX_USART1_Init+0x50>)
 8000928:	2200      	movs	r2, #0
 800092a:	621a      	str	r2, [r3, #32]
  if (HAL_USART_Init(&husart1) != HAL_OK)
 800092c:	4804      	ldr	r0, [pc, #16]	; (8000940 <MX_USART1_Init+0x50>)
 800092e:	f002 f8e5 	bl	8002afc <HAL_USART_Init>
 8000932:	4603      	mov	r3, r0
 8000934:	2b00      	cmp	r3, #0
 8000936:	d001      	beq.n	800093c <MX_USART1_Init+0x4c>
  {
    Error_Handler();
 8000938:	f000 f840 	bl	80009bc <Error_Handler>
  }
  /* USER CODE BEGIN USART1_Init 2 */

  /* USER CODE END USART1_Init 2 */

}
 800093c:	bf00      	nop
 800093e:	bd80      	pop	{r7, pc}
 8000940:	2000007c 	.word	0x2000007c
 8000944:	40013800 	.word	0x40013800

08000948 <MX_GPIO_Init>:
  * @brief GPIO Initialization Function
  * @param None
  * @retval None
  */
static void MX_GPIO_Init(void)
{
 8000948:	b480      	push	{r7}
 800094a:	b085      	sub	sp, #20
 800094c:	af00      	add	r7, sp, #0

  /* GPIO Ports Clock Enable */
  __HAL_RCC_GPIOC_CLK_ENABLE();
 800094e:	4b1a      	ldr	r3, [pc, #104]	; (80009b8 <MX_GPIO_Init+0x70>)
 8000950:	699b      	ldr	r3, [r3, #24]
 8000952:	4a19      	ldr	r2, [pc, #100]	; (80009b8 <MX_GPIO_Init+0x70>)
 8000954:	f043 0310 	orr.w	r3, r3, #16
 8000958:	6193      	str	r3, [r2, #24]
 800095a:	4b17      	ldr	r3, [pc, #92]	; (80009b8 <MX_GPIO_Init+0x70>)
 800095c:	699b      	ldr	r3, [r3, #24]
 800095e:	f003 0310 	and.w	r3, r3, #16
 8000962:	60fb      	str	r3, [r7, #12]
 8000964:	68fb      	ldr	r3, [r7, #12]
  __HAL_RCC_GPIOD_CLK_ENABLE();
 8000966:	4b14      	ldr	r3, [pc, #80]	; (80009b8 <MX_GPIO_Init+0x70>)
 8000968:	699b      	ldr	r3, [r3, #24]
 800096a:	4a13      	ldr	r2, [pc, #76]	; (80009b8 <MX_GPIO_Init+0x70>)
 800096c:	f043 0320 	orr.w	r3, r3, #32
 8000970:	6193      	str	r3, [r2, #24]
 8000972:	4b11      	ldr	r3, [pc, #68]	; (80009b8 <MX_GPIO_Init+0x70>)
 8000974:	699b      	ldr	r3, [r3, #24]
 8000976:	f003 0320 	and.w	r3, r3, #32
 800097a:	60bb      	str	r3, [r7, #8]
 800097c:	68bb      	ldr	r3, [r7, #8]
  __HAL_RCC_GPIOB_CLK_ENABLE();
 800097e:	4b0e      	ldr	r3, [pc, #56]	; (80009b8 <MX_GPIO_Init+0x70>)
 8000980:	699b      	ldr	r3, [r3, #24]
 8000982:	4a0d      	ldr	r2, [pc, #52]	; (80009b8 <MX_GPIO_Init+0x70>)
 8000984:	f043 0308 	orr.w	r3, r3, #8
 8000988:	6193      	str	r3, [r2, #24]
 800098a:	4b0b      	ldr	r3, [pc, #44]	; (80009b8 <MX_GPIO_Init+0x70>)
 800098c:	699b      	ldr	r3, [r3, #24]
 800098e:	f003 0308 	and.w	r3, r3, #8
 8000992:	607b      	str	r3, [r7, #4]
 8000994:	687b      	ldr	r3, [r7, #4]
  __HAL_RCC_GPIOA_CLK_ENABLE();
 8000996:	4b08      	ldr	r3, [pc, #32]	; (80009b8 <MX_GPIO_Init+0x70>)
 8000998:	699b      	ldr	r3, [r3, #24]
 800099a:	4a07      	ldr	r2, [pc, #28]	; (80009b8 <MX_GPIO_Init+0x70>)
 800099c:	f043 0304 	orr.w	r3, r3, #4
 80009a0:	6193      	str	r3, [r2, #24]
 80009a2:	4b05      	ldr	r3, [pc, #20]	; (80009b8 <MX_GPIO_Init+0x70>)
 80009a4:	699b      	ldr	r3, [r3, #24]
 80009a6:	f003 0304 	and.w	r3, r3, #4
 80009aa:	603b      	str	r3, [r7, #0]
 80009ac:	683b      	ldr	r3, [r7, #0]

}
 80009ae:	bf00      	nop
 80009b0:	3714      	adds	r7, #20
 80009b2:	46bd      	mov	sp, r7
 80009b4:	bc80      	pop	{r7}
 80009b6:	4770      	bx	lr
 80009b8:	40021000 	.word	0x40021000

080009bc <Error_Handler>:
/**
  * @brief  This function is executed in case of error occurrence.
  * @retval None
  */
void Error_Handler(void)
{
 80009bc:	b480      	push	{r7}
 80009be:	af00      	add	r7, sp, #0
  \details Disables IRQ interrupts by setting the I-bit in the CPSR.
           Can only be executed in Privileged modes.
 */
__STATIC_FORCEINLINE void __disable_irq(void)
{
  __ASM volatile ("cpsid i" : : : "memory");
 80009c0:	b672      	cpsid	i
}
 80009c2:	bf00      	nop
  /* USER CODE BEGIN Error_Handler_Debug */
  /* User can add his own implementation to report the HAL error return state */
  __disable_irq();
  while (1)
 80009c4:	e7fe      	b.n	80009c4 <Error_Handler+0x8>
	...

080009c8 <HAL_MspInit>:
/* USER CODE END 0 */
/**
  * Initializes the Global MSP.
  */
void HAL_MspInit(void)
{
 80009c8:	b480      	push	{r7}
 80009ca:	b085      	sub	sp, #20
 80009cc:	af00      	add	r7, sp, #0
  /* USER CODE BEGIN MspInit 0 */

  /* USER CODE END MspInit 0 */

  __HAL_RCC_AFIO_CLK_ENABLE();
 80009ce:	4b15      	ldr	r3, [pc, #84]	; (8000a24 <HAL_MspInit+0x5c>)
 80009d0:	699b      	ldr	r3, [r3, #24]
 80009d2:	4a14      	ldr	r2, [pc, #80]	; (8000a24 <HAL_MspInit+0x5c>)
 80009d4:	f043 0301 	orr.w	r3, r3, #1
 80009d8:	6193      	str	r3, [r2, #24]
 80009da:	4b12      	ldr	r3, [pc, #72]	; (8000a24 <HAL_MspInit+0x5c>)
 80009dc:	699b      	ldr	r3, [r3, #24]
 80009de:	f003 0301 	and.w	r3, r3, #1
 80009e2:	60bb      	str	r3, [r7, #8]
 80009e4:	68bb      	ldr	r3, [r7, #8]
  __HAL_RCC_PWR_CLK_ENABLE();
 80009e6:	4b0f      	ldr	r3, [pc, #60]	; (8000a24 <HAL_MspInit+0x5c>)
 80009e8:	69db      	ldr	r3, [r3, #28]
 80009ea:	4a0e      	ldr	r2, [pc, #56]	; (8000a24 <HAL_MspInit+0x5c>)
 80009ec:	f043 5380 	orr.w	r3, r3, #268435456	; 0x10000000
 80009f0:	61d3      	str	r3, [r2, #28]
 80009f2:	4b0c      	ldr	r3, [pc, #48]	; (8000a24 <HAL_MspInit+0x5c>)
 80009f4:	69db      	ldr	r3, [r3, #28]
 80009f6:	f003 5380 	and.w	r3, r3, #268435456	; 0x10000000
 80009fa:	607b      	str	r3, [r7, #4]
 80009fc:	687b      	ldr	r3, [r7, #4]

  /* System interrupt init*/

  /** NOJTAG: JTAG-DP Disabled and SW-DP Enabled
  */
  __HAL_AFIO_REMAP_SWJ_NOJTAG();
 80009fe:	4b0a      	ldr	r3, [pc, #40]	; (8000a28 <HAL_MspInit+0x60>)
 8000a00:	685b      	ldr	r3, [r3, #4]
 8000a02:	60fb      	str	r3, [r7, #12]
 8000a04:	68fb      	ldr	r3, [r7, #12]
 8000a06:	f023 63e0 	bic.w	r3, r3, #117440512	; 0x7000000
 8000a0a:	60fb      	str	r3, [r7, #12]
 8000a0c:	68fb      	ldr	r3, [r7, #12]
 8000a0e:	f043 7300 	orr.w	r3, r3, #33554432	; 0x2000000
 8000a12:	60fb      	str	r3, [r7, #12]
 8000a14:	4a04      	ldr	r2, [pc, #16]	; (8000a28 <HAL_MspInit+0x60>)
 8000a16:	68fb      	ldr	r3, [r7, #12]
 8000a18:	6053      	str	r3, [r2, #4]

  /* USER CODE BEGIN MspInit 1 */

  /* USER CODE END MspInit 1 */
}
 8000a1a:	bf00      	nop
 8000a1c:	3714      	adds	r7, #20
 8000a1e:	46bd      	mov	sp, r7
 8000a20:	bc80      	pop	{r7}
 8000a22:	4770      	bx	lr
 8000a24:	40021000 	.word	0x40021000
 8000a28:	40010000 	.word	0x40010000

08000a2c <HAL_I2C_MspInit>:
* This function configures the hardware resources used in this example
* @param hi2c: I2C handle pointer
* @retval None
*/
void HAL_I2C_MspInit(I2C_HandleTypeDef* hi2c)
{
 8000a2c:	b580      	push	{r7, lr}
 8000a2e:	b088      	sub	sp, #32
 8000a30:	af00      	add	r7, sp, #0
 8000a32:	6078      	str	r0, [r7, #4]
  GPIO_InitTypeDef GPIO_InitStruct = {0};
 8000a34:	f107 0310 	add.w	r3, r7, #16
 8000a38:	2200      	movs	r2, #0
 8000a3a:	601a      	str	r2, [r3, #0]
 8000a3c:	605a      	str	r2, [r3, #4]
 8000a3e:	609a      	str	r2, [r3, #8]
 8000a40:	60da      	str	r2, [r3, #12]
  if(hi2c->Instance==I2C2)
 8000a42:	687b      	ldr	r3, [r7, #4]
 8000a44:	681b      	ldr	r3, [r3, #0]
 8000a46:	4a16      	ldr	r2, [pc, #88]	; (8000aa0 <HAL_I2C_MspInit+0x74>)
 8000a48:	4293      	cmp	r3, r2
 8000a4a:	d124      	bne.n	8000a96 <HAL_I2C_MspInit+0x6a>
  {
  /* USER CODE BEGIN I2C2_MspInit 0 */

  /* USER CODE END I2C2_MspInit 0 */

    __HAL_RCC_GPIOB_CLK_ENABLE();
 8000a4c:	4b15      	ldr	r3, [pc, #84]	; (8000aa4 <HAL_I2C_MspInit+0x78>)
 8000a4e:	699b      	ldr	r3, [r3, #24]
 8000a50:	4a14      	ldr	r2, [pc, #80]	; (8000aa4 <HAL_I2C_MspInit+0x78>)
 8000a52:	f043 0308 	orr.w	r3, r3, #8
 8000a56:	6193      	str	r3, [r2, #24]
 8000a58:	4b12      	ldr	r3, [pc, #72]	; (8000aa4 <HAL_I2C_MspInit+0x78>)
 8000a5a:	699b      	ldr	r3, [r3, #24]
 8000a5c:	f003 0308 	and.w	r3, r3, #8
 8000a60:	60fb      	str	r3, [r7, #12]
 8000a62:	68fb      	ldr	r3, [r7, #12]
    /**I2C2 GPIO Configuration
    PB10     ------> I2C2_SCL
    PB11     ------> I2C2_SDA
    */
    GPIO_InitStruct.Pin = GPIO_PIN_10|GPIO_PIN_11;
 8000a64:	f44f 6340 	mov.w	r3, #3072	; 0xc00
 8000a68:	613b      	str	r3, [r7, #16]
    GPIO_InitStruct.Mode = GPIO_MODE_AF_OD;
 8000a6a:	2312      	movs	r3, #18
 8000a6c:	617b      	str	r3, [r7, #20]
    GPIO_InitStruct.Speed = GPIO_SPEED_FREQ_HIGH;
 8000a6e:	2303      	movs	r3, #3
 8000a70:	61fb      	str	r3, [r7, #28]
    HAL_GPIO_Init(GPIOB, &GPIO_InitStruct);
 8000a72:	f107 0310 	add.w	r3, r7, #16
 8000a76:	4619      	mov	r1, r3
 8000a78:	480b      	ldr	r0, [pc, #44]	; (8000aa8 <HAL_I2C_MspInit+0x7c>)
 8000a7a:	f000 fad3 	bl	8001024 <HAL_GPIO_Init>

    /* Peripheral clock enable */
    __HAL_RCC_I2C2_CLK_ENABLE();
 8000a7e:	4b09      	ldr	r3, [pc, #36]	; (8000aa4 <HAL_I2C_MspInit+0x78>)
 8000a80:	69db      	ldr	r3, [r3, #28]
 8000a82:	4a08      	ldr	r2, [pc, #32]	; (8000aa4 <HAL_I2C_MspInit+0x78>)
 8000a84:	f443 0380 	orr.w	r3, r3, #4194304	; 0x400000
 8000a88:	61d3      	str	r3, [r2, #28]
 8000a8a:	4b06      	ldr	r3, [pc, #24]	; (8000aa4 <HAL_I2C_MspInit+0x78>)
 8000a8c:	69db      	ldr	r3, [r3, #28]
 8000a8e:	f403 0380 	and.w	r3, r3, #4194304	; 0x400000
 8000a92:	60bb      	str	r3, [r7, #8]
 8000a94:	68bb      	ldr	r3, [r7, #8]
  /* USER CODE BEGIN I2C2_MspInit 1 */

  /* USER CODE END I2C2_MspInit 1 */
  }

}
 8000a96:	bf00      	nop
 8000a98:	3720      	adds	r7, #32
 8000a9a:	46bd      	mov	sp, r7
 8000a9c:	bd80      	pop	{r7, pc}
 8000a9e:	bf00      	nop
 8000aa0:	40005800 	.word	0x40005800
 8000aa4:	40021000 	.word	0x40021000
 8000aa8:	40010c00 	.word	0x40010c00

08000aac <HAL_USART_MspInit>:
* This function configures the hardware resources used in this example
* @param husart: USART handle pointer
* @retval None
*/
void HAL_USART_MspInit(USART_HandleTypeDef* husart)
{
 8000aac:	b580      	push	{r7, lr}
 8000aae:	b088      	sub	sp, #32
 8000ab0:	af00      	add	r7, sp, #0
 8000ab2:	6078      	str	r0, [r7, #4]
  GPIO_InitTypeDef GPIO_InitStruct = {0};
 8000ab4:	f107 0310 	add.w	r3, r7, #16
 8000ab8:	2200      	movs	r2, #0
 8000aba:	601a      	str	r2, [r3, #0]
 8000abc:	605a      	str	r2, [r3, #4]
 8000abe:	609a      	str	r2, [r3, #8]
 8000ac0:	60da      	str	r2, [r3, #12]
  if(husart->Instance==USART1)
 8000ac2:	687b      	ldr	r3, [r7, #4]
 8000ac4:	681b      	ldr	r3, [r3, #0]
 8000ac6:	4a20      	ldr	r2, [pc, #128]	; (8000b48 <HAL_USART_MspInit+0x9c>)
 8000ac8:	4293      	cmp	r3, r2
 8000aca:	d139      	bne.n	8000b40 <HAL_USART_MspInit+0x94>
  {
  /* USER CODE BEGIN USART1_MspInit 0 */

  /* USER CODE END USART1_MspInit 0 */
    /* Peripheral clock enable */
    __HAL_RCC_USART1_CLK_ENABLE();
 8000acc:	4b1f      	ldr	r3, [pc, #124]	; (8000b4c <HAL_USART_MspInit+0xa0>)
 8000ace:	699b      	ldr	r3, [r3, #24]
 8000ad0:	4a1e      	ldr	r2, [pc, #120]	; (8000b4c <HAL_USART_MspInit+0xa0>)
 8000ad2:	f443 4380 	orr.w	r3, r3, #16384	; 0x4000
 8000ad6:	6193      	str	r3, [r2, #24]
 8000ad8:	4b1c      	ldr	r3, [pc, #112]	; (8000b4c <HAL_USART_MspInit+0xa0>)
 8000ada:	699b      	ldr	r3, [r3, #24]
 8000adc:	f403 4380 	and.w	r3, r3, #16384	; 0x4000
 8000ae0:	60fb      	str	r3, [r7, #12]
 8000ae2:	68fb      	ldr	r3, [r7, #12]

    __HAL_RCC_GPIOA_CLK_ENABLE();
 8000ae4:	4b19      	ldr	r3, [pc, #100]	; (8000b4c <HAL_USART_MspInit+0xa0>)
 8000ae6:	699b      	ldr	r3, [r3, #24]
 8000ae8:	4a18      	ldr	r2, [pc, #96]	; (8000b4c <HAL_USART_MspInit+0xa0>)
 8000aea:	f043 0304 	orr.w	r3, r3, #4
 8000aee:	6193      	str	r3, [r2, #24]
 8000af0:	4b16      	ldr	r3, [pc, #88]	; (8000b4c <HAL_USART_MspInit+0xa0>)
 8000af2:	699b      	ldr	r3, [r3, #24]
 8000af4:	f003 0304 	and.w	r3, r3, #4
 8000af8:	60bb      	str	r3, [r7, #8]
 8000afa:	68bb      	ldr	r3, [r7, #8]
    /**USART1 GPIO Configuration
    PA8     ------> USART1_CK
    PA9     ------> USART1_TX
    PA10     ------> USART1_RX
    */
    GPIO_InitStruct.Pin = GPIO_PIN_8|GPIO_PIN_9;
 8000afc:	f44f 7340 	mov.w	r3, #768	; 0x300
 8000b00:	613b      	str	r3, [r7, #16]
    GPIO_InitStruct.Mode = GPIO_MODE_AF_PP;
 8000b02:	2302      	movs	r3, #2
 8000b04:	617b      	str	r3, [r7, #20]
    GPIO_InitStruct.Speed = GPIO_SPEED_FREQ_HIGH;
 8000b06:	2303      	movs	r3, #3
 8000b08:	61fb      	str	r3, [r7, #28]
    HAL_GPIO_Init(GPIOA, &GPIO_InitStruct);
 8000b0a:	f107 0310 	add.w	r3, r7, #16
 8000b0e:	4619      	mov	r1, r3
 8000b10:	480f      	ldr	r0, [pc, #60]	; (8000b50 <HAL_USART_MspInit+0xa4>)
 8000b12:	f000 fa87 	bl	8001024 <HAL_GPIO_Init>

    GPIO_InitStruct.Pin = GPIO_PIN_10;
 8000b16:	f44f 6380 	mov.w	r3, #1024	; 0x400
 8000b1a:	613b      	str	r3, [r7, #16]
    GPIO_InitStruct.Mode = GPIO_MODE_INPUT;
 8000b1c:	2300      	movs	r3, #0
 8000b1e:	617b      	str	r3, [r7, #20]
    GPIO_InitStruct.Pull = GPIO_NOPULL;
 8000b20:	2300      	movs	r3, #0
 8000b22:	61bb      	str	r3, [r7, #24]
    HAL_GPIO_Init(GPIOA, &GPIO_InitStruct);
 8000b24:	f107 0310 	add.w	r3, r7, #16
 8000b28:	4619      	mov	r1, r3
 8000b2a:	4809      	ldr	r0, [pc, #36]	; (8000b50 <HAL_USART_MspInit+0xa4>)
 8000b2c:	f000 fa7a 	bl	8001024 <HAL_GPIO_Init>

    /* USART1 interrupt Init */
    HAL_NVIC_SetPriority(USART1_IRQn, 0, 0);
 8000b30:	2200      	movs	r2, #0
 8000b32:	2100      	movs	r1, #0
 8000b34:	2025      	movs	r0, #37	; 0x25
 8000b36:	f000 f9c8 	bl	8000eca <HAL_NVIC_SetPriority>
    HAL_NVIC_EnableIRQ(USART1_IRQn);
 8000b3a:	2025      	movs	r0, #37	; 0x25
 8000b3c:	f000 f9e1 	bl	8000f02 <HAL_NVIC_EnableIRQ>
  /* USER CODE BEGIN USART1_MspInit 1 */

  /* USER CODE END USART1_MspInit 1 */
  }

}
 8000b40:	bf00      	nop
 8000b42:	3720      	adds	r7, #32
 8000b44:	46bd      	mov	sp, r7
 8000b46:	bd80      	pop	{r7, pc}
 8000b48:	40013800 	.word	0x40013800
 8000b4c:	40021000 	.word	0x40021000
 8000b50:	40010800 	.word	0x40010800

08000b54 <NMI_Handler>:
/******************************************************************************/
/**
  * @brief This function handles Non maskable interrupt.
  */
void NMI_Handler(void)
{
 8000b54:	b480      	push	{r7}
 8000b56:	af00      	add	r7, sp, #0
  /* USER CODE BEGIN NonMaskableInt_IRQn 0 */

  /* USER CODE END NonMaskableInt_IRQn 0 */
  /* USER CODE BEGIN NonMaskableInt_IRQn 1 */
  while (1)
 8000b58:	e7fe      	b.n	8000b58 <NMI_Handler+0x4>

08000b5a <HardFault_Handler>:

/**
  * @brief This function handles Hard fault interrupt.
  */
void HardFault_Handler(void)
{
 8000b5a:	b480      	push	{r7}
 8000b5c:	af00      	add	r7, sp, #0
  /* USER CODE BEGIN HardFault_IRQn 0 */

  /* USER CODE END HardFault_IRQn 0 */
  while (1)
 8000b5e:	e7fe      	b.n	8000b5e <HardFault_Handler+0x4>

08000b60 <MemManage_Handler>:

/**
  * @brief This function handles Memory management fault.
  */
void MemManage_Handler(void)
{
 8000b60:	b480      	push	{r7}
 8000b62:	af00      	add	r7, sp, #0
  /* USER CODE BEGIN MemoryManagement_IRQn 0 */

  /* USER CODE END MemoryManagement_IRQn 0 */
  while (1)
 8000b64:	e7fe      	b.n	8000b64 <MemManage_Handler+0x4>

08000b66 <BusFault_Handler>:

/**
  * @brief This function handles Prefetch fault, memory access fault.
  */
void BusFault_Handler(void)
{
 8000b66:	b480      	push	{r7}
 8000b68:	af00      	add	r7, sp, #0
  /* USER CODE BEGIN BusFault_IRQn 0 */

  /* USER CODE END BusFault_IRQn 0 */
  while (1)
 8000b6a:	e7fe      	b.n	8000b6a <BusFault_Handler+0x4>

08000b6c <UsageFault_Handler>:

/**
  * @brief This function handles Undefined instruction or illegal state.
  */
void UsageFault_Handler(void)
{
 8000b6c:	b480      	push	{r7}
 8000b6e:	af00      	add	r7, sp, #0
  /* USER CODE BEGIN UsageFault_IRQn 0 */

  /* USER CODE END UsageFault_IRQn 0 */
  while (1)
 8000b70:	e7fe      	b.n	8000b70 <UsageFault_Handler+0x4>

08000b72 <SVC_Handler>:

/**
  * @brief This function handles System service call via SWI instruction.
  */
void SVC_Handler(void)
{
 8000b72:	b480      	push	{r7}
 8000b74:	af00      	add	r7, sp, #0

  /* USER CODE END SVCall_IRQn 0 */
  /* USER CODE BEGIN SVCall_IRQn 1 */

  /* USER CODE END SVCall_IRQn 1 */
}
 8000b76:	bf00      	nop
 8000b78:	46bd      	mov	sp, r7
 8000b7a:	bc80      	pop	{r7}
 8000b7c:	4770      	bx	lr

08000b7e <DebugMon_Handler>:

/**
  * @brief This function handles Debug monitor.
  */
void DebugMon_Handler(void)
{
 8000b7e:	b480      	push	{r7}
 8000b80:	af00      	add	r7, sp, #0

  /* USER CODE END DebugMonitor_IRQn 0 */
  /* USER CODE BEGIN DebugMonitor_IRQn 1 */

  /* USER CODE END DebugMonitor_IRQn 1 */
}
 8000b82:	bf00      	nop
 8000b84:	46bd      	mov	sp, r7
 8000b86:	bc80      	pop	{r7}
 8000b88:	4770      	bx	lr

08000b8a <PendSV_Handler>:

/**
  * @brief This function handles Pendable request for system service.
  */
void PendSV_Handler(void)
{
 8000b8a:	b480      	push	{r7}
 8000b8c:	af00      	add	r7, sp, #0

  /* USER CODE END PendSV_IRQn 0 */
  /* USER CODE BEGIN PendSV_IRQn 1 */

  /* USER CODE END PendSV_IRQn 1 */
}
 8000b8e:	bf00      	nop
 8000b90:	46bd      	mov	sp, r7
 8000b92:	bc80      	pop	{r7}
 8000b94:	4770      	bx	lr

08000b96 <SysTick_Handler>:

/**
  * @brief This function handles System tick timer.
  */
void SysTick_Handler(void)
{
 8000b96:	b580      	push	{r7, lr}
 8000b98:	af00      	add	r7, sp, #0
  /* USER CODE BEGIN SysTick_IRQn 0 */

  /* USER CODE END SysTick_IRQn 0 */
  HAL_IncTick();
 8000b9a:	f000 f87f 	bl	8000c9c <HAL_IncTick>
  /* USER CODE BEGIN SysTick_IRQn 1 */

  /* USER CODE END SysTick_IRQn 1 */
}
 8000b9e:	bf00      	nop
 8000ba0:	bd80      	pop	{r7, pc}
	...

08000ba4 <USART1_IRQHandler>:

/**
  * @brief This function handles USART1 global interrupt.
  */
void USART1_IRQHandler(void)
{
 8000ba4:	b580      	push	{r7, lr}
 8000ba6:	af00      	add	r7, sp, #0
  /* USER CODE BEGIN USART1_IRQn 0 */

  /* USER CODE END USART1_IRQn 0 */
  HAL_USART_IRQHandler(&husart1);
 8000ba8:	4802      	ldr	r0, [pc, #8]	; (8000bb4 <USART1_IRQHandler+0x10>)
 8000baa:	f001 ffe9 	bl	8002b80 <HAL_USART_IRQHandler>
  /* USER CODE BEGIN USART1_IRQn 1 */

  /* USER CODE END USART1_IRQn 1 */
}
 8000bae:	bf00      	nop
 8000bb0:	bd80      	pop	{r7, pc}
 8000bb2:	bf00      	nop
 8000bb4:	2000007c 	.word	0x2000007c

08000bb8 <SystemInit>:
  * @note   This function should be used only after reset.
  * @param  None
  * @retval None
  */
void SystemInit (void)
{
 8000bb8:	b480      	push	{r7}
 8000bba:	af00      	add	r7, sp, #0

  /* Configure the Vector Table location -------------------------------------*/
#if defined(USER_VECT_TAB_ADDRESS)
  SCB->VTOR = VECT_TAB_BASE_ADDRESS | VECT_TAB_OFFSET; /* Vector Table Relocation in Internal SRAM. */
#endif /* USER_VECT_TAB_ADDRESS */
}
 8000bbc:	bf00      	nop
 8000bbe:	46bd      	mov	sp, r7
 8000bc0:	bc80      	pop	{r7}
 8000bc2:	4770      	bx	lr

08000bc4 <Reset_Handler>:
  .weak Reset_Handler
  .type Reset_Handler, %function
Reset_Handler:

/* Copy the data segment initializers from flash to SRAM */
  ldr r0, =_sdata
 8000bc4:	480c      	ldr	r0, [pc, #48]	; (8000bf8 <LoopFillZerobss+0x12>)
  ldr r1, =_edata
 8000bc6:	490d      	ldr	r1, [pc, #52]	; (8000bfc <LoopFillZerobss+0x16>)
  ldr r2, =_sidata
 8000bc8:	4a0d      	ldr	r2, [pc, #52]	; (8000c00 <LoopFillZerobss+0x1a>)
  movs r3, #0
 8000bca:	2300      	movs	r3, #0
  b LoopCopyDataInit
 8000bcc:	e002      	b.n	8000bd4 <LoopCopyDataInit>

08000bce <CopyDataInit>:

CopyDataInit:
  ldr r4, [r2, r3]
 8000bce:	58d4      	ldr	r4, [r2, r3]
  str r4, [r0, r3]
 8000bd0:	50c4      	str	r4, [r0, r3]
  adds r3, r3, #4
 8000bd2:	3304      	adds	r3, #4

08000bd4 <LoopCopyDataInit>:

LoopCopyDataInit:
  adds r4, r0, r3
 8000bd4:	18c4      	adds	r4, r0, r3
  cmp r4, r1
 8000bd6:	428c      	cmp	r4, r1
  bcc CopyDataInit
 8000bd8:	d3f9      	bcc.n	8000bce <CopyDataInit>
  
/* Zero fill the bss segment. */
  ldr r2, =_sbss
 8000bda:	4a0a      	ldr	r2, [pc, #40]	; (8000c04 <LoopFillZerobss+0x1e>)
  ldr r4, =_ebss
 8000bdc:	4c0a      	ldr	r4, [pc, #40]	; (8000c08 <LoopFillZerobss+0x22>)
  movs r3, #0
 8000bde:	2300      	movs	r3, #0
  b LoopFillZerobss
 8000be0:	e001      	b.n	8000be6 <LoopFillZerobss>

08000be2 <FillZerobss>:

FillZerobss:
  str  r3, [r2]
 8000be2:	6013      	str	r3, [r2, #0]
  adds r2, r2, #4
 8000be4:	3204      	adds	r2, #4

08000be6 <LoopFillZerobss>:

LoopFillZerobss:
  cmp r2, r4
 8000be6:	42a2      	cmp	r2, r4
  bcc FillZerobss
 8000be8:	d3fb      	bcc.n	8000be2 <FillZerobss>

/* Call the clock system intitialization function.*/
    bl  SystemInit
 8000bea:	f7ff ffe5 	bl	8000bb8 <SystemInit>
/* Call static constructors */
    bl __libc_init_array
 8000bee:	f002 fbfb 	bl	80033e8 <__libc_init_array>
/* Call the application's entry point.*/
  bl main
 8000bf2:	f7ff fc79 	bl	80004e8 <main>
  bx lr
 8000bf6:	4770      	bx	lr
  ldr r0, =_sdata
 8000bf8:	20000000 	.word	0x20000000
  ldr r1, =_edata
 8000bfc:	2000000c 	.word	0x2000000c
  ldr r2, =_sidata
 8000c00:	0800380c 	.word	0x0800380c
  ldr r2, =_sbss
 8000c04:	2000000c 	.word	0x2000000c
  ldr r4, =_ebss
 8000c08:	200000c4 	.word	0x200000c4

08000c0c <ADC1_2_IRQHandler>:
 * @retval : None
*/
    .section .text.Default_Handler,"ax",%progbits
Default_Handler:
Infinite_Loop:
  b Infinite_Loop
 8000c0c:	e7fe      	b.n	8000c0c <ADC1_2_IRQHandler>
	...

08000c10 <HAL_Init>:
  *         need to ensure that the SysTick time base is always set to 1 millisecond
  *         to have correct HAL operation.
  * @retval HAL status
  */
HAL_StatusTypeDef HAL_Init(void)
{
 8000c10:	b580      	push	{r7, lr}
 8000c12:	af00      	add	r7, sp, #0
    defined(STM32F102x6) || defined(STM32F102xB) || \
    defined(STM32F103x6) || defined(STM32F103xB) || defined(STM32F103xE) || defined(STM32F103xG) || \
    defined(STM32F105xC) || defined(STM32F107xC)

  /* Prefetch buffer is not available on value line devices */
  __HAL_FLASH_PREFETCH_BUFFER_ENABLE();
 8000c14:	4b08      	ldr	r3, [pc, #32]	; (8000c38 <HAL_Init+0x28>)
 8000c16:	681b      	ldr	r3, [r3, #0]
 8000c18:	4a07      	ldr	r2, [pc, #28]	; (8000c38 <HAL_Init+0x28>)
 8000c1a:	f043 0310 	orr.w	r3, r3, #16
 8000c1e:	6013      	str	r3, [r2, #0]
#endif
#endif /* PREFETCH_ENABLE */

  /* Set Interrupt Group Priority */
  HAL_NVIC_SetPriorityGrouping(NVIC_PRIORITYGROUP_4);
 8000c20:	2003      	movs	r0, #3
 8000c22:	f000 f947 	bl	8000eb4 <HAL_NVIC_SetPriorityGrouping>

  /* Use systick as time base source and configure 1ms tick (default clock after Reset is HSI) */
  HAL_InitTick(TICK_INT_PRIORITY);
 8000c26:	200f      	movs	r0, #15
 8000c28:	f000 f808 	bl	8000c3c <HAL_InitTick>

  /* Init the low level hardware */
  HAL_MspInit();
 8000c2c:	f7ff fecc 	bl	80009c8 <HAL_MspInit>

  /* Return function status */
  return HAL_OK;
 8000c30:	2300      	movs	r3, #0
}
 8000c32:	4618      	mov	r0, r3
 8000c34:	bd80      	pop	{r7, pc}
 8000c36:	bf00      	nop
 8000c38:	40022000 	.word	0x40022000

08000c3c <HAL_InitTick>:
  *       implementation  in user file.
  * @param TickPriority Tick interrupt priority.
  * @retval HAL status
  */
__weak HAL_StatusTypeDef HAL_InitTick(uint32_t TickPriority)
{
 8000c3c:	b580      	push	{r7, lr}
 8000c3e:	b082      	sub	sp, #8
 8000c40:	af00      	add	r7, sp, #0
 8000c42:	6078      	str	r0, [r7, #4]
  /* Configure the SysTick to have interrupt in 1ms time basis*/
  if (HAL_SYSTICK_Config(SystemCoreClock / (1000U / uwTickFreq)) > 0U)
 8000c44:	4b12      	ldr	r3, [pc, #72]	; (8000c90 <HAL_InitTick+0x54>)
 8000c46:	681a      	ldr	r2, [r3, #0]
 8000c48:	4b12      	ldr	r3, [pc, #72]	; (8000c94 <HAL_InitTick+0x58>)
 8000c4a:	781b      	ldrb	r3, [r3, #0]
 8000c4c:	4619      	mov	r1, r3
 8000c4e:	f44f 737a 	mov.w	r3, #1000	; 0x3e8
 8000c52:	fbb3 f3f1 	udiv	r3, r3, r1
 8000c56:	fbb2 f3f3 	udiv	r3, r2, r3
 8000c5a:	4618      	mov	r0, r3
 8000c5c:	f000 f95f 	bl	8000f1e <HAL_SYSTICK_Config>
 8000c60:	4603      	mov	r3, r0
 8000c62:	2b00      	cmp	r3, #0
 8000c64:	d001      	beq.n	8000c6a <HAL_InitTick+0x2e>
  {
    return HAL_ERROR;
 8000c66:	2301      	movs	r3, #1
 8000c68:	e00e      	b.n	8000c88 <HAL_InitTick+0x4c>
  }

  /* Configure the SysTick IRQ priority */
  if (TickPriority < (1UL << __NVIC_PRIO_BITS))
 8000c6a:	687b      	ldr	r3, [r7, #4]
 8000c6c:	2b0f      	cmp	r3, #15
 8000c6e:	d80a      	bhi.n	8000c86 <HAL_InitTick+0x4a>
  {
    HAL_NVIC_SetPriority(SysTick_IRQn, TickPriority, 0U);
 8000c70:	2200      	movs	r2, #0
 8000c72:	6879      	ldr	r1, [r7, #4]
 8000c74:	f04f 30ff 	mov.w	r0, #4294967295
 8000c78:	f000 f927 	bl	8000eca <HAL_NVIC_SetPriority>
    uwTickPrio = TickPriority;
 8000c7c:	4a06      	ldr	r2, [pc, #24]	; (8000c98 <HAL_InitTick+0x5c>)
 8000c7e:	687b      	ldr	r3, [r7, #4]
 8000c80:	6013      	str	r3, [r2, #0]
  {
    return HAL_ERROR;
  }

  /* Return function status */
  return HAL_OK;
 8000c82:	2300      	movs	r3, #0
 8000c84:	e000      	b.n	8000c88 <HAL_InitTick+0x4c>
    return HAL_ERROR;
 8000c86:	2301      	movs	r3, #1
}
 8000c88:	4618      	mov	r0, r3
 8000c8a:	3708      	adds	r7, #8
 8000c8c:	46bd      	mov	sp, r7
 8000c8e:	bd80      	pop	{r7, pc}
 8000c90:	20000000 	.word	0x20000000
 8000c94:	20000008 	.word	0x20000008
 8000c98:	20000004 	.word	0x20000004

08000c9c <HAL_IncTick>:
  * @note This function is declared as __weak to be overwritten in case of other
  *      implementations in user file.
  * @retval None
  */
__weak void HAL_IncTick(void)
{
 8000c9c:	b480      	push	{r7}
 8000c9e:	af00      	add	r7, sp, #0
  uwTick += uwTickFreq;
 8000ca0:	4b05      	ldr	r3, [pc, #20]	; (8000cb8 <HAL_IncTick+0x1c>)
 8000ca2:	781b      	ldrb	r3, [r3, #0]
 8000ca4:	461a      	mov	r2, r3
 8000ca6:	4b05      	ldr	r3, [pc, #20]	; (8000cbc <HAL_IncTick+0x20>)
 8000ca8:	681b      	ldr	r3, [r3, #0]
 8000caa:	4413      	add	r3, r2
 8000cac:	4a03      	ldr	r2, [pc, #12]	; (8000cbc <HAL_IncTick+0x20>)
 8000cae:	6013      	str	r3, [r2, #0]
}
 8000cb0:	bf00      	nop
 8000cb2:	46bd      	mov	sp, r7
 8000cb4:	bc80      	pop	{r7}
 8000cb6:	4770      	bx	lr
 8000cb8:	20000008 	.word	0x20000008
 8000cbc:	200000c0 	.word	0x200000c0

08000cc0 <HAL_GetTick>:
  * @note  This function is declared as __weak to be overwritten in case of other
  *       implementations in user file.
  * @retval tick value
  */
__weak uint32_t HAL_GetTick(void)
{
 8000cc0:	b480      	push	{r7}
 8000cc2:	af00      	add	r7, sp, #0
  return uwTick;
 8000cc4:	4b02      	ldr	r3, [pc, #8]	; (8000cd0 <HAL_GetTick+0x10>)
 8000cc6:	681b      	ldr	r3, [r3, #0]
}
 8000cc8:	4618      	mov	r0, r3
 8000cca:	46bd      	mov	sp, r7
 8000ccc:	bc80      	pop	{r7}
 8000cce:	4770      	bx	lr
 8000cd0:	200000c0 	.word	0x200000c0

08000cd4 <HAL_Delay>:
  *       implementations in user file.
  * @param Delay specifies the delay time length, in milliseconds.
  * @retval None
  */
__weak void HAL_Delay(uint32_t Delay)
{
 8000cd4:	b580      	push	{r7, lr}
 8000cd6:	b084      	sub	sp, #16
 8000cd8:	af00      	add	r7, sp, #0
 8000cda:	6078      	str	r0, [r7, #4]
  uint32_t tickstart = HAL_GetTick();
 8000cdc:	f7ff fff0 	bl	8000cc0 <HAL_GetTick>
 8000ce0:	60b8      	str	r0, [r7, #8]
  uint32_t wait = Delay;
 8000ce2:	687b      	ldr	r3, [r7, #4]
 8000ce4:	60fb      	str	r3, [r7, #12]

  /* Add a freq to guarantee minimum wait */
  if (wait < HAL_MAX_DELAY)
 8000ce6:	68fb      	ldr	r3, [r7, #12]
 8000ce8:	f1b3 3fff 	cmp.w	r3, #4294967295
 8000cec:	d005      	beq.n	8000cfa <HAL_Delay+0x26>
  {
    wait += (uint32_t)(uwTickFreq);
 8000cee:	4b0a      	ldr	r3, [pc, #40]	; (8000d18 <HAL_Delay+0x44>)
 8000cf0:	781b      	ldrb	r3, [r3, #0]
 8000cf2:	461a      	mov	r2, r3
 8000cf4:	68fb      	ldr	r3, [r7, #12]
 8000cf6:	4413      	add	r3, r2
 8000cf8:	60fb      	str	r3, [r7, #12]
  }

  while ((HAL_GetTick() - tickstart) < wait)
 8000cfa:	bf00      	nop
 8000cfc:	f7ff ffe0 	bl	8000cc0 <HAL_GetTick>
 8000d00:	4602      	mov	r2, r0
 8000d02:	68bb      	ldr	r3, [r7, #8]
 8000d04:	1ad3      	subs	r3, r2, r3
 8000d06:	68fa      	ldr	r2, [r7, #12]
 8000d08:	429a      	cmp	r2, r3
 8000d0a:	d8f7      	bhi.n	8000cfc <HAL_Delay+0x28>
  {
  }
}
 8000d0c:	bf00      	nop
 8000d0e:	bf00      	nop
 8000d10:	3710      	adds	r7, #16
 8000d12:	46bd      	mov	sp, r7
 8000d14:	bd80      	pop	{r7, pc}
 8000d16:	bf00      	nop
 8000d18:	20000008 	.word	0x20000008

08000d1c <__NVIC_SetPriorityGrouping>:
           In case of a conflict between priority grouping and available
           priority bits (__NVIC_PRIO_BITS), the smallest possible priority group is set.
  \param [in]      PriorityGroup  Priority grouping field.
 */
__STATIC_INLINE void __NVIC_SetPriorityGrouping(uint32_t PriorityGroup)
{
 8000d1c:	b480      	push	{r7}
 8000d1e:	b085      	sub	sp, #20
 8000d20:	af00      	add	r7, sp, #0
 8000d22:	6078      	str	r0, [r7, #4]
  uint32_t reg_value;
  uint32_t PriorityGroupTmp = (PriorityGroup & (uint32_t)0x07UL);             /* only values 0..7 are used          */
 8000d24:	687b      	ldr	r3, [r7, #4]
 8000d26:	f003 0307 	and.w	r3, r3, #7
 8000d2a:	60fb      	str	r3, [r7, #12]

  reg_value  =  SCB->AIRCR;                                                   /* read old register configuration    */
 8000d2c:	4b0c      	ldr	r3, [pc, #48]	; (8000d60 <__NVIC_SetPriorityGrouping+0x44>)
 8000d2e:	68db      	ldr	r3, [r3, #12]
 8000d30:	60bb      	str	r3, [r7, #8]
  reg_value &= ~((uint32_t)(SCB_AIRCR_VECTKEY_Msk | SCB_AIRCR_PRIGROUP_Msk)); /* clear bits to change               */
 8000d32:	68ba      	ldr	r2, [r7, #8]
 8000d34:	f64f 03ff 	movw	r3, #63743	; 0xf8ff
 8000d38:	4013      	ands	r3, r2
 8000d3a:	60bb      	str	r3, [r7, #8]
  reg_value  =  (reg_value                                   |
                ((uint32_t)0x5FAUL << SCB_AIRCR_VECTKEY_Pos) |
                (PriorityGroupTmp << SCB_AIRCR_PRIGROUP_Pos) );               /* Insert write key and priority group */
 8000d3c:	68fb      	ldr	r3, [r7, #12]
 8000d3e:	021a      	lsls	r2, r3, #8
                ((uint32_t)0x5FAUL << SCB_AIRCR_VECTKEY_Pos) |
 8000d40:	68bb      	ldr	r3, [r7, #8]
 8000d42:	4313      	orrs	r3, r2
  reg_value  =  (reg_value                                   |
 8000d44:	f043 63bf 	orr.w	r3, r3, #100139008	; 0x5f80000
 8000d48:	f443 3300 	orr.w	r3, r3, #131072	; 0x20000
 8000d4c:	60bb      	str	r3, [r7, #8]
  SCB->AIRCR =  reg_value;
 8000d4e:	4a04      	ldr	r2, [pc, #16]	; (8000d60 <__NVIC_SetPriorityGrouping+0x44>)
 8000d50:	68bb      	ldr	r3, [r7, #8]
 8000d52:	60d3      	str	r3, [r2, #12]
}
 8000d54:	bf00      	nop
 8000d56:	3714      	adds	r7, #20
 8000d58:	46bd      	mov	sp, r7
 8000d5a:	bc80      	pop	{r7}
 8000d5c:	4770      	bx	lr
 8000d5e:	bf00      	nop
 8000d60:	e000ed00 	.word	0xe000ed00

08000d64 <__NVIC_GetPriorityGrouping>:
  \brief   Get Priority Grouping
  \details Reads the priority grouping field from the NVIC Interrupt Controller.
  \return                Priority grouping field (SCB->AIRCR [10:8] PRIGROUP field).
 */
__STATIC_INLINE uint32_t __NVIC_GetPriorityGrouping(void)
{
 8000d64:	b480      	push	{r7}
 8000d66:	af00      	add	r7, sp, #0
  return ((uint32_t)((SCB->AIRCR & SCB_AIRCR_PRIGROUP_Msk) >> SCB_AIRCR_PRIGROUP_Pos));
 8000d68:	4b04      	ldr	r3, [pc, #16]	; (8000d7c <__NVIC_GetPriorityGrouping+0x18>)
 8000d6a:	68db      	ldr	r3, [r3, #12]
 8000d6c:	0a1b      	lsrs	r3, r3, #8
 8000d6e:	f003 0307 	and.w	r3, r3, #7
}
 8000d72:	4618      	mov	r0, r3
 8000d74:	46bd      	mov	sp, r7
 8000d76:	bc80      	pop	{r7}
 8000d78:	4770      	bx	lr
 8000d7a:	bf00      	nop
 8000d7c:	e000ed00 	.word	0xe000ed00

08000d80 <__NVIC_EnableIRQ>:
  \details Enables a device specific interrupt in the NVIC interrupt controller.
  \param [in]      IRQn  Device specific interrupt number.
  \note    IRQn must not be negative.
 */
__STATIC_INLINE void __NVIC_EnableIRQ(IRQn_Type IRQn)
{
 8000d80:	b480      	push	{r7}
 8000d82:	b083      	sub	sp, #12
 8000d84:	af00      	add	r7, sp, #0
 8000d86:	4603      	mov	r3, r0
 8000d88:	71fb      	strb	r3, [r7, #7]
  if ((int32_t)(IRQn) >= 0)
 8000d8a:	f997 3007 	ldrsb.w	r3, [r7, #7]
 8000d8e:	2b00      	cmp	r3, #0
 8000d90:	db0b      	blt.n	8000daa <__NVIC_EnableIRQ+0x2a>
  {
    NVIC->ISER[(((uint32_t)IRQn) >> 5UL)] = (uint32_t)(1UL << (((uint32_t)IRQn) & 0x1FUL));
 8000d92:	79fb      	ldrb	r3, [r7, #7]
 8000d94:	f003 021f 	and.w	r2, r3, #31
 8000d98:	4906      	ldr	r1, [pc, #24]	; (8000db4 <__NVIC_EnableIRQ+0x34>)
 8000d9a:	f997 3007 	ldrsb.w	r3, [r7, #7]
 8000d9e:	095b      	lsrs	r3, r3, #5
 8000da0:	2001      	movs	r0, #1
 8000da2:	fa00 f202 	lsl.w	r2, r0, r2
 8000da6:	f841 2023 	str.w	r2, [r1, r3, lsl #2]
  }
}
 8000daa:	bf00      	nop
 8000dac:	370c      	adds	r7, #12
 8000dae:	46bd      	mov	sp, r7
 8000db0:	bc80      	pop	{r7}
 8000db2:	4770      	bx	lr
 8000db4:	e000e100 	.word	0xe000e100

08000db8 <__NVIC_SetPriority>:
  \param [in]      IRQn  Interrupt number.
  \param [in]  priority  Priority to set.
  \note    The priority cannot be set for every processor exception.
 */
__STATIC_INLINE void __NVIC_SetPriority(IRQn_Type IRQn, uint32_t priority)
{
 8000db8:	b480      	push	{r7}
 8000dba:	b083      	sub	sp, #12
 8000dbc:	af00      	add	r7, sp, #0
 8000dbe:	4603      	mov	r3, r0
 8000dc0:	6039      	str	r1, [r7, #0]
 8000dc2:	71fb      	strb	r3, [r7, #7]
  if ((int32_t)(IRQn) >= 0)
 8000dc4:	f997 3007 	ldrsb.w	r3, [r7, #7]
 8000dc8:	2b00      	cmp	r3, #0
 8000dca:	db0a      	blt.n	8000de2 <__NVIC_SetPriority+0x2a>
  {
    NVIC->IP[((uint32_t)IRQn)]               = (uint8_t)((priority << (8U - __NVIC_PRIO_BITS)) & (uint32_t)0xFFUL);
 8000dcc:	683b      	ldr	r3, [r7, #0]
 8000dce:	b2da      	uxtb	r2, r3
 8000dd0:	490c      	ldr	r1, [pc, #48]	; (8000e04 <__NVIC_SetPriority+0x4c>)
 8000dd2:	f997 3007 	ldrsb.w	r3, [r7, #7]
 8000dd6:	0112      	lsls	r2, r2, #4
 8000dd8:	b2d2      	uxtb	r2, r2
 8000dda:	440b      	add	r3, r1
 8000ddc:	f883 2300 	strb.w	r2, [r3, #768]	; 0x300
  }
  else
  {
    SCB->SHP[(((uint32_t)IRQn) & 0xFUL)-4UL] = (uint8_t)((priority << (8U - __NVIC_PRIO_BITS)) & (uint32_t)0xFFUL);
  }
}
 8000de0:	e00a      	b.n	8000df8 <__NVIC_SetPriority+0x40>
    SCB->SHP[(((uint32_t)IRQn) & 0xFUL)-4UL] = (uint8_t)((priority << (8U - __NVIC_PRIO_BITS)) & (uint32_t)0xFFUL);
 8000de2:	683b      	ldr	r3, [r7, #0]
 8000de4:	b2da      	uxtb	r2, r3
 8000de6:	4908      	ldr	r1, [pc, #32]	; (8000e08 <__NVIC_SetPriority+0x50>)
 8000de8:	79fb      	ldrb	r3, [r7, #7]
 8000dea:	f003 030f 	and.w	r3, r3, #15
 8000dee:	3b04      	subs	r3, #4
 8000df0:	0112      	lsls	r2, r2, #4
 8000df2:	b2d2      	uxtb	r2, r2
 8000df4:	440b      	add	r3, r1
 8000df6:	761a      	strb	r2, [r3, #24]
}
 8000df8:	bf00      	nop
 8000dfa:	370c      	adds	r7, #12
 8000dfc:	46bd      	mov	sp, r7
 8000dfe:	bc80      	pop	{r7}
 8000e00:	4770      	bx	lr
 8000e02:	bf00      	nop
 8000e04:	e000e100 	.word	0xe000e100
 8000e08:	e000ed00 	.word	0xe000ed00

08000e0c <NVIC_EncodePriority>:
  \param [in]   PreemptPriority  Preemptive priority value (starting from 0).
  \param [in]       SubPriority  Subpriority value (starting from 0).
  \return                        Encoded priority. Value can be used in the function \ref NVIC_SetPriority().
 */
__STATIC_INLINE uint32_t NVIC_EncodePriority (uint32_t PriorityGroup, uint32_t PreemptPriority, uint32_t SubPriority)
{
 8000e0c:	b480      	push	{r7}
 8000e0e:	b089      	sub	sp, #36	; 0x24
 8000e10:	af00      	add	r7, sp, #0
 8000e12:	60f8      	str	r0, [r7, #12]
 8000e14:	60b9      	str	r1, [r7, #8]
 8000e16:	607a      	str	r2, [r7, #4]
  uint32_t PriorityGroupTmp = (PriorityGroup & (uint32_t)0x07UL);   /* only values 0..7 are used          */
 8000e18:	68fb      	ldr	r3, [r7, #12]
 8000e1a:	f003 0307 	and.w	r3, r3, #7
 8000e1e:	61fb      	str	r3, [r7, #28]
  uint32_t PreemptPriorityBits;
  uint32_t SubPriorityBits;

  PreemptPriorityBits = ((7UL - PriorityGroupTmp) > (uint32_t)(__NVIC_PRIO_BITS)) ? (uint32_t)(__NVIC_PRIO_BITS) : (uint32_t)(7UL - PriorityGroupTmp);
 8000e20:	69fb      	ldr	r3, [r7, #28]
 8000e22:	f1c3 0307 	rsb	r3, r3, #7
 8000e26:	2b04      	cmp	r3, #4
 8000e28:	bf28      	it	cs
 8000e2a:	2304      	movcs	r3, #4
 8000e2c:	61bb      	str	r3, [r7, #24]
  SubPriorityBits     = ((PriorityGroupTmp + (uint32_t)(__NVIC_PRIO_BITS)) < (uint32_t)7UL) ? (uint32_t)0UL : (uint32_t)((PriorityGroupTmp - 7UL) + (uint32_t)(__NVIC_PRIO_BITS));
 8000e2e:	69fb      	ldr	r3, [r7, #28]
 8000e30:	3304      	adds	r3, #4
 8000e32:	2b06      	cmp	r3, #6
 8000e34:	d902      	bls.n	8000e3c <NVIC_EncodePriority+0x30>
 8000e36:	69fb      	ldr	r3, [r7, #28]
 8000e38:	3b03      	subs	r3, #3
 8000e3a:	e000      	b.n	8000e3e <NVIC_EncodePriority+0x32>
 8000e3c:	2300      	movs	r3, #0
 8000e3e:	617b      	str	r3, [r7, #20]

  return (
           ((PreemptPriority & (uint32_t)((1UL << (PreemptPriorityBits)) - 1UL)) << SubPriorityBits) |
 8000e40:	f04f 32ff 	mov.w	r2, #4294967295
 8000e44:	69bb      	ldr	r3, [r7, #24]
 8000e46:	fa02 f303 	lsl.w	r3, r2, r3
 8000e4a:	43da      	mvns	r2, r3
 8000e4c:	68bb      	ldr	r3, [r7, #8]
 8000e4e:	401a      	ands	r2, r3
 8000e50:	697b      	ldr	r3, [r7, #20]
 8000e52:	409a      	lsls	r2, r3
           ((SubPriority     & (uint32_t)((1UL << (SubPriorityBits    )) - 1UL)))
 8000e54:	f04f 31ff 	mov.w	r1, #4294967295
 8000e58:	697b      	ldr	r3, [r7, #20]
 8000e5a:	fa01 f303 	lsl.w	r3, r1, r3
 8000e5e:	43d9      	mvns	r1, r3
 8000e60:	687b      	ldr	r3, [r7, #4]
 8000e62:	400b      	ands	r3, r1
           ((PreemptPriority & (uint32_t)((1UL << (PreemptPriorityBits)) - 1UL)) << SubPriorityBits) |
 8000e64:	4313      	orrs	r3, r2
         );
}
 8000e66:	4618      	mov	r0, r3
 8000e68:	3724      	adds	r7, #36	; 0x24
 8000e6a:	46bd      	mov	sp, r7
 8000e6c:	bc80      	pop	{r7}
 8000e6e:	4770      	bx	lr

08000e70 <SysTick_Config>:
  \note    When the variable <b>__Vendor_SysTickConfig</b> is set to 1, then the
           function <b>SysTick_Config</b> is not included. In this case, the file <b><i>device</i>.h</b>
           must contain a vendor-specific implementation of this function.
 */
__STATIC_INLINE uint32_t SysTick_Config(uint32_t ticks)
{
 8000e70:	b580      	push	{r7, lr}
 8000e72:	b082      	sub	sp, #8
 8000e74:	af00      	add	r7, sp, #0
 8000e76:	6078      	str	r0, [r7, #4]
  if ((ticks - 1UL) > SysTick_LOAD_RELOAD_Msk)
 8000e78:	687b      	ldr	r3, [r7, #4]
 8000e7a:	3b01      	subs	r3, #1
 8000e7c:	f1b3 7f80 	cmp.w	r3, #16777216	; 0x1000000
 8000e80:	d301      	bcc.n	8000e86 <SysTick_Config+0x16>
  {
    return (1UL);                                                   /* Reload value impossible */
 8000e82:	2301      	movs	r3, #1
 8000e84:	e00f      	b.n	8000ea6 <SysTick_Config+0x36>
  }

  SysTick->LOAD  = (uint32_t)(ticks - 1UL);                         /* set reload register */
 8000e86:	4a0a      	ldr	r2, [pc, #40]	; (8000eb0 <SysTick_Config+0x40>)
 8000e88:	687b      	ldr	r3, [r7, #4]
 8000e8a:	3b01      	subs	r3, #1
 8000e8c:	6053      	str	r3, [r2, #4]
  NVIC_SetPriority (SysTick_IRQn, (1UL << __NVIC_PRIO_BITS) - 1UL); /* set Priority for Systick Interrupt */
 8000e8e:	210f      	movs	r1, #15
 8000e90:	f04f 30ff 	mov.w	r0, #4294967295
 8000e94:	f7ff ff90 	bl	8000db8 <__NVIC_SetPriority>
  SysTick->VAL   = 0UL;                                             /* Load the SysTick Counter Value */
 8000e98:	4b05      	ldr	r3, [pc, #20]	; (8000eb0 <SysTick_Config+0x40>)
 8000e9a:	2200      	movs	r2, #0
 8000e9c:	609a      	str	r2, [r3, #8]
  SysTick->CTRL  = SysTick_CTRL_CLKSOURCE_Msk |
 8000e9e:	4b04      	ldr	r3, [pc, #16]	; (8000eb0 <SysTick_Config+0x40>)
 8000ea0:	2207      	movs	r2, #7
 8000ea2:	601a      	str	r2, [r3, #0]
                   SysTick_CTRL_TICKINT_Msk   |
                   SysTick_CTRL_ENABLE_Msk;                         /* Enable SysTick IRQ and SysTick Timer */
  return (0UL);                                                     /* Function successful */
 8000ea4:	2300      	movs	r3, #0
}
 8000ea6:	4618      	mov	r0, r3
 8000ea8:	3708      	adds	r7, #8
 8000eaa:	46bd      	mov	sp, r7
 8000eac:	bd80      	pop	{r7, pc}
 8000eae:	bf00      	nop
 8000eb0:	e000e010 	.word	0xe000e010

08000eb4 <HAL_NVIC_SetPriorityGrouping>:
  * @note   When the NVIC_PriorityGroup_0 is selected, IRQ preemption is no more possible. 
  *         The pending IRQ priority will be managed only by the subpriority. 
  * @retval None
  */
void HAL_NVIC_SetPriorityGrouping(uint32_t PriorityGroup)
{
 8000eb4:	b580      	push	{r7, lr}
 8000eb6:	b082      	sub	sp, #8
 8000eb8:	af00      	add	r7, sp, #0
 8000eba:	6078      	str	r0, [r7, #4]
  /* Check the parameters */
  assert_param(IS_NVIC_PRIORITY_GROUP(PriorityGroup));
  
  /* Set the PRIGROUP[10:8] bits according to the PriorityGroup parameter value */
  NVIC_SetPriorityGrouping(PriorityGroup);
 8000ebc:	6878      	ldr	r0, [r7, #4]
 8000ebe:	f7ff ff2d 	bl	8000d1c <__NVIC_SetPriorityGrouping>
}
 8000ec2:	bf00      	nop
 8000ec4:	3708      	adds	r7, #8
 8000ec6:	46bd      	mov	sp, r7
 8000ec8:	bd80      	pop	{r7, pc}

08000eca <HAL_NVIC_SetPriority>:
  *         This parameter can be a value between 0 and 15
  *         A lower priority value indicates a higher priority.          
  * @retval None
  */
void HAL_NVIC_SetPriority(IRQn_Type IRQn, uint32_t PreemptPriority, uint32_t SubPriority)
{ 
 8000eca:	b580      	push	{r7, lr}
 8000ecc:	b086      	sub	sp, #24
 8000ece:	af00      	add	r7, sp, #0
 8000ed0:	4603      	mov	r3, r0
 8000ed2:	60b9      	str	r1, [r7, #8]
 8000ed4:	607a      	str	r2, [r7, #4]
 8000ed6:	73fb      	strb	r3, [r7, #15]
  uint32_t prioritygroup = 0x00U;
 8000ed8:	2300      	movs	r3, #0
 8000eda:	617b      	str	r3, [r7, #20]
  
  /* Check the parameters */
  assert_param(IS_NVIC_SUB_PRIORITY(SubPriority));
  assert_param(IS_NVIC_PREEMPTION_PRIORITY(PreemptPriority));
  
  prioritygroup = NVIC_GetPriorityGrouping();
 8000edc:	f7ff ff42 	bl	8000d64 <__NVIC_GetPriorityGrouping>
 8000ee0:	6178      	str	r0, [r7, #20]
  
  NVIC_SetPriority(IRQn, NVIC_EncodePriority(prioritygroup, PreemptPriority, SubPriority));
 8000ee2:	687a      	ldr	r2, [r7, #4]
 8000ee4:	68b9      	ldr	r1, [r7, #8]
 8000ee6:	6978      	ldr	r0, [r7, #20]
 8000ee8:	f7ff ff90 	bl	8000e0c <NVIC_EncodePriority>
 8000eec:	4602      	mov	r2, r0
 8000eee:	f997 300f 	ldrsb.w	r3, [r7, #15]
 8000ef2:	4611      	mov	r1, r2
 8000ef4:	4618      	mov	r0, r3
 8000ef6:	f7ff ff5f 	bl	8000db8 <__NVIC_SetPriority>
}
 8000efa:	bf00      	nop
 8000efc:	3718      	adds	r7, #24
 8000efe:	46bd      	mov	sp, r7
 8000f00:	bd80      	pop	{r7, pc}

08000f02 <HAL_NVIC_EnableIRQ>:
  *         This parameter can be an enumerator of IRQn_Type enumeration
  *         (For the complete STM32 Devices IRQ Channels list, please refer to the appropriate CMSIS device file (stm32f10xxx.h))
  * @retval None
  */
void HAL_NVIC_EnableIRQ(IRQn_Type IRQn)
{
 8000f02:	b580      	push	{r7, lr}
 8000f04:	b082      	sub	sp, #8
 8000f06:	af00      	add	r7, sp, #0
 8000f08:	4603      	mov	r3, r0
 8000f0a:	71fb      	strb	r3, [r7, #7]
  /* Check the parameters */
  assert_param(IS_NVIC_DEVICE_IRQ(IRQn));

  /* Enable interrupt */
  NVIC_EnableIRQ(IRQn);
 8000f0c:	f997 3007 	ldrsb.w	r3, [r7, #7]
 8000f10:	4618      	mov	r0, r3
 8000f12:	f7ff ff35 	bl	8000d80 <__NVIC_EnableIRQ>
}
 8000f16:	bf00      	nop
 8000f18:	3708      	adds	r7, #8
 8000f1a:	46bd      	mov	sp, r7
 8000f1c:	bd80      	pop	{r7, pc}

08000f1e <HAL_SYSTICK_Config>:
  * @param  TicksNumb: Specifies the ticks Number of ticks between two interrupts.
  * @retval status:  - 0  Function succeeded.
  *                  - 1  Function failed.
  */
uint32_t HAL_SYSTICK_Config(uint32_t TicksNumb)
{
 8000f1e:	b580      	push	{r7, lr}
 8000f20:	b082      	sub	sp, #8
 8000f22:	af00      	add	r7, sp, #0
 8000f24:	6078      	str	r0, [r7, #4]
   return SysTick_Config(TicksNumb);
 8000f26:	6878      	ldr	r0, [r7, #4]
 8000f28:	f7ff ffa2 	bl	8000e70 <SysTick_Config>
 8000f2c:	4603      	mov	r3, r0
}
 8000f2e:	4618      	mov	r0, r3
 8000f30:	3708      	adds	r7, #8
 8000f32:	46bd      	mov	sp, r7
 8000f34:	bd80      	pop	{r7, pc}
	...

08000f38 <HAL_DMA_Abort_IT>:
  * @param  hdma  : pointer to a DMA_HandleTypeDef structure that contains
  *                 the configuration information for the specified DMA Channel.
  * @retval HAL status
  */
HAL_StatusTypeDef HAL_DMA_Abort_IT(DMA_HandleTypeDef *hdma)
{  
 8000f38:	b580      	push	{r7, lr}
 8000f3a:	b084      	sub	sp, #16
 8000f3c:	af00      	add	r7, sp, #0
 8000f3e:	6078      	str	r0, [r7, #4]
  HAL_StatusTypeDef status = HAL_OK;
 8000f40:	2300      	movs	r3, #0
 8000f42:	73fb      	strb	r3, [r7, #15]
  
  if(HAL_DMA_STATE_BUSY != hdma->State)
 8000f44:	687b      	ldr	r3, [r7, #4]
 8000f46:	f893 3021 	ldrb.w	r3, [r3, #33]	; 0x21
 8000f4a:	2b02      	cmp	r3, #2
 8000f4c:	d005      	beq.n	8000f5a <HAL_DMA_Abort_IT+0x22>
  {
    /* no transfer ongoing */
    hdma->ErrorCode = HAL_DMA_ERROR_NO_XFER;
 8000f4e:	687b      	ldr	r3, [r7, #4]
 8000f50:	2204      	movs	r2, #4
 8000f52:	639a      	str	r2, [r3, #56]	; 0x38
        
    status = HAL_ERROR;
 8000f54:	2301      	movs	r3, #1
 8000f56:	73fb      	strb	r3, [r7, #15]
 8000f58:	e051      	b.n	8000ffe <HAL_DMA_Abort_IT+0xc6>
  }
  else
  { 
    /* Disable DMA IT */
    __HAL_DMA_DISABLE_IT(hdma, (DMA_IT_TC | DMA_IT_HT | DMA_IT_TE));
 8000f5a:	687b      	ldr	r3, [r7, #4]
 8000f5c:	681b      	ldr	r3, [r3, #0]
 8000f5e:	681a      	ldr	r2, [r3, #0]
 8000f60:	687b      	ldr	r3, [r7, #4]
 8000f62:	681b      	ldr	r3, [r3, #0]
 8000f64:	f022 020e 	bic.w	r2, r2, #14
 8000f68:	601a      	str	r2, [r3, #0]

    /* Disable the channel */
    __HAL_DMA_DISABLE(hdma);
 8000f6a:	687b      	ldr	r3, [r7, #4]
 8000f6c:	681b      	ldr	r3, [r3, #0]
 8000f6e:	681a      	ldr	r2, [r3, #0]
 8000f70:	687b      	ldr	r3, [r7, #4]
 8000f72:	681b      	ldr	r3, [r3, #0]
 8000f74:	f022 0201 	bic.w	r2, r2, #1
 8000f78:	601a      	str	r2, [r3, #0]

    /* Clear all flags */
    __HAL_DMA_CLEAR_FLAG(hdma, __HAL_DMA_GET_GI_FLAG_INDEX(hdma));
 8000f7a:	687b      	ldr	r3, [r7, #4]
 8000f7c:	681b      	ldr	r3, [r3, #0]
 8000f7e:	4a22      	ldr	r2, [pc, #136]	; (8001008 <HAL_DMA_Abort_IT+0xd0>)
 8000f80:	4293      	cmp	r3, r2
 8000f82:	d029      	beq.n	8000fd8 <HAL_DMA_Abort_IT+0xa0>
 8000f84:	687b      	ldr	r3, [r7, #4]
 8000f86:	681b      	ldr	r3, [r3, #0]
 8000f88:	4a20      	ldr	r2, [pc, #128]	; (800100c <HAL_DMA_Abort_IT+0xd4>)
 8000f8a:	4293      	cmp	r3, r2
 8000f8c:	d022      	beq.n	8000fd4 <HAL_DMA_Abort_IT+0x9c>
 8000f8e:	687b      	ldr	r3, [r7, #4]
 8000f90:	681b      	ldr	r3, [r3, #0]
 8000f92:	4a1f      	ldr	r2, [pc, #124]	; (8001010 <HAL_DMA_Abort_IT+0xd8>)
 8000f94:	4293      	cmp	r3, r2
 8000f96:	d01a      	beq.n	8000fce <HAL_DMA_Abort_IT+0x96>
 8000f98:	687b      	ldr	r3, [r7, #4]
 8000f9a:	681b      	ldr	r3, [r3, #0]
 8000f9c:	4a1d      	ldr	r2, [pc, #116]	; (8001014 <HAL_DMA_Abort_IT+0xdc>)
 8000f9e:	4293      	cmp	r3, r2
 8000fa0:	d012      	beq.n	8000fc8 <HAL_DMA_Abort_IT+0x90>
 8000fa2:	687b      	ldr	r3, [r7, #4]
 8000fa4:	681b      	ldr	r3, [r3, #0]
 8000fa6:	4a1c      	ldr	r2, [pc, #112]	; (8001018 <HAL_DMA_Abort_IT+0xe0>)
 8000fa8:	4293      	cmp	r3, r2
 8000faa:	d00a      	beq.n	8000fc2 <HAL_DMA_Abort_IT+0x8a>
 8000fac:	687b      	ldr	r3, [r7, #4]
 8000fae:	681b      	ldr	r3, [r3, #0]
 8000fb0:	4a1a      	ldr	r2, [pc, #104]	; (800101c <HAL_DMA_Abort_IT+0xe4>)
 8000fb2:	4293      	cmp	r3, r2
 8000fb4:	d102      	bne.n	8000fbc <HAL_DMA_Abort_IT+0x84>
 8000fb6:	f44f 1380 	mov.w	r3, #1048576	; 0x100000
 8000fba:	e00e      	b.n	8000fda <HAL_DMA_Abort_IT+0xa2>
 8000fbc:	f04f 7380 	mov.w	r3, #16777216	; 0x1000000
 8000fc0:	e00b      	b.n	8000fda <HAL_DMA_Abort_IT+0xa2>
 8000fc2:	f44f 3380 	mov.w	r3, #65536	; 0x10000
 8000fc6:	e008      	b.n	8000fda <HAL_DMA_Abort_IT+0xa2>
 8000fc8:	f44f 5380 	mov.w	r3, #4096	; 0x1000
 8000fcc:	e005      	b.n	8000fda <HAL_DMA_Abort_IT+0xa2>
 8000fce:	f44f 7380 	mov.w	r3, #256	; 0x100
 8000fd2:	e002      	b.n	8000fda <HAL_DMA_Abort_IT+0xa2>
 8000fd4:	2310      	movs	r3, #16
 8000fd6:	e000      	b.n	8000fda <HAL_DMA_Abort_IT+0xa2>
 8000fd8:	2301      	movs	r3, #1
 8000fda:	4a11      	ldr	r2, [pc, #68]	; (8001020 <HAL_DMA_Abort_IT+0xe8>)
 8000fdc:	6053      	str	r3, [r2, #4]

    /* Change the DMA state */
    hdma->State = HAL_DMA_STATE_READY;
 8000fde:	687b      	ldr	r3, [r7, #4]
 8000fe0:	2201      	movs	r2, #1
 8000fe2:	f883 2021 	strb.w	r2, [r3, #33]	; 0x21

    /* Process Unlocked */
    __HAL_UNLOCK(hdma);
 8000fe6:	687b      	ldr	r3, [r7, #4]
 8000fe8:	2200      	movs	r2, #0
 8000fea:	f883 2020 	strb.w	r2, [r3, #32]

    /* Call User Abort callback */
    if(hdma->XferAbortCallback != NULL)
 8000fee:	687b      	ldr	r3, [r7, #4]
 8000ff0:	6b5b      	ldr	r3, [r3, #52]	; 0x34
 8000ff2:	2b00      	cmp	r3, #0
 8000ff4:	d003      	beq.n	8000ffe <HAL_DMA_Abort_IT+0xc6>
    {
      hdma->XferAbortCallback(hdma);
 8000ff6:	687b      	ldr	r3, [r7, #4]
 8000ff8:	6b5b      	ldr	r3, [r3, #52]	; 0x34
 8000ffa:	6878      	ldr	r0, [r7, #4]
 8000ffc:	4798      	blx	r3
    } 
  }
  return status;
 8000ffe:	7bfb      	ldrb	r3, [r7, #15]
}
 8001000:	4618      	mov	r0, r3
 8001002:	3710      	adds	r7, #16
 8001004:	46bd      	mov	sp, r7
 8001006:	bd80      	pop	{r7, pc}
 8001008:	40020008 	.word	0x40020008
 800100c:	4002001c 	.word	0x4002001c
 8001010:	40020030 	.word	0x40020030
 8001014:	40020044 	.word	0x40020044
 8001018:	40020058 	.word	0x40020058
 800101c:	4002006c 	.word	0x4002006c
 8001020:	40020000 	.word	0x40020000

08001024 <HAL_GPIO_Init>:
  * @param  GPIO_Init: pointer to a GPIO_InitTypeDef structure that contains
  *         the configuration information for the specified GPIO peripheral.
  * @retval None
  */
void HAL_GPIO_Init(GPIO_TypeDef  *GPIOx, GPIO_InitTypeDef *GPIO_Init)
{
 8001024:	b480      	push	{r7}
 8001026:	b08b      	sub	sp, #44	; 0x2c
 8001028:	af00      	add	r7, sp, #0
 800102a:	6078      	str	r0, [r7, #4]
 800102c:	6039      	str	r1, [r7, #0]
  uint32_t position = 0x00u;
 800102e:	2300      	movs	r3, #0
 8001030:	627b      	str	r3, [r7, #36]	; 0x24
  uint32_t ioposition;
  uint32_t iocurrent;
  uint32_t temp;
  uint32_t config = 0x00u;
 8001032:	2300      	movs	r3, #0
 8001034:	623b      	str	r3, [r7, #32]
  assert_param(IS_GPIO_ALL_INSTANCE(GPIOx));
  assert_param(IS_GPIO_PIN(GPIO_Init->Pin));
  assert_param(IS_GPIO_MODE(GPIO_Init->Mode));

  /* Configure the port pins */
  while (((GPIO_Init->Pin) >> position) != 0x00u)
 8001036:	e169      	b.n	800130c <HAL_GPIO_Init+0x2e8>
  {
    /* Get the IO position */
    ioposition = (0x01uL << position);
 8001038:	2201      	movs	r2, #1
 800103a:	6a7b      	ldr	r3, [r7, #36]	; 0x24
 800103c:	fa02 f303 	lsl.w	r3, r2, r3
 8001040:	61fb      	str	r3, [r7, #28]

    /* Get the current IO position */
    iocurrent = (uint32_t)(GPIO_Init->Pin) & ioposition;
 8001042:	683b      	ldr	r3, [r7, #0]
 8001044:	681b      	ldr	r3, [r3, #0]
 8001046:	69fa      	ldr	r2, [r7, #28]
 8001048:	4013      	ands	r3, r2
 800104a:	61bb      	str	r3, [r7, #24]

    if (iocurrent == ioposition)
 800104c:	69ba      	ldr	r2, [r7, #24]
 800104e:	69fb      	ldr	r3, [r7, #28]
 8001050:	429a      	cmp	r2, r3
 8001052:	f040 8158 	bne.w	8001306 <HAL_GPIO_Init+0x2e2>
    {
      /* Check the Alternate function parameters */
      assert_param(IS_GPIO_AF_INSTANCE(GPIOx));

      /* Based on the required mode, filling config variable with MODEy[1:0] and CNFy[3:2] corresponding bits */
      switch (GPIO_Init->Mode)
 8001056:	683b      	ldr	r3, [r7, #0]
 8001058:	685b      	ldr	r3, [r3, #4]
 800105a:	4a9a      	ldr	r2, [pc, #616]	; (80012c4 <HAL_GPIO_Init+0x2a0>)
 800105c:	4293      	cmp	r3, r2
 800105e:	d05e      	beq.n	800111e <HAL_GPIO_Init+0xfa>
 8001060:	4a98      	ldr	r2, [pc, #608]	; (80012c4 <HAL_GPIO_Init+0x2a0>)
 8001062:	4293      	cmp	r3, r2
 8001064:	d875      	bhi.n	8001152 <HAL_GPIO_Init+0x12e>
 8001066:	4a98      	ldr	r2, [pc, #608]	; (80012c8 <HAL_GPIO_Init+0x2a4>)
 8001068:	4293      	cmp	r3, r2
 800106a:	d058      	beq.n	800111e <HAL_GPIO_Init+0xfa>
 800106c:	4a96      	ldr	r2, [pc, #600]	; (80012c8 <HAL_GPIO_Init+0x2a4>)
 800106e:	4293      	cmp	r3, r2
 8001070:	d86f      	bhi.n	8001152 <HAL_GPIO_Init+0x12e>
 8001072:	4a96      	ldr	r2, [pc, #600]	; (80012cc <HAL_GPIO_Init+0x2a8>)
 8001074:	4293      	cmp	r3, r2
 8001076:	d052      	beq.n	800111e <HAL_GPIO_Init+0xfa>
 8001078:	4a94      	ldr	r2, [pc, #592]	; (80012cc <HAL_GPIO_Init+0x2a8>)
 800107a:	4293      	cmp	r3, r2
 800107c:	d869      	bhi.n	8001152 <HAL_GPIO_Init+0x12e>
 800107e:	4a94      	ldr	r2, [pc, #592]	; (80012d0 <HAL_GPIO_Init+0x2ac>)
 8001080:	4293      	cmp	r3, r2
 8001082:	d04c      	beq.n	800111e <HAL_GPIO_Init+0xfa>
 8001084:	4a92      	ldr	r2, [pc, #584]	; (80012d0 <HAL_GPIO_Init+0x2ac>)
 8001086:	4293      	cmp	r3, r2
 8001088:	d863      	bhi.n	8001152 <HAL_GPIO_Init+0x12e>
 800108a:	4a92      	ldr	r2, [pc, #584]	; (80012d4 <HAL_GPIO_Init+0x2b0>)
 800108c:	4293      	cmp	r3, r2
 800108e:	d046      	beq.n	800111e <HAL_GPIO_Init+0xfa>
 8001090:	4a90      	ldr	r2, [pc, #576]	; (80012d4 <HAL_GPIO_Init+0x2b0>)
 8001092:	4293      	cmp	r3, r2
 8001094:	d85d      	bhi.n	8001152 <HAL_GPIO_Init+0x12e>
 8001096:	2b12      	cmp	r3, #18
 8001098:	d82a      	bhi.n	80010f0 <HAL_GPIO_Init+0xcc>
 800109a:	2b12      	cmp	r3, #18
 800109c:	d859      	bhi.n	8001152 <HAL_GPIO_Init+0x12e>
 800109e:	a201      	add	r2, pc, #4	; (adr r2, 80010a4 <HAL_GPIO_Init+0x80>)
 80010a0:	f852 f023 	ldr.w	pc, [r2, r3, lsl #2]
 80010a4:	0800111f 	.word	0x0800111f
 80010a8:	080010f9 	.word	0x080010f9
 80010ac:	0800110b 	.word	0x0800110b
 80010b0:	0800114d 	.word	0x0800114d
 80010b4:	08001153 	.word	0x08001153
 80010b8:	08001153 	.word	0x08001153
 80010bc:	08001153 	.word	0x08001153
 80010c0:	08001153 	.word	0x08001153
 80010c4:	08001153 	.word	0x08001153
 80010c8:	08001153 	.word	0x08001153
 80010cc:	08001153 	.word	0x08001153
 80010d0:	08001153 	.word	0x08001153
 80010d4:	08001153 	.word	0x08001153
 80010d8:	08001153 	.word	0x08001153
 80010dc:	08001153 	.word	0x08001153
 80010e0:	08001153 	.word	0x08001153
 80010e4:	08001153 	.word	0x08001153
 80010e8:	08001101 	.word	0x08001101
 80010ec:	08001115 	.word	0x08001115
 80010f0:	4a79      	ldr	r2, [pc, #484]	; (80012d8 <HAL_GPIO_Init+0x2b4>)
 80010f2:	4293      	cmp	r3, r2
 80010f4:	d013      	beq.n	800111e <HAL_GPIO_Init+0xfa>
          config = GPIO_CR_MODE_INPUT + GPIO_CR_CNF_ANALOG;
          break;

        /* Parameters are checked with assert_param */
        default:
          break;
 80010f6:	e02c      	b.n	8001152 <HAL_GPIO_Init+0x12e>
          config = GPIO_Init->Speed + GPIO_CR_CNF_GP_OUTPUT_PP;
 80010f8:	683b      	ldr	r3, [r7, #0]
 80010fa:	68db      	ldr	r3, [r3, #12]
 80010fc:	623b      	str	r3, [r7, #32]
          break;
 80010fe:	e029      	b.n	8001154 <HAL_GPIO_Init+0x130>
          config = GPIO_Init->Speed + GPIO_CR_CNF_GP_OUTPUT_OD;
 8001100:	683b      	ldr	r3, [r7, #0]
 8001102:	68db      	ldr	r3, [r3, #12]
 8001104:	3304      	adds	r3, #4
 8001106:	623b      	str	r3, [r7, #32]
          break;
 8001108:	e024      	b.n	8001154 <HAL_GPIO_Init+0x130>
          config = GPIO_Init->Speed + GPIO_CR_CNF_AF_OUTPUT_PP;
 800110a:	683b      	ldr	r3, [r7, #0]
 800110c:	68db      	ldr	r3, [r3, #12]
 800110e:	3308      	adds	r3, #8
 8001110:	623b      	str	r3, [r7, #32]
          break;
 8001112:	e01f      	b.n	8001154 <HAL_GPIO_Init+0x130>
          config = GPIO_Init->Speed + GPIO_CR_CNF_AF_OUTPUT_OD;
 8001114:	683b      	ldr	r3, [r7, #0]
 8001116:	68db      	ldr	r3, [r3, #12]
 8001118:	330c      	adds	r3, #12
 800111a:	623b      	str	r3, [r7, #32]
          break;
 800111c:	e01a      	b.n	8001154 <HAL_GPIO_Init+0x130>
          if (GPIO_Init->Pull == GPIO_NOPULL)
 800111e:	683b      	ldr	r3, [r7, #0]
 8001120:	689b      	ldr	r3, [r3, #8]
 8001122:	2b00      	cmp	r3, #0
 8001124:	d102      	bne.n	800112c <HAL_GPIO_Init+0x108>
            config = GPIO_CR_MODE_INPUT + GPIO_CR_CNF_INPUT_FLOATING;
 8001126:	2304      	movs	r3, #4
 8001128:	623b      	str	r3, [r7, #32]
          break;
 800112a:	e013      	b.n	8001154 <HAL_GPIO_Init+0x130>
          else if (GPIO_Init->Pull == GPIO_PULLUP)
 800112c:	683b      	ldr	r3, [r7, #0]
 800112e:	689b      	ldr	r3, [r3, #8]
 8001130:	2b01      	cmp	r3, #1
 8001132:	d105      	bne.n	8001140 <HAL_GPIO_Init+0x11c>
            config = GPIO_CR_MODE_INPUT + GPIO_CR_CNF_INPUT_PU_PD;
 8001134:	2308      	movs	r3, #8
 8001136:	623b      	str	r3, [r7, #32]
            GPIOx->BSRR = ioposition;
 8001138:	687b      	ldr	r3, [r7, #4]
 800113a:	69fa      	ldr	r2, [r7, #28]
 800113c:	611a      	str	r2, [r3, #16]
          break;
 800113e:	e009      	b.n	8001154 <HAL_GPIO_Init+0x130>
            config = GPIO_CR_MODE_INPUT + GPIO_CR_CNF_INPUT_PU_PD;
 8001140:	2308      	movs	r3, #8
 8001142:	623b      	str	r3, [r7, #32]
            GPIOx->BRR = ioposition;
 8001144:	687b      	ldr	r3, [r7, #4]
 8001146:	69fa      	ldr	r2, [r7, #28]
 8001148:	615a      	str	r2, [r3, #20]
          break;
 800114a:	e003      	b.n	8001154 <HAL_GPIO_Init+0x130>
          config = GPIO_CR_MODE_INPUT + GPIO_CR_CNF_ANALOG;
 800114c:	2300      	movs	r3, #0
 800114e:	623b      	str	r3, [r7, #32]
          break;
 8001150:	e000      	b.n	8001154 <HAL_GPIO_Init+0x130>
          break;
 8001152:	bf00      	nop
      }

      /* Check if the current bit belongs to first half or last half of the pin count number
       in order to address CRH or CRL register*/
      configregister = (iocurrent < GPIO_PIN_8) ? &GPIOx->CRL     : &GPIOx->CRH;
 8001154:	69bb      	ldr	r3, [r7, #24]
 8001156:	2bff      	cmp	r3, #255	; 0xff
 8001158:	d801      	bhi.n	800115e <HAL_GPIO_Init+0x13a>
 800115a:	687b      	ldr	r3, [r7, #4]
 800115c:	e001      	b.n	8001162 <HAL_GPIO_Init+0x13e>
 800115e:	687b      	ldr	r3, [r7, #4]
 8001160:	3304      	adds	r3, #4
 8001162:	617b      	str	r3, [r7, #20]
      registeroffset = (iocurrent < GPIO_PIN_8) ? (position << 2u) : ((position - 8u) << 2u);
 8001164:	69bb      	ldr	r3, [r7, #24]
 8001166:	2bff      	cmp	r3, #255	; 0xff
 8001168:	d802      	bhi.n	8001170 <HAL_GPIO_Init+0x14c>
 800116a:	6a7b      	ldr	r3, [r7, #36]	; 0x24
 800116c:	009b      	lsls	r3, r3, #2
 800116e:	e002      	b.n	8001176 <HAL_GPIO_Init+0x152>
 8001170:	6a7b      	ldr	r3, [r7, #36]	; 0x24
 8001172:	3b08      	subs	r3, #8
 8001174:	009b      	lsls	r3, r3, #2
 8001176:	613b      	str	r3, [r7, #16]

      /* Apply the new configuration of the pin to the register */
      MODIFY_REG((*configregister), ((GPIO_CRL_MODE0 | GPIO_CRL_CNF0) << registeroffset), (config << registeroffset));
 8001178:	697b      	ldr	r3, [r7, #20]
 800117a:	681a      	ldr	r2, [r3, #0]
 800117c:	210f      	movs	r1, #15
 800117e:	693b      	ldr	r3, [r7, #16]
 8001180:	fa01 f303 	lsl.w	r3, r1, r3
 8001184:	43db      	mvns	r3, r3
 8001186:	401a      	ands	r2, r3
 8001188:	6a39      	ldr	r1, [r7, #32]
 800118a:	693b      	ldr	r3, [r7, #16]
 800118c:	fa01 f303 	lsl.w	r3, r1, r3
 8001190:	431a      	orrs	r2, r3
 8001192:	697b      	ldr	r3, [r7, #20]
 8001194:	601a      	str	r2, [r3, #0]

      /*--------------------- EXTI Mode Configuration ------------------------*/
      /* Configure the External Interrupt or event for the current IO */
      if ((GPIO_Init->Mode & EXTI_MODE) == EXTI_MODE)
 8001196:	683b      	ldr	r3, [r7, #0]
 8001198:	685b      	ldr	r3, [r3, #4]
 800119a:	f003 5380 	and.w	r3, r3, #268435456	; 0x10000000
 800119e:	2b00      	cmp	r3, #0
 80011a0:	f000 80b1 	beq.w	8001306 <HAL_GPIO_Init+0x2e2>
      {
        /* Enable AFIO Clock */
        __HAL_RCC_AFIO_CLK_ENABLE();
 80011a4:	4b4d      	ldr	r3, [pc, #308]	; (80012dc <HAL_GPIO_Init+0x2b8>)
 80011a6:	699b      	ldr	r3, [r3, #24]
 80011a8:	4a4c      	ldr	r2, [pc, #304]	; (80012dc <HAL_GPIO_Init+0x2b8>)
 80011aa:	f043 0301 	orr.w	r3, r3, #1
 80011ae:	6193      	str	r3, [r2, #24]
 80011b0:	4b4a      	ldr	r3, [pc, #296]	; (80012dc <HAL_GPIO_Init+0x2b8>)
 80011b2:	699b      	ldr	r3, [r3, #24]
 80011b4:	f003 0301 	and.w	r3, r3, #1
 80011b8:	60bb      	str	r3, [r7, #8]
 80011ba:	68bb      	ldr	r3, [r7, #8]
        temp = AFIO->EXTICR[position >> 2u];
 80011bc:	4a48      	ldr	r2, [pc, #288]	; (80012e0 <HAL_GPIO_Init+0x2bc>)
 80011be:	6a7b      	ldr	r3, [r7, #36]	; 0x24
 80011c0:	089b      	lsrs	r3, r3, #2
 80011c2:	3302      	adds	r3, #2
 80011c4:	f852 3023 	ldr.w	r3, [r2, r3, lsl #2]
 80011c8:	60fb      	str	r3, [r7, #12]
        CLEAR_BIT(temp, (0x0Fu) << (4u * (position & 0x03u)));
 80011ca:	6a7b      	ldr	r3, [r7, #36]	; 0x24
 80011cc:	f003 0303 	and.w	r3, r3, #3
 80011d0:	009b      	lsls	r3, r3, #2
 80011d2:	220f      	movs	r2, #15
 80011d4:	fa02 f303 	lsl.w	r3, r2, r3
 80011d8:	43db      	mvns	r3, r3
 80011da:	68fa      	ldr	r2, [r7, #12]
 80011dc:	4013      	ands	r3, r2
 80011de:	60fb      	str	r3, [r7, #12]
        SET_BIT(temp, (GPIO_GET_INDEX(GPIOx)) << (4u * (position & 0x03u)));
 80011e0:	687b      	ldr	r3, [r7, #4]
 80011e2:	4a40      	ldr	r2, [pc, #256]	; (80012e4 <HAL_GPIO_Init+0x2c0>)
 80011e4:	4293      	cmp	r3, r2
 80011e6:	d013      	beq.n	8001210 <HAL_GPIO_Init+0x1ec>
 80011e8:	687b      	ldr	r3, [r7, #4]
 80011ea:	4a3f      	ldr	r2, [pc, #252]	; (80012e8 <HAL_GPIO_Init+0x2c4>)
 80011ec:	4293      	cmp	r3, r2
 80011ee:	d00d      	beq.n	800120c <HAL_GPIO_Init+0x1e8>
 80011f0:	687b      	ldr	r3, [r7, #4]
 80011f2:	4a3e      	ldr	r2, [pc, #248]	; (80012ec <HAL_GPIO_Init+0x2c8>)
 80011f4:	4293      	cmp	r3, r2
 80011f6:	d007      	beq.n	8001208 <HAL_GPIO_Init+0x1e4>
 80011f8:	687b      	ldr	r3, [r7, #4]
 80011fa:	4a3d      	ldr	r2, [pc, #244]	; (80012f0 <HAL_GPIO_Init+0x2cc>)
 80011fc:	4293      	cmp	r3, r2
 80011fe:	d101      	bne.n	8001204 <HAL_GPIO_Init+0x1e0>
 8001200:	2303      	movs	r3, #3
 8001202:	e006      	b.n	8001212 <HAL_GPIO_Init+0x1ee>
 8001204:	2304      	movs	r3, #4
 8001206:	e004      	b.n	8001212 <HAL_GPIO_Init+0x1ee>
 8001208:	2302      	movs	r3, #2
 800120a:	e002      	b.n	8001212 <HAL_GPIO_Init+0x1ee>
 800120c:	2301      	movs	r3, #1
 800120e:	e000      	b.n	8001212 <HAL_GPIO_Init+0x1ee>
 8001210:	2300      	movs	r3, #0
 8001212:	6a7a      	ldr	r2, [r7, #36]	; 0x24
 8001214:	f002 0203 	and.w	r2, r2, #3
 8001218:	0092      	lsls	r2, r2, #2
 800121a:	4093      	lsls	r3, r2
 800121c:	68fa      	ldr	r2, [r7, #12]
 800121e:	4313      	orrs	r3, r2
 8001220:	60fb      	str	r3, [r7, #12]
        AFIO->EXTICR[position >> 2u] = temp;
 8001222:	492f      	ldr	r1, [pc, #188]	; (80012e0 <HAL_GPIO_Init+0x2bc>)
 8001224:	6a7b      	ldr	r3, [r7, #36]	; 0x24
 8001226:	089b      	lsrs	r3, r3, #2
 8001228:	3302      	adds	r3, #2
 800122a:	68fa      	ldr	r2, [r7, #12]
 800122c:	f841 2023 	str.w	r2, [r1, r3, lsl #2]


        /* Configure the interrupt mask */
        if ((GPIO_Init->Mode & GPIO_MODE_IT) == GPIO_MODE_IT)
 8001230:	683b      	ldr	r3, [r7, #0]
 8001232:	685b      	ldr	r3, [r3, #4]
 8001234:	f403 3380 	and.w	r3, r3, #65536	; 0x10000
 8001238:	2b00      	cmp	r3, #0
 800123a:	d006      	beq.n	800124a <HAL_GPIO_Init+0x226>
        {
          SET_BIT(EXTI->IMR, iocurrent);
 800123c:	4b2d      	ldr	r3, [pc, #180]	; (80012f4 <HAL_GPIO_Init+0x2d0>)
 800123e:	681a      	ldr	r2, [r3, #0]
 8001240:	492c      	ldr	r1, [pc, #176]	; (80012f4 <HAL_GPIO_Init+0x2d0>)
 8001242:	69bb      	ldr	r3, [r7, #24]
 8001244:	4313      	orrs	r3, r2
 8001246:	600b      	str	r3, [r1, #0]
 8001248:	e006      	b.n	8001258 <HAL_GPIO_Init+0x234>
        }
        else
        {
          CLEAR_BIT(EXTI->IMR, iocurrent);
 800124a:	4b2a      	ldr	r3, [pc, #168]	; (80012f4 <HAL_GPIO_Init+0x2d0>)
 800124c:	681a      	ldr	r2, [r3, #0]
 800124e:	69bb      	ldr	r3, [r7, #24]
 8001250:	43db      	mvns	r3, r3
 8001252:	4928      	ldr	r1, [pc, #160]	; (80012f4 <HAL_GPIO_Init+0x2d0>)
 8001254:	4013      	ands	r3, r2
 8001256:	600b      	str	r3, [r1, #0]
        }

        /* Configure the event mask */
        if ((GPIO_Init->Mode & GPIO_MODE_EVT) == GPIO_MODE_EVT)
 8001258:	683b      	ldr	r3, [r7, #0]
 800125a:	685b      	ldr	r3, [r3, #4]
 800125c:	f403 3300 	and.w	r3, r3, #131072	; 0x20000
 8001260:	2b00      	cmp	r3, #0
 8001262:	d006      	beq.n	8001272 <HAL_GPIO_Init+0x24e>
        {
          SET_BIT(EXTI->EMR, iocurrent);
 8001264:	4b23      	ldr	r3, [pc, #140]	; (80012f4 <HAL_GPIO_Init+0x2d0>)
 8001266:	685a      	ldr	r2, [r3, #4]
 8001268:	4922      	ldr	r1, [pc, #136]	; (80012f4 <HAL_GPIO_Init+0x2d0>)
 800126a:	69bb      	ldr	r3, [r7, #24]
 800126c:	4313      	orrs	r3, r2
 800126e:	604b      	str	r3, [r1, #4]
 8001270:	e006      	b.n	8001280 <HAL_GPIO_Init+0x25c>
        }
        else
        {
          CLEAR_BIT(EXTI->EMR, iocurrent);
 8001272:	4b20      	ldr	r3, [pc, #128]	; (80012f4 <HAL_GPIO_Init+0x2d0>)
 8001274:	685a      	ldr	r2, [r3, #4]
 8001276:	69bb      	ldr	r3, [r7, #24]
 8001278:	43db      	mvns	r3, r3
 800127a:	491e      	ldr	r1, [pc, #120]	; (80012f4 <HAL_GPIO_Init+0x2d0>)
 800127c:	4013      	ands	r3, r2
 800127e:	604b      	str	r3, [r1, #4]
        }

        /* Enable or disable the rising trigger */
        if ((GPIO_Init->Mode & RISING_EDGE) == RISING_EDGE)
 8001280:	683b      	ldr	r3, [r7, #0]
 8001282:	685b      	ldr	r3, [r3, #4]
 8001284:	f403 1380 	and.w	r3, r3, #1048576	; 0x100000
 8001288:	2b00      	cmp	r3, #0
 800128a:	d006      	beq.n	800129a <HAL_GPIO_Init+0x276>
        {
          SET_BIT(EXTI->RTSR, iocurrent);
 800128c:	4b19      	ldr	r3, [pc, #100]	; (80012f4 <HAL_GPIO_Init+0x2d0>)
 800128e:	689a      	ldr	r2, [r3, #8]
 8001290:	4918      	ldr	r1, [pc, #96]	; (80012f4 <HAL_GPIO_Init+0x2d0>)
 8001292:	69bb      	ldr	r3, [r7, #24]
 8001294:	4313      	orrs	r3, r2
 8001296:	608b      	str	r3, [r1, #8]
 8001298:	e006      	b.n	80012a8 <HAL_GPIO_Init+0x284>
        }
        else
        {
          CLEAR_BIT(EXTI->RTSR, iocurrent);
 800129a:	4b16      	ldr	r3, [pc, #88]	; (80012f4 <HAL_GPIO_Init+0x2d0>)
 800129c:	689a      	ldr	r2, [r3, #8]
 800129e:	69bb      	ldr	r3, [r7, #24]
 80012a0:	43db      	mvns	r3, r3
 80012a2:	4914      	ldr	r1, [pc, #80]	; (80012f4 <HAL_GPIO_Init+0x2d0>)
 80012a4:	4013      	ands	r3, r2
 80012a6:	608b      	str	r3, [r1, #8]
        }

        /* Enable or disable the falling trigger */
        if ((GPIO_Init->Mode & FALLING_EDGE) == FALLING_EDGE)
 80012a8:	683b      	ldr	r3, [r7, #0]
 80012aa:	685b      	ldr	r3, [r3, #4]
 80012ac:	f403 1300 	and.w	r3, r3, #2097152	; 0x200000
 80012b0:	2b00      	cmp	r3, #0
 80012b2:	d021      	beq.n	80012f8 <HAL_GPIO_Init+0x2d4>
        {
          SET_BIT(EXTI->FTSR, iocurrent);
 80012b4:	4b0f      	ldr	r3, [pc, #60]	; (80012f4 <HAL_GPIO_Init+0x2d0>)
 80012b6:	68da      	ldr	r2, [r3, #12]
 80012b8:	490e      	ldr	r1, [pc, #56]	; (80012f4 <HAL_GPIO_Init+0x2d0>)
 80012ba:	69bb      	ldr	r3, [r7, #24]
 80012bc:	4313      	orrs	r3, r2
 80012be:	60cb      	str	r3, [r1, #12]
 80012c0:	e021      	b.n	8001306 <HAL_GPIO_Init+0x2e2>
 80012c2:	bf00      	nop
 80012c4:	10320000 	.word	0x10320000
 80012c8:	10310000 	.word	0x10310000
 80012cc:	10220000 	.word	0x10220000
 80012d0:	10210000 	.word	0x10210000
 80012d4:	10120000 	.word	0x10120000
 80012d8:	10110000 	.word	0x10110000
 80012dc:	40021000 	.word	0x40021000
 80012e0:	40010000 	.word	0x40010000
 80012e4:	40010800 	.word	0x40010800
 80012e8:	40010c00 	.word	0x40010c00
 80012ec:	40011000 	.word	0x40011000
 80012f0:	40011400 	.word	0x40011400
 80012f4:	40010400 	.word	0x40010400
        }
        else
        {
          CLEAR_BIT(EXTI->FTSR, iocurrent);
 80012f8:	4b0b      	ldr	r3, [pc, #44]	; (8001328 <HAL_GPIO_Init+0x304>)
 80012fa:	68da      	ldr	r2, [r3, #12]
 80012fc:	69bb      	ldr	r3, [r7, #24]
 80012fe:	43db      	mvns	r3, r3
 8001300:	4909      	ldr	r1, [pc, #36]	; (8001328 <HAL_GPIO_Init+0x304>)
 8001302:	4013      	ands	r3, r2
 8001304:	60cb      	str	r3, [r1, #12]
        }
      }
    }

	position++;
 8001306:	6a7b      	ldr	r3, [r7, #36]	; 0x24
 8001308:	3301      	adds	r3, #1
 800130a:	627b      	str	r3, [r7, #36]	; 0x24
  while (((GPIO_Init->Pin) >> position) != 0x00u)
 800130c:	683b      	ldr	r3, [r7, #0]
 800130e:	681a      	ldr	r2, [r3, #0]
 8001310:	6a7b      	ldr	r3, [r7, #36]	; 0x24
 8001312:	fa22 f303 	lsr.w	r3, r2, r3
 8001316:	2b00      	cmp	r3, #0
 8001318:	f47f ae8e 	bne.w	8001038 <HAL_GPIO_Init+0x14>
  }
}
 800131c:	bf00      	nop
 800131e:	bf00      	nop
 8001320:	372c      	adds	r7, #44	; 0x2c
 8001322:	46bd      	mov	sp, r7
 8001324:	bc80      	pop	{r7}
 8001326:	4770      	bx	lr
 8001328:	40010400 	.word	0x40010400

0800132c <HAL_I2C_Init>:
  * @param  hi2c Pointer to a I2C_HandleTypeDef structure that contains
  *                the configuration information for the specified I2C.
  * @retval HAL status
  */
HAL_StatusTypeDef HAL_I2C_Init(I2C_HandleTypeDef *hi2c)
{
 800132c:	b580      	push	{r7, lr}
 800132e:	b084      	sub	sp, #16
 8001330:	af00      	add	r7, sp, #0
 8001332:	6078      	str	r0, [r7, #4]
  uint32_t freqrange;
  uint32_t pclk1;

  /* Check the I2C handle allocation */
  if (hi2c == NULL)
 8001334:	687b      	ldr	r3, [r7, #4]
 8001336:	2b00      	cmp	r3, #0
 8001338:	d101      	bne.n	800133e <HAL_I2C_Init+0x12>
  {
    return HAL_ERROR;
 800133a:	2301      	movs	r3, #1
 800133c:	e12b      	b.n	8001596 <HAL_I2C_Init+0x26a>
  assert_param(IS_I2C_DUAL_ADDRESS(hi2c->Init.DualAddressMode));
  assert_param(IS_I2C_OWN_ADDRESS2(hi2c->Init.OwnAddress2));
  assert_param(IS_I2C_GENERAL_CALL(hi2c->Init.GeneralCallMode));
  assert_param(IS_I2C_NO_STRETCH(hi2c->Init.NoStretchMode));

  if (hi2c->State == HAL_I2C_STATE_RESET)
 800133e:	687b      	ldr	r3, [r7, #4]
 8001340:	f893 303d 	ldrb.w	r3, [r3, #61]	; 0x3d
 8001344:	b2db      	uxtb	r3, r3
 8001346:	2b00      	cmp	r3, #0
 8001348:	d106      	bne.n	8001358 <HAL_I2C_Init+0x2c>
  {
    /* Allocate lock resource and initialize it */
    hi2c->Lock = HAL_UNLOCKED;
 800134a:	687b      	ldr	r3, [r7, #4]
 800134c:	2200      	movs	r2, #0
 800134e:	f883 203c 	strb.w	r2, [r3, #60]	; 0x3c

    /* Init the low level hardware : GPIO, CLOCK, NVIC */
    hi2c->MspInitCallback(hi2c);
#else
    /* Init the low level hardware : GPIO, CLOCK, NVIC */
    HAL_I2C_MspInit(hi2c);
 8001352:	6878      	ldr	r0, [r7, #4]
 8001354:	f7ff fb6a 	bl	8000a2c <HAL_I2C_MspInit>
#endif /* USE_HAL_I2C_REGISTER_CALLBACKS */
  }

  hi2c->State = HAL_I2C_STATE_BUSY;
 8001358:	687b      	ldr	r3, [r7, #4]
 800135a:	2224      	movs	r2, #36	; 0x24
 800135c:	f883 203d 	strb.w	r2, [r3, #61]	; 0x3d

  /* Disable the selected I2C peripheral */
  __HAL_I2C_DISABLE(hi2c);
 8001360:	687b      	ldr	r3, [r7, #4]
 8001362:	681b      	ldr	r3, [r3, #0]
 8001364:	681a      	ldr	r2, [r3, #0]
 8001366:	687b      	ldr	r3, [r7, #4]
 8001368:	681b      	ldr	r3, [r3, #0]
 800136a:	f022 0201 	bic.w	r2, r2, #1
 800136e:	601a      	str	r2, [r3, #0]

  /*Reset I2C*/
  hi2c->Instance->CR1 |= I2C_CR1_SWRST;
 8001370:	687b      	ldr	r3, [r7, #4]
 8001372:	681b      	ldr	r3, [r3, #0]
 8001374:	681a      	ldr	r2, [r3, #0]
 8001376:	687b      	ldr	r3, [r7, #4]
 8001378:	681b      	ldr	r3, [r3, #0]
 800137a:	f442 4200 	orr.w	r2, r2, #32768	; 0x8000
 800137e:	601a      	str	r2, [r3, #0]
  hi2c->Instance->CR1 &= ~I2C_CR1_SWRST;
 8001380:	687b      	ldr	r3, [r7, #4]
 8001382:	681b      	ldr	r3, [r3, #0]
 8001384:	681a      	ldr	r2, [r3, #0]
 8001386:	687b      	ldr	r3, [r7, #4]
 8001388:	681b      	ldr	r3, [r3, #0]
 800138a:	f422 4200 	bic.w	r2, r2, #32768	; 0x8000
 800138e:	601a      	str	r2, [r3, #0]

  /* Get PCLK1 frequency */
  pclk1 = HAL_RCC_GetPCLK1Freq();
 8001390:	f001 fb6e 	bl	8002a70 <HAL_RCC_GetPCLK1Freq>
 8001394:	60f8      	str	r0, [r7, #12]

  /* Check the minimum allowed PCLK1 frequency */
  if (I2C_MIN_PCLK_FREQ(pclk1, hi2c->Init.ClockSpeed) == 1U)
 8001396:	687b      	ldr	r3, [r7, #4]
 8001398:	685b      	ldr	r3, [r3, #4]
 800139a:	4a81      	ldr	r2, [pc, #516]	; (80015a0 <HAL_I2C_Init+0x274>)
 800139c:	4293      	cmp	r3, r2
 800139e:	d807      	bhi.n	80013b0 <HAL_I2C_Init+0x84>
 80013a0:	68fb      	ldr	r3, [r7, #12]
 80013a2:	4a80      	ldr	r2, [pc, #512]	; (80015a4 <HAL_I2C_Init+0x278>)
 80013a4:	4293      	cmp	r3, r2
 80013a6:	bf94      	ite	ls
 80013a8:	2301      	movls	r3, #1
 80013aa:	2300      	movhi	r3, #0
 80013ac:	b2db      	uxtb	r3, r3
 80013ae:	e006      	b.n	80013be <HAL_I2C_Init+0x92>
 80013b0:	68fb      	ldr	r3, [r7, #12]
 80013b2:	4a7d      	ldr	r2, [pc, #500]	; (80015a8 <HAL_I2C_Init+0x27c>)
 80013b4:	4293      	cmp	r3, r2
 80013b6:	bf94      	ite	ls
 80013b8:	2301      	movls	r3, #1
 80013ba:	2300      	movhi	r3, #0
 80013bc:	b2db      	uxtb	r3, r3
 80013be:	2b00      	cmp	r3, #0
 80013c0:	d001      	beq.n	80013c6 <HAL_I2C_Init+0x9a>
  {
    return HAL_ERROR;
 80013c2:	2301      	movs	r3, #1
 80013c4:	e0e7      	b.n	8001596 <HAL_I2C_Init+0x26a>
  }

  /* Calculate frequency range */
  freqrange = I2C_FREQRANGE(pclk1);
 80013c6:	68fb      	ldr	r3, [r7, #12]
 80013c8:	4a78      	ldr	r2, [pc, #480]	; (80015ac <HAL_I2C_Init+0x280>)
 80013ca:	fba2 2303 	umull	r2, r3, r2, r3
 80013ce:	0c9b      	lsrs	r3, r3, #18
 80013d0:	60bb      	str	r3, [r7, #8]

  /*---------------------------- I2Cx CR2 Configuration ----------------------*/
  /* Configure I2Cx: Frequency range */
  MODIFY_REG(hi2c->Instance->CR2, I2C_CR2_FREQ, freqrange);
 80013d2:	687b      	ldr	r3, [r7, #4]
 80013d4:	681b      	ldr	r3, [r3, #0]
 80013d6:	685b      	ldr	r3, [r3, #4]
 80013d8:	f023 013f 	bic.w	r1, r3, #63	; 0x3f
 80013dc:	687b      	ldr	r3, [r7, #4]
 80013de:	681b      	ldr	r3, [r3, #0]
 80013e0:	68ba      	ldr	r2, [r7, #8]
 80013e2:	430a      	orrs	r2, r1
 80013e4:	605a      	str	r2, [r3, #4]

  /*---------------------------- I2Cx TRISE Configuration --------------------*/
  /* Configure I2Cx: Rise Time */
  MODIFY_REG(hi2c->Instance->TRISE, I2C_TRISE_TRISE, I2C_RISE_TIME(freqrange, hi2c->Init.ClockSpeed));
 80013e6:	687b      	ldr	r3, [r7, #4]
 80013e8:	681b      	ldr	r3, [r3, #0]
 80013ea:	6a1b      	ldr	r3, [r3, #32]
 80013ec:	f023 013f 	bic.w	r1, r3, #63	; 0x3f
 80013f0:	687b      	ldr	r3, [r7, #4]
 80013f2:	685b      	ldr	r3, [r3, #4]
 80013f4:	4a6a      	ldr	r2, [pc, #424]	; (80015a0 <HAL_I2C_Init+0x274>)
 80013f6:	4293      	cmp	r3, r2
 80013f8:	d802      	bhi.n	8001400 <HAL_I2C_Init+0xd4>
 80013fa:	68bb      	ldr	r3, [r7, #8]
 80013fc:	3301      	adds	r3, #1
 80013fe:	e009      	b.n	8001414 <HAL_I2C_Init+0xe8>
 8001400:	68bb      	ldr	r3, [r7, #8]
 8001402:	f44f 7296 	mov.w	r2, #300	; 0x12c
 8001406:	fb02 f303 	mul.w	r3, r2, r3
 800140a:	4a69      	ldr	r2, [pc, #420]	; (80015b0 <HAL_I2C_Init+0x284>)
 800140c:	fba2 2303 	umull	r2, r3, r2, r3
 8001410:	099b      	lsrs	r3, r3, #6
 8001412:	3301      	adds	r3, #1
 8001414:	687a      	ldr	r2, [r7, #4]
 8001416:	6812      	ldr	r2, [r2, #0]
 8001418:	430b      	orrs	r3, r1
 800141a:	6213      	str	r3, [r2, #32]

  /*---------------------------- I2Cx CCR Configuration ----------------------*/
  /* Configure I2Cx: Speed */
  MODIFY_REG(hi2c->Instance->CCR, (I2C_CCR_FS | I2C_CCR_DUTY | I2C_CCR_CCR), I2C_SPEED(pclk1, hi2c->Init.ClockSpeed, hi2c->Init.DutyCycle));
 800141c:	687b      	ldr	r3, [r7, #4]
 800141e:	681b      	ldr	r3, [r3, #0]
 8001420:	69db      	ldr	r3, [r3, #28]
 8001422:	f423 424f 	bic.w	r2, r3, #52992	; 0xcf00
 8001426:	f022 02ff 	bic.w	r2, r2, #255	; 0xff
 800142a:	687b      	ldr	r3, [r7, #4]
 800142c:	685b      	ldr	r3, [r3, #4]
 800142e:	495c      	ldr	r1, [pc, #368]	; (80015a0 <HAL_I2C_Init+0x274>)
 8001430:	428b      	cmp	r3, r1
 8001432:	d819      	bhi.n	8001468 <HAL_I2C_Init+0x13c>
 8001434:	68fb      	ldr	r3, [r7, #12]
 8001436:	1e59      	subs	r1, r3, #1
 8001438:	687b      	ldr	r3, [r7, #4]
 800143a:	685b      	ldr	r3, [r3, #4]
 800143c:	005b      	lsls	r3, r3, #1
 800143e:	fbb1 f3f3 	udiv	r3, r1, r3
 8001442:	1c59      	adds	r1, r3, #1
 8001444:	f640 73fc 	movw	r3, #4092	; 0xffc
 8001448:	400b      	ands	r3, r1
 800144a:	2b00      	cmp	r3, #0
 800144c:	d00a      	beq.n	8001464 <HAL_I2C_Init+0x138>
 800144e:	68fb      	ldr	r3, [r7, #12]
 8001450:	1e59      	subs	r1, r3, #1
 8001452:	687b      	ldr	r3, [r7, #4]
 8001454:	685b      	ldr	r3, [r3, #4]
 8001456:	005b      	lsls	r3, r3, #1
 8001458:	fbb1 f3f3 	udiv	r3, r1, r3
 800145c:	3301      	adds	r3, #1
 800145e:	f3c3 030b 	ubfx	r3, r3, #0, #12
 8001462:	e051      	b.n	8001508 <HAL_I2C_Init+0x1dc>
 8001464:	2304      	movs	r3, #4
 8001466:	e04f      	b.n	8001508 <HAL_I2C_Init+0x1dc>
 8001468:	687b      	ldr	r3, [r7, #4]
 800146a:	689b      	ldr	r3, [r3, #8]
 800146c:	2b00      	cmp	r3, #0
 800146e:	d111      	bne.n	8001494 <HAL_I2C_Init+0x168>
 8001470:	68fb      	ldr	r3, [r7, #12]
 8001472:	1e58      	subs	r0, r3, #1
 8001474:	687b      	ldr	r3, [r7, #4]
 8001476:	6859      	ldr	r1, [r3, #4]
 8001478:	460b      	mov	r3, r1
 800147a:	005b      	lsls	r3, r3, #1
 800147c:	440b      	add	r3, r1
 800147e:	fbb0 f3f3 	udiv	r3, r0, r3
 8001482:	3301      	adds	r3, #1
 8001484:	f3c3 030b 	ubfx	r3, r3, #0, #12
 8001488:	2b00      	cmp	r3, #0
 800148a:	bf0c      	ite	eq
 800148c:	2301      	moveq	r3, #1
 800148e:	2300      	movne	r3, #0
 8001490:	b2db      	uxtb	r3, r3
 8001492:	e012      	b.n	80014ba <HAL_I2C_Init+0x18e>
 8001494:	68fb      	ldr	r3, [r7, #12]
 8001496:	1e58      	subs	r0, r3, #1
 8001498:	687b      	ldr	r3, [r7, #4]
 800149a:	6859      	ldr	r1, [r3, #4]
 800149c:	460b      	mov	r3, r1
 800149e:	009b      	lsls	r3, r3, #2
 80014a0:	440b      	add	r3, r1
 80014a2:	0099      	lsls	r1, r3, #2
 80014a4:	440b      	add	r3, r1
 80014a6:	fbb0 f3f3 	udiv	r3, r0, r3
 80014aa:	3301      	adds	r3, #1
 80014ac:	f3c3 030b 	ubfx	r3, r3, #0, #12
 80014b0:	2b00      	cmp	r3, #0
 80014b2:	bf0c      	ite	eq
 80014b4:	2301      	moveq	r3, #1
 80014b6:	2300      	movne	r3, #0
 80014b8:	b2db      	uxtb	r3, r3
 80014ba:	2b00      	cmp	r3, #0
 80014bc:	d001      	beq.n	80014c2 <HAL_I2C_Init+0x196>
 80014be:	2301      	movs	r3, #1
 80014c0:	e022      	b.n	8001508 <HAL_I2C_Init+0x1dc>
 80014c2:	687b      	ldr	r3, [r7, #4]
 80014c4:	689b      	ldr	r3, [r3, #8]
 80014c6:	2b00      	cmp	r3, #0
 80014c8:	d10e      	bne.n	80014e8 <HAL_I2C_Init+0x1bc>
 80014ca:	68fb      	ldr	r3, [r7, #12]
 80014cc:	1e58      	subs	r0, r3, #1
 80014ce:	687b      	ldr	r3, [r7, #4]
 80014d0:	6859      	ldr	r1, [r3, #4]
 80014d2:	460b      	mov	r3, r1
 80014d4:	005b      	lsls	r3, r3, #1
 80014d6:	440b      	add	r3, r1
 80014d8:	fbb0 f3f3 	udiv	r3, r0, r3
 80014dc:	3301      	adds	r3, #1
 80014de:	f3c3 030b 	ubfx	r3, r3, #0, #12
 80014e2:	f443 4300 	orr.w	r3, r3, #32768	; 0x8000
 80014e6:	e00f      	b.n	8001508 <HAL_I2C_Init+0x1dc>
 80014e8:	68fb      	ldr	r3, [r7, #12]
 80014ea:	1e58      	subs	r0, r3, #1
 80014ec:	687b      	ldr	r3, [r7, #4]
 80014ee:	6859      	ldr	r1, [r3, #4]
 80014f0:	460b      	mov	r3, r1
 80014f2:	009b      	lsls	r3, r3, #2
 80014f4:	440b      	add	r3, r1
 80014f6:	0099      	lsls	r1, r3, #2
 80014f8:	440b      	add	r3, r1
 80014fa:	fbb0 f3f3 	udiv	r3, r0, r3
 80014fe:	3301      	adds	r3, #1
 8001500:	f3c3 030b 	ubfx	r3, r3, #0, #12
 8001504:	f443 4340 	orr.w	r3, r3, #49152	; 0xc000
 8001508:	6879      	ldr	r1, [r7, #4]
 800150a:	6809      	ldr	r1, [r1, #0]
 800150c:	4313      	orrs	r3, r2
 800150e:	61cb      	str	r3, [r1, #28]

  /*---------------------------- I2Cx CR1 Configuration ----------------------*/
  /* Configure I2Cx: Generalcall and NoStretch mode */
  MODIFY_REG(hi2c->Instance->CR1, (I2C_CR1_ENGC | I2C_CR1_NOSTRETCH), (hi2c->Init.GeneralCallMode | hi2c->Init.NoStretchMode));
 8001510:	687b      	ldr	r3, [r7, #4]
 8001512:	681b      	ldr	r3, [r3, #0]
 8001514:	681b      	ldr	r3, [r3, #0]
 8001516:	f023 01c0 	bic.w	r1, r3, #192	; 0xc0
 800151a:	687b      	ldr	r3, [r7, #4]
 800151c:	69da      	ldr	r2, [r3, #28]
 800151e:	687b      	ldr	r3, [r7, #4]
 8001520:	6a1b      	ldr	r3, [r3, #32]
 8001522:	431a      	orrs	r2, r3
 8001524:	687b      	ldr	r3, [r7, #4]
 8001526:	681b      	ldr	r3, [r3, #0]
 8001528:	430a      	orrs	r2, r1
 800152a:	601a      	str	r2, [r3, #0]

  /*---------------------------- I2Cx OAR1 Configuration ---------------------*/
  /* Configure I2Cx: Own Address1 and addressing mode */
  MODIFY_REG(hi2c->Instance->OAR1, (I2C_OAR1_ADDMODE | I2C_OAR1_ADD8_9 | I2C_OAR1_ADD1_7 | I2C_OAR1_ADD0), (hi2c->Init.AddressingMode | hi2c->Init.OwnAddress1));
 800152c:	687b      	ldr	r3, [r7, #4]
 800152e:	681b      	ldr	r3, [r3, #0]
 8001530:	689b      	ldr	r3, [r3, #8]
 8001532:	f423 4303 	bic.w	r3, r3, #33536	; 0x8300
 8001536:	f023 03ff 	bic.w	r3, r3, #255	; 0xff
 800153a:	687a      	ldr	r2, [r7, #4]
 800153c:	6911      	ldr	r1, [r2, #16]
 800153e:	687a      	ldr	r2, [r7, #4]
 8001540:	68d2      	ldr	r2, [r2, #12]
 8001542:	4311      	orrs	r1, r2
 8001544:	687a      	ldr	r2, [r7, #4]
 8001546:	6812      	ldr	r2, [r2, #0]
 8001548:	430b      	orrs	r3, r1
 800154a:	6093      	str	r3, [r2, #8]

  /*---------------------------- I2Cx OAR2 Configuration ---------------------*/
  /* Configure I2Cx: Dual mode and Own Address2 */
  MODIFY_REG(hi2c->Instance->OAR2, (I2C_OAR2_ENDUAL | I2C_OAR2_ADD2), (hi2c->Init.DualAddressMode | hi2c->Init.OwnAddress2));
 800154c:	687b      	ldr	r3, [r7, #4]
 800154e:	681b      	ldr	r3, [r3, #0]
 8001550:	68db      	ldr	r3, [r3, #12]
 8001552:	f023 01ff 	bic.w	r1, r3, #255	; 0xff
 8001556:	687b      	ldr	r3, [r7, #4]
 8001558:	695a      	ldr	r2, [r3, #20]
 800155a:	687b      	ldr	r3, [r7, #4]
 800155c:	699b      	ldr	r3, [r3, #24]
 800155e:	431a      	orrs	r2, r3
 8001560:	687b      	ldr	r3, [r7, #4]
 8001562:	681b      	ldr	r3, [r3, #0]
 8001564:	430a      	orrs	r2, r1
 8001566:	60da      	str	r2, [r3, #12]

  /* Enable the selected I2C peripheral */
  __HAL_I2C_ENABLE(hi2c);
 8001568:	687b      	ldr	r3, [r7, #4]
 800156a:	681b      	ldr	r3, [r3, #0]
 800156c:	681a      	ldr	r2, [r3, #0]
 800156e:	687b      	ldr	r3, [r7, #4]
 8001570:	681b      	ldr	r3, [r3, #0]
 8001572:	f042 0201 	orr.w	r2, r2, #1
 8001576:	601a      	str	r2, [r3, #0]

  hi2c->ErrorCode = HAL_I2C_ERROR_NONE;
 8001578:	687b      	ldr	r3, [r7, #4]
 800157a:	2200      	movs	r2, #0
 800157c:	641a      	str	r2, [r3, #64]	; 0x40
  hi2c->State = HAL_I2C_STATE_READY;
 800157e:	687b      	ldr	r3, [r7, #4]
 8001580:	2220      	movs	r2, #32
 8001582:	f883 203d 	strb.w	r2, [r3, #61]	; 0x3d
  hi2c->PreviousState = I2C_STATE_NONE;
 8001586:	687b      	ldr	r3, [r7, #4]
 8001588:	2200      	movs	r2, #0
 800158a:	631a      	str	r2, [r3, #48]	; 0x30
  hi2c->Mode = HAL_I2C_MODE_NONE;
 800158c:	687b      	ldr	r3, [r7, #4]
 800158e:	2200      	movs	r2, #0
 8001590:	f883 203e 	strb.w	r2, [r3, #62]	; 0x3e

  return HAL_OK;
 8001594:	2300      	movs	r3, #0
}
 8001596:	4618      	mov	r0, r3
 8001598:	3710      	adds	r7, #16
 800159a:	46bd      	mov	sp, r7
 800159c:	bd80      	pop	{r7, pc}
 800159e:	bf00      	nop
 80015a0:	000186a0 	.word	0x000186a0
 80015a4:	001e847f 	.word	0x001e847f
 80015a8:	003d08ff 	.word	0x003d08ff
 80015ac:	431bde83 	.word	0x431bde83
 80015b0:	10624dd3 	.word	0x10624dd3

080015b4 <HAL_I2C_Master_Transmit>:
  * @param  Size Amount of data to be sent
  * @param  Timeout Timeout duration
  * @retval HAL status
  */
HAL_StatusTypeDef HAL_I2C_Master_Transmit(I2C_HandleTypeDef *hi2c, uint16_t DevAddress, uint8_t *pData, uint16_t Size, uint32_t Timeout)
{
 80015b4:	b580      	push	{r7, lr}
 80015b6:	b088      	sub	sp, #32
 80015b8:	af02      	add	r7, sp, #8
 80015ba:	60f8      	str	r0, [r7, #12]
 80015bc:	607a      	str	r2, [r7, #4]
 80015be:	461a      	mov	r2, r3
 80015c0:	460b      	mov	r3, r1
 80015c2:	817b      	strh	r3, [r7, #10]
 80015c4:	4613      	mov	r3, r2
 80015c6:	813b      	strh	r3, [r7, #8]
  /* Init tickstart for timeout management*/
  uint32_t tickstart = HAL_GetTick();
 80015c8:	f7ff fb7a 	bl	8000cc0 <HAL_GetTick>
 80015cc:	6178      	str	r0, [r7, #20]

  if (hi2c->State == HAL_I2C_STATE_READY)
 80015ce:	68fb      	ldr	r3, [r7, #12]
 80015d0:	f893 303d 	ldrb.w	r3, [r3, #61]	; 0x3d
 80015d4:	b2db      	uxtb	r3, r3
 80015d6:	2b20      	cmp	r3, #32
 80015d8:	f040 80e0 	bne.w	800179c <HAL_I2C_Master_Transmit+0x1e8>
  {
    /* Wait until BUSY flag is reset */
    if (I2C_WaitOnFlagUntilTimeout(hi2c, I2C_FLAG_BUSY, SET, I2C_TIMEOUT_BUSY_FLAG, tickstart) != HAL_OK)
 80015dc:	697b      	ldr	r3, [r7, #20]
 80015de:	9300      	str	r3, [sp, #0]
 80015e0:	2319      	movs	r3, #25
 80015e2:	2201      	movs	r2, #1
 80015e4:	4970      	ldr	r1, [pc, #448]	; (80017a8 <HAL_I2C_Master_Transmit+0x1f4>)
 80015e6:	68f8      	ldr	r0, [r7, #12]
 80015e8:	f000 fc92 	bl	8001f10 <I2C_WaitOnFlagUntilTimeout>
 80015ec:	4603      	mov	r3, r0
 80015ee:	2b00      	cmp	r3, #0
 80015f0:	d001      	beq.n	80015f6 <HAL_I2C_Master_Transmit+0x42>
    {
      return HAL_BUSY;
 80015f2:	2302      	movs	r3, #2
 80015f4:	e0d3      	b.n	800179e <HAL_I2C_Master_Transmit+0x1ea>
    }

    /* Process Locked */
    __HAL_LOCK(hi2c);
 80015f6:	68fb      	ldr	r3, [r7, #12]
 80015f8:	f893 303c 	ldrb.w	r3, [r3, #60]	; 0x3c
 80015fc:	2b01      	cmp	r3, #1
 80015fe:	d101      	bne.n	8001604 <HAL_I2C_Master_Transmit+0x50>
 8001600:	2302      	movs	r3, #2
 8001602:	e0cc      	b.n	800179e <HAL_I2C_Master_Transmit+0x1ea>
 8001604:	68fb      	ldr	r3, [r7, #12]
 8001606:	2201      	movs	r2, #1
 8001608:	f883 203c 	strb.w	r2, [r3, #60]	; 0x3c

    /* Check if the I2C is already enabled */
    if ((hi2c->Instance->CR1 & I2C_CR1_PE) != I2C_CR1_PE)
 800160c:	68fb      	ldr	r3, [r7, #12]
 800160e:	681b      	ldr	r3, [r3, #0]
 8001610:	681b      	ldr	r3, [r3, #0]
 8001612:	f003 0301 	and.w	r3, r3, #1
 8001616:	2b01      	cmp	r3, #1
 8001618:	d007      	beq.n	800162a <HAL_I2C_Master_Transmit+0x76>
    {
      /* Enable I2C peripheral */
      __HAL_I2C_ENABLE(hi2c);
 800161a:	68fb      	ldr	r3, [r7, #12]
 800161c:	681b      	ldr	r3, [r3, #0]
 800161e:	681a      	ldr	r2, [r3, #0]
 8001620:	68fb      	ldr	r3, [r7, #12]
 8001622:	681b      	ldr	r3, [r3, #0]
 8001624:	f042 0201 	orr.w	r2, r2, #1
 8001628:	601a      	str	r2, [r3, #0]
    }

    /* Disable Pos */
    CLEAR_BIT(hi2c->Instance->CR1, I2C_CR1_POS);
 800162a:	68fb      	ldr	r3, [r7, #12]
 800162c:	681b      	ldr	r3, [r3, #0]
 800162e:	681a      	ldr	r2, [r3, #0]
 8001630:	68fb      	ldr	r3, [r7, #12]
 8001632:	681b      	ldr	r3, [r3, #0]
 8001634:	f422 6200 	bic.w	r2, r2, #2048	; 0x800
 8001638:	601a      	str	r2, [r3, #0]

    hi2c->State       = HAL_I2C_STATE_BUSY_TX;
 800163a:	68fb      	ldr	r3, [r7, #12]
 800163c:	2221      	movs	r2, #33	; 0x21
 800163e:	f883 203d 	strb.w	r2, [r3, #61]	; 0x3d
    hi2c->Mode        = HAL_I2C_MODE_MASTER;
 8001642:	68fb      	ldr	r3, [r7, #12]
 8001644:	2210      	movs	r2, #16
 8001646:	f883 203e 	strb.w	r2, [r3, #62]	; 0x3e
    hi2c->ErrorCode   = HAL_I2C_ERROR_NONE;
 800164a:	68fb      	ldr	r3, [r7, #12]
 800164c:	2200      	movs	r2, #0
 800164e:	641a      	str	r2, [r3, #64]	; 0x40

    /* Prepare transfer parameters */
    hi2c->pBuffPtr    = pData;
 8001650:	68fb      	ldr	r3, [r7, #12]
 8001652:	687a      	ldr	r2, [r7, #4]
 8001654:	625a      	str	r2, [r3, #36]	; 0x24
    hi2c->XferCount   = Size;
 8001656:	68fb      	ldr	r3, [r7, #12]
 8001658:	893a      	ldrh	r2, [r7, #8]
 800165a:	855a      	strh	r2, [r3, #42]	; 0x2a
    hi2c->XferSize    = hi2c->XferCount;
 800165c:	68fb      	ldr	r3, [r7, #12]
 800165e:	8d5b      	ldrh	r3, [r3, #42]	; 0x2a
 8001660:	b29a      	uxth	r2, r3
 8001662:	68fb      	ldr	r3, [r7, #12]
 8001664:	851a      	strh	r2, [r3, #40]	; 0x28
    hi2c->XferOptions = I2C_NO_OPTION_FRAME;
 8001666:	68fb      	ldr	r3, [r7, #12]
 8001668:	4a50      	ldr	r2, [pc, #320]	; (80017ac <HAL_I2C_Master_Transmit+0x1f8>)
 800166a:	62da      	str	r2, [r3, #44]	; 0x2c

    /* Send Slave Address */
    if (I2C_MasterRequestWrite(hi2c, DevAddress, Timeout, tickstart) != HAL_OK)
 800166c:	8979      	ldrh	r1, [r7, #10]
 800166e:	697b      	ldr	r3, [r7, #20]
 8001670:	6a3a      	ldr	r2, [r7, #32]
 8001672:	68f8      	ldr	r0, [r7, #12]
 8001674:	f000 fafc 	bl	8001c70 <I2C_MasterRequestWrite>
 8001678:	4603      	mov	r3, r0
 800167a:	2b00      	cmp	r3, #0
 800167c:	d001      	beq.n	8001682 <HAL_I2C_Master_Transmit+0xce>
    {
      return HAL_ERROR;
 800167e:	2301      	movs	r3, #1
 8001680:	e08d      	b.n	800179e <HAL_I2C_Master_Transmit+0x1ea>
    }

    /* Clear ADDR flag */
    __HAL_I2C_CLEAR_ADDRFLAG(hi2c);
 8001682:	2300      	movs	r3, #0
 8001684:	613b      	str	r3, [r7, #16]
 8001686:	68fb      	ldr	r3, [r7, #12]
 8001688:	681b      	ldr	r3, [r3, #0]
 800168a:	695b      	ldr	r3, [r3, #20]
 800168c:	613b      	str	r3, [r7, #16]
 800168e:	68fb      	ldr	r3, [r7, #12]
 8001690:	681b      	ldr	r3, [r3, #0]
 8001692:	699b      	ldr	r3, [r3, #24]
 8001694:	613b      	str	r3, [r7, #16]
 8001696:	693b      	ldr	r3, [r7, #16]

    while (hi2c->XferSize > 0U)
 8001698:	e066      	b.n	8001768 <HAL_I2C_Master_Transmit+0x1b4>
    {
      /* Wait until TXE flag is set */
      if (I2C_WaitOnTXEFlagUntilTimeout(hi2c, Timeout, tickstart) != HAL_OK)
 800169a:	697a      	ldr	r2, [r7, #20]
 800169c:	6a39      	ldr	r1, [r7, #32]
 800169e:	68f8      	ldr	r0, [r7, #12]
 80016a0:	f000 fd0c 	bl	80020bc <I2C_WaitOnTXEFlagUntilTimeout>
 80016a4:	4603      	mov	r3, r0
 80016a6:	2b00      	cmp	r3, #0
 80016a8:	d00d      	beq.n	80016c6 <HAL_I2C_Master_Transmit+0x112>
      {
        if (hi2c->ErrorCode == HAL_I2C_ERROR_AF)
 80016aa:	68fb      	ldr	r3, [r7, #12]
 80016ac:	6c1b      	ldr	r3, [r3, #64]	; 0x40
 80016ae:	2b04      	cmp	r3, #4
 80016b0:	d107      	bne.n	80016c2 <HAL_I2C_Master_Transmit+0x10e>
        {
          /* Generate Stop */
          SET_BIT(hi2c->Instance->CR1, I2C_CR1_STOP);
 80016b2:	68fb      	ldr	r3, [r7, #12]
 80016b4:	681b      	ldr	r3, [r3, #0]
 80016b6:	681a      	ldr	r2, [r3, #0]
 80016b8:	68fb      	ldr	r3, [r7, #12]
 80016ba:	681b      	ldr	r3, [r3, #0]
 80016bc:	f442 7200 	orr.w	r2, r2, #512	; 0x200
 80016c0:	601a      	str	r2, [r3, #0]
        }
        return HAL_ERROR;
 80016c2:	2301      	movs	r3, #1
 80016c4:	e06b      	b.n	800179e <HAL_I2C_Master_Transmit+0x1ea>
      }

      /* Write data to DR */
      hi2c->Instance->DR = *hi2c->pBuffPtr;
 80016c6:	68fb      	ldr	r3, [r7, #12]
 80016c8:	6a5b      	ldr	r3, [r3, #36]	; 0x24
 80016ca:	781a      	ldrb	r2, [r3, #0]
 80016cc:	68fb      	ldr	r3, [r7, #12]
 80016ce:	681b      	ldr	r3, [r3, #0]
 80016d0:	611a      	str	r2, [r3, #16]

      /* Increment Buffer pointer */
      hi2c->pBuffPtr++;
 80016d2:	68fb      	ldr	r3, [r7, #12]
 80016d4:	6a5b      	ldr	r3, [r3, #36]	; 0x24
 80016d6:	1c5a      	adds	r2, r3, #1
 80016d8:	68fb      	ldr	r3, [r7, #12]
 80016da:	625a      	str	r2, [r3, #36]	; 0x24

      /* Update counter */
      hi2c->XferCount--;
 80016dc:	68fb      	ldr	r3, [r7, #12]
 80016de:	8d5b      	ldrh	r3, [r3, #42]	; 0x2a
 80016e0:	b29b      	uxth	r3, r3
 80016e2:	3b01      	subs	r3, #1
 80016e4:	b29a      	uxth	r2, r3
 80016e6:	68fb      	ldr	r3, [r7, #12]
 80016e8:	855a      	strh	r2, [r3, #42]	; 0x2a
      hi2c->XferSize--;
 80016ea:	68fb      	ldr	r3, [r7, #12]
 80016ec:	8d1b      	ldrh	r3, [r3, #40]	; 0x28
 80016ee:	3b01      	subs	r3, #1
 80016f0:	b29a      	uxth	r2, r3
 80016f2:	68fb      	ldr	r3, [r7, #12]
 80016f4:	851a      	strh	r2, [r3, #40]	; 0x28

      if ((__HAL_I2C_GET_FLAG(hi2c, I2C_FLAG_BTF) == SET) && (hi2c->XferSize != 0U))
 80016f6:	68fb      	ldr	r3, [r7, #12]
 80016f8:	681b      	ldr	r3, [r3, #0]
 80016fa:	695b      	ldr	r3, [r3, #20]
 80016fc:	f003 0304 	and.w	r3, r3, #4
 8001700:	2b04      	cmp	r3, #4
 8001702:	d11b      	bne.n	800173c <HAL_I2C_Master_Transmit+0x188>
 8001704:	68fb      	ldr	r3, [r7, #12]
 8001706:	8d1b      	ldrh	r3, [r3, #40]	; 0x28
 8001708:	2b00      	cmp	r3, #0
 800170a:	d017      	beq.n	800173c <HAL_I2C_Master_Transmit+0x188>
      {
        /* Write data to DR */
        hi2c->Instance->DR = *hi2c->pBuffPtr;
 800170c:	68fb      	ldr	r3, [r7, #12]
 800170e:	6a5b      	ldr	r3, [r3, #36]	; 0x24
 8001710:	781a      	ldrb	r2, [r3, #0]
 8001712:	68fb      	ldr	r3, [r7, #12]
 8001714:	681b      	ldr	r3, [r3, #0]
 8001716:	611a      	str	r2, [r3, #16]

        /* Increment Buffer pointer */
        hi2c->pBuffPtr++;
 8001718:	68fb      	ldr	r3, [r7, #12]
 800171a:	6a5b      	ldr	r3, [r3, #36]	; 0x24
 800171c:	1c5a      	adds	r2, r3, #1
 800171e:	68fb      	ldr	r3, [r7, #12]
 8001720:	625a      	str	r2, [r3, #36]	; 0x24

        /* Update counter */
        hi2c->XferCount--;
 8001722:	68fb      	ldr	r3, [r7, #12]
 8001724:	8d5b      	ldrh	r3, [r3, #42]	; 0x2a
 8001726:	b29b      	uxth	r3, r3
 8001728:	3b01      	subs	r3, #1
 800172a:	b29a      	uxth	r2, r3
 800172c:	68fb      	ldr	r3, [r7, #12]
 800172e:	855a      	strh	r2, [r3, #42]	; 0x2a
        hi2c->XferSize--;
 8001730:	68fb      	ldr	r3, [r7, #12]
 8001732:	8d1b      	ldrh	r3, [r3, #40]	; 0x28
 8001734:	3b01      	subs	r3, #1
 8001736:	b29a      	uxth	r2, r3
 8001738:	68fb      	ldr	r3, [r7, #12]
 800173a:	851a      	strh	r2, [r3, #40]	; 0x28
      }

      /* Wait until BTF flag is set */
      if (I2C_WaitOnBTFFlagUntilTimeout(hi2c, Timeout, tickstart) != HAL_OK)
 800173c:	697a      	ldr	r2, [r7, #20]
 800173e:	6a39      	ldr	r1, [r7, #32]
 8001740:	68f8      	ldr	r0, [r7, #12]
 8001742:	f000 fcfc 	bl	800213e <I2C_WaitOnBTFFlagUntilTimeout>
 8001746:	4603      	mov	r3, r0
 8001748:	2b00      	cmp	r3, #0
 800174a:	d00d      	beq.n	8001768 <HAL_I2C_Master_Transmit+0x1b4>
      {
        if (hi2c->ErrorCode == HAL_I2C_ERROR_AF)
 800174c:	68fb      	ldr	r3, [r7, #12]
 800174e:	6c1b      	ldr	r3, [r3, #64]	; 0x40
 8001750:	2b04      	cmp	r3, #4
 8001752:	d107      	bne.n	8001764 <HAL_I2C_Master_Transmit+0x1b0>
        {
          /* Generate Stop */
          SET_BIT(hi2c->Instance->CR1, I2C_CR1_STOP);
 8001754:	68fb      	ldr	r3, [r7, #12]
 8001756:	681b      	ldr	r3, [r3, #0]
 8001758:	681a      	ldr	r2, [r3, #0]
 800175a:	68fb      	ldr	r3, [r7, #12]
 800175c:	681b      	ldr	r3, [r3, #0]
 800175e:	f442 7200 	orr.w	r2, r2, #512	; 0x200
 8001762:	601a      	str	r2, [r3, #0]
        }
        return HAL_ERROR;
 8001764:	2301      	movs	r3, #1
 8001766:	e01a      	b.n	800179e <HAL_I2C_Master_Transmit+0x1ea>
    while (hi2c->XferSize > 0U)
 8001768:	68fb      	ldr	r3, [r7, #12]
 800176a:	8d1b      	ldrh	r3, [r3, #40]	; 0x28
 800176c:	2b00      	cmp	r3, #0
 800176e:	d194      	bne.n	800169a <HAL_I2C_Master_Transmit+0xe6>
      }
    }

    /* Generate Stop */
    SET_BIT(hi2c->Instance->CR1, I2C_CR1_STOP);
 8001770:	68fb      	ldr	r3, [r7, #12]
 8001772:	681b      	ldr	r3, [r3, #0]
 8001774:	681a      	ldr	r2, [r3, #0]
 8001776:	68fb      	ldr	r3, [r7, #12]
 8001778:	681b      	ldr	r3, [r3, #0]
 800177a:	f442 7200 	orr.w	r2, r2, #512	; 0x200
 800177e:	601a      	str	r2, [r3, #0]

    hi2c->State = HAL_I2C_STATE_READY;
 8001780:	68fb      	ldr	r3, [r7, #12]
 8001782:	2220      	movs	r2, #32
 8001784:	f883 203d 	strb.w	r2, [r3, #61]	; 0x3d
    hi2c->Mode = HAL_I2C_MODE_NONE;
 8001788:	68fb      	ldr	r3, [r7, #12]
 800178a:	2200      	movs	r2, #0
 800178c:	f883 203e 	strb.w	r2, [r3, #62]	; 0x3e

    /* Process Unlocked */
    __HAL_UNLOCK(hi2c);
 8001790:	68fb      	ldr	r3, [r7, #12]
 8001792:	2200      	movs	r2, #0
 8001794:	f883 203c 	strb.w	r2, [r3, #60]	; 0x3c

    return HAL_OK;
 8001798:	2300      	movs	r3, #0
 800179a:	e000      	b.n	800179e <HAL_I2C_Master_Transmit+0x1ea>
  }
  else
  {
    return HAL_BUSY;
 800179c:	2302      	movs	r3, #2
  }
}
 800179e:	4618      	mov	r0, r3
 80017a0:	3718      	adds	r7, #24
 80017a2:	46bd      	mov	sp, r7
 80017a4:	bd80      	pop	{r7, pc}
 80017a6:	bf00      	nop
 80017a8:	00100002 	.word	0x00100002
 80017ac:	ffff0000 	.word	0xffff0000

080017b0 <HAL_I2C_Master_Receive>:
  * @param  Size Amount of data to be sent
  * @param  Timeout Timeout duration
  * @retval HAL status
  */
HAL_StatusTypeDef HAL_I2C_Master_Receive(I2C_HandleTypeDef *hi2c, uint16_t DevAddress, uint8_t *pData, uint16_t Size, uint32_t Timeout)
{
 80017b0:	b580      	push	{r7, lr}
 80017b2:	b08c      	sub	sp, #48	; 0x30
 80017b4:	af02      	add	r7, sp, #8
 80017b6:	60f8      	str	r0, [r7, #12]
 80017b8:	607a      	str	r2, [r7, #4]
 80017ba:	461a      	mov	r2, r3
 80017bc:	460b      	mov	r3, r1
 80017be:	817b      	strh	r3, [r7, #10]
 80017c0:	4613      	mov	r3, r2
 80017c2:	813b      	strh	r3, [r7, #8]
  __IO uint32_t count = 0U;
 80017c4:	2300      	movs	r3, #0
 80017c6:	623b      	str	r3, [r7, #32]

  /* Init tickstart for timeout management*/
  uint32_t tickstart = HAL_GetTick();
 80017c8:	f7ff fa7a 	bl	8000cc0 <HAL_GetTick>
 80017cc:	6278      	str	r0, [r7, #36]	; 0x24

  if (hi2c->State == HAL_I2C_STATE_READY)
 80017ce:	68fb      	ldr	r3, [r7, #12]
 80017d0:	f893 303d 	ldrb.w	r3, [r3, #61]	; 0x3d
 80017d4:	b2db      	uxtb	r3, r3
 80017d6:	2b20      	cmp	r3, #32
 80017d8:	f040 823f 	bne.w	8001c5a <HAL_I2C_Master_Receive+0x4aa>
  {
    /* Wait until BUSY flag is reset */
    if (I2C_WaitOnFlagUntilTimeout(hi2c, I2C_FLAG_BUSY, SET, I2C_TIMEOUT_BUSY_FLAG, tickstart) != HAL_OK)
 80017dc:	6a7b      	ldr	r3, [r7, #36]	; 0x24
 80017de:	9300      	str	r3, [sp, #0]
 80017e0:	2319      	movs	r3, #25
 80017e2:	2201      	movs	r2, #1
 80017e4:	497f      	ldr	r1, [pc, #508]	; (80019e4 <HAL_I2C_Master_Receive+0x234>)
 80017e6:	68f8      	ldr	r0, [r7, #12]
 80017e8:	f000 fb92 	bl	8001f10 <I2C_WaitOnFlagUntilTimeout>
 80017ec:	4603      	mov	r3, r0
 80017ee:	2b00      	cmp	r3, #0
 80017f0:	d001      	beq.n	80017f6 <HAL_I2C_Master_Receive+0x46>
    {
      return HAL_BUSY;
 80017f2:	2302      	movs	r3, #2
 80017f4:	e232      	b.n	8001c5c <HAL_I2C_Master_Receive+0x4ac>
    }

    /* Process Locked */
    __HAL_LOCK(hi2c);
 80017f6:	68fb      	ldr	r3, [r7, #12]
 80017f8:	f893 303c 	ldrb.w	r3, [r3, #60]	; 0x3c
 80017fc:	2b01      	cmp	r3, #1
 80017fe:	d101      	bne.n	8001804 <HAL_I2C_Master_Receive+0x54>
 8001800:	2302      	movs	r3, #2
 8001802:	e22b      	b.n	8001c5c <HAL_I2C_Master_Receive+0x4ac>
 8001804:	68fb      	ldr	r3, [r7, #12]
 8001806:	2201      	movs	r2, #1
 8001808:	f883 203c 	strb.w	r2, [r3, #60]	; 0x3c

    /* Check if the I2C is already enabled */
    if ((hi2c->Instance->CR1 & I2C_CR1_PE) != I2C_CR1_PE)
 800180c:	68fb      	ldr	r3, [r7, #12]
 800180e:	681b      	ldr	r3, [r3, #0]
 8001810:	681b      	ldr	r3, [r3, #0]
 8001812:	f003 0301 	and.w	r3, r3, #1
 8001816:	2b01      	cmp	r3, #1
 8001818:	d007      	beq.n	800182a <HAL_I2C_Master_Receive+0x7a>
    {
      /* Enable I2C peripheral */
      __HAL_I2C_ENABLE(hi2c);
 800181a:	68fb      	ldr	r3, [r7, #12]
 800181c:	681b      	ldr	r3, [r3, #0]
 800181e:	681a      	ldr	r2, [r3, #0]
 8001820:	68fb      	ldr	r3, [r7, #12]
 8001822:	681b      	ldr	r3, [r3, #0]
 8001824:	f042 0201 	orr.w	r2, r2, #1
 8001828:	601a      	str	r2, [r3, #0]
    }

    /* Disable Pos */
    CLEAR_BIT(hi2c->Instance->CR1, I2C_CR1_POS);
 800182a:	68fb      	ldr	r3, [r7, #12]
 800182c:	681b      	ldr	r3, [r3, #0]
 800182e:	681a      	ldr	r2, [r3, #0]
 8001830:	68fb      	ldr	r3, [r7, #12]
 8001832:	681b      	ldr	r3, [r3, #0]
 8001834:	f422 6200 	bic.w	r2, r2, #2048	; 0x800
 8001838:	601a      	str	r2, [r3, #0]

    hi2c->State       = HAL_I2C_STATE_BUSY_RX;
 800183a:	68fb      	ldr	r3, [r7, #12]
 800183c:	2222      	movs	r2, #34	; 0x22
 800183e:	f883 203d 	strb.w	r2, [r3, #61]	; 0x3d
    hi2c->Mode        = HAL_I2C_MODE_MASTER;
 8001842:	68fb      	ldr	r3, [r7, #12]
 8001844:	2210      	movs	r2, #16
 8001846:	f883 203e 	strb.w	r2, [r3, #62]	; 0x3e
    hi2c->ErrorCode   = HAL_I2C_ERROR_NONE;
 800184a:	68fb      	ldr	r3, [r7, #12]
 800184c:	2200      	movs	r2, #0
 800184e:	641a      	str	r2, [r3, #64]	; 0x40

    /* Prepare transfer parameters */
    hi2c->pBuffPtr    = pData;
 8001850:	68fb      	ldr	r3, [r7, #12]
 8001852:	687a      	ldr	r2, [r7, #4]
 8001854:	625a      	str	r2, [r3, #36]	; 0x24
    hi2c->XferCount   = Size;
 8001856:	68fb      	ldr	r3, [r7, #12]
 8001858:	893a      	ldrh	r2, [r7, #8]
 800185a:	855a      	strh	r2, [r3, #42]	; 0x2a
    hi2c->XferSize    = hi2c->XferCount;
 800185c:	68fb      	ldr	r3, [r7, #12]
 800185e:	8d5b      	ldrh	r3, [r3, #42]	; 0x2a
 8001860:	b29a      	uxth	r2, r3
 8001862:	68fb      	ldr	r3, [r7, #12]
 8001864:	851a      	strh	r2, [r3, #40]	; 0x28
    hi2c->XferOptions = I2C_NO_OPTION_FRAME;
 8001866:	68fb      	ldr	r3, [r7, #12]
 8001868:	4a5f      	ldr	r2, [pc, #380]	; (80019e8 <HAL_I2C_Master_Receive+0x238>)
 800186a:	62da      	str	r2, [r3, #44]	; 0x2c

    /* Send Slave Address */
    if (I2C_MasterRequestRead(hi2c, DevAddress, Timeout, tickstart) != HAL_OK)
 800186c:	8979      	ldrh	r1, [r7, #10]
 800186e:	6a7b      	ldr	r3, [r7, #36]	; 0x24
 8001870:	6b3a      	ldr	r2, [r7, #48]	; 0x30
 8001872:	68f8      	ldr	r0, [r7, #12]
 8001874:	f000 fa7e 	bl	8001d74 <I2C_MasterRequestRead>
 8001878:	4603      	mov	r3, r0
 800187a:	2b00      	cmp	r3, #0
 800187c:	d001      	beq.n	8001882 <HAL_I2C_Master_Receive+0xd2>
    {
      return HAL_ERROR;
 800187e:	2301      	movs	r3, #1
 8001880:	e1ec      	b.n	8001c5c <HAL_I2C_Master_Receive+0x4ac>
    }

    if (hi2c->XferSize == 0U)
 8001882:	68fb      	ldr	r3, [r7, #12]
 8001884:	8d1b      	ldrh	r3, [r3, #40]	; 0x28
 8001886:	2b00      	cmp	r3, #0
 8001888:	d113      	bne.n	80018b2 <HAL_I2C_Master_Receive+0x102>
    {
      /* Clear ADDR flag */
      __HAL_I2C_CLEAR_ADDRFLAG(hi2c);
 800188a:	2300      	movs	r3, #0
 800188c:	61fb      	str	r3, [r7, #28]
 800188e:	68fb      	ldr	r3, [r7, #12]
 8001890:	681b      	ldr	r3, [r3, #0]
 8001892:	695b      	ldr	r3, [r3, #20]
 8001894:	61fb      	str	r3, [r7, #28]
 8001896:	68fb      	ldr	r3, [r7, #12]
 8001898:	681b      	ldr	r3, [r3, #0]
 800189a:	699b      	ldr	r3, [r3, #24]
 800189c:	61fb      	str	r3, [r7, #28]
 800189e:	69fb      	ldr	r3, [r7, #28]

      /* Generate Stop */
      SET_BIT(hi2c->Instance->CR1, I2C_CR1_STOP);
 80018a0:	68fb      	ldr	r3, [r7, #12]
 80018a2:	681b      	ldr	r3, [r3, #0]
 80018a4:	681a      	ldr	r2, [r3, #0]
 80018a6:	68fb      	ldr	r3, [r7, #12]
 80018a8:	681b      	ldr	r3, [r3, #0]
 80018aa:	f442 7200 	orr.w	r2, r2, #512	; 0x200
 80018ae:	601a      	str	r2, [r3, #0]
 80018b0:	e1c0      	b.n	8001c34 <HAL_I2C_Master_Receive+0x484>
    }
    else if (hi2c->XferSize == 1U)
 80018b2:	68fb      	ldr	r3, [r7, #12]
 80018b4:	8d1b      	ldrh	r3, [r3, #40]	; 0x28
 80018b6:	2b01      	cmp	r3, #1
 80018b8:	d11e      	bne.n	80018f8 <HAL_I2C_Master_Receive+0x148>
    {
      /* Disable Acknowledge */
      CLEAR_BIT(hi2c->Instance->CR1, I2C_CR1_ACK);
 80018ba:	68fb      	ldr	r3, [r7, #12]
 80018bc:	681b      	ldr	r3, [r3, #0]
 80018be:	681a      	ldr	r2, [r3, #0]
 80018c0:	68fb      	ldr	r3, [r7, #12]
 80018c2:	681b      	ldr	r3, [r3, #0]
 80018c4:	f422 6280 	bic.w	r2, r2, #1024	; 0x400
 80018c8:	601a      	str	r2, [r3, #0]
  __ASM volatile ("cpsid i" : : : "memory");
 80018ca:	b672      	cpsid	i
}
 80018cc:	bf00      	nop
      /* Disable all active IRQs around ADDR clearing and STOP programming because the EV6_3
      software sequence must complete before the current byte end of transfer */
      __disable_irq();

      /* Clear ADDR flag */
      __HAL_I2C_CLEAR_ADDRFLAG(hi2c);
 80018ce:	2300      	movs	r3, #0
 80018d0:	61bb      	str	r3, [r7, #24]
 80018d2:	68fb      	ldr	r3, [r7, #12]
 80018d4:	681b      	ldr	r3, [r3, #0]
 80018d6:	695b      	ldr	r3, [r3, #20]
 80018d8:	61bb      	str	r3, [r7, #24]
 80018da:	68fb      	ldr	r3, [r7, #12]
 80018dc:	681b      	ldr	r3, [r3, #0]
 80018de:	699b      	ldr	r3, [r3, #24]
 80018e0:	61bb      	str	r3, [r7, #24]
 80018e2:	69bb      	ldr	r3, [r7, #24]

      /* Generate Stop */
      SET_BIT(hi2c->Instance->CR1, I2C_CR1_STOP);
 80018e4:	68fb      	ldr	r3, [r7, #12]
 80018e6:	681b      	ldr	r3, [r3, #0]
 80018e8:	681a      	ldr	r2, [r3, #0]
 80018ea:	68fb      	ldr	r3, [r7, #12]
 80018ec:	681b      	ldr	r3, [r3, #0]
 80018ee:	f442 7200 	orr.w	r2, r2, #512	; 0x200
 80018f2:	601a      	str	r2, [r3, #0]
  __ASM volatile ("cpsie i" : : : "memory");
 80018f4:	b662      	cpsie	i
}
 80018f6:	e035      	b.n	8001964 <HAL_I2C_Master_Receive+0x1b4>

      /* Re-enable IRQs */
      __enable_irq();
    }
    else if (hi2c->XferSize == 2U)
 80018f8:	68fb      	ldr	r3, [r7, #12]
 80018fa:	8d1b      	ldrh	r3, [r3, #40]	; 0x28
 80018fc:	2b02      	cmp	r3, #2
 80018fe:	d11e      	bne.n	800193e <HAL_I2C_Master_Receive+0x18e>
    {
      /* Enable Pos */
      SET_BIT(hi2c->Instance->CR1, I2C_CR1_POS);
 8001900:	68fb      	ldr	r3, [r7, #12]
 8001902:	681b      	ldr	r3, [r3, #0]
 8001904:	681a      	ldr	r2, [r3, #0]
 8001906:	68fb      	ldr	r3, [r7, #12]
 8001908:	681b      	ldr	r3, [r3, #0]
 800190a:	f442 6200 	orr.w	r2, r2, #2048	; 0x800
 800190e:	601a      	str	r2, [r3, #0]
  __ASM volatile ("cpsid i" : : : "memory");
 8001910:	b672      	cpsid	i
}
 8001912:	bf00      	nop
      /* Disable all active IRQs around ADDR clearing and STOP programming because the EV6_3
      software sequence must complete before the current byte end of transfer */
      __disable_irq();

      /* Clear ADDR flag */
      __HAL_I2C_CLEAR_ADDRFLAG(hi2c);
 8001914:	2300      	movs	r3, #0
 8001916:	617b      	str	r3, [r7, #20]
 8001918:	68fb      	ldr	r3, [r7, #12]
 800191a:	681b      	ldr	r3, [r3, #0]
 800191c:	695b      	ldr	r3, [r3, #20]
 800191e:	617b      	str	r3, [r7, #20]
 8001920:	68fb      	ldr	r3, [r7, #12]
 8001922:	681b      	ldr	r3, [r3, #0]
 8001924:	699b      	ldr	r3, [r3, #24]
 8001926:	617b      	str	r3, [r7, #20]
 8001928:	697b      	ldr	r3, [r7, #20]

      /* Disable Acknowledge */
      CLEAR_BIT(hi2c->Instance->CR1, I2C_CR1_ACK);
 800192a:	68fb      	ldr	r3, [r7, #12]
 800192c:	681b      	ldr	r3, [r3, #0]
 800192e:	681a      	ldr	r2, [r3, #0]
 8001930:	68fb      	ldr	r3, [r7, #12]
 8001932:	681b      	ldr	r3, [r3, #0]
 8001934:	f422 6280 	bic.w	r2, r2, #1024	; 0x400
 8001938:	601a      	str	r2, [r3, #0]
  __ASM volatile ("cpsie i" : : : "memory");
 800193a:	b662      	cpsie	i
}
 800193c:	e012      	b.n	8001964 <HAL_I2C_Master_Receive+0x1b4>
      __enable_irq();
    }
    else
    {
      /* Enable Acknowledge */
      SET_BIT(hi2c->Instance->CR1, I2C_CR1_ACK);
 800193e:	68fb      	ldr	r3, [r7, #12]
 8001940:	681b      	ldr	r3, [r3, #0]
 8001942:	681a      	ldr	r2, [r3, #0]
 8001944:	68fb      	ldr	r3, [r7, #12]
 8001946:	681b      	ldr	r3, [r3, #0]
 8001948:	f442 6280 	orr.w	r2, r2, #1024	; 0x400
 800194c:	601a      	str	r2, [r3, #0]

      /* Clear ADDR flag */
      __HAL_I2C_CLEAR_ADDRFLAG(hi2c);
 800194e:	2300      	movs	r3, #0
 8001950:	613b      	str	r3, [r7, #16]
 8001952:	68fb      	ldr	r3, [r7, #12]
 8001954:	681b      	ldr	r3, [r3, #0]
 8001956:	695b      	ldr	r3, [r3, #20]
 8001958:	613b      	str	r3, [r7, #16]
 800195a:	68fb      	ldr	r3, [r7, #12]
 800195c:	681b      	ldr	r3, [r3, #0]
 800195e:	699b      	ldr	r3, [r3, #24]
 8001960:	613b      	str	r3, [r7, #16]
 8001962:	693b      	ldr	r3, [r7, #16]
    }

    while (hi2c->XferSize > 0U)
 8001964:	e166      	b.n	8001c34 <HAL_I2C_Master_Receive+0x484>
    {
      if (hi2c->XferSize <= 3U)
 8001966:	68fb      	ldr	r3, [r7, #12]
 8001968:	8d1b      	ldrh	r3, [r3, #40]	; 0x28
 800196a:	2b03      	cmp	r3, #3
 800196c:	f200 811f 	bhi.w	8001bae <HAL_I2C_Master_Receive+0x3fe>
      {
        /* One byte */
        if (hi2c->XferSize == 1U)
 8001970:	68fb      	ldr	r3, [r7, #12]
 8001972:	8d1b      	ldrh	r3, [r3, #40]	; 0x28
 8001974:	2b01      	cmp	r3, #1
 8001976:	d123      	bne.n	80019c0 <HAL_I2C_Master_Receive+0x210>
        {
          /* Wait until RXNE flag is set */
          if (I2C_WaitOnRXNEFlagUntilTimeout(hi2c, Timeout, tickstart) != HAL_OK)
 8001978:	6a7a      	ldr	r2, [r7, #36]	; 0x24
 800197a:	6b39      	ldr	r1, [r7, #48]	; 0x30
 800197c:	68f8      	ldr	r0, [r7, #12]
 800197e:	f000 fc1f 	bl	80021c0 <I2C_WaitOnRXNEFlagUntilTimeout>
 8001982:	4603      	mov	r3, r0
 8001984:	2b00      	cmp	r3, #0
 8001986:	d001      	beq.n	800198c <HAL_I2C_Master_Receive+0x1dc>
          {
            return HAL_ERROR;
 8001988:	2301      	movs	r3, #1
 800198a:	e167      	b.n	8001c5c <HAL_I2C_Master_Receive+0x4ac>
          }

          /* Read data from DR */
          *hi2c->pBuffPtr = (uint8_t)hi2c->Instance->DR;
 800198c:	68fb      	ldr	r3, [r7, #12]
 800198e:	681b      	ldr	r3, [r3, #0]
 8001990:	691a      	ldr	r2, [r3, #16]
 8001992:	68fb      	ldr	r3, [r7, #12]
 8001994:	6a5b      	ldr	r3, [r3, #36]	; 0x24
 8001996:	b2d2      	uxtb	r2, r2
 8001998:	701a      	strb	r2, [r3, #0]

          /* Increment Buffer pointer */
          hi2c->pBuffPtr++;
 800199a:	68fb      	ldr	r3, [r7, #12]
 800199c:	6a5b      	ldr	r3, [r3, #36]	; 0x24
 800199e:	1c5a      	adds	r2, r3, #1
 80019a0:	68fb      	ldr	r3, [r7, #12]
 80019a2:	625a      	str	r2, [r3, #36]	; 0x24

          /* Update counter */
          hi2c->XferSize--;
 80019a4:	68fb      	ldr	r3, [r7, #12]
 80019a6:	8d1b      	ldrh	r3, [r3, #40]	; 0x28
 80019a8:	3b01      	subs	r3, #1
 80019aa:	b29a      	uxth	r2, r3
 80019ac:	68fb      	ldr	r3, [r7, #12]
 80019ae:	851a      	strh	r2, [r3, #40]	; 0x28
          hi2c->XferCount--;
 80019b0:	68fb      	ldr	r3, [r7, #12]
 80019b2:	8d5b      	ldrh	r3, [r3, #42]	; 0x2a
 80019b4:	b29b      	uxth	r3, r3
 80019b6:	3b01      	subs	r3, #1
 80019b8:	b29a      	uxth	r2, r3
 80019ba:	68fb      	ldr	r3, [r7, #12]
 80019bc:	855a      	strh	r2, [r3, #42]	; 0x2a
 80019be:	e139      	b.n	8001c34 <HAL_I2C_Master_Receive+0x484>
        }
        /* Two bytes */
        else if (hi2c->XferSize == 2U)
 80019c0:	68fb      	ldr	r3, [r7, #12]
 80019c2:	8d1b      	ldrh	r3, [r3, #40]	; 0x28
 80019c4:	2b02      	cmp	r3, #2
 80019c6:	d152      	bne.n	8001a6e <HAL_I2C_Master_Receive+0x2be>
        {
          /* Wait until BTF flag is set */
          if (I2C_WaitOnFlagUntilTimeout(hi2c, I2C_FLAG_BTF, RESET, Timeout, tickstart) != HAL_OK)
 80019c8:	6a7b      	ldr	r3, [r7, #36]	; 0x24
 80019ca:	9300      	str	r3, [sp, #0]
 80019cc:	6b3b      	ldr	r3, [r7, #48]	; 0x30
 80019ce:	2200      	movs	r2, #0
 80019d0:	4906      	ldr	r1, [pc, #24]	; (80019ec <HAL_I2C_Master_Receive+0x23c>)
 80019d2:	68f8      	ldr	r0, [r7, #12]
 80019d4:	f000 fa9c 	bl	8001f10 <I2C_WaitOnFlagUntilTimeout>
 80019d8:	4603      	mov	r3, r0
 80019da:	2b00      	cmp	r3, #0
 80019dc:	d008      	beq.n	80019f0 <HAL_I2C_Master_Receive+0x240>
          {
            return HAL_ERROR;
 80019de:	2301      	movs	r3, #1
 80019e0:	e13c      	b.n	8001c5c <HAL_I2C_Master_Receive+0x4ac>
 80019e2:	bf00      	nop
 80019e4:	00100002 	.word	0x00100002
 80019e8:	ffff0000 	.word	0xffff0000
 80019ec:	00010004 	.word	0x00010004
  __ASM volatile ("cpsid i" : : : "memory");
 80019f0:	b672      	cpsid	i
}
 80019f2:	bf00      	nop
          /* Disable all active IRQs around ADDR clearing and STOP programming because the EV6_3
             software sequence must complete before the current byte end of transfer */
          __disable_irq();

          /* Generate Stop */
          SET_BIT(hi2c->Instance->CR1, I2C_CR1_STOP);
 80019f4:	68fb      	ldr	r3, [r7, #12]
 80019f6:	681b      	ldr	r3, [r3, #0]
 80019f8:	681a      	ldr	r2, [r3, #0]
 80019fa:	68fb      	ldr	r3, [r7, #12]
 80019fc:	681b      	ldr	r3, [r3, #0]
 80019fe:	f442 7200 	orr.w	r2, r2, #512	; 0x200
 8001a02:	601a      	str	r2, [r3, #0]

          /* Read data from DR */
          *hi2c->pBuffPtr = (uint8_t)hi2c->Instance->DR;
 8001a04:	68fb      	ldr	r3, [r7, #12]
 8001a06:	681b      	ldr	r3, [r3, #0]
 8001a08:	691a      	ldr	r2, [r3, #16]
 8001a0a:	68fb      	ldr	r3, [r7, #12]
 8001a0c:	6a5b      	ldr	r3, [r3, #36]	; 0x24
 8001a0e:	b2d2      	uxtb	r2, r2
 8001a10:	701a      	strb	r2, [r3, #0]

          /* Increment Buffer pointer */
          hi2c->pBuffPtr++;
 8001a12:	68fb      	ldr	r3, [r7, #12]
 8001a14:	6a5b      	ldr	r3, [r3, #36]	; 0x24
 8001a16:	1c5a      	adds	r2, r3, #1
 8001a18:	68fb      	ldr	r3, [r7, #12]
 8001a1a:	625a      	str	r2, [r3, #36]	; 0x24

          /* Update counter */
          hi2c->XferSize--;
 8001a1c:	68fb      	ldr	r3, [r7, #12]
 8001a1e:	8d1b      	ldrh	r3, [r3, #40]	; 0x28
 8001a20:	3b01      	subs	r3, #1
 8001a22:	b29a      	uxth	r2, r3
 8001a24:	68fb      	ldr	r3, [r7, #12]
 8001a26:	851a      	strh	r2, [r3, #40]	; 0x28
          hi2c->XferCount--;
 8001a28:	68fb      	ldr	r3, [r7, #12]
 8001a2a:	8d5b      	ldrh	r3, [r3, #42]	; 0x2a
 8001a2c:	b29b      	uxth	r3, r3
 8001a2e:	3b01      	subs	r3, #1
 8001a30:	b29a      	uxth	r2, r3
 8001a32:	68fb      	ldr	r3, [r7, #12]
 8001a34:	855a      	strh	r2, [r3, #42]	; 0x2a
  __ASM volatile ("cpsie i" : : : "memory");
 8001a36:	b662      	cpsie	i
}
 8001a38:	bf00      	nop

          /* Re-enable IRQs */
          __enable_irq();

          /* Read data from DR */
          *hi2c->pBuffPtr = (uint8_t)hi2c->Instance->DR;
 8001a3a:	68fb      	ldr	r3, [r7, #12]
 8001a3c:	681b      	ldr	r3, [r3, #0]
 8001a3e:	691a      	ldr	r2, [r3, #16]
 8001a40:	68fb      	ldr	r3, [r7, #12]
 8001a42:	6a5b      	ldr	r3, [r3, #36]	; 0x24
 8001a44:	b2d2      	uxtb	r2, r2
 8001a46:	701a      	strb	r2, [r3, #0]

          /* Increment Buffer pointer */
          hi2c->pBuffPtr++;
 8001a48:	68fb      	ldr	r3, [r7, #12]
 8001a4a:	6a5b      	ldr	r3, [r3, #36]	; 0x24
 8001a4c:	1c5a      	adds	r2, r3, #1
 8001a4e:	68fb      	ldr	r3, [r7, #12]
 8001a50:	625a      	str	r2, [r3, #36]	; 0x24

          /* Update counter */
          hi2c->XferSize--;
 8001a52:	68fb      	ldr	r3, [r7, #12]
 8001a54:	8d1b      	ldrh	r3, [r3, #40]	; 0x28
 8001a56:	3b01      	subs	r3, #1
 8001a58:	b29a      	uxth	r2, r3
 8001a5a:	68fb      	ldr	r3, [r7, #12]
 8001a5c:	851a      	strh	r2, [r3, #40]	; 0x28
          hi2c->XferCount--;
 8001a5e:	68fb      	ldr	r3, [r7, #12]
 8001a60:	8d5b      	ldrh	r3, [r3, #42]	; 0x2a
 8001a62:	b29b      	uxth	r3, r3
 8001a64:	3b01      	subs	r3, #1
 8001a66:	b29a      	uxth	r2, r3
 8001a68:	68fb      	ldr	r3, [r7, #12]
 8001a6a:	855a      	strh	r2, [r3, #42]	; 0x2a
 8001a6c:	e0e2      	b.n	8001c34 <HAL_I2C_Master_Receive+0x484>
        }
        /* 3 Last bytes */
        else
        {
          /* Wait until BTF flag is set */
          if (I2C_WaitOnFlagUntilTimeout(hi2c, I2C_FLAG_BTF, RESET, Timeout, tickstart) != HAL_OK)
 8001a6e:	6a7b      	ldr	r3, [r7, #36]	; 0x24
 8001a70:	9300      	str	r3, [sp, #0]
 8001a72:	6b3b      	ldr	r3, [r7, #48]	; 0x30
 8001a74:	2200      	movs	r2, #0
 8001a76:	497b      	ldr	r1, [pc, #492]	; (8001c64 <HAL_I2C_Master_Receive+0x4b4>)
 8001a78:	68f8      	ldr	r0, [r7, #12]
 8001a7a:	f000 fa49 	bl	8001f10 <I2C_WaitOnFlagUntilTimeout>
 8001a7e:	4603      	mov	r3, r0
 8001a80:	2b00      	cmp	r3, #0
 8001a82:	d001      	beq.n	8001a88 <HAL_I2C_Master_Receive+0x2d8>
          {
            return HAL_ERROR;
 8001a84:	2301      	movs	r3, #1
 8001a86:	e0e9      	b.n	8001c5c <HAL_I2C_Master_Receive+0x4ac>
          }

          /* Disable Acknowledge */
          CLEAR_BIT(hi2c->Instance->CR1, I2C_CR1_ACK);
 8001a88:	68fb      	ldr	r3, [r7, #12]
 8001a8a:	681b      	ldr	r3, [r3, #0]
 8001a8c:	681a      	ldr	r2, [r3, #0]
 8001a8e:	68fb      	ldr	r3, [r7, #12]
 8001a90:	681b      	ldr	r3, [r3, #0]
 8001a92:	f422 6280 	bic.w	r2, r2, #1024	; 0x400
 8001a96:	601a      	str	r2, [r3, #0]
  __ASM volatile ("cpsid i" : : : "memory");
 8001a98:	b672      	cpsid	i
}
 8001a9a:	bf00      	nop
          /* Disable all active IRQs around ADDR clearing and STOP programming because the EV6_3
             software sequence must complete before the current byte end of transfer */
          __disable_irq();

          /* Read data from DR */
          *hi2c->pBuffPtr = (uint8_t)hi2c->Instance->DR;
 8001a9c:	68fb      	ldr	r3, [r7, #12]
 8001a9e:	681b      	ldr	r3, [r3, #0]
 8001aa0:	691a      	ldr	r2, [r3, #16]
 8001aa2:	68fb      	ldr	r3, [r7, #12]
 8001aa4:	6a5b      	ldr	r3, [r3, #36]	; 0x24
 8001aa6:	b2d2      	uxtb	r2, r2
 8001aa8:	701a      	strb	r2, [r3, #0]

          /* Increment Buffer pointer */
          hi2c->pBuffPtr++;
 8001aaa:	68fb      	ldr	r3, [r7, #12]
 8001aac:	6a5b      	ldr	r3, [r3, #36]	; 0x24
 8001aae:	1c5a      	adds	r2, r3, #1
 8001ab0:	68fb      	ldr	r3, [r7, #12]
 8001ab2:	625a      	str	r2, [r3, #36]	; 0x24

          /* Update counter */
          hi2c->XferSize--;
 8001ab4:	68fb      	ldr	r3, [r7, #12]
 8001ab6:	8d1b      	ldrh	r3, [r3, #40]	; 0x28
 8001ab8:	3b01      	subs	r3, #1
 8001aba:	b29a      	uxth	r2, r3
 8001abc:	68fb      	ldr	r3, [r7, #12]
 8001abe:	851a      	strh	r2, [r3, #40]	; 0x28
          hi2c->XferCount--;
 8001ac0:	68fb      	ldr	r3, [r7, #12]
 8001ac2:	8d5b      	ldrh	r3, [r3, #42]	; 0x2a
 8001ac4:	b29b      	uxth	r3, r3
 8001ac6:	3b01      	subs	r3, #1
 8001ac8:	b29a      	uxth	r2, r3
 8001aca:	68fb      	ldr	r3, [r7, #12]
 8001acc:	855a      	strh	r2, [r3, #42]	; 0x2a

          /* Wait until BTF flag is set */
          count = I2C_TIMEOUT_FLAG * (SystemCoreClock / 25U / 1000U);
 8001ace:	4b66      	ldr	r3, [pc, #408]	; (8001c68 <HAL_I2C_Master_Receive+0x4b8>)
 8001ad0:	681b      	ldr	r3, [r3, #0]
 8001ad2:	08db      	lsrs	r3, r3, #3
 8001ad4:	4a65      	ldr	r2, [pc, #404]	; (8001c6c <HAL_I2C_Master_Receive+0x4bc>)
 8001ad6:	fba2 2303 	umull	r2, r3, r2, r3
 8001ada:	0a1a      	lsrs	r2, r3, #8
 8001adc:	4613      	mov	r3, r2
 8001ade:	009b      	lsls	r3, r3, #2
 8001ae0:	4413      	add	r3, r2
 8001ae2:	00da      	lsls	r2, r3, #3
 8001ae4:	1ad3      	subs	r3, r2, r3
 8001ae6:	623b      	str	r3, [r7, #32]
          do
          {
            count--;
 8001ae8:	6a3b      	ldr	r3, [r7, #32]
 8001aea:	3b01      	subs	r3, #1
 8001aec:	623b      	str	r3, [r7, #32]
            if (count == 0U)
 8001aee:	6a3b      	ldr	r3, [r7, #32]
 8001af0:	2b00      	cmp	r3, #0
 8001af2:	d118      	bne.n	8001b26 <HAL_I2C_Master_Receive+0x376>
            {
              hi2c->PreviousState       = I2C_STATE_NONE;
 8001af4:	68fb      	ldr	r3, [r7, #12]
 8001af6:	2200      	movs	r2, #0
 8001af8:	631a      	str	r2, [r3, #48]	; 0x30
              hi2c->State               = HAL_I2C_STATE_READY;
 8001afa:	68fb      	ldr	r3, [r7, #12]
 8001afc:	2220      	movs	r2, #32
 8001afe:	f883 203d 	strb.w	r2, [r3, #61]	; 0x3d
              hi2c->Mode                = HAL_I2C_MODE_NONE;
 8001b02:	68fb      	ldr	r3, [r7, #12]
 8001b04:	2200      	movs	r2, #0
 8001b06:	f883 203e 	strb.w	r2, [r3, #62]	; 0x3e
              hi2c->ErrorCode           |= HAL_I2C_ERROR_TIMEOUT;
 8001b0a:	68fb      	ldr	r3, [r7, #12]
 8001b0c:	6c1b      	ldr	r3, [r3, #64]	; 0x40
 8001b0e:	f043 0220 	orr.w	r2, r3, #32
 8001b12:	68fb      	ldr	r3, [r7, #12]
 8001b14:	641a      	str	r2, [r3, #64]	; 0x40
  __ASM volatile ("cpsie i" : : : "memory");
 8001b16:	b662      	cpsie	i
}
 8001b18:	bf00      	nop

              /* Re-enable IRQs */
              __enable_irq();

              /* Process Unlocked */
              __HAL_UNLOCK(hi2c);
 8001b1a:	68fb      	ldr	r3, [r7, #12]
 8001b1c:	2200      	movs	r2, #0
 8001b1e:	f883 203c 	strb.w	r2, [r3, #60]	; 0x3c

              return HAL_ERROR;
 8001b22:	2301      	movs	r3, #1
 8001b24:	e09a      	b.n	8001c5c <HAL_I2C_Master_Receive+0x4ac>
            }
          }
          while (__HAL_I2C_GET_FLAG(hi2c, I2C_FLAG_BTF) == RESET);
 8001b26:	68fb      	ldr	r3, [r7, #12]
 8001b28:	681b      	ldr	r3, [r3, #0]
 8001b2a:	695b      	ldr	r3, [r3, #20]
 8001b2c:	f003 0304 	and.w	r3, r3, #4
 8001b30:	2b04      	cmp	r3, #4
 8001b32:	d1d9      	bne.n	8001ae8 <HAL_I2C_Master_Receive+0x338>

          /* Generate Stop */
          SET_BIT(hi2c->Instance->CR1, I2C_CR1_STOP);
 8001b34:	68fb      	ldr	r3, [r7, #12]
 8001b36:	681b      	ldr	r3, [r3, #0]
 8001b38:	681a      	ldr	r2, [r3, #0]
 8001b3a:	68fb      	ldr	r3, [r7, #12]
 8001b3c:	681b      	ldr	r3, [r3, #0]
 8001b3e:	f442 7200 	orr.w	r2, r2, #512	; 0x200
 8001b42:	601a      	str	r2, [r3, #0]

          /* Read data from DR */
          *hi2c->pBuffPtr = (uint8_t)hi2c->Instance->DR;
 8001b44:	68fb      	ldr	r3, [r7, #12]
 8001b46:	681b      	ldr	r3, [r3, #0]
 8001b48:	691a      	ldr	r2, [r3, #16]
 8001b4a:	68fb      	ldr	r3, [r7, #12]
 8001b4c:	6a5b      	ldr	r3, [r3, #36]	; 0x24
 8001b4e:	b2d2      	uxtb	r2, r2
 8001b50:	701a      	strb	r2, [r3, #0]

          /* Increment Buffer pointer */
          hi2c->pBuffPtr++;
 8001b52:	68fb      	ldr	r3, [r7, #12]
 8001b54:	6a5b      	ldr	r3, [r3, #36]	; 0x24
 8001b56:	1c5a      	adds	r2, r3, #1
 8001b58:	68fb      	ldr	r3, [r7, #12]
 8001b5a:	625a      	str	r2, [r3, #36]	; 0x24

          /* Update counter */
          hi2c->XferSize--;
 8001b5c:	68fb      	ldr	r3, [r7, #12]
 8001b5e:	8d1b      	ldrh	r3, [r3, #40]	; 0x28
 8001b60:	3b01      	subs	r3, #1
 8001b62:	b29a      	uxth	r2, r3
 8001b64:	68fb      	ldr	r3, [r7, #12]
 8001b66:	851a      	strh	r2, [r3, #40]	; 0x28
          hi2c->XferCount--;
 8001b68:	68fb      	ldr	r3, [r7, #12]
 8001b6a:	8d5b      	ldrh	r3, [r3, #42]	; 0x2a
 8001b6c:	b29b      	uxth	r3, r3
 8001b6e:	3b01      	subs	r3, #1
 8001b70:	b29a      	uxth	r2, r3
 8001b72:	68fb      	ldr	r3, [r7, #12]
 8001b74:	855a      	strh	r2, [r3, #42]	; 0x2a
  __ASM volatile ("cpsie i" : : : "memory");
 8001b76:	b662      	cpsie	i
}
 8001b78:	bf00      	nop

          /* Re-enable IRQs */
          __enable_irq();

          /* Read data from DR */
          *hi2c->pBuffPtr = (uint8_t)hi2c->Instance->DR;
 8001b7a:	68fb      	ldr	r3, [r7, #12]
 8001b7c:	681b      	ldr	r3, [r3, #0]
 8001b7e:	691a      	ldr	r2, [r3, #16]
 8001b80:	68fb      	ldr	r3, [r7, #12]
 8001b82:	6a5b      	ldr	r3, [r3, #36]	; 0x24
 8001b84:	b2d2      	uxtb	r2, r2
 8001b86:	701a      	strb	r2, [r3, #0]

          /* Increment Buffer pointer */
          hi2c->pBuffPtr++;
 8001b88:	68fb      	ldr	r3, [r7, #12]
 8001b8a:	6a5b      	ldr	r3, [r3, #36]	; 0x24
 8001b8c:	1c5a      	adds	r2, r3, #1
 8001b8e:	68fb      	ldr	r3, [r7, #12]
 8001b90:	625a      	str	r2, [r3, #36]	; 0x24

          /* Update counter */
          hi2c->XferSize--;
 8001b92:	68fb      	ldr	r3, [r7, #12]
 8001b94:	8d1b      	ldrh	r3, [r3, #40]	; 0x28
 8001b96:	3b01      	subs	r3, #1
 8001b98:	b29a      	uxth	r2, r3
 8001b9a:	68fb      	ldr	r3, [r7, #12]
 8001b9c:	851a      	strh	r2, [r3, #40]	; 0x28
          hi2c->XferCount--;
 8001b9e:	68fb      	ldr	r3, [r7, #12]
 8001ba0:	8d5b      	ldrh	r3, [r3, #42]	; 0x2a
 8001ba2:	b29b      	uxth	r3, r3
 8001ba4:	3b01      	subs	r3, #1
 8001ba6:	b29a      	uxth	r2, r3
 8001ba8:	68fb      	ldr	r3, [r7, #12]
 8001baa:	855a      	strh	r2, [r3, #42]	; 0x2a
 8001bac:	e042      	b.n	8001c34 <HAL_I2C_Master_Receive+0x484>
        }
      }
      else
      {
        /* Wait until RXNE flag is set */
        if (I2C_WaitOnRXNEFlagUntilTimeout(hi2c, Timeout, tickstart) != HAL_OK)
 8001bae:	6a7a      	ldr	r2, [r7, #36]	; 0x24
 8001bb0:	6b39      	ldr	r1, [r7, #48]	; 0x30
 8001bb2:	68f8      	ldr	r0, [r7, #12]
 8001bb4:	f000 fb04 	bl	80021c0 <I2C_WaitOnRXNEFlagUntilTimeout>
 8001bb8:	4603      	mov	r3, r0
 8001bba:	2b00      	cmp	r3, #0
 8001bbc:	d001      	beq.n	8001bc2 <HAL_I2C_Master_Receive+0x412>
        {
          return HAL_ERROR;
 8001bbe:	2301      	movs	r3, #1
 8001bc0:	e04c      	b.n	8001c5c <HAL_I2C_Master_Receive+0x4ac>
        }

        /* Read data from DR */
        *hi2c->pBuffPtr = (uint8_t)hi2c->Instance->DR;
 8001bc2:	68fb      	ldr	r3, [r7, #12]
 8001bc4:	681b      	ldr	r3, [r3, #0]
 8001bc6:	691a      	ldr	r2, [r3, #16]
 8001bc8:	68fb      	ldr	r3, [r7, #12]
 8001bca:	6a5b      	ldr	r3, [r3, #36]	; 0x24
 8001bcc:	b2d2      	uxtb	r2, r2
 8001bce:	701a      	strb	r2, [r3, #0]

        /* Increment Buffer pointer */
        hi2c->pBuffPtr++;
 8001bd0:	68fb      	ldr	r3, [r7, #12]
 8001bd2:	6a5b      	ldr	r3, [r3, #36]	; 0x24
 8001bd4:	1c5a      	adds	r2, r3, #1
 8001bd6:	68fb      	ldr	r3, [r7, #12]
 8001bd8:	625a      	str	r2, [r3, #36]	; 0x24

        /* Update counter */
        hi2c->XferSize--;
 8001bda:	68fb      	ldr	r3, [r7, #12]
 8001bdc:	8d1b      	ldrh	r3, [r3, #40]	; 0x28
 8001bde:	3b01      	subs	r3, #1
 8001be0:	b29a      	uxth	r2, r3
 8001be2:	68fb      	ldr	r3, [r7, #12]
 8001be4:	851a      	strh	r2, [r3, #40]	; 0x28
        hi2c->XferCount--;
 8001be6:	68fb      	ldr	r3, [r7, #12]
 8001be8:	8d5b      	ldrh	r3, [r3, #42]	; 0x2a
 8001bea:	b29b      	uxth	r3, r3
 8001bec:	3b01      	subs	r3, #1
 8001bee:	b29a      	uxth	r2, r3
 8001bf0:	68fb      	ldr	r3, [r7, #12]
 8001bf2:	855a      	strh	r2, [r3, #42]	; 0x2a

        if (__HAL_I2C_GET_FLAG(hi2c, I2C_FLAG_BTF) == SET)
 8001bf4:	68fb      	ldr	r3, [r7, #12]
 8001bf6:	681b      	ldr	r3, [r3, #0]
 8001bf8:	695b      	ldr	r3, [r3, #20]
 8001bfa:	f003 0304 	and.w	r3, r3, #4
 8001bfe:	2b04      	cmp	r3, #4
 8001c00:	d118      	bne.n	8001c34 <HAL_I2C_Master_Receive+0x484>
        {
          /* Read data from DR */
          *hi2c->pBuffPtr = (uint8_t)hi2c->Instance->DR;
 8001c02:	68fb      	ldr	r3, [r7, #12]
 8001c04:	681b      	ldr	r3, [r3, #0]
 8001c06:	691a      	ldr	r2, [r3, #16]
 8001c08:	68fb      	ldr	r3, [r7, #12]
 8001c0a:	6a5b      	ldr	r3, [r3, #36]	; 0x24
 8001c0c:	b2d2      	uxtb	r2, r2
 8001c0e:	701a      	strb	r2, [r3, #0]

          /* Increment Buffer pointer */
          hi2c->pBuffPtr++;
 8001c10:	68fb      	ldr	r3, [r7, #12]
 8001c12:	6a5b      	ldr	r3, [r3, #36]	; 0x24
 8001c14:	1c5a      	adds	r2, r3, #1
 8001c16:	68fb      	ldr	r3, [r7, #12]
 8001c18:	625a      	str	r2, [r3, #36]	; 0x24

          /* Update counter */
          hi2c->XferSize--;
 8001c1a:	68fb      	ldr	r3, [r7, #12]
 8001c1c:	8d1b      	ldrh	r3, [r3, #40]	; 0x28
 8001c1e:	3b01      	subs	r3, #1
 8001c20:	b29a      	uxth	r2, r3
 8001c22:	68fb      	ldr	r3, [r7, #12]
 8001c24:	851a      	strh	r2, [r3, #40]	; 0x28
          hi2c->XferCount--;
 8001c26:	68fb      	ldr	r3, [r7, #12]
 8001c28:	8d5b      	ldrh	r3, [r3, #42]	; 0x2a
 8001c2a:	b29b      	uxth	r3, r3
 8001c2c:	3b01      	subs	r3, #1
 8001c2e:	b29a      	uxth	r2, r3
 8001c30:	68fb      	ldr	r3, [r7, #12]
 8001c32:	855a      	strh	r2, [r3, #42]	; 0x2a
    while (hi2c->XferSize > 0U)
 8001c34:	68fb      	ldr	r3, [r7, #12]
 8001c36:	8d1b      	ldrh	r3, [r3, #40]	; 0x28
 8001c38:	2b00      	cmp	r3, #0
 8001c3a:	f47f ae94 	bne.w	8001966 <HAL_I2C_Master_Receive+0x1b6>
        }
      }
    }

    hi2c->State = HAL_I2C_STATE_READY;
 8001c3e:	68fb      	ldr	r3, [r7, #12]
 8001c40:	2220      	movs	r2, #32
 8001c42:	f883 203d 	strb.w	r2, [r3, #61]	; 0x3d
    hi2c->Mode = HAL_I2C_MODE_NONE;
 8001c46:	68fb      	ldr	r3, [r7, #12]
 8001c48:	2200      	movs	r2, #0
 8001c4a:	f883 203e 	strb.w	r2, [r3, #62]	; 0x3e

    /* Process Unlocked */
    __HAL_UNLOCK(hi2c);
 8001c4e:	68fb      	ldr	r3, [r7, #12]
 8001c50:	2200      	movs	r2, #0
 8001c52:	f883 203c 	strb.w	r2, [r3, #60]	; 0x3c

    return HAL_OK;
 8001c56:	2300      	movs	r3, #0
 8001c58:	e000      	b.n	8001c5c <HAL_I2C_Master_Receive+0x4ac>
  }
  else
  {
    return HAL_BUSY;
 8001c5a:	2302      	movs	r3, #2
  }
}
 8001c5c:	4618      	mov	r0, r3
 8001c5e:	3728      	adds	r7, #40	; 0x28
 8001c60:	46bd      	mov	sp, r7
 8001c62:	bd80      	pop	{r7, pc}
 8001c64:	00010004 	.word	0x00010004
 8001c68:	20000000 	.word	0x20000000
 8001c6c:	14f8b589 	.word	0x14f8b589

08001c70 <I2C_MasterRequestWrite>:
  * @param  Timeout Timeout duration
  * @param  Tickstart Tick start value
  * @retval HAL status
  */
static HAL_StatusTypeDef I2C_MasterRequestWrite(I2C_HandleTypeDef *hi2c, uint16_t DevAddress, uint32_t Timeout, uint32_t Tickstart)
{
 8001c70:	b580      	push	{r7, lr}
 8001c72:	b088      	sub	sp, #32
 8001c74:	af02      	add	r7, sp, #8
 8001c76:	60f8      	str	r0, [r7, #12]
 8001c78:	607a      	str	r2, [r7, #4]
 8001c7a:	603b      	str	r3, [r7, #0]
 8001c7c:	460b      	mov	r3, r1
 8001c7e:	817b      	strh	r3, [r7, #10]
  /* Declaration of temporary variable to prevent undefined behavior of volatile usage */
  uint32_t CurrentXferOptions = hi2c->XferOptions;
 8001c80:	68fb      	ldr	r3, [r7, #12]
 8001c82:	6adb      	ldr	r3, [r3, #44]	; 0x2c
 8001c84:	617b      	str	r3, [r7, #20]

  /* Generate Start condition if first transfer */
  if ((CurrentXferOptions == I2C_FIRST_AND_LAST_FRAME) || (CurrentXferOptions == I2C_FIRST_FRAME) || (CurrentXferOptions == I2C_NO_OPTION_FRAME))
 8001c86:	697b      	ldr	r3, [r7, #20]
 8001c88:	2b08      	cmp	r3, #8
 8001c8a:	d006      	beq.n	8001c9a <I2C_MasterRequestWrite+0x2a>
 8001c8c:	697b      	ldr	r3, [r7, #20]
 8001c8e:	2b01      	cmp	r3, #1
 8001c90:	d003      	beq.n	8001c9a <I2C_MasterRequestWrite+0x2a>
 8001c92:	697b      	ldr	r3, [r7, #20]
 8001c94:	f513 3f80 	cmn.w	r3, #65536	; 0x10000
 8001c98:	d108      	bne.n	8001cac <I2C_MasterRequestWrite+0x3c>
  {
    /* Generate Start */
    SET_BIT(hi2c->Instance->CR1, I2C_CR1_START);
 8001c9a:	68fb      	ldr	r3, [r7, #12]
 8001c9c:	681b      	ldr	r3, [r3, #0]
 8001c9e:	681a      	ldr	r2, [r3, #0]
 8001ca0:	68fb      	ldr	r3, [r7, #12]
 8001ca2:	681b      	ldr	r3, [r3, #0]
 8001ca4:	f442 7280 	orr.w	r2, r2, #256	; 0x100
 8001ca8:	601a      	str	r2, [r3, #0]
 8001caa:	e00b      	b.n	8001cc4 <I2C_MasterRequestWrite+0x54>
  }
  else if (hi2c->PreviousState == I2C_STATE_MASTER_BUSY_RX)
 8001cac:	68fb      	ldr	r3, [r7, #12]
 8001cae:	6b1b      	ldr	r3, [r3, #48]	; 0x30
 8001cb0:	2b12      	cmp	r3, #18
 8001cb2:	d107      	bne.n	8001cc4 <I2C_MasterRequestWrite+0x54>
  {
    /* Generate ReStart */
    SET_BIT(hi2c->Instance->CR1, I2C_CR1_START);
 8001cb4:	68fb      	ldr	r3, [r7, #12]
 8001cb6:	681b      	ldr	r3, [r3, #0]
 8001cb8:	681a      	ldr	r2, [r3, #0]
 8001cba:	68fb      	ldr	r3, [r7, #12]
 8001cbc:	681b      	ldr	r3, [r3, #0]
 8001cbe:	f442 7280 	orr.w	r2, r2, #256	; 0x100
 8001cc2:	601a      	str	r2, [r3, #0]
  {
    /* Do nothing */
  }

  /* Wait until SB flag is set */
  if (I2C_WaitOnFlagUntilTimeout(hi2c, I2C_FLAG_SB, RESET, Timeout, Tickstart) != HAL_OK)
 8001cc4:	683b      	ldr	r3, [r7, #0]
 8001cc6:	9300      	str	r3, [sp, #0]
 8001cc8:	687b      	ldr	r3, [r7, #4]
 8001cca:	2200      	movs	r2, #0
 8001ccc:	f04f 1101 	mov.w	r1, #65537	; 0x10001
 8001cd0:	68f8      	ldr	r0, [r7, #12]
 8001cd2:	f000 f91d 	bl	8001f10 <I2C_WaitOnFlagUntilTimeout>
 8001cd6:	4603      	mov	r3, r0
 8001cd8:	2b00      	cmp	r3, #0
 8001cda:	d00d      	beq.n	8001cf8 <I2C_MasterRequestWrite+0x88>
  {
    if (READ_BIT(hi2c->Instance->CR1, I2C_CR1_START) == I2C_CR1_START)
 8001cdc:	68fb      	ldr	r3, [r7, #12]
 8001cde:	681b      	ldr	r3, [r3, #0]
 8001ce0:	681b      	ldr	r3, [r3, #0]
 8001ce2:	f403 7380 	and.w	r3, r3, #256	; 0x100
 8001ce6:	f5b3 7f80 	cmp.w	r3, #256	; 0x100
 8001cea:	d103      	bne.n	8001cf4 <I2C_MasterRequestWrite+0x84>
    {
      hi2c->ErrorCode = HAL_I2C_WRONG_START;
 8001cec:	68fb      	ldr	r3, [r7, #12]
 8001cee:	f44f 7200 	mov.w	r2, #512	; 0x200
 8001cf2:	641a      	str	r2, [r3, #64]	; 0x40
    }
    return HAL_TIMEOUT;
 8001cf4:	2303      	movs	r3, #3
 8001cf6:	e035      	b.n	8001d64 <I2C_MasterRequestWrite+0xf4>
  }

  if (hi2c->Init.AddressingMode == I2C_ADDRESSINGMODE_7BIT)
 8001cf8:	68fb      	ldr	r3, [r7, #12]
 8001cfa:	691b      	ldr	r3, [r3, #16]
 8001cfc:	f5b3 4f80 	cmp.w	r3, #16384	; 0x4000
 8001d00:	d108      	bne.n	8001d14 <I2C_MasterRequestWrite+0xa4>
  {
    /* Send slave address */
    hi2c->Instance->DR = I2C_7BIT_ADD_WRITE(DevAddress);
 8001d02:	897b      	ldrh	r3, [r7, #10]
 8001d04:	b2db      	uxtb	r3, r3
 8001d06:	461a      	mov	r2, r3
 8001d08:	68fb      	ldr	r3, [r7, #12]
 8001d0a:	681b      	ldr	r3, [r3, #0]
 8001d0c:	f002 02fe 	and.w	r2, r2, #254	; 0xfe
 8001d10:	611a      	str	r2, [r3, #16]
 8001d12:	e01b      	b.n	8001d4c <I2C_MasterRequestWrite+0xdc>
  }
  else
  {
    /* Send header of slave address */
    hi2c->Instance->DR = I2C_10BIT_HEADER_WRITE(DevAddress);
 8001d14:	897b      	ldrh	r3, [r7, #10]
 8001d16:	11db      	asrs	r3, r3, #7
 8001d18:	b2db      	uxtb	r3, r3
 8001d1a:	f003 0306 	and.w	r3, r3, #6
 8001d1e:	b2db      	uxtb	r3, r3
 8001d20:	f063 030f 	orn	r3, r3, #15
 8001d24:	b2da      	uxtb	r2, r3
 8001d26:	68fb      	ldr	r3, [r7, #12]
 8001d28:	681b      	ldr	r3, [r3, #0]
 8001d2a:	611a      	str	r2, [r3, #16]

    /* Wait until ADD10 flag is set */
    if (I2C_WaitOnMasterAddressFlagUntilTimeout(hi2c, I2C_FLAG_ADD10, Timeout, Tickstart) != HAL_OK)
 8001d2c:	683b      	ldr	r3, [r7, #0]
 8001d2e:	687a      	ldr	r2, [r7, #4]
 8001d30:	490e      	ldr	r1, [pc, #56]	; (8001d6c <I2C_MasterRequestWrite+0xfc>)
 8001d32:	68f8      	ldr	r0, [r7, #12]
 8001d34:	f000 f943 	bl	8001fbe <I2C_WaitOnMasterAddressFlagUntilTimeout>
 8001d38:	4603      	mov	r3, r0
 8001d3a:	2b00      	cmp	r3, #0
 8001d3c:	d001      	beq.n	8001d42 <I2C_MasterRequestWrite+0xd2>
    {
      return HAL_ERROR;
 8001d3e:	2301      	movs	r3, #1
 8001d40:	e010      	b.n	8001d64 <I2C_MasterRequestWrite+0xf4>
    }

    /* Send slave address */
    hi2c->Instance->DR = I2C_10BIT_ADDRESS(DevAddress);
 8001d42:	897b      	ldrh	r3, [r7, #10]
 8001d44:	b2da      	uxtb	r2, r3
 8001d46:	68fb      	ldr	r3, [r7, #12]
 8001d48:	681b      	ldr	r3, [r3, #0]
 8001d4a:	611a      	str	r2, [r3, #16]
  }

  /* Wait until ADDR flag is set */
  if (I2C_WaitOnMasterAddressFlagUntilTimeout(hi2c, I2C_FLAG_ADDR, Timeout, Tickstart) != HAL_OK)
 8001d4c:	683b      	ldr	r3, [r7, #0]
 8001d4e:	687a      	ldr	r2, [r7, #4]
 8001d50:	4907      	ldr	r1, [pc, #28]	; (8001d70 <I2C_MasterRequestWrite+0x100>)
 8001d52:	68f8      	ldr	r0, [r7, #12]
 8001d54:	f000 f933 	bl	8001fbe <I2C_WaitOnMasterAddressFlagUntilTimeout>
 8001d58:	4603      	mov	r3, r0
 8001d5a:	2b00      	cmp	r3, #0
 8001d5c:	d001      	beq.n	8001d62 <I2C_MasterRequestWrite+0xf2>
  {
    return HAL_ERROR;
 8001d5e:	2301      	movs	r3, #1
 8001d60:	e000      	b.n	8001d64 <I2C_MasterRequestWrite+0xf4>
  }

  return HAL_OK;
 8001d62:	2300      	movs	r3, #0
}
 8001d64:	4618      	mov	r0, r3
 8001d66:	3718      	adds	r7, #24
 8001d68:	46bd      	mov	sp, r7
 8001d6a:	bd80      	pop	{r7, pc}
 8001d6c:	00010008 	.word	0x00010008
 8001d70:	00010002 	.word	0x00010002

08001d74 <I2C_MasterRequestRead>:
  * @param  Timeout Timeout duration
  * @param  Tickstart Tick start value
  * @retval HAL status
  */
static HAL_StatusTypeDef I2C_MasterRequestRead(I2C_HandleTypeDef *hi2c, uint16_t DevAddress, uint32_t Timeout, uint32_t Tickstart)
{
 8001d74:	b580      	push	{r7, lr}
 8001d76:	b088      	sub	sp, #32
 8001d78:	af02      	add	r7, sp, #8
 8001d7a:	60f8      	str	r0, [r7, #12]
 8001d7c:	607a      	str	r2, [r7, #4]
 8001d7e:	603b      	str	r3, [r7, #0]
 8001d80:	460b      	mov	r3, r1
 8001d82:	817b      	strh	r3, [r7, #10]
  /* Declaration of temporary variable to prevent undefined behavior of volatile usage */
  uint32_t CurrentXferOptions = hi2c->XferOptions;
 8001d84:	68fb      	ldr	r3, [r7, #12]
 8001d86:	6adb      	ldr	r3, [r3, #44]	; 0x2c
 8001d88:	617b      	str	r3, [r7, #20]

  /* Enable Acknowledge */
  SET_BIT(hi2c->Instance->CR1, I2C_CR1_ACK);
 8001d8a:	68fb      	ldr	r3, [r7, #12]
 8001d8c:	681b      	ldr	r3, [r3, #0]
 8001d8e:	681a      	ldr	r2, [r3, #0]
 8001d90:	68fb      	ldr	r3, [r7, #12]
 8001d92:	681b      	ldr	r3, [r3, #0]
 8001d94:	f442 6280 	orr.w	r2, r2, #1024	; 0x400
 8001d98:	601a      	str	r2, [r3, #0]

  /* Generate Start condition if first transfer */
  if ((CurrentXferOptions == I2C_FIRST_AND_LAST_FRAME) || (CurrentXferOptions == I2C_FIRST_FRAME)  || (CurrentXferOptions == I2C_NO_OPTION_FRAME))
 8001d9a:	697b      	ldr	r3, [r7, #20]
 8001d9c:	2b08      	cmp	r3, #8
 8001d9e:	d006      	beq.n	8001dae <I2C_MasterRequestRead+0x3a>
 8001da0:	697b      	ldr	r3, [r7, #20]
 8001da2:	2b01      	cmp	r3, #1
 8001da4:	d003      	beq.n	8001dae <I2C_MasterRequestRead+0x3a>
 8001da6:	697b      	ldr	r3, [r7, #20]
 8001da8:	f513 3f80 	cmn.w	r3, #65536	; 0x10000
 8001dac:	d108      	bne.n	8001dc0 <I2C_MasterRequestRead+0x4c>
  {
    /* Generate Start */
    SET_BIT(hi2c->Instance->CR1, I2C_CR1_START);
 8001dae:	68fb      	ldr	r3, [r7, #12]
 8001db0:	681b      	ldr	r3, [r3, #0]
 8001db2:	681a      	ldr	r2, [r3, #0]
 8001db4:	68fb      	ldr	r3, [r7, #12]
 8001db6:	681b      	ldr	r3, [r3, #0]
 8001db8:	f442 7280 	orr.w	r2, r2, #256	; 0x100
 8001dbc:	601a      	str	r2, [r3, #0]
 8001dbe:	e00b      	b.n	8001dd8 <I2C_MasterRequestRead+0x64>
  }
  else if (hi2c->PreviousState == I2C_STATE_MASTER_BUSY_TX)
 8001dc0:	68fb      	ldr	r3, [r7, #12]
 8001dc2:	6b1b      	ldr	r3, [r3, #48]	; 0x30
 8001dc4:	2b11      	cmp	r3, #17
 8001dc6:	d107      	bne.n	8001dd8 <I2C_MasterRequestRead+0x64>
  {
    /* Generate ReStart */
    SET_BIT(hi2c->Instance->CR1, I2C_CR1_START);
 8001dc8:	68fb      	ldr	r3, [r7, #12]
 8001dca:	681b      	ldr	r3, [r3, #0]
 8001dcc:	681a      	ldr	r2, [r3, #0]
 8001dce:	68fb      	ldr	r3, [r7, #12]
 8001dd0:	681b      	ldr	r3, [r3, #0]
 8001dd2:	f442 7280 	orr.w	r2, r2, #256	; 0x100
 8001dd6:	601a      	str	r2, [r3, #0]
  {
    /* Do nothing */
  }

  /* Wait until SB flag is set */
  if (I2C_WaitOnFlagUntilTimeout(hi2c, I2C_FLAG_SB, RESET, Timeout, Tickstart) != HAL_OK)
 8001dd8:	683b      	ldr	r3, [r7, #0]
 8001dda:	9300      	str	r3, [sp, #0]
 8001ddc:	687b      	ldr	r3, [r7, #4]
 8001dde:	2200      	movs	r2, #0
 8001de0:	f04f 1101 	mov.w	r1, #65537	; 0x10001
 8001de4:	68f8      	ldr	r0, [r7, #12]
 8001de6:	f000 f893 	bl	8001f10 <I2C_WaitOnFlagUntilTimeout>
 8001dea:	4603      	mov	r3, r0
 8001dec:	2b00      	cmp	r3, #0
 8001dee:	d00d      	beq.n	8001e0c <I2C_MasterRequestRead+0x98>
  {
    if (READ_BIT(hi2c->Instance->CR1, I2C_CR1_START) == I2C_CR1_START)
 8001df0:	68fb      	ldr	r3, [r7, #12]
 8001df2:	681b      	ldr	r3, [r3, #0]
 8001df4:	681b      	ldr	r3, [r3, #0]
 8001df6:	f403 7380 	and.w	r3, r3, #256	; 0x100
 8001dfa:	f5b3 7f80 	cmp.w	r3, #256	; 0x100
 8001dfe:	d103      	bne.n	8001e08 <I2C_MasterRequestRead+0x94>
    {
      hi2c->ErrorCode = HAL_I2C_WRONG_START;
 8001e00:	68fb      	ldr	r3, [r7, #12]
 8001e02:	f44f 7200 	mov.w	r2, #512	; 0x200
 8001e06:	641a      	str	r2, [r3, #64]	; 0x40
    }
    return HAL_TIMEOUT;
 8001e08:	2303      	movs	r3, #3
 8001e0a:	e079      	b.n	8001f00 <I2C_MasterRequestRead+0x18c>
  }

  if (hi2c->Init.AddressingMode == I2C_ADDRESSINGMODE_7BIT)
 8001e0c:	68fb      	ldr	r3, [r7, #12]
 8001e0e:	691b      	ldr	r3, [r3, #16]
 8001e10:	f5b3 4f80 	cmp.w	r3, #16384	; 0x4000
 8001e14:	d108      	bne.n	8001e28 <I2C_MasterRequestRead+0xb4>
  {
    /* Send slave address */
    hi2c->Instance->DR = I2C_7BIT_ADD_READ(DevAddress);
 8001e16:	897b      	ldrh	r3, [r7, #10]
 8001e18:	b2db      	uxtb	r3, r3
 8001e1a:	f043 0301 	orr.w	r3, r3, #1
 8001e1e:	b2da      	uxtb	r2, r3
 8001e20:	68fb      	ldr	r3, [r7, #12]
 8001e22:	681b      	ldr	r3, [r3, #0]
 8001e24:	611a      	str	r2, [r3, #16]
 8001e26:	e05f      	b.n	8001ee8 <I2C_MasterRequestRead+0x174>
  }
  else
  {
    /* Send header of slave address */
    hi2c->Instance->DR = I2C_10BIT_HEADER_WRITE(DevAddress);
 8001e28:	897b      	ldrh	r3, [r7, #10]
 8001e2a:	11db      	asrs	r3, r3, #7
 8001e2c:	b2db      	uxtb	r3, r3
 8001e2e:	f003 0306 	and.w	r3, r3, #6
 8001e32:	b2db      	uxtb	r3, r3
 8001e34:	f063 030f 	orn	r3, r3, #15
 8001e38:	b2da      	uxtb	r2, r3
 8001e3a:	68fb      	ldr	r3, [r7, #12]
 8001e3c:	681b      	ldr	r3, [r3, #0]
 8001e3e:	611a      	str	r2, [r3, #16]

    /* Wait until ADD10 flag is set */
    if (I2C_WaitOnMasterAddressFlagUntilTimeout(hi2c, I2C_FLAG_ADD10, Timeout, Tickstart) != HAL_OK)
 8001e40:	683b      	ldr	r3, [r7, #0]
 8001e42:	687a      	ldr	r2, [r7, #4]
 8001e44:	4930      	ldr	r1, [pc, #192]	; (8001f08 <I2C_MasterRequestRead+0x194>)
 8001e46:	68f8      	ldr	r0, [r7, #12]
 8001e48:	f000 f8b9 	bl	8001fbe <I2C_WaitOnMasterAddressFlagUntilTimeout>
 8001e4c:	4603      	mov	r3, r0
 8001e4e:	2b00      	cmp	r3, #0
 8001e50:	d001      	beq.n	8001e56 <I2C_MasterRequestRead+0xe2>
    {
      return HAL_ERROR;
 8001e52:	2301      	movs	r3, #1
 8001e54:	e054      	b.n	8001f00 <I2C_MasterRequestRead+0x18c>
    }

    /* Send slave address */
    hi2c->Instance->DR = I2C_10BIT_ADDRESS(DevAddress);
 8001e56:	897b      	ldrh	r3, [r7, #10]
 8001e58:	b2da      	uxtb	r2, r3
 8001e5a:	68fb      	ldr	r3, [r7, #12]
 8001e5c:	681b      	ldr	r3, [r3, #0]
 8001e5e:	611a      	str	r2, [r3, #16]

    /* Wait until ADDR flag is set */
    if (I2C_WaitOnMasterAddressFlagUntilTimeout(hi2c, I2C_FLAG_ADDR, Timeout, Tickstart) != HAL_OK)
 8001e60:	683b      	ldr	r3, [r7, #0]
 8001e62:	687a      	ldr	r2, [r7, #4]
 8001e64:	4929      	ldr	r1, [pc, #164]	; (8001f0c <I2C_MasterRequestRead+0x198>)
 8001e66:	68f8      	ldr	r0, [r7, #12]
 8001e68:	f000 f8a9 	bl	8001fbe <I2C_WaitOnMasterAddressFlagUntilTimeout>
 8001e6c:	4603      	mov	r3, r0
 8001e6e:	2b00      	cmp	r3, #0
 8001e70:	d001      	beq.n	8001e76 <I2C_MasterRequestRead+0x102>
    {
      return HAL_ERROR;
 8001e72:	2301      	movs	r3, #1
 8001e74:	e044      	b.n	8001f00 <I2C_MasterRequestRead+0x18c>
    }

    /* Clear ADDR flag */
    __HAL_I2C_CLEAR_ADDRFLAG(hi2c);
 8001e76:	2300      	movs	r3, #0
 8001e78:	613b      	str	r3, [r7, #16]
 8001e7a:	68fb      	ldr	r3, [r7, #12]
 8001e7c:	681b      	ldr	r3, [r3, #0]
 8001e7e:	695b      	ldr	r3, [r3, #20]
 8001e80:	613b      	str	r3, [r7, #16]
 8001e82:	68fb      	ldr	r3, [r7, #12]
 8001e84:	681b      	ldr	r3, [r3, #0]
 8001e86:	699b      	ldr	r3, [r3, #24]
 8001e88:	613b      	str	r3, [r7, #16]
 8001e8a:	693b      	ldr	r3, [r7, #16]

    /* Generate Restart */
    SET_BIT(hi2c->Instance->CR1, I2C_CR1_START);
 8001e8c:	68fb      	ldr	r3, [r7, #12]
 8001e8e:	681b      	ldr	r3, [r3, #0]
 8001e90:	681a      	ldr	r2, [r3, #0]
 8001e92:	68fb      	ldr	r3, [r7, #12]
 8001e94:	681b      	ldr	r3, [r3, #0]
 8001e96:	f442 7280 	orr.w	r2, r2, #256	; 0x100
 8001e9a:	601a      	str	r2, [r3, #0]

    /* Wait until SB flag is set */
    if (I2C_WaitOnFlagUntilTimeout(hi2c, I2C_FLAG_SB, RESET, Timeout, Tickstart) != HAL_OK)
 8001e9c:	683b      	ldr	r3, [r7, #0]
 8001e9e:	9300      	str	r3, [sp, #0]
 8001ea0:	687b      	ldr	r3, [r7, #4]
 8001ea2:	2200      	movs	r2, #0
 8001ea4:	f04f 1101 	mov.w	r1, #65537	; 0x10001
 8001ea8:	68f8      	ldr	r0, [r7, #12]
 8001eaa:	f000 f831 	bl	8001f10 <I2C_WaitOnFlagUntilTimeout>
 8001eae:	4603      	mov	r3, r0
 8001eb0:	2b00      	cmp	r3, #0
 8001eb2:	d00d      	beq.n	8001ed0 <I2C_MasterRequestRead+0x15c>
    {
      if (READ_BIT(hi2c->Instance->CR1, I2C_CR1_START) == I2C_CR1_START)
 8001eb4:	68fb      	ldr	r3, [r7, #12]
 8001eb6:	681b      	ldr	r3, [r3, #0]
 8001eb8:	681b      	ldr	r3, [r3, #0]
 8001eba:	f403 7380 	and.w	r3, r3, #256	; 0x100
 8001ebe:	f5b3 7f80 	cmp.w	r3, #256	; 0x100
 8001ec2:	d103      	bne.n	8001ecc <I2C_MasterRequestRead+0x158>
      {
        hi2c->ErrorCode = HAL_I2C_WRONG_START;
 8001ec4:	68fb      	ldr	r3, [r7, #12]
 8001ec6:	f44f 7200 	mov.w	r2, #512	; 0x200
 8001eca:	641a      	str	r2, [r3, #64]	; 0x40
      }
      return HAL_TIMEOUT;
 8001ecc:	2303      	movs	r3, #3
 8001ece:	e017      	b.n	8001f00 <I2C_MasterRequestRead+0x18c>
    }

    /* Send header of slave address */
    hi2c->Instance->DR = I2C_10BIT_HEADER_READ(DevAddress);
 8001ed0:	897b      	ldrh	r3, [r7, #10]
 8001ed2:	11db      	asrs	r3, r3, #7
 8001ed4:	b2db      	uxtb	r3, r3
 8001ed6:	f003 0306 	and.w	r3, r3, #6
 8001eda:	b2db      	uxtb	r3, r3
 8001edc:	f063 030e 	orn	r3, r3, #14
 8001ee0:	b2da      	uxtb	r2, r3
 8001ee2:	68fb      	ldr	r3, [r7, #12]
 8001ee4:	681b      	ldr	r3, [r3, #0]
 8001ee6:	611a      	str	r2, [r3, #16]
  }

  /* Wait until ADDR flag is set */
  if (I2C_WaitOnMasterAddressFlagUntilTimeout(hi2c, I2C_FLAG_ADDR, Timeout, Tickstart) != HAL_OK)
 8001ee8:	683b      	ldr	r3, [r7, #0]
 8001eea:	687a      	ldr	r2, [r7, #4]
 8001eec:	4907      	ldr	r1, [pc, #28]	; (8001f0c <I2C_MasterRequestRead+0x198>)
 8001eee:	68f8      	ldr	r0, [r7, #12]
 8001ef0:	f000 f865 	bl	8001fbe <I2C_WaitOnMasterAddressFlagUntilTimeout>
 8001ef4:	4603      	mov	r3, r0
 8001ef6:	2b00      	cmp	r3, #0
 8001ef8:	d001      	beq.n	8001efe <I2C_MasterRequestRead+0x18a>
  {
    return HAL_ERROR;
 8001efa:	2301      	movs	r3, #1
 8001efc:	e000      	b.n	8001f00 <I2C_MasterRequestRead+0x18c>
  }

  return HAL_OK;
 8001efe:	2300      	movs	r3, #0
}
 8001f00:	4618      	mov	r0, r3
 8001f02:	3718      	adds	r7, #24
 8001f04:	46bd      	mov	sp, r7
 8001f06:	bd80      	pop	{r7, pc}
 8001f08:	00010008 	.word	0x00010008
 8001f0c:	00010002 	.word	0x00010002

08001f10 <I2C_WaitOnFlagUntilTimeout>:
  * @param  Timeout Timeout duration
  * @param  Tickstart Tick start value
  * @retval HAL status
  */
static HAL_StatusTypeDef I2C_WaitOnFlagUntilTimeout(I2C_HandleTypeDef *hi2c, uint32_t Flag, FlagStatus Status, uint32_t Timeout, uint32_t Tickstart)
{
 8001f10:	b580      	push	{r7, lr}
 8001f12:	b084      	sub	sp, #16
 8001f14:	af00      	add	r7, sp, #0
 8001f16:	60f8      	str	r0, [r7, #12]
 8001f18:	60b9      	str	r1, [r7, #8]
 8001f1a:	603b      	str	r3, [r7, #0]
 8001f1c:	4613      	mov	r3, r2
 8001f1e:	71fb      	strb	r3, [r7, #7]
  /* Wait until flag is set */
  while (__HAL_I2C_GET_FLAG(hi2c, Flag) == Status)
 8001f20:	e025      	b.n	8001f6e <I2C_WaitOnFlagUntilTimeout+0x5e>
  {
    /* Check for the Timeout */
    if (Timeout != HAL_MAX_DELAY)
 8001f22:	683b      	ldr	r3, [r7, #0]
 8001f24:	f1b3 3fff 	cmp.w	r3, #4294967295
 8001f28:	d021      	beq.n	8001f6e <I2C_WaitOnFlagUntilTimeout+0x5e>
    {
      if (((HAL_GetTick() - Tickstart) > Timeout) || (Timeout == 0U))
 8001f2a:	f7fe fec9 	bl	8000cc0 <HAL_GetTick>
 8001f2e:	4602      	mov	r2, r0
 8001f30:	69bb      	ldr	r3, [r7, #24]
 8001f32:	1ad3      	subs	r3, r2, r3
 8001f34:	683a      	ldr	r2, [r7, #0]
 8001f36:	429a      	cmp	r2, r3
 8001f38:	d302      	bcc.n	8001f40 <I2C_WaitOnFlagUntilTimeout+0x30>
 8001f3a:	683b      	ldr	r3, [r7, #0]
 8001f3c:	2b00      	cmp	r3, #0
 8001f3e:	d116      	bne.n	8001f6e <I2C_WaitOnFlagUntilTimeout+0x5e>
      {
        hi2c->PreviousState     = I2C_STATE_NONE;
 8001f40:	68fb      	ldr	r3, [r7, #12]
 8001f42:	2200      	movs	r2, #0
 8001f44:	631a      	str	r2, [r3, #48]	; 0x30
        hi2c->State             = HAL_I2C_STATE_READY;
 8001f46:	68fb      	ldr	r3, [r7, #12]
 8001f48:	2220      	movs	r2, #32
 8001f4a:	f883 203d 	strb.w	r2, [r3, #61]	; 0x3d
        hi2c->Mode              = HAL_I2C_MODE_NONE;
 8001f4e:	68fb      	ldr	r3, [r7, #12]
 8001f50:	2200      	movs	r2, #0
 8001f52:	f883 203e 	strb.w	r2, [r3, #62]	; 0x3e
        hi2c->ErrorCode         |= HAL_I2C_ERROR_TIMEOUT;
 8001f56:	68fb      	ldr	r3, [r7, #12]
 8001f58:	6c1b      	ldr	r3, [r3, #64]	; 0x40
 8001f5a:	f043 0220 	orr.w	r2, r3, #32
 8001f5e:	68fb      	ldr	r3, [r7, #12]
 8001f60:	641a      	str	r2, [r3, #64]	; 0x40

        /* Process Unlocked */
        __HAL_UNLOCK(hi2c);
 8001f62:	68fb      	ldr	r3, [r7, #12]
 8001f64:	2200      	movs	r2, #0
 8001f66:	f883 203c 	strb.w	r2, [r3, #60]	; 0x3c

        return HAL_ERROR;
 8001f6a:	2301      	movs	r3, #1
 8001f6c:	e023      	b.n	8001fb6 <I2C_WaitOnFlagUntilTimeout+0xa6>
  while (__HAL_I2C_GET_FLAG(hi2c, Flag) == Status)
 8001f6e:	68bb      	ldr	r3, [r7, #8]
 8001f70:	0c1b      	lsrs	r3, r3, #16
 8001f72:	b2db      	uxtb	r3, r3
 8001f74:	2b01      	cmp	r3, #1
 8001f76:	d10d      	bne.n	8001f94 <I2C_WaitOnFlagUntilTimeout+0x84>
 8001f78:	68fb      	ldr	r3, [r7, #12]
 8001f7a:	681b      	ldr	r3, [r3, #0]
 8001f7c:	695b      	ldr	r3, [r3, #20]
 8001f7e:	43da      	mvns	r2, r3
 8001f80:	68bb      	ldr	r3, [r7, #8]
 8001f82:	4013      	ands	r3, r2
 8001f84:	b29b      	uxth	r3, r3
 8001f86:	2b00      	cmp	r3, #0
 8001f88:	bf0c      	ite	eq
 8001f8a:	2301      	moveq	r3, #1
 8001f8c:	2300      	movne	r3, #0
 8001f8e:	b2db      	uxtb	r3, r3
 8001f90:	461a      	mov	r2, r3
 8001f92:	e00c      	b.n	8001fae <I2C_WaitOnFlagUntilTimeout+0x9e>
 8001f94:	68fb      	ldr	r3, [r7, #12]
 8001f96:	681b      	ldr	r3, [r3, #0]
 8001f98:	699b      	ldr	r3, [r3, #24]
 8001f9a:	43da      	mvns	r2, r3
 8001f9c:	68bb      	ldr	r3, [r7, #8]
 8001f9e:	4013      	ands	r3, r2
 8001fa0:	b29b      	uxth	r3, r3
 8001fa2:	2b00      	cmp	r3, #0
 8001fa4:	bf0c      	ite	eq
 8001fa6:	2301      	moveq	r3, #1
 8001fa8:	2300      	movne	r3, #0
 8001faa:	b2db      	uxtb	r3, r3
 8001fac:	461a      	mov	r2, r3
 8001fae:	79fb      	ldrb	r3, [r7, #7]
 8001fb0:	429a      	cmp	r2, r3
 8001fb2:	d0b6      	beq.n	8001f22 <I2C_WaitOnFlagUntilTimeout+0x12>
      }
    }
  }
  return HAL_OK;
 8001fb4:	2300      	movs	r3, #0
}
 8001fb6:	4618      	mov	r0, r3
 8001fb8:	3710      	adds	r7, #16
 8001fba:	46bd      	mov	sp, r7
 8001fbc:	bd80      	pop	{r7, pc}

08001fbe <I2C_WaitOnMasterAddressFlagUntilTimeout>:
  * @param  Timeout Timeout duration
  * @param  Tickstart Tick start value
  * @retval HAL status
  */
static HAL_StatusTypeDef I2C_WaitOnMasterAddressFlagUntilTimeout(I2C_HandleTypeDef *hi2c, uint32_t Flag, uint32_t Timeout, uint32_t Tickstart)
{
 8001fbe:	b580      	push	{r7, lr}
 8001fc0:	b084      	sub	sp, #16
 8001fc2:	af00      	add	r7, sp, #0
 8001fc4:	60f8      	str	r0, [r7, #12]
 8001fc6:	60b9      	str	r1, [r7, #8]
 8001fc8:	607a      	str	r2, [r7, #4]
 8001fca:	603b      	str	r3, [r7, #0]
  while (__HAL_I2C_GET_FLAG(hi2c, Flag) == RESET)
 8001fcc:	e051      	b.n	8002072 <I2C_WaitOnMasterAddressFlagUntilTimeout+0xb4>
  {
    if (__HAL_I2C_GET_FLAG(hi2c, I2C_FLAG_AF) == SET)
 8001fce:	68fb      	ldr	r3, [r7, #12]
 8001fd0:	681b      	ldr	r3, [r3, #0]
 8001fd2:	695b      	ldr	r3, [r3, #20]
 8001fd4:	f403 6380 	and.w	r3, r3, #1024	; 0x400
 8001fd8:	f5b3 6f80 	cmp.w	r3, #1024	; 0x400
 8001fdc:	d123      	bne.n	8002026 <I2C_WaitOnMasterAddressFlagUntilTimeout+0x68>
    {
      /* Generate Stop */
      SET_BIT(hi2c->Instance->CR1, I2C_CR1_STOP);
 8001fde:	68fb      	ldr	r3, [r7, #12]
 8001fe0:	681b      	ldr	r3, [r3, #0]
 8001fe2:	681a      	ldr	r2, [r3, #0]
 8001fe4:	68fb      	ldr	r3, [r7, #12]
 8001fe6:	681b      	ldr	r3, [r3, #0]
 8001fe8:	f442 7200 	orr.w	r2, r2, #512	; 0x200
 8001fec:	601a      	str	r2, [r3, #0]

      /* Clear AF Flag */
      __HAL_I2C_CLEAR_FLAG(hi2c, I2C_FLAG_AF);
 8001fee:	68fb      	ldr	r3, [r7, #12]
 8001ff0:	681b      	ldr	r3, [r3, #0]
 8001ff2:	f46f 6280 	mvn.w	r2, #1024	; 0x400
 8001ff6:	615a      	str	r2, [r3, #20]

      hi2c->PreviousState       = I2C_STATE_NONE;
 8001ff8:	68fb      	ldr	r3, [r7, #12]
 8001ffa:	2200      	movs	r2, #0
 8001ffc:	631a      	str	r2, [r3, #48]	; 0x30
      hi2c->State               = HAL_I2C_STATE_READY;
 8001ffe:	68fb      	ldr	r3, [r7, #12]
 8002000:	2220      	movs	r2, #32
 8002002:	f883 203d 	strb.w	r2, [r3, #61]	; 0x3d
      hi2c->Mode                = HAL_I2C_MODE_NONE;
 8002006:	68fb      	ldr	r3, [r7, #12]
 8002008:	2200      	movs	r2, #0
 800200a:	f883 203e 	strb.w	r2, [r3, #62]	; 0x3e
      hi2c->ErrorCode           |= HAL_I2C_ERROR_AF;
 800200e:	68fb      	ldr	r3, [r7, #12]
 8002010:	6c1b      	ldr	r3, [r3, #64]	; 0x40
 8002012:	f043 0204 	orr.w	r2, r3, #4
 8002016:	68fb      	ldr	r3, [r7, #12]
 8002018:	641a      	str	r2, [r3, #64]	; 0x40

      /* Process Unlocked */
      __HAL_UNLOCK(hi2c);
 800201a:	68fb      	ldr	r3, [r7, #12]
 800201c:	2200      	movs	r2, #0
 800201e:	f883 203c 	strb.w	r2, [r3, #60]	; 0x3c

      return HAL_ERROR;
 8002022:	2301      	movs	r3, #1
 8002024:	e046      	b.n	80020b4 <I2C_WaitOnMasterAddressFlagUntilTimeout+0xf6>
    }

    /* Check for the Timeout */
    if (Timeout != HAL_MAX_DELAY)
 8002026:	687b      	ldr	r3, [r7, #4]
 8002028:	f1b3 3fff 	cmp.w	r3, #4294967295
 800202c:	d021      	beq.n	8002072 <I2C_WaitOnMasterAddressFlagUntilTimeout+0xb4>
    {
      if (((HAL_GetTick() - Tickstart) > Timeout) || (Timeout == 0U))
 800202e:	f7fe fe47 	bl	8000cc0 <HAL_GetTick>
 8002032:	4602      	mov	r2, r0
 8002034:	683b      	ldr	r3, [r7, #0]
 8002036:	1ad3      	subs	r3, r2, r3
 8002038:	687a      	ldr	r2, [r7, #4]
 800203a:	429a      	cmp	r2, r3
 800203c:	d302      	bcc.n	8002044 <I2C_WaitOnMasterAddressFlagUntilTimeout+0x86>
 800203e:	687b      	ldr	r3, [r7, #4]
 8002040:	2b00      	cmp	r3, #0
 8002042:	d116      	bne.n	8002072 <I2C_WaitOnMasterAddressFlagUntilTimeout+0xb4>
      {
        hi2c->PreviousState       = I2C_STATE_NONE;
 8002044:	68fb      	ldr	r3, [r7, #12]
 8002046:	2200      	movs	r2, #0
 8002048:	631a      	str	r2, [r3, #48]	; 0x30
        hi2c->State               = HAL_I2C_STATE_READY;
 800204a:	68fb      	ldr	r3, [r7, #12]
 800204c:	2220      	movs	r2, #32
 800204e:	f883 203d 	strb.w	r2, [r3, #61]	; 0x3d
        hi2c->Mode                = HAL_I2C_MODE_NONE;
 8002052:	68fb      	ldr	r3, [r7, #12]
 8002054:	2200      	movs	r2, #0
 8002056:	f883 203e 	strb.w	r2, [r3, #62]	; 0x3e
        hi2c->ErrorCode           |= HAL_I2C_ERROR_TIMEOUT;
 800205a:	68fb      	ldr	r3, [r7, #12]
 800205c:	6c1b      	ldr	r3, [r3, #64]	; 0x40
 800205e:	f043 0220 	orr.w	r2, r3, #32
 8002062:	68fb      	ldr	r3, [r7, #12]
 8002064:	641a      	str	r2, [r3, #64]	; 0x40

        /* Process Unlocked */
        __HAL_UNLOCK(hi2c);
 8002066:	68fb      	ldr	r3, [r7, #12]
 8002068:	2200      	movs	r2, #0
 800206a:	f883 203c 	strb.w	r2, [r3, #60]	; 0x3c

        return HAL_ERROR;
 800206e:	2301      	movs	r3, #1
 8002070:	e020      	b.n	80020b4 <I2C_WaitOnMasterAddressFlagUntilTimeout+0xf6>
  while (__HAL_I2C_GET_FLAG(hi2c, Flag) == RESET)
 8002072:	68bb      	ldr	r3, [r7, #8]
 8002074:	0c1b      	lsrs	r3, r3, #16
 8002076:	b2db      	uxtb	r3, r3
 8002078:	2b01      	cmp	r3, #1
 800207a:	d10c      	bne.n	8002096 <I2C_WaitOnMasterAddressFlagUntilTimeout+0xd8>
 800207c:	68fb      	ldr	r3, [r7, #12]
 800207e:	681b      	ldr	r3, [r3, #0]
 8002080:	695b      	ldr	r3, [r3, #20]
 8002082:	43da      	mvns	r2, r3
 8002084:	68bb      	ldr	r3, [r7, #8]
 8002086:	4013      	ands	r3, r2
 8002088:	b29b      	uxth	r3, r3
 800208a:	2b00      	cmp	r3, #0
 800208c:	bf14      	ite	ne
 800208e:	2301      	movne	r3, #1
 8002090:	2300      	moveq	r3, #0
 8002092:	b2db      	uxtb	r3, r3
 8002094:	e00b      	b.n	80020ae <I2C_WaitOnMasterAddressFlagUntilTimeout+0xf0>
 8002096:	68fb      	ldr	r3, [r7, #12]
 8002098:	681b      	ldr	r3, [r3, #0]
 800209a:	699b      	ldr	r3, [r3, #24]
 800209c:	43da      	mvns	r2, r3
 800209e:	68bb      	ldr	r3, [r7, #8]
 80020a0:	4013      	ands	r3, r2
 80020a2:	b29b      	uxth	r3, r3
 80020a4:	2b00      	cmp	r3, #0
 80020a6:	bf14      	ite	ne
 80020a8:	2301      	movne	r3, #1
 80020aa:	2300      	moveq	r3, #0
 80020ac:	b2db      	uxtb	r3, r3
 80020ae:	2b00      	cmp	r3, #0
 80020b0:	d18d      	bne.n	8001fce <I2C_WaitOnMasterAddressFlagUntilTimeout+0x10>
      }
    }
  }
  return HAL_OK;
 80020b2:	2300      	movs	r3, #0
}
 80020b4:	4618      	mov	r0, r3
 80020b6:	3710      	adds	r7, #16
 80020b8:	46bd      	mov	sp, r7
 80020ba:	bd80      	pop	{r7, pc}

080020bc <I2C_WaitOnTXEFlagUntilTimeout>:
  * @param  Timeout Timeout duration
  * @param  Tickstart Tick start value
  * @retval HAL status
  */
static HAL_StatusTypeDef I2C_WaitOnTXEFlagUntilTimeout(I2C_HandleTypeDef *hi2c, uint32_t Timeout, uint32_t Tickstart)
{
 80020bc:	b580      	push	{r7, lr}
 80020be:	b084      	sub	sp, #16
 80020c0:	af00      	add	r7, sp, #0
 80020c2:	60f8      	str	r0, [r7, #12]
 80020c4:	60b9      	str	r1, [r7, #8]
 80020c6:	607a      	str	r2, [r7, #4]
  while (__HAL_I2C_GET_FLAG(hi2c, I2C_FLAG_TXE) == RESET)
 80020c8:	e02d      	b.n	8002126 <I2C_WaitOnTXEFlagUntilTimeout+0x6a>
  {
    /* Check if a NACK is detected */
    if (I2C_IsAcknowledgeFailed(hi2c) != HAL_OK)
 80020ca:	68f8      	ldr	r0, [r7, #12]
 80020cc:	f000 f8ce 	bl	800226c <I2C_IsAcknowledgeFailed>
 80020d0:	4603      	mov	r3, r0
 80020d2:	2b00      	cmp	r3, #0
 80020d4:	d001      	beq.n	80020da <I2C_WaitOnTXEFlagUntilTimeout+0x1e>
    {
      return HAL_ERROR;
 80020d6:	2301      	movs	r3, #1
 80020d8:	e02d      	b.n	8002136 <I2C_WaitOnTXEFlagUntilTimeout+0x7a>
    }

    /* Check for the Timeout */
    if (Timeout != HAL_MAX_DELAY)
 80020da:	68bb      	ldr	r3, [r7, #8]
 80020dc:	f1b3 3fff 	cmp.w	r3, #4294967295
 80020e0:	d021      	beq.n	8002126 <I2C_WaitOnTXEFlagUntilTimeout+0x6a>
    {
      if (((HAL_GetTick() - Tickstart) > Timeout) || (Timeout == 0U))
 80020e2:	f7fe fded 	bl	8000cc0 <HAL_GetTick>
 80020e6:	4602      	mov	r2, r0
 80020e8:	687b      	ldr	r3, [r7, #4]
 80020ea:	1ad3      	subs	r3, r2, r3
 80020ec:	68ba      	ldr	r2, [r7, #8]
 80020ee:	429a      	cmp	r2, r3
 80020f0:	d302      	bcc.n	80020f8 <I2C_WaitOnTXEFlagUntilTimeout+0x3c>
 80020f2:	68bb      	ldr	r3, [r7, #8]
 80020f4:	2b00      	cmp	r3, #0
 80020f6:	d116      	bne.n	8002126 <I2C_WaitOnTXEFlagUntilTimeout+0x6a>
      {
        hi2c->PreviousState       = I2C_STATE_NONE;
 80020f8:	68fb      	ldr	r3, [r7, #12]
 80020fa:	2200      	movs	r2, #0
 80020fc:	631a      	str	r2, [r3, #48]	; 0x30
        hi2c->State               = HAL_I2C_STATE_READY;
 80020fe:	68fb      	ldr	r3, [r7, #12]
 8002100:	2220      	movs	r2, #32
 8002102:	f883 203d 	strb.w	r2, [r3, #61]	; 0x3d
        hi2c->Mode                = HAL_I2C_MODE_NONE;
 8002106:	68fb      	ldr	r3, [r7, #12]
 8002108:	2200      	movs	r2, #0
 800210a:	f883 203e 	strb.w	r2, [r3, #62]	; 0x3e
        hi2c->ErrorCode           |= HAL_I2C_ERROR_TIMEOUT;
 800210e:	68fb      	ldr	r3, [r7, #12]
 8002110:	6c1b      	ldr	r3, [r3, #64]	; 0x40
 8002112:	f043 0220 	orr.w	r2, r3, #32
 8002116:	68fb      	ldr	r3, [r7, #12]
 8002118:	641a      	str	r2, [r3, #64]	; 0x40

        /* Process Unlocked */
        __HAL_UNLOCK(hi2c);
 800211a:	68fb      	ldr	r3, [r7, #12]
 800211c:	2200      	movs	r2, #0
 800211e:	f883 203c 	strb.w	r2, [r3, #60]	; 0x3c

        return HAL_ERROR;
 8002122:	2301      	movs	r3, #1
 8002124:	e007      	b.n	8002136 <I2C_WaitOnTXEFlagUntilTimeout+0x7a>
  while (__HAL_I2C_GET_FLAG(hi2c, I2C_FLAG_TXE) == RESET)
 8002126:	68fb      	ldr	r3, [r7, #12]
 8002128:	681b      	ldr	r3, [r3, #0]
 800212a:	695b      	ldr	r3, [r3, #20]
 800212c:	f003 0380 	and.w	r3, r3, #128	; 0x80
 8002130:	2b80      	cmp	r3, #128	; 0x80
 8002132:	d1ca      	bne.n	80020ca <I2C_WaitOnTXEFlagUntilTimeout+0xe>
      }
    }
  }
  return HAL_OK;
 8002134:	2300      	movs	r3, #0
}
 8002136:	4618      	mov	r0, r3
 8002138:	3710      	adds	r7, #16
 800213a:	46bd      	mov	sp, r7
 800213c:	bd80      	pop	{r7, pc}

0800213e <I2C_WaitOnBTFFlagUntilTimeout>:
  * @param  Timeout Timeout duration
  * @param  Tickstart Tick start value
  * @retval HAL status
  */
static HAL_StatusTypeDef I2C_WaitOnBTFFlagUntilTimeout(I2C_HandleTypeDef *hi2c, uint32_t Timeout, uint32_t Tickstart)
{
 800213e:	b580      	push	{r7, lr}
 8002140:	b084      	sub	sp, #16
 8002142:	af00      	add	r7, sp, #0
 8002144:	60f8      	str	r0, [r7, #12]
 8002146:	60b9      	str	r1, [r7, #8]
 8002148:	607a      	str	r2, [r7, #4]
  while (__HAL_I2C_GET_FLAG(hi2c, I2C_FLAG_BTF) == RESET)
 800214a:	e02d      	b.n	80021a8 <I2C_WaitOnBTFFlagUntilTimeout+0x6a>
  {
    /* Check if a NACK is detected */
    if (I2C_IsAcknowledgeFailed(hi2c) != HAL_OK)
 800214c:	68f8      	ldr	r0, [r7, #12]
 800214e:	f000 f88d 	bl	800226c <I2C_IsAcknowledgeFailed>
 8002152:	4603      	mov	r3, r0
 8002154:	2b00      	cmp	r3, #0
 8002156:	d001      	beq.n	800215c <I2C_WaitOnBTFFlagUntilTimeout+0x1e>
    {
      return HAL_ERROR;
 8002158:	2301      	movs	r3, #1
 800215a:	e02d      	b.n	80021b8 <I2C_WaitOnBTFFlagUntilTimeout+0x7a>
    }

    /* Check for the Timeout */
    if (Timeout != HAL_MAX_DELAY)
 800215c:	68bb      	ldr	r3, [r7, #8]
 800215e:	f1b3 3fff 	cmp.w	r3, #4294967295
 8002162:	d021      	beq.n	80021a8 <I2C_WaitOnBTFFlagUntilTimeout+0x6a>
    {
      if (((HAL_GetTick() - Tickstart) > Timeout) || (Timeout == 0U))
 8002164:	f7fe fdac 	bl	8000cc0 <HAL_GetTick>
 8002168:	4602      	mov	r2, r0
 800216a:	687b      	ldr	r3, [r7, #4]
 800216c:	1ad3      	subs	r3, r2, r3
 800216e:	68ba      	ldr	r2, [r7, #8]
 8002170:	429a      	cmp	r2, r3
 8002172:	d302      	bcc.n	800217a <I2C_WaitOnBTFFlagUntilTimeout+0x3c>
 8002174:	68bb      	ldr	r3, [r7, #8]
 8002176:	2b00      	cmp	r3, #0
 8002178:	d116      	bne.n	80021a8 <I2C_WaitOnBTFFlagUntilTimeout+0x6a>
      {
        hi2c->PreviousState       = I2C_STATE_NONE;
 800217a:	68fb      	ldr	r3, [r7, #12]
 800217c:	2200      	movs	r2, #0
 800217e:	631a      	str	r2, [r3, #48]	; 0x30
        hi2c->State               = HAL_I2C_STATE_READY;
 8002180:	68fb      	ldr	r3, [r7, #12]
 8002182:	2220      	movs	r2, #32
 8002184:	f883 203d 	strb.w	r2, [r3, #61]	; 0x3d
        hi2c->Mode                = HAL_I2C_MODE_NONE;
 8002188:	68fb      	ldr	r3, [r7, #12]
 800218a:	2200      	movs	r2, #0
 800218c:	f883 203e 	strb.w	r2, [r3, #62]	; 0x3e
        hi2c->ErrorCode           |= HAL_I2C_ERROR_TIMEOUT;
 8002190:	68fb      	ldr	r3, [r7, #12]
 8002192:	6c1b      	ldr	r3, [r3, #64]	; 0x40
 8002194:	f043 0220 	orr.w	r2, r3, #32
 8002198:	68fb      	ldr	r3, [r7, #12]
 800219a:	641a      	str	r2, [r3, #64]	; 0x40

        /* Process Unlocked */
        __HAL_UNLOCK(hi2c);
 800219c:	68fb      	ldr	r3, [r7, #12]
 800219e:	2200      	movs	r2, #0
 80021a0:	f883 203c 	strb.w	r2, [r3, #60]	; 0x3c

        return HAL_ERROR;
 80021a4:	2301      	movs	r3, #1
 80021a6:	e007      	b.n	80021b8 <I2C_WaitOnBTFFlagUntilTimeout+0x7a>
  while (__HAL_I2C_GET_FLAG(hi2c, I2C_FLAG_BTF) == RESET)
 80021a8:	68fb      	ldr	r3, [r7, #12]
 80021aa:	681b      	ldr	r3, [r3, #0]
 80021ac:	695b      	ldr	r3, [r3, #20]
 80021ae:	f003 0304 	and.w	r3, r3, #4
 80021b2:	2b04      	cmp	r3, #4
 80021b4:	d1ca      	bne.n	800214c <I2C_WaitOnBTFFlagUntilTimeout+0xe>
      }
    }
  }
  return HAL_OK;
 80021b6:	2300      	movs	r3, #0
}
 80021b8:	4618      	mov	r0, r3
 80021ba:	3710      	adds	r7, #16
 80021bc:	46bd      	mov	sp, r7
 80021be:	bd80      	pop	{r7, pc}

080021c0 <I2C_WaitOnRXNEFlagUntilTimeout>:
  * @param  Timeout Timeout duration
  * @param  Tickstart Tick start value
  * @retval HAL status
  */
static HAL_StatusTypeDef I2C_WaitOnRXNEFlagUntilTimeout(I2C_HandleTypeDef *hi2c, uint32_t Timeout, uint32_t Tickstart)
{
 80021c0:	b580      	push	{r7, lr}
 80021c2:	b084      	sub	sp, #16
 80021c4:	af00      	add	r7, sp, #0
 80021c6:	60f8      	str	r0, [r7, #12]
 80021c8:	60b9      	str	r1, [r7, #8]
 80021ca:	607a      	str	r2, [r7, #4]

  while (__HAL_I2C_GET_FLAG(hi2c, I2C_FLAG_RXNE) == RESET)
 80021cc:	e042      	b.n	8002254 <I2C_WaitOnRXNEFlagUntilTimeout+0x94>
  {
    /* Check if a STOPF is detected */
    if (__HAL_I2C_GET_FLAG(hi2c, I2C_FLAG_STOPF) == SET)
 80021ce:	68fb      	ldr	r3, [r7, #12]
 80021d0:	681b      	ldr	r3, [r3, #0]
 80021d2:	695b      	ldr	r3, [r3, #20]
 80021d4:	f003 0310 	and.w	r3, r3, #16
 80021d8:	2b10      	cmp	r3, #16
 80021da:	d119      	bne.n	8002210 <I2C_WaitOnRXNEFlagUntilTimeout+0x50>
    {
      /* Clear STOP Flag */
      __HAL_I2C_CLEAR_FLAG(hi2c, I2C_FLAG_STOPF);
 80021dc:	68fb      	ldr	r3, [r7, #12]
 80021de:	681b      	ldr	r3, [r3, #0]
 80021e0:	f06f 0210 	mvn.w	r2, #16
 80021e4:	615a      	str	r2, [r3, #20]

      hi2c->PreviousState       = I2C_STATE_NONE;
 80021e6:	68fb      	ldr	r3, [r7, #12]
 80021e8:	2200      	movs	r2, #0
 80021ea:	631a      	str	r2, [r3, #48]	; 0x30
      hi2c->State               = HAL_I2C_STATE_READY;
 80021ec:	68fb      	ldr	r3, [r7, #12]
 80021ee:	2220      	movs	r2, #32
 80021f0:	f883 203d 	strb.w	r2, [r3, #61]	; 0x3d
      hi2c->Mode                = HAL_I2C_MODE_NONE;
 80021f4:	68fb      	ldr	r3, [r7, #12]
 80021f6:	2200      	movs	r2, #0
 80021f8:	f883 203e 	strb.w	r2, [r3, #62]	; 0x3e
      hi2c->ErrorCode           |= HAL_I2C_ERROR_NONE;
 80021fc:	68fb      	ldr	r3, [r7, #12]
 80021fe:	6c1a      	ldr	r2, [r3, #64]	; 0x40
 8002200:	68fb      	ldr	r3, [r7, #12]
 8002202:	641a      	str	r2, [r3, #64]	; 0x40

      /* Process Unlocked */
      __HAL_UNLOCK(hi2c);
 8002204:	68fb      	ldr	r3, [r7, #12]
 8002206:	2200      	movs	r2, #0
 8002208:	f883 203c 	strb.w	r2, [r3, #60]	; 0x3c

      return HAL_ERROR;
 800220c:	2301      	movs	r3, #1
 800220e:	e029      	b.n	8002264 <I2C_WaitOnRXNEFlagUntilTimeout+0xa4>
    }

    /* Check for the Timeout */
    if (((HAL_GetTick() - Tickstart) > Timeout) || (Timeout == 0U))
 8002210:	f7fe fd56 	bl	8000cc0 <HAL_GetTick>
 8002214:	4602      	mov	r2, r0
 8002216:	687b      	ldr	r3, [r7, #4]
 8002218:	1ad3      	subs	r3, r2, r3
 800221a:	68ba      	ldr	r2, [r7, #8]
 800221c:	429a      	cmp	r2, r3
 800221e:	d302      	bcc.n	8002226 <I2C_WaitOnRXNEFlagUntilTimeout+0x66>
 8002220:	68bb      	ldr	r3, [r7, #8]
 8002222:	2b00      	cmp	r3, #0
 8002224:	d116      	bne.n	8002254 <I2C_WaitOnRXNEFlagUntilTimeout+0x94>
    {
      hi2c->PreviousState       = I2C_STATE_NONE;
 8002226:	68fb      	ldr	r3, [r7, #12]
 8002228:	2200      	movs	r2, #0
 800222a:	631a      	str	r2, [r3, #48]	; 0x30
      hi2c->State               = HAL_I2C_STATE_READY;
 800222c:	68fb      	ldr	r3, [r7, #12]
 800222e:	2220      	movs	r2, #32
 8002230:	f883 203d 	strb.w	r2, [r3, #61]	; 0x3d
      hi2c->Mode                = HAL_I2C_MODE_NONE;
 8002234:	68fb      	ldr	r3, [r7, #12]
 8002236:	2200      	movs	r2, #0
 8002238:	f883 203e 	strb.w	r2, [r3, #62]	; 0x3e
      hi2c->ErrorCode           |= HAL_I2C_ERROR_TIMEOUT;
 800223c:	68fb      	ldr	r3, [r7, #12]
 800223e:	6c1b      	ldr	r3, [r3, #64]	; 0x40
 8002240:	f043 0220 	orr.w	r2, r3, #32
 8002244:	68fb      	ldr	r3, [r7, #12]
 8002246:	641a      	str	r2, [r3, #64]	; 0x40

      /* Process Unlocked */
      __HAL_UNLOCK(hi2c);
 8002248:	68fb      	ldr	r3, [r7, #12]
 800224a:	2200      	movs	r2, #0
 800224c:	f883 203c 	strb.w	r2, [r3, #60]	; 0x3c

      return HAL_ERROR;
 8002250:	2301      	movs	r3, #1
 8002252:	e007      	b.n	8002264 <I2C_WaitOnRXNEFlagUntilTimeout+0xa4>
  while (__HAL_I2C_GET_FLAG(hi2c, I2C_FLAG_RXNE) == RESET)
 8002254:	68fb      	ldr	r3, [r7, #12]
 8002256:	681b      	ldr	r3, [r3, #0]
 8002258:	695b      	ldr	r3, [r3, #20]
 800225a:	f003 0340 	and.w	r3, r3, #64	; 0x40
 800225e:	2b40      	cmp	r3, #64	; 0x40
 8002260:	d1b5      	bne.n	80021ce <I2C_WaitOnRXNEFlagUntilTimeout+0xe>
    }
  }
  return HAL_OK;
 8002262:	2300      	movs	r3, #0
}
 8002264:	4618      	mov	r0, r3
 8002266:	3710      	adds	r7, #16
 8002268:	46bd      	mov	sp, r7
 800226a:	bd80      	pop	{r7, pc}

0800226c <I2C_IsAcknowledgeFailed>:
  * @param  hi2c Pointer to a I2C_HandleTypeDef structure that contains
  *                the configuration information for the specified I2C.
  * @retval HAL status
  */
static HAL_StatusTypeDef I2C_IsAcknowledgeFailed(I2C_HandleTypeDef *hi2c)
{
 800226c:	b480      	push	{r7}
 800226e:	b083      	sub	sp, #12
 8002270:	af00      	add	r7, sp, #0
 8002272:	6078      	str	r0, [r7, #4]
  if (__HAL_I2C_GET_FLAG(hi2c, I2C_FLAG_AF) == SET)
 8002274:	687b      	ldr	r3, [r7, #4]
 8002276:	681b      	ldr	r3, [r3, #0]
 8002278:	695b      	ldr	r3, [r3, #20]
 800227a:	f403 6380 	and.w	r3, r3, #1024	; 0x400
 800227e:	f5b3 6f80 	cmp.w	r3, #1024	; 0x400
 8002282:	d11b      	bne.n	80022bc <I2C_IsAcknowledgeFailed+0x50>
  {
    /* Clear NACKF Flag */
    __HAL_I2C_CLEAR_FLAG(hi2c, I2C_FLAG_AF);
 8002284:	687b      	ldr	r3, [r7, #4]
 8002286:	681b      	ldr	r3, [r3, #0]
 8002288:	f46f 6280 	mvn.w	r2, #1024	; 0x400
 800228c:	615a      	str	r2, [r3, #20]

    hi2c->PreviousState       = I2C_STATE_NONE;
 800228e:	687b      	ldr	r3, [r7, #4]
 8002290:	2200      	movs	r2, #0
 8002292:	631a      	str	r2, [r3, #48]	; 0x30
    hi2c->State               = HAL_I2C_STATE_READY;
 8002294:	687b      	ldr	r3, [r7, #4]
 8002296:	2220      	movs	r2, #32
 8002298:	f883 203d 	strb.w	r2, [r3, #61]	; 0x3d
    hi2c->Mode                = HAL_I2C_MODE_NONE;
 800229c:	687b      	ldr	r3, [r7, #4]
 800229e:	2200      	movs	r2, #0
 80022a0:	f883 203e 	strb.w	r2, [r3, #62]	; 0x3e
    hi2c->ErrorCode           |= HAL_I2C_ERROR_AF;
 80022a4:	687b      	ldr	r3, [r7, #4]
 80022a6:	6c1b      	ldr	r3, [r3, #64]	; 0x40
 80022a8:	f043 0204 	orr.w	r2, r3, #4
 80022ac:	687b      	ldr	r3, [r7, #4]
 80022ae:	641a      	str	r2, [r3, #64]	; 0x40

    /* Process Unlocked */
    __HAL_UNLOCK(hi2c);
 80022b0:	687b      	ldr	r3, [r7, #4]
 80022b2:	2200      	movs	r2, #0
 80022b4:	f883 203c 	strb.w	r2, [r3, #60]	; 0x3c

    return HAL_ERROR;
 80022b8:	2301      	movs	r3, #1
 80022ba:	e000      	b.n	80022be <I2C_IsAcknowledgeFailed+0x52>
  }
  return HAL_OK;
 80022bc:	2300      	movs	r3, #0
}
 80022be:	4618      	mov	r0, r3
 80022c0:	370c      	adds	r7, #12
 80022c2:	46bd      	mov	sp, r7
 80022c4:	bc80      	pop	{r7}
 80022c6:	4770      	bx	lr

080022c8 <HAL_RCC_OscConfig>:
  *         supported by this macro. User should request a transition to HSE Off
  *         first and then HSE On or HSE Bypass.
  * @retval HAL status
  */
HAL_StatusTypeDef HAL_RCC_OscConfig(RCC_OscInitTypeDef  *RCC_OscInitStruct)
{
 80022c8:	b580      	push	{r7, lr}
 80022ca:	b086      	sub	sp, #24
 80022cc:	af00      	add	r7, sp, #0
 80022ce:	6078      	str	r0, [r7, #4]
  uint32_t tickstart;
  uint32_t pll_config;

  /* Check Null pointer */
  if (RCC_OscInitStruct == NULL)
 80022d0:	687b      	ldr	r3, [r7, #4]
 80022d2:	2b00      	cmp	r3, #0
 80022d4:	d101      	bne.n	80022da <HAL_RCC_OscConfig+0x12>
  {
    return HAL_ERROR;
 80022d6:	2301      	movs	r3, #1
 80022d8:	e272      	b.n	80027c0 <HAL_RCC_OscConfig+0x4f8>

  /* Check the parameters */
  assert_param(IS_RCC_OSCILLATORTYPE(RCC_OscInitStruct->OscillatorType));

  /*------------------------------- HSE Configuration ------------------------*/
  if (((RCC_OscInitStruct->OscillatorType) & RCC_OSCILLATORTYPE_HSE) == RCC_OSCILLATORTYPE_HSE)
 80022da:	687b      	ldr	r3, [r7, #4]
 80022dc:	681b      	ldr	r3, [r3, #0]
 80022de:	f003 0301 	and.w	r3, r3, #1
 80022e2:	2b00      	cmp	r3, #0
 80022e4:	f000 8087 	beq.w	80023f6 <HAL_RCC_OscConfig+0x12e>
  {
    /* Check the parameters */
    assert_param(IS_RCC_HSE(RCC_OscInitStruct->HSEState));

    /* When the HSE is used as system clock or clock source for PLL in these cases it is not allowed to be disabled */
    if ((__HAL_RCC_GET_SYSCLK_SOURCE() == RCC_SYSCLKSOURCE_STATUS_HSE)
 80022e8:	4b92      	ldr	r3, [pc, #584]	; (8002534 <HAL_RCC_OscConfig+0x26c>)
 80022ea:	685b      	ldr	r3, [r3, #4]
 80022ec:	f003 030c 	and.w	r3, r3, #12
 80022f0:	2b04      	cmp	r3, #4
 80022f2:	d00c      	beq.n	800230e <HAL_RCC_OscConfig+0x46>
        || ((__HAL_RCC_GET_SYSCLK_SOURCE() == RCC_SYSCLKSOURCE_STATUS_PLLCLK) && (__HAL_RCC_GET_PLL_OSCSOURCE() == RCC_PLLSOURCE_HSE)))
 80022f4:	4b8f      	ldr	r3, [pc, #572]	; (8002534 <HAL_RCC_OscConfig+0x26c>)
 80022f6:	685b      	ldr	r3, [r3, #4]
 80022f8:	f003 030c 	and.w	r3, r3, #12
 80022fc:	2b08      	cmp	r3, #8
 80022fe:	d112      	bne.n	8002326 <HAL_RCC_OscConfig+0x5e>
 8002300:	4b8c      	ldr	r3, [pc, #560]	; (8002534 <HAL_RCC_OscConfig+0x26c>)
 8002302:	685b      	ldr	r3, [r3, #4]
 8002304:	f403 3380 	and.w	r3, r3, #65536	; 0x10000
 8002308:	f5b3 3f80 	cmp.w	r3, #65536	; 0x10000
 800230c:	d10b      	bne.n	8002326 <HAL_RCC_OscConfig+0x5e>
    {
      if ((__HAL_RCC_GET_FLAG(RCC_FLAG_HSERDY) != RESET) && (RCC_OscInitStruct->HSEState == RCC_HSE_OFF))
 800230e:	4b89      	ldr	r3, [pc, #548]	; (8002534 <HAL_RCC_OscConfig+0x26c>)
 8002310:	681b      	ldr	r3, [r3, #0]
 8002312:	f403 3300 	and.w	r3, r3, #131072	; 0x20000
 8002316:	2b00      	cmp	r3, #0
 8002318:	d06c      	beq.n	80023f4 <HAL_RCC_OscConfig+0x12c>
 800231a:	687b      	ldr	r3, [r7, #4]
 800231c:	685b      	ldr	r3, [r3, #4]
 800231e:	2b00      	cmp	r3, #0
 8002320:	d168      	bne.n	80023f4 <HAL_RCC_OscConfig+0x12c>
      {
        return HAL_ERROR;
 8002322:	2301      	movs	r3, #1
 8002324:	e24c      	b.n	80027c0 <HAL_RCC_OscConfig+0x4f8>
      }
    }
    else
    {
      /* Set the new HSE configuration ---------------------------------------*/
      __HAL_RCC_HSE_CONFIG(RCC_OscInitStruct->HSEState);
 8002326:	687b      	ldr	r3, [r7, #4]
 8002328:	685b      	ldr	r3, [r3, #4]
 800232a:	f5b3 3f80 	cmp.w	r3, #65536	; 0x10000
 800232e:	d106      	bne.n	800233e <HAL_RCC_OscConfig+0x76>
 8002330:	4b80      	ldr	r3, [pc, #512]	; (8002534 <HAL_RCC_OscConfig+0x26c>)
 8002332:	681b      	ldr	r3, [r3, #0]
 8002334:	4a7f      	ldr	r2, [pc, #508]	; (8002534 <HAL_RCC_OscConfig+0x26c>)
 8002336:	f443 3380 	orr.w	r3, r3, #65536	; 0x10000
 800233a:	6013      	str	r3, [r2, #0]
 800233c:	e02e      	b.n	800239c <HAL_RCC_OscConfig+0xd4>
 800233e:	687b      	ldr	r3, [r7, #4]
 8002340:	685b      	ldr	r3, [r3, #4]
 8002342:	2b00      	cmp	r3, #0
 8002344:	d10c      	bne.n	8002360 <HAL_RCC_OscConfig+0x98>
 8002346:	4b7b      	ldr	r3, [pc, #492]	; (8002534 <HAL_RCC_OscConfig+0x26c>)
 8002348:	681b      	ldr	r3, [r3, #0]
 800234a:	4a7a      	ldr	r2, [pc, #488]	; (8002534 <HAL_RCC_OscConfig+0x26c>)
 800234c:	f423 3380 	bic.w	r3, r3, #65536	; 0x10000
 8002350:	6013      	str	r3, [r2, #0]
 8002352:	4b78      	ldr	r3, [pc, #480]	; (8002534 <HAL_RCC_OscConfig+0x26c>)
 8002354:	681b      	ldr	r3, [r3, #0]
 8002356:	4a77      	ldr	r2, [pc, #476]	; (8002534 <HAL_RCC_OscConfig+0x26c>)
 8002358:	f423 2380 	bic.w	r3, r3, #262144	; 0x40000
 800235c:	6013      	str	r3, [r2, #0]
 800235e:	e01d      	b.n	800239c <HAL_RCC_OscConfig+0xd4>
 8002360:	687b      	ldr	r3, [r7, #4]
 8002362:	685b      	ldr	r3, [r3, #4]
 8002364:	f5b3 2fa0 	cmp.w	r3, #327680	; 0x50000
 8002368:	d10c      	bne.n	8002384 <HAL_RCC_OscConfig+0xbc>
 800236a:	4b72      	ldr	r3, [pc, #456]	; (8002534 <HAL_RCC_OscConfig+0x26c>)
 800236c:	681b      	ldr	r3, [r3, #0]
 800236e:	4a71      	ldr	r2, [pc, #452]	; (8002534 <HAL_RCC_OscConfig+0x26c>)
 8002370:	f443 2380 	orr.w	r3, r3, #262144	; 0x40000
 8002374:	6013      	str	r3, [r2, #0]
 8002376:	4b6f      	ldr	r3, [pc, #444]	; (8002534 <HAL_RCC_OscConfig+0x26c>)
 8002378:	681b      	ldr	r3, [r3, #0]
 800237a:	4a6e      	ldr	r2, [pc, #440]	; (8002534 <HAL_RCC_OscConfig+0x26c>)
 800237c:	f443 3380 	orr.w	r3, r3, #65536	; 0x10000
 8002380:	6013      	str	r3, [r2, #0]
 8002382:	e00b      	b.n	800239c <HAL_RCC_OscConfig+0xd4>
 8002384:	4b6b      	ldr	r3, [pc, #428]	; (8002534 <HAL_RCC_OscConfig+0x26c>)
 8002386:	681b      	ldr	r3, [r3, #0]
 8002388:	4a6a      	ldr	r2, [pc, #424]	; (8002534 <HAL_RCC_OscConfig+0x26c>)
 800238a:	f423 3380 	bic.w	r3, r3, #65536	; 0x10000
 800238e:	6013      	str	r3, [r2, #0]
 8002390:	4b68      	ldr	r3, [pc, #416]	; (8002534 <HAL_RCC_OscConfig+0x26c>)
 8002392:	681b      	ldr	r3, [r3, #0]
 8002394:	4a67      	ldr	r2, [pc, #412]	; (8002534 <HAL_RCC_OscConfig+0x26c>)
 8002396:	f423 2380 	bic.w	r3, r3, #262144	; 0x40000
 800239a:	6013      	str	r3, [r2, #0]


      /* Check the HSE State */
      if (RCC_OscInitStruct->HSEState != RCC_HSE_OFF)
 800239c:	687b      	ldr	r3, [r7, #4]
 800239e:	685b      	ldr	r3, [r3, #4]
 80023a0:	2b00      	cmp	r3, #0
 80023a2:	d013      	beq.n	80023cc <HAL_RCC_OscConfig+0x104>
      {
        /* Get Start Tick */
        tickstart = HAL_GetTick();
 80023a4:	f7fe fc8c 	bl	8000cc0 <HAL_GetTick>
 80023a8:	6138      	str	r0, [r7, #16]

        /* Wait till HSE is ready */
        while (__HAL_RCC_GET_FLAG(RCC_FLAG_HSERDY) == RESET)
 80023aa:	e008      	b.n	80023be <HAL_RCC_OscConfig+0xf6>
        {
          if ((HAL_GetTick() - tickstart) > HSE_TIMEOUT_VALUE)
 80023ac:	f7fe fc88 	bl	8000cc0 <HAL_GetTick>
 80023b0:	4602      	mov	r2, r0
 80023b2:	693b      	ldr	r3, [r7, #16]
 80023b4:	1ad3      	subs	r3, r2, r3
 80023b6:	2b64      	cmp	r3, #100	; 0x64
 80023b8:	d901      	bls.n	80023be <HAL_RCC_OscConfig+0xf6>
          {
            return HAL_TIMEOUT;
 80023ba:	2303      	movs	r3, #3
 80023bc:	e200      	b.n	80027c0 <HAL_RCC_OscConfig+0x4f8>
        while (__HAL_RCC_GET_FLAG(RCC_FLAG_HSERDY) == RESET)
 80023be:	4b5d      	ldr	r3, [pc, #372]	; (8002534 <HAL_RCC_OscConfig+0x26c>)
 80023c0:	681b      	ldr	r3, [r3, #0]
 80023c2:	f403 3300 	and.w	r3, r3, #131072	; 0x20000
 80023c6:	2b00      	cmp	r3, #0
 80023c8:	d0f0      	beq.n	80023ac <HAL_RCC_OscConfig+0xe4>
 80023ca:	e014      	b.n	80023f6 <HAL_RCC_OscConfig+0x12e>
        }
      }
      else
      {
        /* Get Start Tick */
        tickstart = HAL_GetTick();
 80023cc:	f7fe fc78 	bl	8000cc0 <HAL_GetTick>
 80023d0:	6138      	str	r0, [r7, #16]

        /* Wait till HSE is disabled */
        while (__HAL_RCC_GET_FLAG(RCC_FLAG_HSERDY) != RESET)
 80023d2:	e008      	b.n	80023e6 <HAL_RCC_OscConfig+0x11e>
        {
          if ((HAL_GetTick() - tickstart) > HSE_TIMEOUT_VALUE)
 80023d4:	f7fe fc74 	bl	8000cc0 <HAL_GetTick>
 80023d8:	4602      	mov	r2, r0
 80023da:	693b      	ldr	r3, [r7, #16]
 80023dc:	1ad3      	subs	r3, r2, r3
 80023de:	2b64      	cmp	r3, #100	; 0x64
 80023e0:	d901      	bls.n	80023e6 <HAL_RCC_OscConfig+0x11e>
          {
            return HAL_TIMEOUT;
 80023e2:	2303      	movs	r3, #3
 80023e4:	e1ec      	b.n	80027c0 <HAL_RCC_OscConfig+0x4f8>
        while (__HAL_RCC_GET_FLAG(RCC_FLAG_HSERDY) != RESET)
 80023e6:	4b53      	ldr	r3, [pc, #332]	; (8002534 <HAL_RCC_OscConfig+0x26c>)
 80023e8:	681b      	ldr	r3, [r3, #0]
 80023ea:	f403 3300 	and.w	r3, r3, #131072	; 0x20000
 80023ee:	2b00      	cmp	r3, #0
 80023f0:	d1f0      	bne.n	80023d4 <HAL_RCC_OscConfig+0x10c>
 80023f2:	e000      	b.n	80023f6 <HAL_RCC_OscConfig+0x12e>
      if ((__HAL_RCC_GET_FLAG(RCC_FLAG_HSERDY) != RESET) && (RCC_OscInitStruct->HSEState == RCC_HSE_OFF))
 80023f4:	bf00      	nop
        }
      }
    }
  }
  /*----------------------------- HSI Configuration --------------------------*/
  if (((RCC_OscInitStruct->OscillatorType) & RCC_OSCILLATORTYPE_HSI) == RCC_OSCILLATORTYPE_HSI)
 80023f6:	687b      	ldr	r3, [r7, #4]
 80023f8:	681b      	ldr	r3, [r3, #0]
 80023fa:	f003 0302 	and.w	r3, r3, #2
 80023fe:	2b00      	cmp	r3, #0
 8002400:	d063      	beq.n	80024ca <HAL_RCC_OscConfig+0x202>
    /* Check the parameters */
    assert_param(IS_RCC_HSI(RCC_OscInitStruct->HSIState));
    assert_param(IS_RCC_CALIBRATION_VALUE(RCC_OscInitStruct->HSICalibrationValue));

    /* Check if HSI is used as system clock or as PLL source when PLL is selected as system clock */
    if ((__HAL_RCC_GET_SYSCLK_SOURCE() == RCC_SYSCLKSOURCE_STATUS_HSI)
 8002402:	4b4c      	ldr	r3, [pc, #304]	; (8002534 <HAL_RCC_OscConfig+0x26c>)
 8002404:	685b      	ldr	r3, [r3, #4]
 8002406:	f003 030c 	and.w	r3, r3, #12
 800240a:	2b00      	cmp	r3, #0
 800240c:	d00b      	beq.n	8002426 <HAL_RCC_OscConfig+0x15e>
        || ((__HAL_RCC_GET_SYSCLK_SOURCE() == RCC_SYSCLKSOURCE_STATUS_PLLCLK) && (__HAL_RCC_GET_PLL_OSCSOURCE() == RCC_PLLSOURCE_HSI_DIV2)))
 800240e:	4b49      	ldr	r3, [pc, #292]	; (8002534 <HAL_RCC_OscConfig+0x26c>)
 8002410:	685b      	ldr	r3, [r3, #4]
 8002412:	f003 030c 	and.w	r3, r3, #12
 8002416:	2b08      	cmp	r3, #8
 8002418:	d11c      	bne.n	8002454 <HAL_RCC_OscConfig+0x18c>
 800241a:	4b46      	ldr	r3, [pc, #280]	; (8002534 <HAL_RCC_OscConfig+0x26c>)
 800241c:	685b      	ldr	r3, [r3, #4]
 800241e:	f403 3380 	and.w	r3, r3, #65536	; 0x10000
 8002422:	2b00      	cmp	r3, #0
 8002424:	d116      	bne.n	8002454 <HAL_RCC_OscConfig+0x18c>
    {
      /* When HSI is used as system clock it will not disabled */
      if ((__HAL_RCC_GET_FLAG(RCC_FLAG_HSIRDY) != RESET) && (RCC_OscInitStruct->HSIState != RCC_HSI_ON))
 8002426:	4b43      	ldr	r3, [pc, #268]	; (8002534 <HAL_RCC_OscConfig+0x26c>)
 8002428:	681b      	ldr	r3, [r3, #0]
 800242a:	f003 0302 	and.w	r3, r3, #2
 800242e:	2b00      	cmp	r3, #0
 8002430:	d005      	beq.n	800243e <HAL_RCC_OscConfig+0x176>
 8002432:	687b      	ldr	r3, [r7, #4]
 8002434:	691b      	ldr	r3, [r3, #16]
 8002436:	2b01      	cmp	r3, #1
 8002438:	d001      	beq.n	800243e <HAL_RCC_OscConfig+0x176>
      {
        return HAL_ERROR;
 800243a:	2301      	movs	r3, #1
 800243c:	e1c0      	b.n	80027c0 <HAL_RCC_OscConfig+0x4f8>
      }
      /* Otherwise, just the calibration is allowed */
      else
      {
        /* Adjusts the Internal High Speed oscillator (HSI) calibration value.*/
        __HAL_RCC_HSI_CALIBRATIONVALUE_ADJUST(RCC_OscInitStruct->HSICalibrationValue);
 800243e:	4b3d      	ldr	r3, [pc, #244]	; (8002534 <HAL_RCC_OscConfig+0x26c>)
 8002440:	681b      	ldr	r3, [r3, #0]
 8002442:	f023 02f8 	bic.w	r2, r3, #248	; 0xf8
 8002446:	687b      	ldr	r3, [r7, #4]
 8002448:	695b      	ldr	r3, [r3, #20]
 800244a:	00db      	lsls	r3, r3, #3
 800244c:	4939      	ldr	r1, [pc, #228]	; (8002534 <HAL_RCC_OscConfig+0x26c>)
 800244e:	4313      	orrs	r3, r2
 8002450:	600b      	str	r3, [r1, #0]
      if ((__HAL_RCC_GET_FLAG(RCC_FLAG_HSIRDY) != RESET) && (RCC_OscInitStruct->HSIState != RCC_HSI_ON))
 8002452:	e03a      	b.n	80024ca <HAL_RCC_OscConfig+0x202>
      }
    }
    else
    {
      /* Check the HSI State */
      if (RCC_OscInitStruct->HSIState != RCC_HSI_OFF)
 8002454:	687b      	ldr	r3, [r7, #4]
 8002456:	691b      	ldr	r3, [r3, #16]
 8002458:	2b00      	cmp	r3, #0
 800245a:	d020      	beq.n	800249e <HAL_RCC_OscConfig+0x1d6>
      {
        /* Enable the Internal High Speed oscillator (HSI). */
        __HAL_RCC_HSI_ENABLE();
 800245c:	4b36      	ldr	r3, [pc, #216]	; (8002538 <HAL_RCC_OscConfig+0x270>)
 800245e:	2201      	movs	r2, #1
 8002460:	601a      	str	r2, [r3, #0]

        /* Get Start Tick */
        tickstart = HAL_GetTick();
 8002462:	f7fe fc2d 	bl	8000cc0 <HAL_GetTick>
 8002466:	6138      	str	r0, [r7, #16]

        /* Wait till HSI is ready */
        while (__HAL_RCC_GET_FLAG(RCC_FLAG_HSIRDY) == RESET)
 8002468:	e008      	b.n	800247c <HAL_RCC_OscConfig+0x1b4>
        {
          if ((HAL_GetTick() - tickstart) > HSI_TIMEOUT_VALUE)
 800246a:	f7fe fc29 	bl	8000cc0 <HAL_GetTick>
 800246e:	4602      	mov	r2, r0
 8002470:	693b      	ldr	r3, [r7, #16]
 8002472:	1ad3      	subs	r3, r2, r3
 8002474:	2b02      	cmp	r3, #2
 8002476:	d901      	bls.n	800247c <HAL_RCC_OscConfig+0x1b4>
          {
            return HAL_TIMEOUT;
 8002478:	2303      	movs	r3, #3
 800247a:	e1a1      	b.n	80027c0 <HAL_RCC_OscConfig+0x4f8>
        while (__HAL_RCC_GET_FLAG(RCC_FLAG_HSIRDY) == RESET)
 800247c:	4b2d      	ldr	r3, [pc, #180]	; (8002534 <HAL_RCC_OscConfig+0x26c>)
 800247e:	681b      	ldr	r3, [r3, #0]
 8002480:	f003 0302 	and.w	r3, r3, #2
 8002484:	2b00      	cmp	r3, #0
 8002486:	d0f0      	beq.n	800246a <HAL_RCC_OscConfig+0x1a2>
          }
        }

        /* Adjusts the Internal High Speed oscillator (HSI) calibration value.*/
        __HAL_RCC_HSI_CALIBRATIONVALUE_ADJUST(RCC_OscInitStruct->HSICalibrationValue);
 8002488:	4b2a      	ldr	r3, [pc, #168]	; (8002534 <HAL_RCC_OscConfig+0x26c>)
 800248a:	681b      	ldr	r3, [r3, #0]
 800248c:	f023 02f8 	bic.w	r2, r3, #248	; 0xf8
 8002490:	687b      	ldr	r3, [r7, #4]
 8002492:	695b      	ldr	r3, [r3, #20]
 8002494:	00db      	lsls	r3, r3, #3
 8002496:	4927      	ldr	r1, [pc, #156]	; (8002534 <HAL_RCC_OscConfig+0x26c>)
 8002498:	4313      	orrs	r3, r2
 800249a:	600b      	str	r3, [r1, #0]
 800249c:	e015      	b.n	80024ca <HAL_RCC_OscConfig+0x202>
      }
      else
      {
        /* Disable the Internal High Speed oscillator (HSI). */
        __HAL_RCC_HSI_DISABLE();
 800249e:	4b26      	ldr	r3, [pc, #152]	; (8002538 <HAL_RCC_OscConfig+0x270>)
 80024a0:	2200      	movs	r2, #0
 80024a2:	601a      	str	r2, [r3, #0]

        /* Get Start Tick */
        tickstart = HAL_GetTick();
 80024a4:	f7fe fc0c 	bl	8000cc0 <HAL_GetTick>
 80024a8:	6138      	str	r0, [r7, #16]

        /* Wait till HSI is disabled */
        while (__HAL_RCC_GET_FLAG(RCC_FLAG_HSIRDY) != RESET)
 80024aa:	e008      	b.n	80024be <HAL_RCC_OscConfig+0x1f6>
        {
          if ((HAL_GetTick() - tickstart) > HSI_TIMEOUT_VALUE)
 80024ac:	f7fe fc08 	bl	8000cc0 <HAL_GetTick>
 80024b0:	4602      	mov	r2, r0
 80024b2:	693b      	ldr	r3, [r7, #16]
 80024b4:	1ad3      	subs	r3, r2, r3
 80024b6:	2b02      	cmp	r3, #2
 80024b8:	d901      	bls.n	80024be <HAL_RCC_OscConfig+0x1f6>
          {
            return HAL_TIMEOUT;
 80024ba:	2303      	movs	r3, #3
 80024bc:	e180      	b.n	80027c0 <HAL_RCC_OscConfig+0x4f8>
        while (__HAL_RCC_GET_FLAG(RCC_FLAG_HSIRDY) != RESET)
 80024be:	4b1d      	ldr	r3, [pc, #116]	; (8002534 <HAL_RCC_OscConfig+0x26c>)
 80024c0:	681b      	ldr	r3, [r3, #0]
 80024c2:	f003 0302 	and.w	r3, r3, #2
 80024c6:	2b00      	cmp	r3, #0
 80024c8:	d1f0      	bne.n	80024ac <HAL_RCC_OscConfig+0x1e4>
        }
      }
    }
  }
  /*------------------------------ LSI Configuration -------------------------*/
  if (((RCC_OscInitStruct->OscillatorType) & RCC_OSCILLATORTYPE_LSI) == RCC_OSCILLATORTYPE_LSI)
 80024ca:	687b      	ldr	r3, [r7, #4]
 80024cc:	681b      	ldr	r3, [r3, #0]
 80024ce:	f003 0308 	and.w	r3, r3, #8
 80024d2:	2b00      	cmp	r3, #0
 80024d4:	d03a      	beq.n	800254c <HAL_RCC_OscConfig+0x284>
  {
    /* Check the parameters */
    assert_param(IS_RCC_LSI(RCC_OscInitStruct->LSIState));

    /* Check the LSI State */
    if (RCC_OscInitStruct->LSIState != RCC_LSI_OFF)
 80024d6:	687b      	ldr	r3, [r7, #4]
 80024d8:	699b      	ldr	r3, [r3, #24]
 80024da:	2b00      	cmp	r3, #0
 80024dc:	d019      	beq.n	8002512 <HAL_RCC_OscConfig+0x24a>
    {
      /* Enable the Internal Low Speed oscillator (LSI). */
      __HAL_RCC_LSI_ENABLE();
 80024de:	4b17      	ldr	r3, [pc, #92]	; (800253c <HAL_RCC_OscConfig+0x274>)
 80024e0:	2201      	movs	r2, #1
 80024e2:	601a      	str	r2, [r3, #0]

      /* Get Start Tick */
      tickstart = HAL_GetTick();
 80024e4:	f7fe fbec 	bl	8000cc0 <HAL_GetTick>
 80024e8:	6138      	str	r0, [r7, #16]

      /* Wait till LSI is ready */
      while (__HAL_RCC_GET_FLAG(RCC_FLAG_LSIRDY) == RESET)
 80024ea:	e008      	b.n	80024fe <HAL_RCC_OscConfig+0x236>
      {
        if ((HAL_GetTick() - tickstart) > LSI_TIMEOUT_VALUE)
 80024ec:	f7fe fbe8 	bl	8000cc0 <HAL_GetTick>
 80024f0:	4602      	mov	r2, r0
 80024f2:	693b      	ldr	r3, [r7, #16]
 80024f4:	1ad3      	subs	r3, r2, r3
 80024f6:	2b02      	cmp	r3, #2
 80024f8:	d901      	bls.n	80024fe <HAL_RCC_OscConfig+0x236>
        {
          return HAL_TIMEOUT;
 80024fa:	2303      	movs	r3, #3
 80024fc:	e160      	b.n	80027c0 <HAL_RCC_OscConfig+0x4f8>
      while (__HAL_RCC_GET_FLAG(RCC_FLAG_LSIRDY) == RESET)
 80024fe:	4b0d      	ldr	r3, [pc, #52]	; (8002534 <HAL_RCC_OscConfig+0x26c>)
 8002500:	6a5b      	ldr	r3, [r3, #36]	; 0x24
 8002502:	f003 0302 	and.w	r3, r3, #2
 8002506:	2b00      	cmp	r3, #0
 8002508:	d0f0      	beq.n	80024ec <HAL_RCC_OscConfig+0x224>
        }
      }
      /*  To have a fully stabilized clock in the specified range, a software delay of 1ms
          should be added.*/
      RCC_Delay(1);
 800250a:	2001      	movs	r0, #1
 800250c:	f000 fad8 	bl	8002ac0 <RCC_Delay>
 8002510:	e01c      	b.n	800254c <HAL_RCC_OscConfig+0x284>
    }
    else
    {
      /* Disable the Internal Low Speed oscillator (LSI). */
      __HAL_RCC_LSI_DISABLE();
 8002512:	4b0a      	ldr	r3, [pc, #40]	; (800253c <HAL_RCC_OscConfig+0x274>)
 8002514:	2200      	movs	r2, #0
 8002516:	601a      	str	r2, [r3, #0]

      /* Get Start Tick */
      tickstart = HAL_GetTick();
 8002518:	f7fe fbd2 	bl	8000cc0 <HAL_GetTick>
 800251c:	6138      	str	r0, [r7, #16]

      /* Wait till LSI is disabled */
      while (__HAL_RCC_GET_FLAG(RCC_FLAG_LSIRDY) != RESET)
 800251e:	e00f      	b.n	8002540 <HAL_RCC_OscConfig+0x278>
      {
        if ((HAL_GetTick() - tickstart) > LSI_TIMEOUT_VALUE)
 8002520:	f7fe fbce 	bl	8000cc0 <HAL_GetTick>
 8002524:	4602      	mov	r2, r0
 8002526:	693b      	ldr	r3, [r7, #16]
 8002528:	1ad3      	subs	r3, r2, r3
 800252a:	2b02      	cmp	r3, #2
 800252c:	d908      	bls.n	8002540 <HAL_RCC_OscConfig+0x278>
        {
          return HAL_TIMEOUT;
 800252e:	2303      	movs	r3, #3
 8002530:	e146      	b.n	80027c0 <HAL_RCC_OscConfig+0x4f8>
 8002532:	bf00      	nop
 8002534:	40021000 	.word	0x40021000
 8002538:	42420000 	.word	0x42420000
 800253c:	42420480 	.word	0x42420480
      while (__HAL_RCC_GET_FLAG(RCC_FLAG_LSIRDY) != RESET)
 8002540:	4b92      	ldr	r3, [pc, #584]	; (800278c <HAL_RCC_OscConfig+0x4c4>)
 8002542:	6a5b      	ldr	r3, [r3, #36]	; 0x24
 8002544:	f003 0302 	and.w	r3, r3, #2
 8002548:	2b00      	cmp	r3, #0
 800254a:	d1e9      	bne.n	8002520 <HAL_RCC_OscConfig+0x258>
        }
      }
    }
  }
  /*------------------------------ LSE Configuration -------------------------*/
  if (((RCC_OscInitStruct->OscillatorType) & RCC_OSCILLATORTYPE_LSE) == RCC_OSCILLATORTYPE_LSE)
 800254c:	687b      	ldr	r3, [r7, #4]
 800254e:	681b      	ldr	r3, [r3, #0]
 8002550:	f003 0304 	and.w	r3, r3, #4
 8002554:	2b00      	cmp	r3, #0
 8002556:	f000 80a6 	beq.w	80026a6 <HAL_RCC_OscConfig+0x3de>
  {
    FlagStatus       pwrclkchanged = RESET;
 800255a:	2300      	movs	r3, #0
 800255c:	75fb      	strb	r3, [r7, #23]
    /* Check the parameters */
    assert_param(IS_RCC_LSE(RCC_OscInitStruct->LSEState));

    /* Update LSE configuration in Backup Domain control register    */
    /* Requires to enable write access to Backup Domain of necessary */
    if (__HAL_RCC_PWR_IS_CLK_DISABLED())
 800255e:	4b8b      	ldr	r3, [pc, #556]	; (800278c <HAL_RCC_OscConfig+0x4c4>)
 8002560:	69db      	ldr	r3, [r3, #28]
 8002562:	f003 5380 	and.w	r3, r3, #268435456	; 0x10000000
 8002566:	2b00      	cmp	r3, #0
 8002568:	d10d      	bne.n	8002586 <HAL_RCC_OscConfig+0x2be>
    {
      __HAL_RCC_PWR_CLK_ENABLE();
 800256a:	4b88      	ldr	r3, [pc, #544]	; (800278c <HAL_RCC_OscConfig+0x4c4>)
 800256c:	69db      	ldr	r3, [r3, #28]
 800256e:	4a87      	ldr	r2, [pc, #540]	; (800278c <HAL_RCC_OscConfig+0x4c4>)
 8002570:	f043 5380 	orr.w	r3, r3, #268435456	; 0x10000000
 8002574:	61d3      	str	r3, [r2, #28]
 8002576:	4b85      	ldr	r3, [pc, #532]	; (800278c <HAL_RCC_OscConfig+0x4c4>)
 8002578:	69db      	ldr	r3, [r3, #28]
 800257a:	f003 5380 	and.w	r3, r3, #268435456	; 0x10000000
 800257e:	60bb      	str	r3, [r7, #8]
 8002580:	68bb      	ldr	r3, [r7, #8]
      pwrclkchanged = SET;
 8002582:	2301      	movs	r3, #1
 8002584:	75fb      	strb	r3, [r7, #23]
    }

    if (HAL_IS_BIT_CLR(PWR->CR, PWR_CR_DBP))
 8002586:	4b82      	ldr	r3, [pc, #520]	; (8002790 <HAL_RCC_OscConfig+0x4c8>)
 8002588:	681b      	ldr	r3, [r3, #0]
 800258a:	f403 7380 	and.w	r3, r3, #256	; 0x100
 800258e:	2b00      	cmp	r3, #0
 8002590:	d118      	bne.n	80025c4 <HAL_RCC_OscConfig+0x2fc>
    {
      /* Enable write access to Backup domain */
      SET_BIT(PWR->CR, PWR_CR_DBP);
 8002592:	4b7f      	ldr	r3, [pc, #508]	; (8002790 <HAL_RCC_OscConfig+0x4c8>)
 8002594:	681b      	ldr	r3, [r3, #0]
 8002596:	4a7e      	ldr	r2, [pc, #504]	; (8002790 <HAL_RCC_OscConfig+0x4c8>)
 8002598:	f443 7380 	orr.w	r3, r3, #256	; 0x100
 800259c:	6013      	str	r3, [r2, #0]

      /* Wait for Backup domain Write protection disable */
      tickstart = HAL_GetTick();
 800259e:	f7fe fb8f 	bl	8000cc0 <HAL_GetTick>
 80025a2:	6138      	str	r0, [r7, #16]

      while (HAL_IS_BIT_CLR(PWR->CR, PWR_CR_DBP))
 80025a4:	e008      	b.n	80025b8 <HAL_RCC_OscConfig+0x2f0>
      {
        if ((HAL_GetTick() - tickstart) > RCC_DBP_TIMEOUT_VALUE)
 80025a6:	f7fe fb8b 	bl	8000cc0 <HAL_GetTick>
 80025aa:	4602      	mov	r2, r0
 80025ac:	693b      	ldr	r3, [r7, #16]
 80025ae:	1ad3      	subs	r3, r2, r3
 80025b0:	2b64      	cmp	r3, #100	; 0x64
 80025b2:	d901      	bls.n	80025b8 <HAL_RCC_OscConfig+0x2f0>
        {
          return HAL_TIMEOUT;
 80025b4:	2303      	movs	r3, #3
 80025b6:	e103      	b.n	80027c0 <HAL_RCC_OscConfig+0x4f8>
      while (HAL_IS_BIT_CLR(PWR->CR, PWR_CR_DBP))
 80025b8:	4b75      	ldr	r3, [pc, #468]	; (8002790 <HAL_RCC_OscConfig+0x4c8>)
 80025ba:	681b      	ldr	r3, [r3, #0]
 80025bc:	f403 7380 	and.w	r3, r3, #256	; 0x100
 80025c0:	2b00      	cmp	r3, #0
 80025c2:	d0f0      	beq.n	80025a6 <HAL_RCC_OscConfig+0x2de>
        }
      }
    }

    /* Set the new LSE configuration -----------------------------------------*/
    __HAL_RCC_LSE_CONFIG(RCC_OscInitStruct->LSEState);
 80025c4:	687b      	ldr	r3, [r7, #4]
 80025c6:	68db      	ldr	r3, [r3, #12]
 80025c8:	2b01      	cmp	r3, #1
 80025ca:	d106      	bne.n	80025da <HAL_RCC_OscConfig+0x312>
 80025cc:	4b6f      	ldr	r3, [pc, #444]	; (800278c <HAL_RCC_OscConfig+0x4c4>)
 80025ce:	6a1b      	ldr	r3, [r3, #32]
 80025d0:	4a6e      	ldr	r2, [pc, #440]	; (800278c <HAL_RCC_OscConfig+0x4c4>)
 80025d2:	f043 0301 	orr.w	r3, r3, #1
 80025d6:	6213      	str	r3, [r2, #32]
 80025d8:	e02d      	b.n	8002636 <HAL_RCC_OscConfig+0x36e>
 80025da:	687b      	ldr	r3, [r7, #4]
 80025dc:	68db      	ldr	r3, [r3, #12]
 80025de:	2b00      	cmp	r3, #0
 80025e0:	d10c      	bne.n	80025fc <HAL_RCC_OscConfig+0x334>
 80025e2:	4b6a      	ldr	r3, [pc, #424]	; (800278c <HAL_RCC_OscConfig+0x4c4>)
 80025e4:	6a1b      	ldr	r3, [r3, #32]
 80025e6:	4a69      	ldr	r2, [pc, #420]	; (800278c <HAL_RCC_OscConfig+0x4c4>)
 80025e8:	f023 0301 	bic.w	r3, r3, #1
 80025ec:	6213      	str	r3, [r2, #32]
 80025ee:	4b67      	ldr	r3, [pc, #412]	; (800278c <HAL_RCC_OscConfig+0x4c4>)
 80025f0:	6a1b      	ldr	r3, [r3, #32]
 80025f2:	4a66      	ldr	r2, [pc, #408]	; (800278c <HAL_RCC_OscConfig+0x4c4>)
 80025f4:	f023 0304 	bic.w	r3, r3, #4
 80025f8:	6213      	str	r3, [r2, #32]
 80025fa:	e01c      	b.n	8002636 <HAL_RCC_OscConfig+0x36e>
 80025fc:	687b      	ldr	r3, [r7, #4]
 80025fe:	68db      	ldr	r3, [r3, #12]
 8002600:	2b05      	cmp	r3, #5
 8002602:	d10c      	bne.n	800261e <HAL_RCC_OscConfig+0x356>
 8002604:	4b61      	ldr	r3, [pc, #388]	; (800278c <HAL_RCC_OscConfig+0x4c4>)
 8002606:	6a1b      	ldr	r3, [r3, #32]
 8002608:	4a60      	ldr	r2, [pc, #384]	; (800278c <HAL_RCC_OscConfig+0x4c4>)
 800260a:	f043 0304 	orr.w	r3, r3, #4
 800260e:	6213      	str	r3, [r2, #32]
 8002610:	4b5e      	ldr	r3, [pc, #376]	; (800278c <HAL_RCC_OscConfig+0x4c4>)
 8002612:	6a1b      	ldr	r3, [r3, #32]
 8002614:	4a5d      	ldr	r2, [pc, #372]	; (800278c <HAL_RCC_OscConfig+0x4c4>)
 8002616:	f043 0301 	orr.w	r3, r3, #1
 800261a:	6213      	str	r3, [r2, #32]
 800261c:	e00b      	b.n	8002636 <HAL_RCC_OscConfig+0x36e>
 800261e:	4b5b      	ldr	r3, [pc, #364]	; (800278c <HAL_RCC_OscConfig+0x4c4>)
 8002620:	6a1b      	ldr	r3, [r3, #32]
 8002622:	4a5a      	ldr	r2, [pc, #360]	; (800278c <HAL_RCC_OscConfig+0x4c4>)
 8002624:	f023 0301 	bic.w	r3, r3, #1
 8002628:	6213      	str	r3, [r2, #32]
 800262a:	4b58      	ldr	r3, [pc, #352]	; (800278c <HAL_RCC_OscConfig+0x4c4>)
 800262c:	6a1b      	ldr	r3, [r3, #32]
 800262e:	4a57      	ldr	r2, [pc, #348]	; (800278c <HAL_RCC_OscConfig+0x4c4>)
 8002630:	f023 0304 	bic.w	r3, r3, #4
 8002634:	6213      	str	r3, [r2, #32]
    /* Check the LSE State */
    if (RCC_OscInitStruct->LSEState != RCC_LSE_OFF)
 8002636:	687b      	ldr	r3, [r7, #4]
 8002638:	68db      	ldr	r3, [r3, #12]
 800263a:	2b00      	cmp	r3, #0
 800263c:	d015      	beq.n	800266a <HAL_RCC_OscConfig+0x3a2>
    {
      /* Get Start Tick */
      tickstart = HAL_GetTick();
 800263e:	f7fe fb3f 	bl	8000cc0 <HAL_GetTick>
 8002642:	6138      	str	r0, [r7, #16]

      /* Wait till LSE is ready */
      while (__HAL_RCC_GET_FLAG(RCC_FLAG_LSERDY) == RESET)
 8002644:	e00a      	b.n	800265c <HAL_RCC_OscConfig+0x394>
      {
        if ((HAL_GetTick() - tickstart) > RCC_LSE_TIMEOUT_VALUE)
 8002646:	f7fe fb3b 	bl	8000cc0 <HAL_GetTick>
 800264a:	4602      	mov	r2, r0
 800264c:	693b      	ldr	r3, [r7, #16]
 800264e:	1ad3      	subs	r3, r2, r3
 8002650:	f241 3288 	movw	r2, #5000	; 0x1388
 8002654:	4293      	cmp	r3, r2
 8002656:	d901      	bls.n	800265c <HAL_RCC_OscConfig+0x394>
        {
          return HAL_TIMEOUT;
 8002658:	2303      	movs	r3, #3
 800265a:	e0b1      	b.n	80027c0 <HAL_RCC_OscConfig+0x4f8>
      while (__HAL_RCC_GET_FLAG(RCC_FLAG_LSERDY) == RESET)
 800265c:	4b4b      	ldr	r3, [pc, #300]	; (800278c <HAL_RCC_OscConfig+0x4c4>)
 800265e:	6a1b      	ldr	r3, [r3, #32]
 8002660:	f003 0302 	and.w	r3, r3, #2
 8002664:	2b00      	cmp	r3, #0
 8002666:	d0ee      	beq.n	8002646 <HAL_RCC_OscConfig+0x37e>
 8002668:	e014      	b.n	8002694 <HAL_RCC_OscConfig+0x3cc>
      }
    }
    else
    {
      /* Get Start Tick */
      tickstart = HAL_GetTick();
 800266a:	f7fe fb29 	bl	8000cc0 <HAL_GetTick>
 800266e:	6138      	str	r0, [r7, #16]

      /* Wait till LSE is disabled */
      while (__HAL_RCC_GET_FLAG(RCC_FLAG_LSERDY) != RESET)
 8002670:	e00a      	b.n	8002688 <HAL_RCC_OscConfig+0x3c0>
      {
        if ((HAL_GetTick() - tickstart) > RCC_LSE_TIMEOUT_VALUE)
 8002672:	f7fe fb25 	bl	8000cc0 <HAL_GetTick>
 8002676:	4602      	mov	r2, r0
 8002678:	693b      	ldr	r3, [r7, #16]
 800267a:	1ad3      	subs	r3, r2, r3
 800267c:	f241 3288 	movw	r2, #5000	; 0x1388
 8002680:	4293      	cmp	r3, r2
 8002682:	d901      	bls.n	8002688 <HAL_RCC_OscConfig+0x3c0>
        {
          return HAL_TIMEOUT;
 8002684:	2303      	movs	r3, #3
 8002686:	e09b      	b.n	80027c0 <HAL_RCC_OscConfig+0x4f8>
      while (__HAL_RCC_GET_FLAG(RCC_FLAG_LSERDY) != RESET)
 8002688:	4b40      	ldr	r3, [pc, #256]	; (800278c <HAL_RCC_OscConfig+0x4c4>)
 800268a:	6a1b      	ldr	r3, [r3, #32]
 800268c:	f003 0302 	and.w	r3, r3, #2
 8002690:	2b00      	cmp	r3, #0
 8002692:	d1ee      	bne.n	8002672 <HAL_RCC_OscConfig+0x3aa>
        }
      }
    }

    /* Require to disable power clock if necessary */
    if (pwrclkchanged == SET)
 8002694:	7dfb      	ldrb	r3, [r7, #23]
 8002696:	2b01      	cmp	r3, #1
 8002698:	d105      	bne.n	80026a6 <HAL_RCC_OscConfig+0x3de>
    {
      __HAL_RCC_PWR_CLK_DISABLE();
 800269a:	4b3c      	ldr	r3, [pc, #240]	; (800278c <HAL_RCC_OscConfig+0x4c4>)
 800269c:	69db      	ldr	r3, [r3, #28]
 800269e:	4a3b      	ldr	r2, [pc, #236]	; (800278c <HAL_RCC_OscConfig+0x4c4>)
 80026a0:	f023 5380 	bic.w	r3, r3, #268435456	; 0x10000000
 80026a4:	61d3      	str	r3, [r2, #28]

#endif /* RCC_CR_PLL2ON */
  /*-------------------------------- PLL Configuration -----------------------*/
  /* Check the parameters */
  assert_param(IS_RCC_PLL(RCC_OscInitStruct->PLL.PLLState));
  if ((RCC_OscInitStruct->PLL.PLLState) != RCC_PLL_NONE)
 80026a6:	687b      	ldr	r3, [r7, #4]
 80026a8:	69db      	ldr	r3, [r3, #28]
 80026aa:	2b00      	cmp	r3, #0
 80026ac:	f000 8087 	beq.w	80027be <HAL_RCC_OscConfig+0x4f6>
  {
    /* Check if the PLL is used as system clock or not */
    if (__HAL_RCC_GET_SYSCLK_SOURCE() != RCC_SYSCLKSOURCE_STATUS_PLLCLK)
 80026b0:	4b36      	ldr	r3, [pc, #216]	; (800278c <HAL_RCC_OscConfig+0x4c4>)
 80026b2:	685b      	ldr	r3, [r3, #4]
 80026b4:	f003 030c 	and.w	r3, r3, #12
 80026b8:	2b08      	cmp	r3, #8
 80026ba:	d061      	beq.n	8002780 <HAL_RCC_OscConfig+0x4b8>
    {
      if ((RCC_OscInitStruct->PLL.PLLState) == RCC_PLL_ON)
 80026bc:	687b      	ldr	r3, [r7, #4]
 80026be:	69db      	ldr	r3, [r3, #28]
 80026c0:	2b02      	cmp	r3, #2
 80026c2:	d146      	bne.n	8002752 <HAL_RCC_OscConfig+0x48a>
        /* Check the parameters */
        assert_param(IS_RCC_PLLSOURCE(RCC_OscInitStruct->PLL.PLLSource));
        assert_param(IS_RCC_PLL_MUL(RCC_OscInitStruct->PLL.PLLMUL));

        /* Disable the main PLL. */
        __HAL_RCC_PLL_DISABLE();
 80026c4:	4b33      	ldr	r3, [pc, #204]	; (8002794 <HAL_RCC_OscConfig+0x4cc>)
 80026c6:	2200      	movs	r2, #0
 80026c8:	601a      	str	r2, [r3, #0]

        /* Get Start Tick */
        tickstart = HAL_GetTick();
 80026ca:	f7fe faf9 	bl	8000cc0 <HAL_GetTick>
 80026ce:	6138      	str	r0, [r7, #16]

        /* Wait till PLL is disabled */
        while (__HAL_RCC_GET_FLAG(RCC_FLAG_PLLRDY)  != RESET)
 80026d0:	e008      	b.n	80026e4 <HAL_RCC_OscConfig+0x41c>
        {
          if ((HAL_GetTick() - tickstart) > PLL_TIMEOUT_VALUE)
 80026d2:	f7fe faf5 	bl	8000cc0 <HAL_GetTick>
 80026d6:	4602      	mov	r2, r0
 80026d8:	693b      	ldr	r3, [r7, #16]
 80026da:	1ad3      	subs	r3, r2, r3
 80026dc:	2b02      	cmp	r3, #2
 80026de:	d901      	bls.n	80026e4 <HAL_RCC_OscConfig+0x41c>
          {
            return HAL_TIMEOUT;
 80026e0:	2303      	movs	r3, #3
 80026e2:	e06d      	b.n	80027c0 <HAL_RCC_OscConfig+0x4f8>
        while (__HAL_RCC_GET_FLAG(RCC_FLAG_PLLRDY)  != RESET)
 80026e4:	4b29      	ldr	r3, [pc, #164]	; (800278c <HAL_RCC_OscConfig+0x4c4>)
 80026e6:	681b      	ldr	r3, [r3, #0]
 80026e8:	f003 7300 	and.w	r3, r3, #33554432	; 0x2000000
 80026ec:	2b00      	cmp	r3, #0
 80026ee:	d1f0      	bne.n	80026d2 <HAL_RCC_OscConfig+0x40a>
          }
        }

        /* Configure the HSE prediv factor --------------------------------*/
        /* It can be written only when the PLL is disabled. Not used in PLL source is different than HSE */
        if (RCC_OscInitStruct->PLL.PLLSource == RCC_PLLSOURCE_HSE)
 80026f0:	687b      	ldr	r3, [r7, #4]
 80026f2:	6a1b      	ldr	r3, [r3, #32]
 80026f4:	f5b3 3f80 	cmp.w	r3, #65536	; 0x10000
 80026f8:	d108      	bne.n	800270c <HAL_RCC_OscConfig+0x444>
          /* Set PREDIV1 source */
          SET_BIT(RCC->CFGR2, RCC_OscInitStruct->Prediv1Source);
#endif /* RCC_CFGR2_PREDIV1SRC */

          /* Set PREDIV1 Value */
          __HAL_RCC_HSE_PREDIV_CONFIG(RCC_OscInitStruct->HSEPredivValue);
 80026fa:	4b24      	ldr	r3, [pc, #144]	; (800278c <HAL_RCC_OscConfig+0x4c4>)
 80026fc:	685b      	ldr	r3, [r3, #4]
 80026fe:	f423 3200 	bic.w	r2, r3, #131072	; 0x20000
 8002702:	687b      	ldr	r3, [r7, #4]
 8002704:	689b      	ldr	r3, [r3, #8]
 8002706:	4921      	ldr	r1, [pc, #132]	; (800278c <HAL_RCC_OscConfig+0x4c4>)
 8002708:	4313      	orrs	r3, r2
 800270a:	604b      	str	r3, [r1, #4]
        }

        /* Configure the main PLL clock source and multiplication factors. */
        __HAL_RCC_PLL_CONFIG(RCC_OscInitStruct->PLL.PLLSource,
 800270c:	4b1f      	ldr	r3, [pc, #124]	; (800278c <HAL_RCC_OscConfig+0x4c4>)
 800270e:	685b      	ldr	r3, [r3, #4]
 8002710:	f423 1274 	bic.w	r2, r3, #3997696	; 0x3d0000
 8002714:	687b      	ldr	r3, [r7, #4]
 8002716:	6a19      	ldr	r1, [r3, #32]
 8002718:	687b      	ldr	r3, [r7, #4]
 800271a:	6a5b      	ldr	r3, [r3, #36]	; 0x24
 800271c:	430b      	orrs	r3, r1
 800271e:	491b      	ldr	r1, [pc, #108]	; (800278c <HAL_RCC_OscConfig+0x4c4>)
 8002720:	4313      	orrs	r3, r2
 8002722:	604b      	str	r3, [r1, #4]
                             RCC_OscInitStruct->PLL.PLLMUL);
        /* Enable the main PLL. */
        __HAL_RCC_PLL_ENABLE();
 8002724:	4b1b      	ldr	r3, [pc, #108]	; (8002794 <HAL_RCC_OscConfig+0x4cc>)
 8002726:	2201      	movs	r2, #1
 8002728:	601a      	str	r2, [r3, #0]

        /* Get Start Tick */
        tickstart = HAL_GetTick();
 800272a:	f7fe fac9 	bl	8000cc0 <HAL_GetTick>
 800272e:	6138      	str	r0, [r7, #16]

        /* Wait till PLL is ready */
        while (__HAL_RCC_GET_FLAG(RCC_FLAG_PLLRDY)  == RESET)
 8002730:	e008      	b.n	8002744 <HAL_RCC_OscConfig+0x47c>
        {
          if ((HAL_GetTick() - tickstart) > PLL_TIMEOUT_VALUE)
 8002732:	f7fe fac5 	bl	8000cc0 <HAL_GetTick>
 8002736:	4602      	mov	r2, r0
 8002738:	693b      	ldr	r3, [r7, #16]
 800273a:	1ad3      	subs	r3, r2, r3
 800273c:	2b02      	cmp	r3, #2
 800273e:	d901      	bls.n	8002744 <HAL_RCC_OscConfig+0x47c>
          {
            return HAL_TIMEOUT;
 8002740:	2303      	movs	r3, #3
 8002742:	e03d      	b.n	80027c0 <HAL_RCC_OscConfig+0x4f8>
        while (__HAL_RCC_GET_FLAG(RCC_FLAG_PLLRDY)  == RESET)
 8002744:	4b11      	ldr	r3, [pc, #68]	; (800278c <HAL_RCC_OscConfig+0x4c4>)
 8002746:	681b      	ldr	r3, [r3, #0]
 8002748:	f003 7300 	and.w	r3, r3, #33554432	; 0x2000000
 800274c:	2b00      	cmp	r3, #0
 800274e:	d0f0      	beq.n	8002732 <HAL_RCC_OscConfig+0x46a>
 8002750:	e035      	b.n	80027be <HAL_RCC_OscConfig+0x4f6>
        }
      }
      else
      {
        /* Disable the main PLL. */
        __HAL_RCC_PLL_DISABLE();
 8002752:	4b10      	ldr	r3, [pc, #64]	; (8002794 <HAL_RCC_OscConfig+0x4cc>)
 8002754:	2200      	movs	r2, #0
 8002756:	601a      	str	r2, [r3, #0]

        /* Get Start Tick */
        tickstart = HAL_GetTick();
 8002758:	f7fe fab2 	bl	8000cc0 <HAL_GetTick>
 800275c:	6138      	str	r0, [r7, #16]

        /* Wait till PLL is disabled */
        while (__HAL_RCC_GET_FLAG(RCC_FLAG_PLLRDY)  != RESET)
 800275e:	e008      	b.n	8002772 <HAL_RCC_OscConfig+0x4aa>
        {
          if ((HAL_GetTick() - tickstart) > PLL_TIMEOUT_VALUE)
 8002760:	f7fe faae 	bl	8000cc0 <HAL_GetTick>
 8002764:	4602      	mov	r2, r0
 8002766:	693b      	ldr	r3, [r7, #16]
 8002768:	1ad3      	subs	r3, r2, r3
 800276a:	2b02      	cmp	r3, #2
 800276c:	d901      	bls.n	8002772 <HAL_RCC_OscConfig+0x4aa>
          {
            return HAL_TIMEOUT;
 800276e:	2303      	movs	r3, #3
 8002770:	e026      	b.n	80027c0 <HAL_RCC_OscConfig+0x4f8>
        while (__HAL_RCC_GET_FLAG(RCC_FLAG_PLLRDY)  != RESET)
 8002772:	4b06      	ldr	r3, [pc, #24]	; (800278c <HAL_RCC_OscConfig+0x4c4>)
 8002774:	681b      	ldr	r3, [r3, #0]
 8002776:	f003 7300 	and.w	r3, r3, #33554432	; 0x2000000
 800277a:	2b00      	cmp	r3, #0
 800277c:	d1f0      	bne.n	8002760 <HAL_RCC_OscConfig+0x498>
 800277e:	e01e      	b.n	80027be <HAL_RCC_OscConfig+0x4f6>
      }
    }
    else
    {
      /* Check if there is a request to disable the PLL used as System clock source */
      if ((RCC_OscInitStruct->PLL.PLLState) == RCC_PLL_OFF)
 8002780:	687b      	ldr	r3, [r7, #4]
 8002782:	69db      	ldr	r3, [r3, #28]
 8002784:	2b01      	cmp	r3, #1
 8002786:	d107      	bne.n	8002798 <HAL_RCC_OscConfig+0x4d0>
      {
        return HAL_ERROR;
 8002788:	2301      	movs	r3, #1
 800278a:	e019      	b.n	80027c0 <HAL_RCC_OscConfig+0x4f8>
 800278c:	40021000 	.word	0x40021000
 8002790:	40007000 	.word	0x40007000
 8002794:	42420060 	.word	0x42420060
      }
      else
      {
        /* Do not return HAL_ERROR if request repeats the current configuration */
        pll_config = RCC->CFGR;
 8002798:	4b0b      	ldr	r3, [pc, #44]	; (80027c8 <HAL_RCC_OscConfig+0x500>)
 800279a:	685b      	ldr	r3, [r3, #4]
 800279c:	60fb      	str	r3, [r7, #12]
        if ((READ_BIT(pll_config, RCC_CFGR_PLLSRC) != RCC_OscInitStruct->PLL.PLLSource) ||
 800279e:	68fb      	ldr	r3, [r7, #12]
 80027a0:	f403 3280 	and.w	r2, r3, #65536	; 0x10000
 80027a4:	687b      	ldr	r3, [r7, #4]
 80027a6:	6a1b      	ldr	r3, [r3, #32]
 80027a8:	429a      	cmp	r2, r3
 80027aa:	d106      	bne.n	80027ba <HAL_RCC_OscConfig+0x4f2>
            (READ_BIT(pll_config, RCC_CFGR_PLLMULL) != RCC_OscInitStruct->PLL.PLLMUL))
 80027ac:	68fb      	ldr	r3, [r7, #12]
 80027ae:	f403 1270 	and.w	r2, r3, #3932160	; 0x3c0000
 80027b2:	687b      	ldr	r3, [r7, #4]
 80027b4:	6a5b      	ldr	r3, [r3, #36]	; 0x24
        if ((READ_BIT(pll_config, RCC_CFGR_PLLSRC) != RCC_OscInitStruct->PLL.PLLSource) ||
 80027b6:	429a      	cmp	r2, r3
 80027b8:	d001      	beq.n	80027be <HAL_RCC_OscConfig+0x4f6>
        {
          return HAL_ERROR;
 80027ba:	2301      	movs	r3, #1
 80027bc:	e000      	b.n	80027c0 <HAL_RCC_OscConfig+0x4f8>
        }
      }
    }
  }

  return HAL_OK;
 80027be:	2300      	movs	r3, #0
}
 80027c0:	4618      	mov	r0, r3
 80027c2:	3718      	adds	r7, #24
 80027c4:	46bd      	mov	sp, r7
 80027c6:	bd80      	pop	{r7, pc}
 80027c8:	40021000 	.word	0x40021000

080027cc <HAL_RCC_ClockConfig>:
  *         You can use @ref HAL_RCC_GetClockConfig() function to know which clock is
  *         currently used as system clock source.
  * @retval HAL status
  */
HAL_StatusTypeDef HAL_RCC_ClockConfig(RCC_ClkInitTypeDef  *RCC_ClkInitStruct, uint32_t FLatency)
{
 80027cc:	b580      	push	{r7, lr}
 80027ce:	b084      	sub	sp, #16
 80027d0:	af00      	add	r7, sp, #0
 80027d2:	6078      	str	r0, [r7, #4]
 80027d4:	6039      	str	r1, [r7, #0]
  uint32_t tickstart;

  /* Check Null pointer */
  if (RCC_ClkInitStruct == NULL)
 80027d6:	687b      	ldr	r3, [r7, #4]
 80027d8:	2b00      	cmp	r3, #0
 80027da:	d101      	bne.n	80027e0 <HAL_RCC_ClockConfig+0x14>
  {
    return HAL_ERROR;
 80027dc:	2301      	movs	r3, #1
 80027de:	e0d0      	b.n	8002982 <HAL_RCC_ClockConfig+0x1b6>
  must be correctly programmed according to the frequency of the CPU clock
    (HCLK) of the device. */

#if defined(FLASH_ACR_LATENCY)
  /* Increasing the number of wait states because of higher CPU frequency */
  if (FLatency > __HAL_FLASH_GET_LATENCY())
 80027e0:	4b6a      	ldr	r3, [pc, #424]	; (800298c <HAL_RCC_ClockConfig+0x1c0>)
 80027e2:	681b      	ldr	r3, [r3, #0]
 80027e4:	f003 0307 	and.w	r3, r3, #7
 80027e8:	683a      	ldr	r2, [r7, #0]
 80027ea:	429a      	cmp	r2, r3
 80027ec:	d910      	bls.n	8002810 <HAL_RCC_ClockConfig+0x44>
  {
    /* Program the new number of wait states to the LATENCY bits in the FLASH_ACR register */
    __HAL_FLASH_SET_LATENCY(FLatency);
 80027ee:	4b67      	ldr	r3, [pc, #412]	; (800298c <HAL_RCC_ClockConfig+0x1c0>)
 80027f0:	681b      	ldr	r3, [r3, #0]
 80027f2:	f023 0207 	bic.w	r2, r3, #7
 80027f6:	4965      	ldr	r1, [pc, #404]	; (800298c <HAL_RCC_ClockConfig+0x1c0>)
 80027f8:	683b      	ldr	r3, [r7, #0]
 80027fa:	4313      	orrs	r3, r2
 80027fc:	600b      	str	r3, [r1, #0]

    /* Check that the new number of wait states is taken into account to access the Flash
    memory by reading the FLASH_ACR register */
    if (__HAL_FLASH_GET_LATENCY() != FLatency)
 80027fe:	4b63      	ldr	r3, [pc, #396]	; (800298c <HAL_RCC_ClockConfig+0x1c0>)
 8002800:	681b      	ldr	r3, [r3, #0]
 8002802:	f003 0307 	and.w	r3, r3, #7
 8002806:	683a      	ldr	r2, [r7, #0]
 8002808:	429a      	cmp	r2, r3
 800280a:	d001      	beq.n	8002810 <HAL_RCC_ClockConfig+0x44>
  {
    return HAL_ERROR;
 800280c:	2301      	movs	r3, #1
 800280e:	e0b8      	b.n	8002982 <HAL_RCC_ClockConfig+0x1b6>
  }
}

#endif /* FLASH_ACR_LATENCY */
/*-------------------------- HCLK Configuration --------------------------*/
if (((RCC_ClkInitStruct->ClockType) & RCC_CLOCKTYPE_HCLK) == RCC_CLOCKTYPE_HCLK)
 8002810:	687b      	ldr	r3, [r7, #4]
 8002812:	681b      	ldr	r3, [r3, #0]
 8002814:	f003 0302 	and.w	r3, r3, #2
 8002818:	2b00      	cmp	r3, #0
 800281a:	d020      	beq.n	800285e <HAL_RCC_ClockConfig+0x92>
  {
    /* Set the highest APBx dividers in order to ensure that we do not go through
    a non-spec phase whatever we decrease or increase HCLK. */
    if (((RCC_ClkInitStruct->ClockType) & RCC_CLOCKTYPE_PCLK1) == RCC_CLOCKTYPE_PCLK1)
 800281c:	687b      	ldr	r3, [r7, #4]
 800281e:	681b      	ldr	r3, [r3, #0]
 8002820:	f003 0304 	and.w	r3, r3, #4
 8002824:	2b00      	cmp	r3, #0
 8002826:	d005      	beq.n	8002834 <HAL_RCC_ClockConfig+0x68>
    {
      MODIFY_REG(RCC->CFGR, RCC_CFGR_PPRE1, RCC_HCLK_DIV16);
 8002828:	4b59      	ldr	r3, [pc, #356]	; (8002990 <HAL_RCC_ClockConfig+0x1c4>)
 800282a:	685b      	ldr	r3, [r3, #4]
 800282c:	4a58      	ldr	r2, [pc, #352]	; (8002990 <HAL_RCC_ClockConfig+0x1c4>)
 800282e:	f443 63e0 	orr.w	r3, r3, #1792	; 0x700
 8002832:	6053      	str	r3, [r2, #4]
    }

    if (((RCC_ClkInitStruct->ClockType) & RCC_CLOCKTYPE_PCLK2) == RCC_CLOCKTYPE_PCLK2)
 8002834:	687b      	ldr	r3, [r7, #4]
 8002836:	681b      	ldr	r3, [r3, #0]
 8002838:	f003 0308 	and.w	r3, r3, #8
 800283c:	2b00      	cmp	r3, #0
 800283e:	d005      	beq.n	800284c <HAL_RCC_ClockConfig+0x80>
    {
      MODIFY_REG(RCC->CFGR, RCC_CFGR_PPRE2, (RCC_HCLK_DIV16 << 3));
 8002840:	4b53      	ldr	r3, [pc, #332]	; (8002990 <HAL_RCC_ClockConfig+0x1c4>)
 8002842:	685b      	ldr	r3, [r3, #4]
 8002844:	4a52      	ldr	r2, [pc, #328]	; (8002990 <HAL_RCC_ClockConfig+0x1c4>)
 8002846:	f443 5360 	orr.w	r3, r3, #14336	; 0x3800
 800284a:	6053      	str	r3, [r2, #4]
    }

    /* Set the new HCLK clock divider */
    assert_param(IS_RCC_HCLK(RCC_ClkInitStruct->AHBCLKDivider));
    MODIFY_REG(RCC->CFGR, RCC_CFGR_HPRE, RCC_ClkInitStruct->AHBCLKDivider);
 800284c:	4b50      	ldr	r3, [pc, #320]	; (8002990 <HAL_RCC_ClockConfig+0x1c4>)
 800284e:	685b      	ldr	r3, [r3, #4]
 8002850:	f023 02f0 	bic.w	r2, r3, #240	; 0xf0
 8002854:	687b      	ldr	r3, [r7, #4]
 8002856:	689b      	ldr	r3, [r3, #8]
 8002858:	494d      	ldr	r1, [pc, #308]	; (8002990 <HAL_RCC_ClockConfig+0x1c4>)
 800285a:	4313      	orrs	r3, r2
 800285c:	604b      	str	r3, [r1, #4]
  }

  /*------------------------- SYSCLK Configuration ---------------------------*/
  if (((RCC_ClkInitStruct->ClockType) & RCC_CLOCKTYPE_SYSCLK) == RCC_CLOCKTYPE_SYSCLK)
 800285e:	687b      	ldr	r3, [r7, #4]
 8002860:	681b      	ldr	r3, [r3, #0]
 8002862:	f003 0301 	and.w	r3, r3, #1
 8002866:	2b00      	cmp	r3, #0
 8002868:	d040      	beq.n	80028ec <HAL_RCC_ClockConfig+0x120>
  {
    assert_param(IS_RCC_SYSCLKSOURCE(RCC_ClkInitStruct->SYSCLKSource));

    /* HSE is selected as System Clock Source */
    if (RCC_ClkInitStruct->SYSCLKSource == RCC_SYSCLKSOURCE_HSE)
 800286a:	687b      	ldr	r3, [r7, #4]
 800286c:	685b      	ldr	r3, [r3, #4]
 800286e:	2b01      	cmp	r3, #1
 8002870:	d107      	bne.n	8002882 <HAL_RCC_ClockConfig+0xb6>
    {
      /* Check the HSE ready flag */
      if (__HAL_RCC_GET_FLAG(RCC_FLAG_HSERDY) == RESET)
 8002872:	4b47      	ldr	r3, [pc, #284]	; (8002990 <HAL_RCC_ClockConfig+0x1c4>)
 8002874:	681b      	ldr	r3, [r3, #0]
 8002876:	f403 3300 	and.w	r3, r3, #131072	; 0x20000
 800287a:	2b00      	cmp	r3, #0
 800287c:	d115      	bne.n	80028aa <HAL_RCC_ClockConfig+0xde>
      {
        return HAL_ERROR;
 800287e:	2301      	movs	r3, #1
 8002880:	e07f      	b.n	8002982 <HAL_RCC_ClockConfig+0x1b6>
      }
    }
    /* PLL is selected as System Clock Source */
    else if (RCC_ClkInitStruct->SYSCLKSource == RCC_SYSCLKSOURCE_PLLCLK)
 8002882:	687b      	ldr	r3, [r7, #4]
 8002884:	685b      	ldr	r3, [r3, #4]
 8002886:	2b02      	cmp	r3, #2
 8002888:	d107      	bne.n	800289a <HAL_RCC_ClockConfig+0xce>
    {
      /* Check the PLL ready flag */
      if (__HAL_RCC_GET_FLAG(RCC_FLAG_PLLRDY) == RESET)
 800288a:	4b41      	ldr	r3, [pc, #260]	; (8002990 <HAL_RCC_ClockConfig+0x1c4>)
 800288c:	681b      	ldr	r3, [r3, #0]
 800288e:	f003 7300 	and.w	r3, r3, #33554432	; 0x2000000
 8002892:	2b00      	cmp	r3, #0
 8002894:	d109      	bne.n	80028aa <HAL_RCC_ClockConfig+0xde>
      {
        return HAL_ERROR;
 8002896:	2301      	movs	r3, #1
 8002898:	e073      	b.n	8002982 <HAL_RCC_ClockConfig+0x1b6>
    }
    /* HSI is selected as System Clock Source */
    else
    {
      /* Check the HSI ready flag */
      if (__HAL_RCC_GET_FLAG(RCC_FLAG_HSIRDY) == RESET)
 800289a:	4b3d      	ldr	r3, [pc, #244]	; (8002990 <HAL_RCC_ClockConfig+0x1c4>)
 800289c:	681b      	ldr	r3, [r3, #0]
 800289e:	f003 0302 	and.w	r3, r3, #2
 80028a2:	2b00      	cmp	r3, #0
 80028a4:	d101      	bne.n	80028aa <HAL_RCC_ClockConfig+0xde>
      {
        return HAL_ERROR;
 80028a6:	2301      	movs	r3, #1
 80028a8:	e06b      	b.n	8002982 <HAL_RCC_ClockConfig+0x1b6>
      }
    }
    __HAL_RCC_SYSCLK_CONFIG(RCC_ClkInitStruct->SYSCLKSource);
 80028aa:	4b39      	ldr	r3, [pc, #228]	; (8002990 <HAL_RCC_ClockConfig+0x1c4>)
 80028ac:	685b      	ldr	r3, [r3, #4]
 80028ae:	f023 0203 	bic.w	r2, r3, #3
 80028b2:	687b      	ldr	r3, [r7, #4]
 80028b4:	685b      	ldr	r3, [r3, #4]
 80028b6:	4936      	ldr	r1, [pc, #216]	; (8002990 <HAL_RCC_ClockConfig+0x1c4>)
 80028b8:	4313      	orrs	r3, r2
 80028ba:	604b      	str	r3, [r1, #4]

    /* Get Start Tick */
    tickstart = HAL_GetTick();
 80028bc:	f7fe fa00 	bl	8000cc0 <HAL_GetTick>
 80028c0:	60f8      	str	r0, [r7, #12]

    while (__HAL_RCC_GET_SYSCLK_SOURCE() != (RCC_ClkInitStruct->SYSCLKSource << RCC_CFGR_SWS_Pos))
 80028c2:	e00a      	b.n	80028da <HAL_RCC_ClockConfig+0x10e>
    {
      if ((HAL_GetTick() - tickstart) > CLOCKSWITCH_TIMEOUT_VALUE)
 80028c4:	f7fe f9fc 	bl	8000cc0 <HAL_GetTick>
 80028c8:	4602      	mov	r2, r0
 80028ca:	68fb      	ldr	r3, [r7, #12]
 80028cc:	1ad3      	subs	r3, r2, r3
 80028ce:	f241 3288 	movw	r2, #5000	; 0x1388
 80028d2:	4293      	cmp	r3, r2
 80028d4:	d901      	bls.n	80028da <HAL_RCC_ClockConfig+0x10e>
      {
        return HAL_TIMEOUT;
 80028d6:	2303      	movs	r3, #3
 80028d8:	e053      	b.n	8002982 <HAL_RCC_ClockConfig+0x1b6>
    while (__HAL_RCC_GET_SYSCLK_SOURCE() != (RCC_ClkInitStruct->SYSCLKSource << RCC_CFGR_SWS_Pos))
 80028da:	4b2d      	ldr	r3, [pc, #180]	; (8002990 <HAL_RCC_ClockConfig+0x1c4>)
 80028dc:	685b      	ldr	r3, [r3, #4]
 80028de:	f003 020c 	and.w	r2, r3, #12
 80028e2:	687b      	ldr	r3, [r7, #4]
 80028e4:	685b      	ldr	r3, [r3, #4]
 80028e6:	009b      	lsls	r3, r3, #2
 80028e8:	429a      	cmp	r2, r3
 80028ea:	d1eb      	bne.n	80028c4 <HAL_RCC_ClockConfig+0xf8>
    }
  }

#if defined(FLASH_ACR_LATENCY)
  /* Decreasing the number of wait states because of lower CPU frequency */
  if (FLatency < __HAL_FLASH_GET_LATENCY())
 80028ec:	4b27      	ldr	r3, [pc, #156]	; (800298c <HAL_RCC_ClockConfig+0x1c0>)
 80028ee:	681b      	ldr	r3, [r3, #0]
 80028f0:	f003 0307 	and.w	r3, r3, #7
 80028f4:	683a      	ldr	r2, [r7, #0]
 80028f6:	429a      	cmp	r2, r3
 80028f8:	d210      	bcs.n	800291c <HAL_RCC_ClockConfig+0x150>
  {
    /* Program the new number of wait states to the LATENCY bits in the FLASH_ACR register */
    __HAL_FLASH_SET_LATENCY(FLatency);
 80028fa:	4b24      	ldr	r3, [pc, #144]	; (800298c <HAL_RCC_ClockConfig+0x1c0>)
 80028fc:	681b      	ldr	r3, [r3, #0]
 80028fe:	f023 0207 	bic.w	r2, r3, #7
 8002902:	4922      	ldr	r1, [pc, #136]	; (800298c <HAL_RCC_ClockConfig+0x1c0>)
 8002904:	683b      	ldr	r3, [r7, #0]
 8002906:	4313      	orrs	r3, r2
 8002908:	600b      	str	r3, [r1, #0]

    /* Check that the new number of wait states is taken into account to access the Flash
    memory by reading the FLASH_ACR register */
    if (__HAL_FLASH_GET_LATENCY() != FLatency)
 800290a:	4b20      	ldr	r3, [pc, #128]	; (800298c <HAL_RCC_ClockConfig+0x1c0>)
 800290c:	681b      	ldr	r3, [r3, #0]
 800290e:	f003 0307 	and.w	r3, r3, #7
 8002912:	683a      	ldr	r2, [r7, #0]
 8002914:	429a      	cmp	r2, r3
 8002916:	d001      	beq.n	800291c <HAL_RCC_ClockConfig+0x150>
  {
    return HAL_ERROR;
 8002918:	2301      	movs	r3, #1
 800291a:	e032      	b.n	8002982 <HAL_RCC_ClockConfig+0x1b6>
  }
}
#endif /* FLASH_ACR_LATENCY */

/*-------------------------- PCLK1 Configuration ---------------------------*/
if (((RCC_ClkInitStruct->ClockType) & RCC_CLOCKTYPE_PCLK1) == RCC_CLOCKTYPE_PCLK1)
 800291c:	687b      	ldr	r3, [r7, #4]
 800291e:	681b      	ldr	r3, [r3, #0]
 8002920:	f003 0304 	and.w	r3, r3, #4
 8002924:	2b00      	cmp	r3, #0
 8002926:	d008      	beq.n	800293a <HAL_RCC_ClockConfig+0x16e>
  {
    assert_param(IS_RCC_PCLK(RCC_ClkInitStruct->APB1CLKDivider));
    MODIFY_REG(RCC->CFGR, RCC_CFGR_PPRE1, RCC_ClkInitStruct->APB1CLKDivider);
 8002928:	4b19      	ldr	r3, [pc, #100]	; (8002990 <HAL_RCC_ClockConfig+0x1c4>)
 800292a:	685b      	ldr	r3, [r3, #4]
 800292c:	f423 62e0 	bic.w	r2, r3, #1792	; 0x700
 8002930:	687b      	ldr	r3, [r7, #4]
 8002932:	68db      	ldr	r3, [r3, #12]
 8002934:	4916      	ldr	r1, [pc, #88]	; (8002990 <HAL_RCC_ClockConfig+0x1c4>)
 8002936:	4313      	orrs	r3, r2
 8002938:	604b      	str	r3, [r1, #4]
  }

  /*-------------------------- PCLK2 Configuration ---------------------------*/
  if (((RCC_ClkInitStruct->ClockType) & RCC_CLOCKTYPE_PCLK2) == RCC_CLOCKTYPE_PCLK2)
 800293a:	687b      	ldr	r3, [r7, #4]
 800293c:	681b      	ldr	r3, [r3, #0]
 800293e:	f003 0308 	and.w	r3, r3, #8
 8002942:	2b00      	cmp	r3, #0
 8002944:	d009      	beq.n	800295a <HAL_RCC_ClockConfig+0x18e>
  {
    assert_param(IS_RCC_PCLK(RCC_ClkInitStruct->APB2CLKDivider));
    MODIFY_REG(RCC->CFGR, RCC_CFGR_PPRE2, ((RCC_ClkInitStruct->APB2CLKDivider) << 3));
 8002946:	4b12      	ldr	r3, [pc, #72]	; (8002990 <HAL_RCC_ClockConfig+0x1c4>)
 8002948:	685b      	ldr	r3, [r3, #4]
 800294a:	f423 5260 	bic.w	r2, r3, #14336	; 0x3800
 800294e:	687b      	ldr	r3, [r7, #4]
 8002950:	691b      	ldr	r3, [r3, #16]
 8002952:	00db      	lsls	r3, r3, #3
 8002954:	490e      	ldr	r1, [pc, #56]	; (8002990 <HAL_RCC_ClockConfig+0x1c4>)
 8002956:	4313      	orrs	r3, r2
 8002958:	604b      	str	r3, [r1, #4]
  }

  /* Update the SystemCoreClock global variable */
  SystemCoreClock = HAL_RCC_GetSysClockFreq() >> AHBPrescTable[(RCC->CFGR & RCC_CFGR_HPRE) >> RCC_CFGR_HPRE_Pos];
 800295a:	f000 f821 	bl	80029a0 <HAL_RCC_GetSysClockFreq>
 800295e:	4602      	mov	r2, r0
 8002960:	4b0b      	ldr	r3, [pc, #44]	; (8002990 <HAL_RCC_ClockConfig+0x1c4>)
 8002962:	685b      	ldr	r3, [r3, #4]
 8002964:	091b      	lsrs	r3, r3, #4
 8002966:	f003 030f 	and.w	r3, r3, #15
 800296a:	490a      	ldr	r1, [pc, #40]	; (8002994 <HAL_RCC_ClockConfig+0x1c8>)
 800296c:	5ccb      	ldrb	r3, [r1, r3]
 800296e:	fa22 f303 	lsr.w	r3, r2, r3
 8002972:	4a09      	ldr	r2, [pc, #36]	; (8002998 <HAL_RCC_ClockConfig+0x1cc>)
 8002974:	6013      	str	r3, [r2, #0]

  /* Configure the source of time base considering new system clocks settings*/
  HAL_InitTick(uwTickPrio);
 8002976:	4b09      	ldr	r3, [pc, #36]	; (800299c <HAL_RCC_ClockConfig+0x1d0>)
 8002978:	681b      	ldr	r3, [r3, #0]
 800297a:	4618      	mov	r0, r3
 800297c:	f7fe f95e 	bl	8000c3c <HAL_InitTick>

  return HAL_OK;
 8002980:	2300      	movs	r3, #0
}
 8002982:	4618      	mov	r0, r3
 8002984:	3710      	adds	r7, #16
 8002986:	46bd      	mov	sp, r7
 8002988:	bd80      	pop	{r7, pc}
 800298a:	bf00      	nop
 800298c:	40022000 	.word	0x40022000
 8002990:	40021000 	.word	0x40021000
 8002994:	080037ec 	.word	0x080037ec
 8002998:	20000000 	.word	0x20000000
 800299c:	20000004 	.word	0x20000004

080029a0 <HAL_RCC_GetSysClockFreq>:
  *         right SYSCLK value. Otherwise, any configuration based on this function will be incorrect.
  *
  * @retval SYSCLK frequency
  */
uint32_t HAL_RCC_GetSysClockFreq(void)
{
 80029a0:	b490      	push	{r4, r7}
 80029a2:	b08a      	sub	sp, #40	; 0x28
 80029a4:	af00      	add	r7, sp, #0
#if defined(RCC_CFGR2_PREDIV1SRC)
  const uint8_t aPLLMULFactorTable[14] = {0, 0, 4, 5, 6, 7, 8, 9, 0, 0, 0, 0, 0, 13};
  const uint8_t aPredivFactorTable[16] = {1, 2, 3, 4, 5, 6, 7, 8, 9, 10, 11, 12, 13, 14, 15, 16};
#else
  const uint8_t aPLLMULFactorTable[16] = {2, 3, 4, 5, 6, 7, 8, 9, 10, 11, 12, 13, 14, 15, 16, 16};
 80029a6:	4b29      	ldr	r3, [pc, #164]	; (8002a4c <HAL_RCC_GetSysClockFreq+0xac>)
 80029a8:	1d3c      	adds	r4, r7, #4
 80029aa:	cb0f      	ldmia	r3, {r0, r1, r2, r3}
 80029ac:	e884 000f 	stmia.w	r4, {r0, r1, r2, r3}
#if defined(RCC_CFGR2_PREDIV1)
  const uint8_t aPredivFactorTable[16] = {1, 2, 3, 4, 5, 6, 7, 8, 9, 10, 11, 12, 13, 14, 15, 16};
#else
  const uint8_t aPredivFactorTable[2] = {1, 2};
 80029b0:	f240 2301 	movw	r3, #513	; 0x201
 80029b4:	803b      	strh	r3, [r7, #0]
#endif /*RCC_CFGR2_PREDIV1*/

#endif
  uint32_t tmpreg = 0U, prediv = 0U, pllclk = 0U, pllmul = 0U;
 80029b6:	2300      	movs	r3, #0
 80029b8:	61fb      	str	r3, [r7, #28]
 80029ba:	2300      	movs	r3, #0
 80029bc:	61bb      	str	r3, [r7, #24]
 80029be:	2300      	movs	r3, #0
 80029c0:	627b      	str	r3, [r7, #36]	; 0x24
 80029c2:	2300      	movs	r3, #0
 80029c4:	617b      	str	r3, [r7, #20]
  uint32_t sysclockfreq = 0U;
 80029c6:	2300      	movs	r3, #0
 80029c8:	623b      	str	r3, [r7, #32]
#if defined(RCC_CFGR2_PREDIV1SRC)
  uint32_t prediv2 = 0U, pll2mul = 0U;
#endif /*RCC_CFGR2_PREDIV1SRC*/

  tmpreg = RCC->CFGR;
 80029ca:	4b21      	ldr	r3, [pc, #132]	; (8002a50 <HAL_RCC_GetSysClockFreq+0xb0>)
 80029cc:	685b      	ldr	r3, [r3, #4]
 80029ce:	61fb      	str	r3, [r7, #28]

  /* Get SYSCLK source -------------------------------------------------------*/
  switch (tmpreg & RCC_CFGR_SWS)
 80029d0:	69fb      	ldr	r3, [r7, #28]
 80029d2:	f003 030c 	and.w	r3, r3, #12
 80029d6:	2b04      	cmp	r3, #4
 80029d8:	d002      	beq.n	80029e0 <HAL_RCC_GetSysClockFreq+0x40>
 80029da:	2b08      	cmp	r3, #8
 80029dc:	d003      	beq.n	80029e6 <HAL_RCC_GetSysClockFreq+0x46>
 80029de:	e02b      	b.n	8002a38 <HAL_RCC_GetSysClockFreq+0x98>
  {
    case RCC_SYSCLKSOURCE_STATUS_HSE:  /* HSE used as system clock */
    {
      sysclockfreq = HSE_VALUE;
 80029e0:	4b1c      	ldr	r3, [pc, #112]	; (8002a54 <HAL_RCC_GetSysClockFreq+0xb4>)
 80029e2:	623b      	str	r3, [r7, #32]
      break;
 80029e4:	e02b      	b.n	8002a3e <HAL_RCC_GetSysClockFreq+0x9e>
    }
    case RCC_SYSCLKSOURCE_STATUS_PLLCLK:  /* PLL used as system clock */
    {
      pllmul = aPLLMULFactorTable[(uint32_t)(tmpreg & RCC_CFGR_PLLMULL) >> RCC_CFGR_PLLMULL_Pos];
 80029e6:	69fb      	ldr	r3, [r7, #28]
 80029e8:	0c9b      	lsrs	r3, r3, #18
 80029ea:	f003 030f 	and.w	r3, r3, #15
 80029ee:	3328      	adds	r3, #40	; 0x28
 80029f0:	443b      	add	r3, r7
 80029f2:	f813 3c24 	ldrb.w	r3, [r3, #-36]
 80029f6:	617b      	str	r3, [r7, #20]
      if ((tmpreg & RCC_CFGR_PLLSRC) != RCC_PLLSOURCE_HSI_DIV2)
 80029f8:	69fb      	ldr	r3, [r7, #28]
 80029fa:	f403 3380 	and.w	r3, r3, #65536	; 0x10000
 80029fe:	2b00      	cmp	r3, #0
 8002a00:	d012      	beq.n	8002a28 <HAL_RCC_GetSysClockFreq+0x88>
      {
#if defined(RCC_CFGR2_PREDIV1)
        prediv = aPredivFactorTable[(uint32_t)(RCC->CFGR2 & RCC_CFGR2_PREDIV1) >> RCC_CFGR2_PREDIV1_Pos];
#else
        prediv = aPredivFactorTable[(uint32_t)(RCC->CFGR & RCC_CFGR_PLLXTPRE) >> RCC_CFGR_PLLXTPRE_Pos];
 8002a02:	4b13      	ldr	r3, [pc, #76]	; (8002a50 <HAL_RCC_GetSysClockFreq+0xb0>)
 8002a04:	685b      	ldr	r3, [r3, #4]
 8002a06:	0c5b      	lsrs	r3, r3, #17
 8002a08:	f003 0301 	and.w	r3, r3, #1
 8002a0c:	3328      	adds	r3, #40	; 0x28
 8002a0e:	443b      	add	r3, r7
 8002a10:	f813 3c28 	ldrb.w	r3, [r3, #-40]
 8002a14:	61bb      	str	r3, [r7, #24]
        {
          pllclk = pllclk / 2;
        }
#else
        /* HSE used as PLL clock source : PLLCLK = HSE/PREDIV1 * PLLMUL */
        pllclk = (uint32_t)((HSE_VALUE  * pllmul) / prediv);
 8002a16:	697b      	ldr	r3, [r7, #20]
 8002a18:	4a0e      	ldr	r2, [pc, #56]	; (8002a54 <HAL_RCC_GetSysClockFreq+0xb4>)
 8002a1a:	fb03 f202 	mul.w	r2, r3, r2
 8002a1e:	69bb      	ldr	r3, [r7, #24]
 8002a20:	fbb2 f3f3 	udiv	r3, r2, r3
 8002a24:	627b      	str	r3, [r7, #36]	; 0x24
 8002a26:	e004      	b.n	8002a32 <HAL_RCC_GetSysClockFreq+0x92>
#endif /*RCC_CFGR2_PREDIV1SRC*/
      }
      else
      {
        /* HSI used as PLL clock source : PLLCLK = HSI/2 * PLLMUL */
        pllclk = (uint32_t)((HSI_VALUE >> 1) * pllmul);
 8002a28:	697b      	ldr	r3, [r7, #20]
 8002a2a:	4a0b      	ldr	r2, [pc, #44]	; (8002a58 <HAL_RCC_GetSysClockFreq+0xb8>)
 8002a2c:	fb02 f303 	mul.w	r3, r2, r3
 8002a30:	627b      	str	r3, [r7, #36]	; 0x24
      }
      sysclockfreq = pllclk;
 8002a32:	6a7b      	ldr	r3, [r7, #36]	; 0x24
 8002a34:	623b      	str	r3, [r7, #32]
      break;
 8002a36:	e002      	b.n	8002a3e <HAL_RCC_GetSysClockFreq+0x9e>
    }
    case RCC_SYSCLKSOURCE_STATUS_HSI:  /* HSI used as system clock source */
    default: /* HSI used as system clock */
    {
      sysclockfreq = HSI_VALUE;
 8002a38:	4b06      	ldr	r3, [pc, #24]	; (8002a54 <HAL_RCC_GetSysClockFreq+0xb4>)
 8002a3a:	623b      	str	r3, [r7, #32]
      break;
 8002a3c:	bf00      	nop
    }
  }
  return sysclockfreq;
 8002a3e:	6a3b      	ldr	r3, [r7, #32]
}
 8002a40:	4618      	mov	r0, r3
 8002a42:	3728      	adds	r7, #40	; 0x28
 8002a44:	46bd      	mov	sp, r7
 8002a46:	bc90      	pop	{r4, r7}
 8002a48:	4770      	bx	lr
 8002a4a:	bf00      	nop
 8002a4c:	080037dc 	.word	0x080037dc
 8002a50:	40021000 	.word	0x40021000
 8002a54:	007a1200 	.word	0x007a1200
 8002a58:	003d0900 	.word	0x003d0900

08002a5c <HAL_RCC_GetHCLKFreq>:
  * @note   The SystemCoreClock CMSIS variable is used to store System Clock Frequency
  *         and updated within this function
  * @retval HCLK frequency
  */
uint32_t HAL_RCC_GetHCLKFreq(void)
{
 8002a5c:	b480      	push	{r7}
 8002a5e:	af00      	add	r7, sp, #0
  return SystemCoreClock;
 8002a60:	4b02      	ldr	r3, [pc, #8]	; (8002a6c <HAL_RCC_GetHCLKFreq+0x10>)
 8002a62:	681b      	ldr	r3, [r3, #0]
}
 8002a64:	4618      	mov	r0, r3
 8002a66:	46bd      	mov	sp, r7
 8002a68:	bc80      	pop	{r7}
 8002a6a:	4770      	bx	lr
 8002a6c:	20000000 	.word	0x20000000

08002a70 <HAL_RCC_GetPCLK1Freq>:
  * @note   Each time PCLK1 changes, this function must be called to update the
  *         right PCLK1 value. Otherwise, any configuration based on this function will be incorrect.
  * @retval PCLK1 frequency
  */
uint32_t HAL_RCC_GetPCLK1Freq(void)
{
 8002a70:	b580      	push	{r7, lr}
 8002a72:	af00      	add	r7, sp, #0
  /* Get HCLK source and Compute PCLK1 frequency ---------------------------*/
  return (HAL_RCC_GetHCLKFreq() >> APBPrescTable[(RCC->CFGR & RCC_CFGR_PPRE1) >> RCC_CFGR_PPRE1_Pos]);
 8002a74:	f7ff fff2 	bl	8002a5c <HAL_RCC_GetHCLKFreq>
 8002a78:	4602      	mov	r2, r0
 8002a7a:	4b05      	ldr	r3, [pc, #20]	; (8002a90 <HAL_RCC_GetPCLK1Freq+0x20>)
 8002a7c:	685b      	ldr	r3, [r3, #4]
 8002a7e:	0a1b      	lsrs	r3, r3, #8
 8002a80:	f003 0307 	and.w	r3, r3, #7
 8002a84:	4903      	ldr	r1, [pc, #12]	; (8002a94 <HAL_RCC_GetPCLK1Freq+0x24>)
 8002a86:	5ccb      	ldrb	r3, [r1, r3]
 8002a88:	fa22 f303 	lsr.w	r3, r2, r3
}
 8002a8c:	4618      	mov	r0, r3
 8002a8e:	bd80      	pop	{r7, pc}
 8002a90:	40021000 	.word	0x40021000
 8002a94:	080037fc 	.word	0x080037fc

08002a98 <HAL_RCC_GetPCLK2Freq>:
  * @note   Each time PCLK2 changes, this function must be called to update the
  *         right PCLK2 value. Otherwise, any configuration based on this function will be incorrect.
  * @retval PCLK2 frequency
  */
uint32_t HAL_RCC_GetPCLK2Freq(void)
{
 8002a98:	b580      	push	{r7, lr}
 8002a9a:	af00      	add	r7, sp, #0
  /* Get HCLK source and Compute PCLK2 frequency ---------------------------*/
  return (HAL_RCC_GetHCLKFreq() >> APBPrescTable[(RCC->CFGR & RCC_CFGR_PPRE2) >> RCC_CFGR_PPRE2_Pos]);
 8002a9c:	f7ff ffde 	bl	8002a5c <HAL_RCC_GetHCLKFreq>
 8002aa0:	4602      	mov	r2, r0
 8002aa2:	4b05      	ldr	r3, [pc, #20]	; (8002ab8 <HAL_RCC_GetPCLK2Freq+0x20>)
 8002aa4:	685b      	ldr	r3, [r3, #4]
 8002aa6:	0adb      	lsrs	r3, r3, #11
 8002aa8:	f003 0307 	and.w	r3, r3, #7
 8002aac:	4903      	ldr	r1, [pc, #12]	; (8002abc <HAL_RCC_GetPCLK2Freq+0x24>)
 8002aae:	5ccb      	ldrb	r3, [r1, r3]
 8002ab0:	fa22 f303 	lsr.w	r3, r2, r3
}
 8002ab4:	4618      	mov	r0, r3
 8002ab6:	bd80      	pop	{r7, pc}
 8002ab8:	40021000 	.word	0x40021000
 8002abc:	080037fc 	.word	0x080037fc

08002ac0 <RCC_Delay>:
  * @brief  This function provides delay (in milliseconds) based on CPU cycles method.
  * @param  mdelay: specifies the delay time length, in milliseconds.
  * @retval None
  */
static void RCC_Delay(uint32_t mdelay)
{
 8002ac0:	b480      	push	{r7}
 8002ac2:	b085      	sub	sp, #20
 8002ac4:	af00      	add	r7, sp, #0
 8002ac6:	6078      	str	r0, [r7, #4]
  __IO uint32_t Delay = mdelay * (SystemCoreClock / 8U / 1000U);
 8002ac8:	4b0a      	ldr	r3, [pc, #40]	; (8002af4 <RCC_Delay+0x34>)
 8002aca:	681b      	ldr	r3, [r3, #0]
 8002acc:	4a0a      	ldr	r2, [pc, #40]	; (8002af8 <RCC_Delay+0x38>)
 8002ace:	fba2 2303 	umull	r2, r3, r2, r3
 8002ad2:	0a5b      	lsrs	r3, r3, #9
 8002ad4:	687a      	ldr	r2, [r7, #4]
 8002ad6:	fb02 f303 	mul.w	r3, r2, r3
 8002ada:	60fb      	str	r3, [r7, #12]
  do
  {
    __NOP();
 8002adc:	bf00      	nop
  }
  while (Delay --);
 8002ade:	68fb      	ldr	r3, [r7, #12]
 8002ae0:	1e5a      	subs	r2, r3, #1
 8002ae2:	60fa      	str	r2, [r7, #12]
 8002ae4:	2b00      	cmp	r3, #0
 8002ae6:	d1f9      	bne.n	8002adc <RCC_Delay+0x1c>
}
 8002ae8:	bf00      	nop
 8002aea:	bf00      	nop
 8002aec:	3714      	adds	r7, #20
 8002aee:	46bd      	mov	sp, r7
 8002af0:	bc80      	pop	{r7}
 8002af2:	4770      	bx	lr
 8002af4:	20000000 	.word	0x20000000
 8002af8:	10624dd3 	.word	0x10624dd3

08002afc <HAL_USART_Init>:
  * @param  husart Pointer to a USART_HandleTypeDef structure that contains
  *                the configuration information for the specified USART module.
  * @retval HAL status
  */
HAL_StatusTypeDef HAL_USART_Init(USART_HandleTypeDef *husart)
{
 8002afc:	b580      	push	{r7, lr}
 8002afe:	b082      	sub	sp, #8
 8002b00:	af00      	add	r7, sp, #0
 8002b02:	6078      	str	r0, [r7, #4]
  /* Check the USART handle allocation */
  if (husart == NULL)
 8002b04:	687b      	ldr	r3, [r7, #4]
 8002b06:	2b00      	cmp	r3, #0
 8002b08:	d101      	bne.n	8002b0e <HAL_USART_Init+0x12>
  {
    return HAL_ERROR;
 8002b0a:	2301      	movs	r3, #1
 8002b0c:	e033      	b.n	8002b76 <HAL_USART_Init+0x7a>
  }

  /* Check the parameters */
  assert_param(IS_USART_INSTANCE(husart->Instance));

  if (husart->State == HAL_USART_STATE_RESET)
 8002b0e:	687b      	ldr	r3, [r7, #4]
 8002b10:	f893 303d 	ldrb.w	r3, [r3, #61]	; 0x3d
 8002b14:	b2db      	uxtb	r3, r3
 8002b16:	2b00      	cmp	r3, #0
 8002b18:	d106      	bne.n	8002b28 <HAL_USART_Init+0x2c>
  {
    /* Allocate lock resource and initialize it */
    husart->Lock = HAL_UNLOCKED;
 8002b1a:	687b      	ldr	r3, [r7, #4]
 8002b1c:	2200      	movs	r2, #0
 8002b1e:	f883 203c 	strb.w	r2, [r3, #60]	; 0x3c

    /* Init the low level hardware */
    husart->MspInitCallback(husart);
#else
    /* Init the low level hardware : GPIO, CLOCK */
    HAL_USART_MspInit(husart);
 8002b22:	6878      	ldr	r0, [r7, #4]
 8002b24:	f7fd ffc2 	bl	8000aac <HAL_USART_MspInit>
#endif /* USE_HAL_USART_REGISTER_CALLBACKS */
  }

  husart->State = HAL_USART_STATE_BUSY;
 8002b28:	687b      	ldr	r3, [r7, #4]
 8002b2a:	2202      	movs	r2, #2
 8002b2c:	f883 203d 	strb.w	r2, [r3, #61]	; 0x3d

  /* Set the USART Communication parameters */
  USART_SetConfig(husart);
 8002b30:	6878      	ldr	r0, [r7, #4]
 8002b32:	f000 fb61 	bl	80031f8 <USART_SetConfig>

  /* In USART mode, the following bits must be kept cleared:
     - LINEN bit in the USART_CR2 register
     - HDSEL, SCEN and IREN bits in the USART_CR3 register */
  CLEAR_BIT(husart->Instance->CR2, USART_CR2_LINEN);
 8002b36:	687b      	ldr	r3, [r7, #4]
 8002b38:	681b      	ldr	r3, [r3, #0]
 8002b3a:	691a      	ldr	r2, [r3, #16]
 8002b3c:	687b      	ldr	r3, [r7, #4]
 8002b3e:	681b      	ldr	r3, [r3, #0]
 8002b40:	f422 4280 	bic.w	r2, r2, #16384	; 0x4000
 8002b44:	611a      	str	r2, [r3, #16]
  CLEAR_BIT(husart->Instance->CR3, (USART_CR3_SCEN | USART_CR3_HDSEL | USART_CR3_IREN));
 8002b46:	687b      	ldr	r3, [r7, #4]
 8002b48:	681b      	ldr	r3, [r3, #0]
 8002b4a:	695a      	ldr	r2, [r3, #20]
 8002b4c:	687b      	ldr	r3, [r7, #4]
 8002b4e:	681b      	ldr	r3, [r3, #0]
 8002b50:	f022 022a 	bic.w	r2, r2, #42	; 0x2a
 8002b54:	615a      	str	r2, [r3, #20]

  /* Enable the Peripheral */
  __HAL_USART_ENABLE(husart);
 8002b56:	687b      	ldr	r3, [r7, #4]
 8002b58:	681b      	ldr	r3, [r3, #0]
 8002b5a:	68da      	ldr	r2, [r3, #12]
 8002b5c:	687b      	ldr	r3, [r7, #4]
 8002b5e:	681b      	ldr	r3, [r3, #0]
 8002b60:	f442 5200 	orr.w	r2, r2, #8192	; 0x2000
 8002b64:	60da      	str	r2, [r3, #12]

  /* Initialize the USART state */
  husart->ErrorCode = HAL_USART_ERROR_NONE;
 8002b66:	687b      	ldr	r3, [r7, #4]
 8002b68:	2200      	movs	r2, #0
 8002b6a:	641a      	str	r2, [r3, #64]	; 0x40
  husart->State = HAL_USART_STATE_READY;
 8002b6c:	687b      	ldr	r3, [r7, #4]
 8002b6e:	2201      	movs	r2, #1
 8002b70:	f883 203d 	strb.w	r2, [r3, #61]	; 0x3d

  return HAL_OK;
 8002b74:	2300      	movs	r3, #0
}
 8002b76:	4618      	mov	r0, r3
 8002b78:	3708      	adds	r7, #8
 8002b7a:	46bd      	mov	sp, r7
 8002b7c:	bd80      	pop	{r7, pc}
	...

08002b80 <HAL_USART_IRQHandler>:
  * @param  husart Pointer to a USART_HandleTypeDef structure that contains
  *                the configuration information for the specified USART module.
  * @retval None
  */
void HAL_USART_IRQHandler(USART_HandleTypeDef *husart)
{
 8002b80:	b580      	push	{r7, lr}
 8002b82:	b088      	sub	sp, #32
 8002b84:	af00      	add	r7, sp, #0
 8002b86:	6078      	str	r0, [r7, #4]
  uint32_t isrflags = READ_REG(husart->Instance->SR);
 8002b88:	687b      	ldr	r3, [r7, #4]
 8002b8a:	681b      	ldr	r3, [r3, #0]
 8002b8c:	681b      	ldr	r3, [r3, #0]
 8002b8e:	61fb      	str	r3, [r7, #28]
  uint32_t cr1its   = READ_REG(husart->Instance->CR1);
 8002b90:	687b      	ldr	r3, [r7, #4]
 8002b92:	681b      	ldr	r3, [r3, #0]
 8002b94:	68db      	ldr	r3, [r3, #12]
 8002b96:	61bb      	str	r3, [r7, #24]
  uint32_t cr3its   = READ_REG(husart->Instance->CR3);
 8002b98:	687b      	ldr	r3, [r7, #4]
 8002b9a:	681b      	ldr	r3, [r3, #0]
 8002b9c:	695b      	ldr	r3, [r3, #20]
 8002b9e:	617b      	str	r3, [r7, #20]
  uint32_t errorflags = 0x00U;
 8002ba0:	2300      	movs	r3, #0
 8002ba2:	613b      	str	r3, [r7, #16]
  uint32_t dmarequest = 0x00U;
 8002ba4:	2300      	movs	r3, #0
 8002ba6:	60fb      	str	r3, [r7, #12]

  /* If no error occurs */
  errorflags = (isrflags & (uint32_t)(USART_SR_PE | USART_SR_FE | USART_SR_ORE | USART_SR_NE));
 8002ba8:	69fb      	ldr	r3, [r7, #28]
 8002baa:	f003 030f 	and.w	r3, r3, #15
 8002bae:	613b      	str	r3, [r7, #16]
  if (errorflags == RESET)
 8002bb0:	693b      	ldr	r3, [r7, #16]
 8002bb2:	2b00      	cmp	r3, #0
 8002bb4:	d117      	bne.n	8002be6 <HAL_USART_IRQHandler+0x66>
  {
    /* USART in mode Receiver -------------------------------------------------*/
    if (((isrflags & USART_SR_RXNE) != RESET) && ((cr1its & USART_CR1_RXNEIE) != RESET))
 8002bb6:	69fb      	ldr	r3, [r7, #28]
 8002bb8:	f003 0320 	and.w	r3, r3, #32
 8002bbc:	2b00      	cmp	r3, #0
 8002bbe:	d012      	beq.n	8002be6 <HAL_USART_IRQHandler+0x66>
 8002bc0:	69bb      	ldr	r3, [r7, #24]
 8002bc2:	f003 0320 	and.w	r3, r3, #32
 8002bc6:	2b00      	cmp	r3, #0
 8002bc8:	d00d      	beq.n	8002be6 <HAL_USART_IRQHandler+0x66>
    {
      if (husart->State == HAL_USART_STATE_BUSY_RX)
 8002bca:	687b      	ldr	r3, [r7, #4]
 8002bcc:	f893 303d 	ldrb.w	r3, [r3, #61]	; 0x3d
 8002bd0:	b2db      	uxtb	r3, r3
 8002bd2:	2b22      	cmp	r3, #34	; 0x22
 8002bd4:	d103      	bne.n	8002bde <HAL_USART_IRQHandler+0x5e>
      {
        USART_Receive_IT(husart);
 8002bd6:	6878      	ldr	r0, [r7, #4]
 8002bd8:	f000 f9b4 	bl	8002f44 <USART_Receive_IT>
      }
      else
      {
        USART_TransmitReceive_IT(husart);
      }
      return;
 8002bdc:	e0e9      	b.n	8002db2 <HAL_USART_IRQHandler+0x232>
        USART_TransmitReceive_IT(husart);
 8002bde:	6878      	ldr	r0, [r7, #4]
 8002be0:	f000 fa36 	bl	8003050 <USART_TransmitReceive_IT>
      return;
 8002be4:	e0e5      	b.n	8002db2 <HAL_USART_IRQHandler+0x232>
    }
  }
  /* If some errors occur */
  if ((errorflags != RESET) && (((cr3its & USART_CR3_EIE) != RESET) || ((cr1its & (USART_CR1_RXNEIE | USART_CR1_PEIE)) != RESET)))
 8002be6:	693b      	ldr	r3, [r7, #16]
 8002be8:	2b00      	cmp	r3, #0
 8002bea:	f000 80bb 	beq.w	8002d64 <HAL_USART_IRQHandler+0x1e4>
 8002bee:	697b      	ldr	r3, [r7, #20]
 8002bf0:	f003 0301 	and.w	r3, r3, #1
 8002bf4:	2b00      	cmp	r3, #0
 8002bf6:	d105      	bne.n	8002c04 <HAL_USART_IRQHandler+0x84>
 8002bf8:	69bb      	ldr	r3, [r7, #24]
 8002bfa:	f403 7390 	and.w	r3, r3, #288	; 0x120
 8002bfe:	2b00      	cmp	r3, #0
 8002c00:	f000 80b0 	beq.w	8002d64 <HAL_USART_IRQHandler+0x1e4>
  {
    /* USART parity error interrupt occurred ----------------------------------*/
    if (((isrflags & USART_SR_PE) != RESET) && ((cr1its & USART_CR1_PEIE) != RESET))
 8002c04:	69fb      	ldr	r3, [r7, #28]
 8002c06:	f003 0301 	and.w	r3, r3, #1
 8002c0a:	2b00      	cmp	r3, #0
 8002c0c:	d00a      	beq.n	8002c24 <HAL_USART_IRQHandler+0xa4>
 8002c0e:	69bb      	ldr	r3, [r7, #24]
 8002c10:	f403 7380 	and.w	r3, r3, #256	; 0x100
 8002c14:	2b00      	cmp	r3, #0
 8002c16:	d005      	beq.n	8002c24 <HAL_USART_IRQHandler+0xa4>
    {
      husart->ErrorCode |= HAL_USART_ERROR_PE;
 8002c18:	687b      	ldr	r3, [r7, #4]
 8002c1a:	6c1b      	ldr	r3, [r3, #64]	; 0x40
 8002c1c:	f043 0201 	orr.w	r2, r3, #1
 8002c20:	687b      	ldr	r3, [r7, #4]
 8002c22:	641a      	str	r2, [r3, #64]	; 0x40
    }

    /* USART noise error interrupt occurred --------------------------------*/
    if (((isrflags & USART_SR_NE) != RESET) && ((cr3its & USART_CR3_EIE) != RESET))
 8002c24:	69fb      	ldr	r3, [r7, #28]
 8002c26:	f003 0304 	and.w	r3, r3, #4
 8002c2a:	2b00      	cmp	r3, #0
 8002c2c:	d00a      	beq.n	8002c44 <HAL_USART_IRQHandler+0xc4>
 8002c2e:	697b      	ldr	r3, [r7, #20]
 8002c30:	f003 0301 	and.w	r3, r3, #1
 8002c34:	2b00      	cmp	r3, #0
 8002c36:	d005      	beq.n	8002c44 <HAL_USART_IRQHandler+0xc4>
    {
      husart->ErrorCode |= HAL_USART_ERROR_NE;
 8002c38:	687b      	ldr	r3, [r7, #4]
 8002c3a:	6c1b      	ldr	r3, [r3, #64]	; 0x40
 8002c3c:	f043 0202 	orr.w	r2, r3, #2
 8002c40:	687b      	ldr	r3, [r7, #4]
 8002c42:	641a      	str	r2, [r3, #64]	; 0x40
    }

    /* USART frame error interrupt occurred --------------------------------*/
    if (((isrflags & USART_SR_FE) != RESET) && ((cr3its & USART_CR3_EIE) != RESET))
 8002c44:	69fb      	ldr	r3, [r7, #28]
 8002c46:	f003 0302 	and.w	r3, r3, #2
 8002c4a:	2b00      	cmp	r3, #0
 8002c4c:	d00a      	beq.n	8002c64 <HAL_USART_IRQHandler+0xe4>
 8002c4e:	697b      	ldr	r3, [r7, #20]
 8002c50:	f003 0301 	and.w	r3, r3, #1
 8002c54:	2b00      	cmp	r3, #0
 8002c56:	d005      	beq.n	8002c64 <HAL_USART_IRQHandler+0xe4>
    {
      husart->ErrorCode |= HAL_USART_ERROR_FE;
 8002c58:	687b      	ldr	r3, [r7, #4]
 8002c5a:	6c1b      	ldr	r3, [r3, #64]	; 0x40
 8002c5c:	f043 0204 	orr.w	r2, r3, #4
 8002c60:	687b      	ldr	r3, [r7, #4]
 8002c62:	641a      	str	r2, [r3, #64]	; 0x40
    }

    /* USART Over-Run interrupt occurred -----------------------------------*/
    if (((isrflags & USART_SR_ORE) != RESET) && (((cr1its & USART_CR1_RXNEIE) != RESET) || ((cr3its & USART_CR3_EIE) != RESET)))
 8002c64:	69fb      	ldr	r3, [r7, #28]
 8002c66:	f003 0308 	and.w	r3, r3, #8
 8002c6a:	2b00      	cmp	r3, #0
 8002c6c:	d00f      	beq.n	8002c8e <HAL_USART_IRQHandler+0x10e>
 8002c6e:	69bb      	ldr	r3, [r7, #24]
 8002c70:	f003 0320 	and.w	r3, r3, #32
 8002c74:	2b00      	cmp	r3, #0
 8002c76:	d104      	bne.n	8002c82 <HAL_USART_IRQHandler+0x102>
 8002c78:	697b      	ldr	r3, [r7, #20]
 8002c7a:	f003 0301 	and.w	r3, r3, #1
 8002c7e:	2b00      	cmp	r3, #0
 8002c80:	d005      	beq.n	8002c8e <HAL_USART_IRQHandler+0x10e>
    {
      husart->ErrorCode |= HAL_USART_ERROR_ORE;
 8002c82:	687b      	ldr	r3, [r7, #4]
 8002c84:	6c1b      	ldr	r3, [r3, #64]	; 0x40
 8002c86:	f043 0208 	orr.w	r2, r3, #8
 8002c8a:	687b      	ldr	r3, [r7, #4]
 8002c8c:	641a      	str	r2, [r3, #64]	; 0x40
    }

    if (husart->ErrorCode != HAL_USART_ERROR_NONE)
 8002c8e:	687b      	ldr	r3, [r7, #4]
 8002c90:	6c1b      	ldr	r3, [r3, #64]	; 0x40
 8002c92:	2b00      	cmp	r3, #0
 8002c94:	f000 808c 	beq.w	8002db0 <HAL_USART_IRQHandler+0x230>
    {
      /* USART in mode Receiver -----------------------------------------------*/
      if (((isrflags & USART_SR_RXNE) != RESET) && ((cr1its & USART_CR1_RXNEIE) != RESET))
 8002c98:	69fb      	ldr	r3, [r7, #28]
 8002c9a:	f003 0320 	and.w	r3, r3, #32
 8002c9e:	2b00      	cmp	r3, #0
 8002ca0:	d011      	beq.n	8002cc6 <HAL_USART_IRQHandler+0x146>
 8002ca2:	69bb      	ldr	r3, [r7, #24]
 8002ca4:	f003 0320 	and.w	r3, r3, #32
 8002ca8:	2b00      	cmp	r3, #0
 8002caa:	d00c      	beq.n	8002cc6 <HAL_USART_IRQHandler+0x146>
      {
        if (husart->State == HAL_USART_STATE_BUSY_RX)
 8002cac:	687b      	ldr	r3, [r7, #4]
 8002cae:	f893 303d 	ldrb.w	r3, [r3, #61]	; 0x3d
 8002cb2:	b2db      	uxtb	r3, r3
 8002cb4:	2b22      	cmp	r3, #34	; 0x22
 8002cb6:	d103      	bne.n	8002cc0 <HAL_USART_IRQHandler+0x140>
        {
          USART_Receive_IT(husart);
 8002cb8:	6878      	ldr	r0, [r7, #4]
 8002cba:	f000 f943 	bl	8002f44 <USART_Receive_IT>
 8002cbe:	e002      	b.n	8002cc6 <HAL_USART_IRQHandler+0x146>
        }
        else
        {
          USART_TransmitReceive_IT(husart);
 8002cc0:	6878      	ldr	r0, [r7, #4]
 8002cc2:	f000 f9c5 	bl	8003050 <USART_TransmitReceive_IT>
        }
      }
      /* If Overrun error occurs, or if any error occurs in DMA mode reception,
      consider error as blocking */
      dmarequest = HAL_IS_BIT_SET(husart->Instance->CR3, USART_CR3_DMAR);
 8002cc6:	687b      	ldr	r3, [r7, #4]
 8002cc8:	681b      	ldr	r3, [r3, #0]
 8002cca:	695b      	ldr	r3, [r3, #20]
 8002ccc:	f003 0340 	and.w	r3, r3, #64	; 0x40
 8002cd0:	2b00      	cmp	r3, #0
 8002cd2:	bf14      	ite	ne
 8002cd4:	2301      	movne	r3, #1
 8002cd6:	2300      	moveq	r3, #0
 8002cd8:	b2db      	uxtb	r3, r3
 8002cda:	60fb      	str	r3, [r7, #12]
      if (((husart->ErrorCode & HAL_USART_ERROR_ORE) != RESET) || dmarequest)
 8002cdc:	687b      	ldr	r3, [r7, #4]
 8002cde:	6c1b      	ldr	r3, [r3, #64]	; 0x40
 8002ce0:	f003 0308 	and.w	r3, r3, #8
 8002ce4:	2b00      	cmp	r3, #0
 8002ce6:	d102      	bne.n	8002cee <HAL_USART_IRQHandler+0x16e>
 8002ce8:	68fb      	ldr	r3, [r7, #12]
 8002cea:	2b00      	cmp	r3, #0
 8002cec:	d031      	beq.n	8002d52 <HAL_USART_IRQHandler+0x1d2>
      {
        /* Set the USART state ready to be able to start again the process,
        Disable Rx Interrupts, and disable Rx DMA request, if ongoing */
        USART_EndRxTransfer(husart);
 8002cee:	6878      	ldr	r0, [r7, #4]
 8002cf0:	f000 f888 	bl	8002e04 <USART_EndRxTransfer>

        /* Disable the USART DMA Rx request if enabled */
        if (HAL_IS_BIT_SET(husart->Instance->CR3, USART_CR3_DMAR))
 8002cf4:	687b      	ldr	r3, [r7, #4]
 8002cf6:	681b      	ldr	r3, [r3, #0]
 8002cf8:	695b      	ldr	r3, [r3, #20]
 8002cfa:	f003 0340 	and.w	r3, r3, #64	; 0x40
 8002cfe:	2b00      	cmp	r3, #0
 8002d00:	d023      	beq.n	8002d4a <HAL_USART_IRQHandler+0x1ca>
        {
          CLEAR_BIT(husart->Instance->CR3, USART_CR3_DMAR);
 8002d02:	687b      	ldr	r3, [r7, #4]
 8002d04:	681b      	ldr	r3, [r3, #0]
 8002d06:	695a      	ldr	r2, [r3, #20]
 8002d08:	687b      	ldr	r3, [r7, #4]
 8002d0a:	681b      	ldr	r3, [r3, #0]
 8002d0c:	f022 0240 	bic.w	r2, r2, #64	; 0x40
 8002d10:	615a      	str	r2, [r3, #20]

          /* Abort the USART DMA Rx channel */
          if (husart->hdmarx != NULL)
 8002d12:	687b      	ldr	r3, [r7, #4]
 8002d14:	6b9b      	ldr	r3, [r3, #56]	; 0x38
 8002d16:	2b00      	cmp	r3, #0
 8002d18:	d013      	beq.n	8002d42 <HAL_USART_IRQHandler+0x1c2>
          {
            /* Set the USART DMA Abort callback :
            will lead to call HAL_USART_ErrorCallback() at end of DMA abort procedure */
            husart->hdmarx->XferAbortCallback = USART_DMAAbortOnError;
 8002d1a:	687b      	ldr	r3, [r7, #4]
 8002d1c:	6b9b      	ldr	r3, [r3, #56]	; 0x38
 8002d1e:	4a26      	ldr	r2, [pc, #152]	; (8002db8 <HAL_USART_IRQHandler+0x238>)
 8002d20:	635a      	str	r2, [r3, #52]	; 0x34

            if (HAL_DMA_Abort_IT(husart->hdmarx) != HAL_OK)
 8002d22:	687b      	ldr	r3, [r7, #4]
 8002d24:	6b9b      	ldr	r3, [r3, #56]	; 0x38
 8002d26:	4618      	mov	r0, r3
 8002d28:	f7fe f906 	bl	8000f38 <HAL_DMA_Abort_IT>
 8002d2c:	4603      	mov	r3, r0
 8002d2e:	2b00      	cmp	r3, #0
 8002d30:	d016      	beq.n	8002d60 <HAL_USART_IRQHandler+0x1e0>
            {
              /* Call Directly XferAbortCallback function in case of error */
              husart->hdmarx->XferAbortCallback(husart->hdmarx);
 8002d32:	687b      	ldr	r3, [r7, #4]
 8002d34:	6b9b      	ldr	r3, [r3, #56]	; 0x38
 8002d36:	6b5b      	ldr	r3, [r3, #52]	; 0x34
 8002d38:	687a      	ldr	r2, [r7, #4]
 8002d3a:	6b92      	ldr	r2, [r2, #56]	; 0x38
 8002d3c:	4610      	mov	r0, r2
 8002d3e:	4798      	blx	r3
        if (HAL_IS_BIT_SET(husart->Instance->CR3, USART_CR3_DMAR))
 8002d40:	e00e      	b.n	8002d60 <HAL_USART_IRQHandler+0x1e0>
#if (USE_HAL_USART_REGISTER_CALLBACKS == 1)
            /* Call registered Error Callback */
            husart->ErrorCallback(husart);
#else
            /* Call legacy weak Error Callback */
            HAL_USART_ErrorCallback(husart);
 8002d42:	6878      	ldr	r0, [r7, #4]
 8002d44:	f000 f855 	bl	8002df2 <HAL_USART_ErrorCallback>
        if (HAL_IS_BIT_SET(husart->Instance->CR3, USART_CR3_DMAR))
 8002d48:	e00a      	b.n	8002d60 <HAL_USART_IRQHandler+0x1e0>
#if (USE_HAL_USART_REGISTER_CALLBACKS == 1)
          /* Call registered Error Callback */
          husart->ErrorCallback(husart);
#else
          /* Call legacy weak Error Callback */
          HAL_USART_ErrorCallback(husart);
 8002d4a:	6878      	ldr	r0, [r7, #4]
 8002d4c:	f000 f851 	bl	8002df2 <HAL_USART_ErrorCallback>
        if (HAL_IS_BIT_SET(husart->Instance->CR3, USART_CR3_DMAR))
 8002d50:	e006      	b.n	8002d60 <HAL_USART_IRQHandler+0x1e0>
#if (USE_HAL_USART_REGISTER_CALLBACKS == 1)
        /* Call registered Error Callback */
        husart->ErrorCallback(husart);
#else
        /* Call legacy weak Error Callback */
        HAL_USART_ErrorCallback(husart);
 8002d52:	6878      	ldr	r0, [r7, #4]
 8002d54:	f000 f84d 	bl	8002df2 <HAL_USART_ErrorCallback>
#endif /* USE_HAL_USART_REGISTER_CALLBACKS */
        husart->ErrorCode = HAL_USART_ERROR_NONE;
 8002d58:	687b      	ldr	r3, [r7, #4]
 8002d5a:	2200      	movs	r2, #0
 8002d5c:	641a      	str	r2, [r3, #64]	; 0x40
      }
    }
    return;
 8002d5e:	e027      	b.n	8002db0 <HAL_USART_IRQHandler+0x230>
        if (HAL_IS_BIT_SET(husart->Instance->CR3, USART_CR3_DMAR))
 8002d60:	bf00      	nop
    return;
 8002d62:	e025      	b.n	8002db0 <HAL_USART_IRQHandler+0x230>
  }

  /* USART in mode Transmitter -----------------------------------------------*/
  if (((isrflags & USART_SR_TXE) != RESET) && ((cr1its & USART_CR1_TXEIE) != RESET))
 8002d64:	69fb      	ldr	r3, [r7, #28]
 8002d66:	f003 0380 	and.w	r3, r3, #128	; 0x80
 8002d6a:	2b00      	cmp	r3, #0
 8002d6c:	d012      	beq.n	8002d94 <HAL_USART_IRQHandler+0x214>
 8002d6e:	69bb      	ldr	r3, [r7, #24]
 8002d70:	f003 0380 	and.w	r3, r3, #128	; 0x80
 8002d74:	2b00      	cmp	r3, #0
 8002d76:	d00d      	beq.n	8002d94 <HAL_USART_IRQHandler+0x214>
  {
    if (husart->State == HAL_USART_STATE_BUSY_TX)
 8002d78:	687b      	ldr	r3, [r7, #4]
 8002d7a:	f893 303d 	ldrb.w	r3, [r3, #61]	; 0x3d
 8002d7e:	b2db      	uxtb	r3, r3
 8002d80:	2b12      	cmp	r3, #18
 8002d82:	d103      	bne.n	8002d8c <HAL_USART_IRQHandler+0x20c>
    {
      USART_Transmit_IT(husart);
 8002d84:	6878      	ldr	r0, [r7, #4]
 8002d86:	f000 f86e 	bl	8002e66 <USART_Transmit_IT>
    }
    else
    {
      USART_TransmitReceive_IT(husart);
    }
    return;
 8002d8a:	e012      	b.n	8002db2 <HAL_USART_IRQHandler+0x232>
      USART_TransmitReceive_IT(husart);
 8002d8c:	6878      	ldr	r0, [r7, #4]
 8002d8e:	f000 f95f 	bl	8003050 <USART_TransmitReceive_IT>
    return;
 8002d92:	e00e      	b.n	8002db2 <HAL_USART_IRQHandler+0x232>
  }

  /* USART in mode Transmitter (transmission end) ----------------------------*/
  if (((isrflags & USART_SR_TC) != RESET) && ((cr1its & USART_CR1_TCIE) != RESET))
 8002d94:	69fb      	ldr	r3, [r7, #28]
 8002d96:	f003 0340 	and.w	r3, r3, #64	; 0x40
 8002d9a:	2b00      	cmp	r3, #0
 8002d9c:	d009      	beq.n	8002db2 <HAL_USART_IRQHandler+0x232>
 8002d9e:	69bb      	ldr	r3, [r7, #24]
 8002da0:	f003 0340 	and.w	r3, r3, #64	; 0x40
 8002da4:	2b00      	cmp	r3, #0
 8002da6:	d004      	beq.n	8002db2 <HAL_USART_IRQHandler+0x232>
  {
    USART_EndTransmit_IT(husart);
 8002da8:	6878      	ldr	r0, [r7, #4]
 8002daa:	f000 f8ab 	bl	8002f04 <USART_EndTransmit_IT>
    return;
 8002dae:	e000      	b.n	8002db2 <HAL_USART_IRQHandler+0x232>
    return;
 8002db0:	bf00      	nop
  }
}
 8002db2:	3720      	adds	r7, #32
 8002db4:	46bd      	mov	sp, r7
 8002db6:	bd80      	pop	{r7, pc}
 8002db8:	08002e3f 	.word	0x08002e3f

08002dbc <HAL_USART_TxCpltCallback>:
  * @param  husart Pointer to a USART_HandleTypeDef structure that contains
  *                the configuration information for the specified USART module.
  * @retval None
  */
__weak void HAL_USART_TxCpltCallback(USART_HandleTypeDef *husart)
{
 8002dbc:	b480      	push	{r7}
 8002dbe:	b083      	sub	sp, #12
 8002dc0:	af00      	add	r7, sp, #0
 8002dc2:	6078      	str	r0, [r7, #4]
  /* Prevent unused argument(s) compilation warning */
  UNUSED(husart);
  /* NOTE: This function should not be modified, when the callback is needed,
           the HAL_USART_TxCpltCallback could be implemented in the user file
   */
}
 8002dc4:	bf00      	nop
 8002dc6:	370c      	adds	r7, #12
 8002dc8:	46bd      	mov	sp, r7
 8002dca:	bc80      	pop	{r7}
 8002dcc:	4770      	bx	lr

08002dce <HAL_USART_RxCpltCallback>:
  * @param  husart Pointer to a USART_HandleTypeDef structure that contains
  *                the configuration information for the specified USART module.
  * @retval None
  */
__weak void HAL_USART_RxCpltCallback(USART_HandleTypeDef *husart)
{
 8002dce:	b480      	push	{r7}
 8002dd0:	b083      	sub	sp, #12
 8002dd2:	af00      	add	r7, sp, #0
 8002dd4:	6078      	str	r0, [r7, #4]
  /* Prevent unused argument(s) compilation warning */
  UNUSED(husart);
  /* NOTE: This function should not be modified, when the callback is needed,
           the HAL_USART_RxCpltCallback could be implemented in the user file
   */
}
 8002dd6:	bf00      	nop
 8002dd8:	370c      	adds	r7, #12
 8002dda:	46bd      	mov	sp, r7
 8002ddc:	bc80      	pop	{r7}
 8002dde:	4770      	bx	lr

08002de0 <HAL_USART_TxRxCpltCallback>:
  * @param  husart Pointer to a USART_HandleTypeDef structure that contains
  *                the configuration information for the specified USART module.
  * @retval None
  */
__weak void HAL_USART_TxRxCpltCallback(USART_HandleTypeDef *husart)
{
 8002de0:	b480      	push	{r7}
 8002de2:	b083      	sub	sp, #12
 8002de4:	af00      	add	r7, sp, #0
 8002de6:	6078      	str	r0, [r7, #4]
  /* Prevent unused argument(s) compilation warning */
  UNUSED(husart);
  /* NOTE: This function should not be modified, when the callback is needed,
           the HAL_USART_TxRxCpltCallback could be implemented in the user file
   */
}
 8002de8:	bf00      	nop
 8002dea:	370c      	adds	r7, #12
 8002dec:	46bd      	mov	sp, r7
 8002dee:	bc80      	pop	{r7}
 8002df0:	4770      	bx	lr

08002df2 <HAL_USART_ErrorCallback>:
  * @param  husart Pointer to a USART_HandleTypeDef structure that contains
  *                the configuration information for the specified USART module.
  * @retval None
  */
__weak void HAL_USART_ErrorCallback(USART_HandleTypeDef *husart)
{
 8002df2:	b480      	push	{r7}
 8002df4:	b083      	sub	sp, #12
 8002df6:	af00      	add	r7, sp, #0
 8002df8:	6078      	str	r0, [r7, #4]
  /* Prevent unused argument(s) compilation warning */
  UNUSED(husart);
  /* NOTE: This function should not be modified, when the callback is needed,
           the HAL_USART_ErrorCallback could be implemented in the user file
   */
}
 8002dfa:	bf00      	nop
 8002dfc:	370c      	adds	r7, #12
 8002dfe:	46bd      	mov	sp, r7
 8002e00:	bc80      	pop	{r7}
 8002e02:	4770      	bx	lr

08002e04 <USART_EndRxTransfer>:
  * @brief  End ongoing Rx transfer on USART peripheral (following error detection or Reception completion).
  * @param  husart USART handle.
  * @retval None
  */
static void USART_EndRxTransfer(USART_HandleTypeDef *husart)
{
 8002e04:	b480      	push	{r7}
 8002e06:	b083      	sub	sp, #12
 8002e08:	af00      	add	r7, sp, #0
 8002e0a:	6078      	str	r0, [r7, #4]
  /* Disable RXNE, PE and ERR interrupts */
  CLEAR_BIT(husart->Instance->CR1, (USART_CR1_RXNEIE | USART_CR1_PEIE));
 8002e0c:	687b      	ldr	r3, [r7, #4]
 8002e0e:	681b      	ldr	r3, [r3, #0]
 8002e10:	68da      	ldr	r2, [r3, #12]
 8002e12:	687b      	ldr	r3, [r7, #4]
 8002e14:	681b      	ldr	r3, [r3, #0]
 8002e16:	f422 7290 	bic.w	r2, r2, #288	; 0x120
 8002e1a:	60da      	str	r2, [r3, #12]
  CLEAR_BIT(husart->Instance->CR3, USART_CR3_EIE);
 8002e1c:	687b      	ldr	r3, [r7, #4]
 8002e1e:	681b      	ldr	r3, [r3, #0]
 8002e20:	695a      	ldr	r2, [r3, #20]
 8002e22:	687b      	ldr	r3, [r7, #4]
 8002e24:	681b      	ldr	r3, [r3, #0]
 8002e26:	f022 0201 	bic.w	r2, r2, #1
 8002e2a:	615a      	str	r2, [r3, #20]

  /* At end of Rx process, restore husart->State to Ready */
  husart->State = HAL_USART_STATE_READY;
 8002e2c:	687b      	ldr	r3, [r7, #4]
 8002e2e:	2201      	movs	r2, #1
 8002e30:	f883 203d 	strb.w	r2, [r3, #61]	; 0x3d
}
 8002e34:	bf00      	nop
 8002e36:	370c      	adds	r7, #12
 8002e38:	46bd      	mov	sp, r7
 8002e3a:	bc80      	pop	{r7}
 8002e3c:	4770      	bx	lr

08002e3e <USART_DMAAbortOnError>:
  *         (To be called at end of DMA Abort procedure following error occurrence).
  * @param  hdma DMA handle.
  * @retval None
  */
static void USART_DMAAbortOnError(DMA_HandleTypeDef *hdma)
{
 8002e3e:	b580      	push	{r7, lr}
 8002e40:	b084      	sub	sp, #16
 8002e42:	af00      	add	r7, sp, #0
 8002e44:	6078      	str	r0, [r7, #4]
  USART_HandleTypeDef *husart = (USART_HandleTypeDef *)((DMA_HandleTypeDef *)hdma)->Parent;
 8002e46:	687b      	ldr	r3, [r7, #4]
 8002e48:	6a5b      	ldr	r3, [r3, #36]	; 0x24
 8002e4a:	60fb      	str	r3, [r7, #12]
  husart->RxXferCount = 0x00U;
 8002e4c:	68fb      	ldr	r3, [r7, #12]
 8002e4e:	2200      	movs	r2, #0
 8002e50:	865a      	strh	r2, [r3, #50]	; 0x32
  husart->TxXferCount = 0x00U;
 8002e52:	68fb      	ldr	r3, [r7, #12]
 8002e54:	2200      	movs	r2, #0
 8002e56:	855a      	strh	r2, [r3, #42]	; 0x2a
#if (USE_HAL_USART_REGISTER_CALLBACKS == 1)
  /* Call registered Error Callback */
  husart->ErrorCallback(husart);
#else
  /* Call legacy weak Error Callback */
  HAL_USART_ErrorCallback(husart);
 8002e58:	68f8      	ldr	r0, [r7, #12]
 8002e5a:	f7ff ffca 	bl	8002df2 <HAL_USART_ErrorCallback>
#endif /* USE_HAL_USART_REGISTER_CALLBACKS */
}
 8002e5e:	bf00      	nop
 8002e60:	3710      	adds	r7, #16
 8002e62:	46bd      	mov	sp, r7
 8002e64:	bd80      	pop	{r7, pc}

08002e66 <USART_Transmit_IT>:
  *                the configuration information for the specified USART module.
  * @retval HAL status
  * @note   The USART errors are not managed to avoid the overrun error.
  */
static HAL_StatusTypeDef USART_Transmit_IT(USART_HandleTypeDef *husart)
{
 8002e66:	b480      	push	{r7}
 8002e68:	b085      	sub	sp, #20
 8002e6a:	af00      	add	r7, sp, #0
 8002e6c:	6078      	str	r0, [r7, #4]
  uint16_t *tmp;

  if (husart->State == HAL_USART_STATE_BUSY_TX)
 8002e6e:	687b      	ldr	r3, [r7, #4]
 8002e70:	f893 303d 	ldrb.w	r3, [r3, #61]	; 0x3d
 8002e74:	b2db      	uxtb	r3, r3
 8002e76:	2b12      	cmp	r3, #18
 8002e78:	d13e      	bne.n	8002ef8 <USART_Transmit_IT+0x92>
  {
    if ((husart->Init.WordLength == USART_WORDLENGTH_9B) && (husart->Init.Parity == USART_PARITY_NONE))
 8002e7a:	687b      	ldr	r3, [r7, #4]
 8002e7c:	689b      	ldr	r3, [r3, #8]
 8002e7e:	f5b3 5f80 	cmp.w	r3, #4096	; 0x1000
 8002e82:	d114      	bne.n	8002eae <USART_Transmit_IT+0x48>
 8002e84:	687b      	ldr	r3, [r7, #4]
 8002e86:	691b      	ldr	r3, [r3, #16]
 8002e88:	2b00      	cmp	r3, #0
 8002e8a:	d110      	bne.n	8002eae <USART_Transmit_IT+0x48>
    {
      tmp = (uint16_t *) husart->pTxBuffPtr;
 8002e8c:	687b      	ldr	r3, [r7, #4]
 8002e8e:	6a5b      	ldr	r3, [r3, #36]	; 0x24
 8002e90:	60fb      	str	r3, [r7, #12]
      husart->Instance->DR = (uint16_t)(*tmp & (uint16_t)0x01FF);
 8002e92:	68fb      	ldr	r3, [r7, #12]
 8002e94:	881b      	ldrh	r3, [r3, #0]
 8002e96:	461a      	mov	r2, r3
 8002e98:	687b      	ldr	r3, [r7, #4]
 8002e9a:	681b      	ldr	r3, [r3, #0]
 8002e9c:	f3c2 0208 	ubfx	r2, r2, #0, #9
 8002ea0:	605a      	str	r2, [r3, #4]
      husart->pTxBuffPtr += 2U;
 8002ea2:	687b      	ldr	r3, [r7, #4]
 8002ea4:	6a5b      	ldr	r3, [r3, #36]	; 0x24
 8002ea6:	1c9a      	adds	r2, r3, #2
 8002ea8:	687b      	ldr	r3, [r7, #4]
 8002eaa:	625a      	str	r2, [r3, #36]	; 0x24
 8002eac:	e008      	b.n	8002ec0 <USART_Transmit_IT+0x5a>
    }
    else
    {
      husart->Instance->DR = (uint8_t)(*husart->pTxBuffPtr++ & (uint8_t)0x00FF);
 8002eae:	687b      	ldr	r3, [r7, #4]
 8002eb0:	6a5b      	ldr	r3, [r3, #36]	; 0x24
 8002eb2:	1c59      	adds	r1, r3, #1
 8002eb4:	687a      	ldr	r2, [r7, #4]
 8002eb6:	6251      	str	r1, [r2, #36]	; 0x24
 8002eb8:	781a      	ldrb	r2, [r3, #0]
 8002eba:	687b      	ldr	r3, [r7, #4]
 8002ebc:	681b      	ldr	r3, [r3, #0]
 8002ebe:	605a      	str	r2, [r3, #4]
    }

    if (--husart->TxXferCount == 0U)
 8002ec0:	687b      	ldr	r3, [r7, #4]
 8002ec2:	8d5b      	ldrh	r3, [r3, #42]	; 0x2a
 8002ec4:	b29b      	uxth	r3, r3
 8002ec6:	3b01      	subs	r3, #1
 8002ec8:	b29b      	uxth	r3, r3
 8002eca:	687a      	ldr	r2, [r7, #4]
 8002ecc:	4619      	mov	r1, r3
 8002ece:	8551      	strh	r1, [r2, #42]	; 0x2a
 8002ed0:	2b00      	cmp	r3, #0
 8002ed2:	d10f      	bne.n	8002ef4 <USART_Transmit_IT+0x8e>
    {
      /* Disable the USART Transmit data register empty Interrupt */
      CLEAR_BIT(husart->Instance->CR1, USART_CR1_TXEIE);
 8002ed4:	687b      	ldr	r3, [r7, #4]
 8002ed6:	681b      	ldr	r3, [r3, #0]
 8002ed8:	68da      	ldr	r2, [r3, #12]
 8002eda:	687b      	ldr	r3, [r7, #4]
 8002edc:	681b      	ldr	r3, [r3, #0]
 8002ede:	f022 0280 	bic.w	r2, r2, #128	; 0x80
 8002ee2:	60da      	str	r2, [r3, #12]

      /* Enable the USART Transmit Complete Interrupt */
      SET_BIT(husart->Instance->CR1, USART_CR1_TCIE);
 8002ee4:	687b      	ldr	r3, [r7, #4]
 8002ee6:	681b      	ldr	r3, [r3, #0]
 8002ee8:	68da      	ldr	r2, [r3, #12]
 8002eea:	687b      	ldr	r3, [r7, #4]
 8002eec:	681b      	ldr	r3, [r3, #0]
 8002eee:	f042 0240 	orr.w	r2, r2, #64	; 0x40
 8002ef2:	60da      	str	r2, [r3, #12]
    }
    return HAL_OK;
 8002ef4:	2300      	movs	r3, #0
 8002ef6:	e000      	b.n	8002efa <USART_Transmit_IT+0x94>
  }
  else
  {
    return HAL_BUSY;
 8002ef8:	2302      	movs	r3, #2
  }
}
 8002efa:	4618      	mov	r0, r3
 8002efc:	3714      	adds	r7, #20
 8002efe:	46bd      	mov	sp, r7
 8002f00:	bc80      	pop	{r7}
 8002f02:	4770      	bx	lr

08002f04 <USART_EndTransmit_IT>:
  * @param  husart Pointer to a USART_HandleTypeDef structure that contains
  *                the configuration information for the specified USART module.
  * @retval HAL status
  */
static HAL_StatusTypeDef USART_EndTransmit_IT(USART_HandleTypeDef *husart)
{
 8002f04:	b580      	push	{r7, lr}
 8002f06:	b082      	sub	sp, #8
 8002f08:	af00      	add	r7, sp, #0
 8002f0a:	6078      	str	r0, [r7, #4]
  /* Disable the USART Transmit Complete Interrupt */
  CLEAR_BIT(husart->Instance->CR1, USART_CR1_TCIE);
 8002f0c:	687b      	ldr	r3, [r7, #4]
 8002f0e:	681b      	ldr	r3, [r3, #0]
 8002f10:	68da      	ldr	r2, [r3, #12]
 8002f12:	687b      	ldr	r3, [r7, #4]
 8002f14:	681b      	ldr	r3, [r3, #0]
 8002f16:	f022 0240 	bic.w	r2, r2, #64	; 0x40
 8002f1a:	60da      	str	r2, [r3, #12]

  /* Disable the USART Error Interrupt: (Frame error, noise error, overrun error) */
  CLEAR_BIT(husart->Instance->CR3, USART_CR3_EIE);
 8002f1c:	687b      	ldr	r3, [r7, #4]
 8002f1e:	681b      	ldr	r3, [r3, #0]
 8002f20:	695a      	ldr	r2, [r3, #20]
 8002f22:	687b      	ldr	r3, [r7, #4]
 8002f24:	681b      	ldr	r3, [r3, #0]
 8002f26:	f022 0201 	bic.w	r2, r2, #1
 8002f2a:	615a      	str	r2, [r3, #20]

  husart->State = HAL_USART_STATE_READY;
 8002f2c:	687b      	ldr	r3, [r7, #4]
 8002f2e:	2201      	movs	r2, #1
 8002f30:	f883 203d 	strb.w	r2, [r3, #61]	; 0x3d
#if (USE_HAL_USART_REGISTER_CALLBACKS == 1)
  /* Call registered Tx Complete Callback */
  husart->TxCpltCallback(husart);
#else
  /* Call legacy weak Tx Complete Callback */
  HAL_USART_TxCpltCallback(husart);
 8002f34:	6878      	ldr	r0, [r7, #4]
 8002f36:	f7ff ff41 	bl	8002dbc <HAL_USART_TxCpltCallback>
#endif /* USE_HAL_USART_REGISTER_CALLBACKS */

  return HAL_OK;
 8002f3a:	2300      	movs	r3, #0
}
 8002f3c:	4618      	mov	r0, r3
 8002f3e:	3708      	adds	r7, #8
 8002f40:	46bd      	mov	sp, r7
 8002f42:	bd80      	pop	{r7, pc}

08002f44 <USART_Receive_IT>:
  * @param  husart Pointer to a USART_HandleTypeDef structure that contains
  *                the configuration information for the specified USART module.
  * @retval HAL status
  */
static HAL_StatusTypeDef USART_Receive_IT(USART_HandleTypeDef *husart)
{
 8002f44:	b580      	push	{r7, lr}
 8002f46:	b084      	sub	sp, #16
 8002f48:	af00      	add	r7, sp, #0
 8002f4a:	6078      	str	r0, [r7, #4]
  uint8_t  *pdata8bits;
  uint16_t *pdata16bits;

  if (husart->State == HAL_USART_STATE_BUSY_RX)
 8002f4c:	687b      	ldr	r3, [r7, #4]
 8002f4e:	f893 303d 	ldrb.w	r3, [r3, #61]	; 0x3d
 8002f52:	b2db      	uxtb	r3, r3
 8002f54:	2b22      	cmp	r3, #34	; 0x22
 8002f56:	d176      	bne.n	8003046 <USART_Receive_IT+0x102>
  {
    if ((husart->Init.WordLength == USART_WORDLENGTH_9B) && (husart->Init.Parity == USART_PARITY_NONE))
 8002f58:	687b      	ldr	r3, [r7, #4]
 8002f5a:	689b      	ldr	r3, [r3, #8]
 8002f5c:	f5b3 5f80 	cmp.w	r3, #4096	; 0x1000
 8002f60:	d117      	bne.n	8002f92 <USART_Receive_IT+0x4e>
 8002f62:	687b      	ldr	r3, [r7, #4]
 8002f64:	691b      	ldr	r3, [r3, #16]
 8002f66:	2b00      	cmp	r3, #0
 8002f68:	d113      	bne.n	8002f92 <USART_Receive_IT+0x4e>
    {
      pdata8bits  = NULL;
 8002f6a:	2300      	movs	r3, #0
 8002f6c:	60fb      	str	r3, [r7, #12]
      pdata16bits = (uint16_t *) husart->pRxBuffPtr;
 8002f6e:	687b      	ldr	r3, [r7, #4]
 8002f70:	6adb      	ldr	r3, [r3, #44]	; 0x2c
 8002f72:	60bb      	str	r3, [r7, #8]
      *pdata16bits = (uint16_t)(husart->Instance->DR & (uint16_t)0x01FF);
 8002f74:	687b      	ldr	r3, [r7, #4]
 8002f76:	681b      	ldr	r3, [r3, #0]
 8002f78:	685b      	ldr	r3, [r3, #4]
 8002f7a:	b29b      	uxth	r3, r3
 8002f7c:	f3c3 0308 	ubfx	r3, r3, #0, #9
 8002f80:	b29a      	uxth	r2, r3
 8002f82:	68bb      	ldr	r3, [r7, #8]
 8002f84:	801a      	strh	r2, [r3, #0]
      husart->pRxBuffPtr += 2U;
 8002f86:	687b      	ldr	r3, [r7, #4]
 8002f88:	6adb      	ldr	r3, [r3, #44]	; 0x2c
 8002f8a:	1c9a      	adds	r2, r3, #2
 8002f8c:	687b      	ldr	r3, [r7, #4]
 8002f8e:	62da      	str	r2, [r3, #44]	; 0x2c
 8002f90:	e026      	b.n	8002fe0 <USART_Receive_IT+0x9c>
    }
    else
    {
      pdata8bits = (uint8_t *) husart->pRxBuffPtr;
 8002f92:	687b      	ldr	r3, [r7, #4]
 8002f94:	6adb      	ldr	r3, [r3, #44]	; 0x2c
 8002f96:	60fb      	str	r3, [r7, #12]
      pdata16bits  = NULL;
 8002f98:	2300      	movs	r3, #0
 8002f9a:	60bb      	str	r3, [r7, #8]

      if ((husart->Init.WordLength == USART_WORDLENGTH_9B) || ((husart->Init.WordLength == USART_WORDLENGTH_8B) && (husart->Init.Parity == USART_PARITY_NONE)))
 8002f9c:	687b      	ldr	r3, [r7, #4]
 8002f9e:	689b      	ldr	r3, [r3, #8]
 8002fa0:	f5b3 5f80 	cmp.w	r3, #4096	; 0x1000
 8002fa4:	d007      	beq.n	8002fb6 <USART_Receive_IT+0x72>
 8002fa6:	687b      	ldr	r3, [r7, #4]
 8002fa8:	689b      	ldr	r3, [r3, #8]
 8002faa:	2b00      	cmp	r3, #0
 8002fac:	d10a      	bne.n	8002fc4 <USART_Receive_IT+0x80>
 8002fae:	687b      	ldr	r3, [r7, #4]
 8002fb0:	691b      	ldr	r3, [r3, #16]
 8002fb2:	2b00      	cmp	r3, #0
 8002fb4:	d106      	bne.n	8002fc4 <USART_Receive_IT+0x80>
      {
        *pdata8bits = (uint8_t)(husart->Instance->DR & (uint8_t)0x00FF);
 8002fb6:	687b      	ldr	r3, [r7, #4]
 8002fb8:	681b      	ldr	r3, [r3, #0]
 8002fba:	685b      	ldr	r3, [r3, #4]
 8002fbc:	b2da      	uxtb	r2, r3
 8002fbe:	68fb      	ldr	r3, [r7, #12]
 8002fc0:	701a      	strb	r2, [r3, #0]
 8002fc2:	e008      	b.n	8002fd6 <USART_Receive_IT+0x92>
      }
      else
      {
        *pdata8bits = (uint8_t)(husart->Instance->DR & (uint8_t)0x007F);
 8002fc4:	687b      	ldr	r3, [r7, #4]
 8002fc6:	681b      	ldr	r3, [r3, #0]
 8002fc8:	685b      	ldr	r3, [r3, #4]
 8002fca:	b2db      	uxtb	r3, r3
 8002fcc:	f003 037f 	and.w	r3, r3, #127	; 0x7f
 8002fd0:	b2da      	uxtb	r2, r3
 8002fd2:	68fb      	ldr	r3, [r7, #12]
 8002fd4:	701a      	strb	r2, [r3, #0]
      }

      husart->pRxBuffPtr += 1U;
 8002fd6:	687b      	ldr	r3, [r7, #4]
 8002fd8:	6adb      	ldr	r3, [r3, #44]	; 0x2c
 8002fda:	1c5a      	adds	r2, r3, #1
 8002fdc:	687b      	ldr	r3, [r7, #4]
 8002fde:	62da      	str	r2, [r3, #44]	; 0x2c
    }

    husart->RxXferCount--;
 8002fe0:	687b      	ldr	r3, [r7, #4]
 8002fe2:	8e5b      	ldrh	r3, [r3, #50]	; 0x32
 8002fe4:	b29b      	uxth	r3, r3
 8002fe6:	3b01      	subs	r3, #1
 8002fe8:	b29a      	uxth	r2, r3
 8002fea:	687b      	ldr	r3, [r7, #4]
 8002fec:	865a      	strh	r2, [r3, #50]	; 0x32

    if (husart->RxXferCount == 0U)
 8002fee:	687b      	ldr	r3, [r7, #4]
 8002ff0:	8e5b      	ldrh	r3, [r3, #50]	; 0x32
 8002ff2:	b29b      	uxth	r3, r3
 8002ff4:	2b00      	cmp	r3, #0
 8002ff6:	d120      	bne.n	800303a <USART_Receive_IT+0xf6>
    {
      /* Disable the USART RXNE Interrupt */
      CLEAR_BIT(husart->Instance->CR1, USART_CR1_RXNEIE);
 8002ff8:	687b      	ldr	r3, [r7, #4]
 8002ffa:	681b      	ldr	r3, [r3, #0]
 8002ffc:	68da      	ldr	r2, [r3, #12]
 8002ffe:	687b      	ldr	r3, [r7, #4]
 8003000:	681b      	ldr	r3, [r3, #0]
 8003002:	f022 0220 	bic.w	r2, r2, #32
 8003006:	60da      	str	r2, [r3, #12]

      /* Disable the USART Parity Error Interrupt */
      CLEAR_BIT(husart->Instance->CR1, USART_CR1_PEIE);
 8003008:	687b      	ldr	r3, [r7, #4]
 800300a:	681b      	ldr	r3, [r3, #0]
 800300c:	68da      	ldr	r2, [r3, #12]
 800300e:	687b      	ldr	r3, [r7, #4]
 8003010:	681b      	ldr	r3, [r3, #0]
 8003012:	f422 7280 	bic.w	r2, r2, #256	; 0x100
 8003016:	60da      	str	r2, [r3, #12]

      /* Disable the USART Error Interrupt: (Frame error, noise error, overrun error) */
      CLEAR_BIT(husart->Instance->CR3, USART_CR3_EIE);
 8003018:	687b      	ldr	r3, [r7, #4]
 800301a:	681b      	ldr	r3, [r3, #0]
 800301c:	695a      	ldr	r2, [r3, #20]
 800301e:	687b      	ldr	r3, [r7, #4]
 8003020:	681b      	ldr	r3, [r3, #0]
 8003022:	f022 0201 	bic.w	r2, r2, #1
 8003026:	615a      	str	r2, [r3, #20]

      husart->State = HAL_USART_STATE_READY;
 8003028:	687b      	ldr	r3, [r7, #4]
 800302a:	2201      	movs	r2, #1
 800302c:	f883 203d 	strb.w	r2, [r3, #61]	; 0x3d
#if (USE_HAL_USART_REGISTER_CALLBACKS == 1)
      /* Call registered Rx Complete Callback */
      husart->RxCpltCallback(husart);
#else
      /* Call legacy weak Rx Complete Callback */
      HAL_USART_RxCpltCallback(husart);
 8003030:	6878      	ldr	r0, [r7, #4]
 8003032:	f7ff fecc 	bl	8002dce <HAL_USART_RxCpltCallback>
#endif /* USE_HAL_USART_REGISTER_CALLBACKS */

      return HAL_OK;
 8003036:	2300      	movs	r3, #0
 8003038:	e006      	b.n	8003048 <USART_Receive_IT+0x104>
    else
    {
      /* Send dummy byte in order to generate the clock for the slave to send the next data.
      * Whatever the frame length (7, 8 or 9-bit long), the same dummy value
      * can be written for all the cases. */
      husart->Instance->DR = (DUMMY_DATA & (uint16_t)0x0FF);
 800303a:	687b      	ldr	r3, [r7, #4]
 800303c:	681b      	ldr	r3, [r3, #0]
 800303e:	22ff      	movs	r2, #255	; 0xff
 8003040:	605a      	str	r2, [r3, #4]
    }
    return HAL_OK;
 8003042:	2300      	movs	r3, #0
 8003044:	e000      	b.n	8003048 <USART_Receive_IT+0x104>
  }
  else
  {
    return HAL_BUSY;
 8003046:	2302      	movs	r3, #2
  }
}
 8003048:	4618      	mov	r0, r3
 800304a:	3710      	adds	r7, #16
 800304c:	46bd      	mov	sp, r7
 800304e:	bd80      	pop	{r7, pc}

08003050 <USART_TransmitReceive_IT>:
  * @param  husart Pointer to a USART_HandleTypeDef structure that contains
  *                the configuration information for the specified USART module.
  * @retval HAL status
  */
static HAL_StatusTypeDef USART_TransmitReceive_IT(USART_HandleTypeDef *husart)
{
 8003050:	b580      	push	{r7, lr}
 8003052:	b084      	sub	sp, #16
 8003054:	af00      	add	r7, sp, #0
 8003056:	6078      	str	r0, [r7, #4]
  uint8_t  *pdata8bits;
  uint16_t *pdata16bits;

  if (husart->State == HAL_USART_STATE_BUSY_TX_RX)
 8003058:	687b      	ldr	r3, [r7, #4]
 800305a:	f893 303d 	ldrb.w	r3, [r3, #61]	; 0x3d
 800305e:	b2db      	uxtb	r3, r3
 8003060:	2b32      	cmp	r3, #50	; 0x32
 8003062:	f040 80c4 	bne.w	80031ee <USART_TransmitReceive_IT+0x19e>
  {
    if (husart->TxXferCount != 0x00U)
 8003066:	687b      	ldr	r3, [r7, #4]
 8003068:	8d5b      	ldrh	r3, [r3, #42]	; 0x2a
 800306a:	b29b      	uxth	r3, r3
 800306c:	2b00      	cmp	r3, #0
 800306e:	d03f      	beq.n	80030f0 <USART_TransmitReceive_IT+0xa0>
    {
      if (__HAL_USART_GET_FLAG(husart, USART_FLAG_TXE) != RESET)
 8003070:	687b      	ldr	r3, [r7, #4]
 8003072:	681b      	ldr	r3, [r3, #0]
 8003074:	681b      	ldr	r3, [r3, #0]
 8003076:	f003 0380 	and.w	r3, r3, #128	; 0x80
 800307a:	2b80      	cmp	r3, #128	; 0x80
 800307c:	d138      	bne.n	80030f0 <USART_TransmitReceive_IT+0xa0>
      {
        if ((husart->Init.WordLength == USART_WORDLENGTH_9B) && (husart->Init.Parity == USART_PARITY_NONE))
 800307e:	687b      	ldr	r3, [r7, #4]
 8003080:	689b      	ldr	r3, [r3, #8]
 8003082:	f5b3 5f80 	cmp.w	r3, #4096	; 0x1000
 8003086:	d116      	bne.n	80030b6 <USART_TransmitReceive_IT+0x66>
 8003088:	687b      	ldr	r3, [r7, #4]
 800308a:	691b      	ldr	r3, [r3, #16]
 800308c:	2b00      	cmp	r3, #0
 800308e:	d112      	bne.n	80030b6 <USART_TransmitReceive_IT+0x66>
        {
          pdata8bits  = NULL;
 8003090:	2300      	movs	r3, #0
 8003092:	60fb      	str	r3, [r7, #12]
          pdata16bits = (uint16_t *) husart->pTxBuffPtr;
 8003094:	687b      	ldr	r3, [r7, #4]
 8003096:	6a5b      	ldr	r3, [r3, #36]	; 0x24
 8003098:	60bb      	str	r3, [r7, #8]
          husart->Instance->DR = (uint16_t)(*pdata16bits & (uint16_t)0x01FF);
 800309a:	68bb      	ldr	r3, [r7, #8]
 800309c:	881b      	ldrh	r3, [r3, #0]
 800309e:	461a      	mov	r2, r3
 80030a0:	687b      	ldr	r3, [r7, #4]
 80030a2:	681b      	ldr	r3, [r3, #0]
 80030a4:	f3c2 0208 	ubfx	r2, r2, #0, #9
 80030a8:	605a      	str	r2, [r3, #4]
          husart->pTxBuffPtr += 2U;
 80030aa:	687b      	ldr	r3, [r7, #4]
 80030ac:	6a5b      	ldr	r3, [r3, #36]	; 0x24
 80030ae:	1c9a      	adds	r2, r3, #2
 80030b0:	687b      	ldr	r3, [r7, #4]
 80030b2:	625a      	str	r2, [r3, #36]	; 0x24
 80030b4:	e008      	b.n	80030c8 <USART_TransmitReceive_IT+0x78>
        }
        else
        {
          husart->Instance->DR = (uint8_t)(*husart->pTxBuffPtr++ & (uint8_t)0x00FF);
 80030b6:	687b      	ldr	r3, [r7, #4]
 80030b8:	6a5b      	ldr	r3, [r3, #36]	; 0x24
 80030ba:	1c59      	adds	r1, r3, #1
 80030bc:	687a      	ldr	r2, [r7, #4]
 80030be:	6251      	str	r1, [r2, #36]	; 0x24
 80030c0:	781a      	ldrb	r2, [r3, #0]
 80030c2:	687b      	ldr	r3, [r7, #4]
 80030c4:	681b      	ldr	r3, [r3, #0]
 80030c6:	605a      	str	r2, [r3, #4]
        }

        husart->TxXferCount--;
 80030c8:	687b      	ldr	r3, [r7, #4]
 80030ca:	8d5b      	ldrh	r3, [r3, #42]	; 0x2a
 80030cc:	b29b      	uxth	r3, r3
 80030ce:	3b01      	subs	r3, #1
 80030d0:	b29a      	uxth	r2, r3
 80030d2:	687b      	ldr	r3, [r7, #4]
 80030d4:	855a      	strh	r2, [r3, #42]	; 0x2a

        /* Check the latest data transmitted */
        if (husart->TxXferCount == 0U)
 80030d6:	687b      	ldr	r3, [r7, #4]
 80030d8:	8d5b      	ldrh	r3, [r3, #42]	; 0x2a
 80030da:	b29b      	uxth	r3, r3
 80030dc:	2b00      	cmp	r3, #0
 80030de:	d107      	bne.n	80030f0 <USART_TransmitReceive_IT+0xa0>
        {
          CLEAR_BIT(husart->Instance->CR1, USART_CR1_TXEIE);
 80030e0:	687b      	ldr	r3, [r7, #4]
 80030e2:	681b      	ldr	r3, [r3, #0]
 80030e4:	68da      	ldr	r2, [r3, #12]
 80030e6:	687b      	ldr	r3, [r7, #4]
 80030e8:	681b      	ldr	r3, [r3, #0]
 80030ea:	f022 0280 	bic.w	r2, r2, #128	; 0x80
 80030ee:	60da      	str	r2, [r3, #12]
        }
      }
    }

    if (husart->RxXferCount != 0x00U)
 80030f0:	687b      	ldr	r3, [r7, #4]
 80030f2:	8e5b      	ldrh	r3, [r3, #50]	; 0x32
 80030f4:	b29b      	uxth	r3, r3
 80030f6:	2b00      	cmp	r3, #0
 80030f8:	d051      	beq.n	800319e <USART_TransmitReceive_IT+0x14e>
    {
      if (__HAL_USART_GET_FLAG(husart, USART_FLAG_RXNE) != RESET)
 80030fa:	687b      	ldr	r3, [r7, #4]
 80030fc:	681b      	ldr	r3, [r3, #0]
 80030fe:	681b      	ldr	r3, [r3, #0]
 8003100:	f003 0320 	and.w	r3, r3, #32
 8003104:	2b20      	cmp	r3, #32
 8003106:	d14a      	bne.n	800319e <USART_TransmitReceive_IT+0x14e>
      {
        if ((husart->Init.WordLength == USART_WORDLENGTH_9B) && (husart->Init.Parity == USART_PARITY_NONE))
 8003108:	687b      	ldr	r3, [r7, #4]
 800310a:	689b      	ldr	r3, [r3, #8]
 800310c:	f5b3 5f80 	cmp.w	r3, #4096	; 0x1000
 8003110:	d117      	bne.n	8003142 <USART_TransmitReceive_IT+0xf2>
 8003112:	687b      	ldr	r3, [r7, #4]
 8003114:	691b      	ldr	r3, [r3, #16]
 8003116:	2b00      	cmp	r3, #0
 8003118:	d113      	bne.n	8003142 <USART_TransmitReceive_IT+0xf2>
        {
           pdata8bits  = NULL;
 800311a:	2300      	movs	r3, #0
 800311c:	60fb      	str	r3, [r7, #12]
           pdata16bits = (uint16_t *) husart->pRxBuffPtr;
 800311e:	687b      	ldr	r3, [r7, #4]
 8003120:	6adb      	ldr	r3, [r3, #44]	; 0x2c
 8003122:	60bb      	str	r3, [r7, #8]
           *pdata16bits = (uint16_t)(husart->Instance->DR & (uint16_t)0x01FF);
 8003124:	687b      	ldr	r3, [r7, #4]
 8003126:	681b      	ldr	r3, [r3, #0]
 8003128:	685b      	ldr	r3, [r3, #4]
 800312a:	b29b      	uxth	r3, r3
 800312c:	f3c3 0308 	ubfx	r3, r3, #0, #9
 8003130:	b29a      	uxth	r2, r3
 8003132:	68bb      	ldr	r3, [r7, #8]
 8003134:	801a      	strh	r2, [r3, #0]
           husart->pRxBuffPtr += 2U;
 8003136:	687b      	ldr	r3, [r7, #4]
 8003138:	6adb      	ldr	r3, [r3, #44]	; 0x2c
 800313a:	1c9a      	adds	r2, r3, #2
 800313c:	687b      	ldr	r3, [r7, #4]
 800313e:	62da      	str	r2, [r3, #44]	; 0x2c
 8003140:	e026      	b.n	8003190 <USART_TransmitReceive_IT+0x140>
        }
        else
        {
          pdata8bits = (uint8_t *) husart->pRxBuffPtr;
 8003142:	687b      	ldr	r3, [r7, #4]
 8003144:	6adb      	ldr	r3, [r3, #44]	; 0x2c
 8003146:	60fb      	str	r3, [r7, #12]
          pdata16bits  = NULL;
 8003148:	2300      	movs	r3, #0
 800314a:	60bb      	str	r3, [r7, #8]
          if ((husart->Init.WordLength == USART_WORDLENGTH_9B) || ((husart->Init.WordLength == USART_WORDLENGTH_8B) && (husart->Init.Parity == USART_PARITY_NONE)))
 800314c:	687b      	ldr	r3, [r7, #4]
 800314e:	689b      	ldr	r3, [r3, #8]
 8003150:	f5b3 5f80 	cmp.w	r3, #4096	; 0x1000
 8003154:	d007      	beq.n	8003166 <USART_TransmitReceive_IT+0x116>
 8003156:	687b      	ldr	r3, [r7, #4]
 8003158:	689b      	ldr	r3, [r3, #8]
 800315a:	2b00      	cmp	r3, #0
 800315c:	d10a      	bne.n	8003174 <USART_TransmitReceive_IT+0x124>
 800315e:	687b      	ldr	r3, [r7, #4]
 8003160:	691b      	ldr	r3, [r3, #16]
 8003162:	2b00      	cmp	r3, #0
 8003164:	d106      	bne.n	8003174 <USART_TransmitReceive_IT+0x124>
          {
            *pdata8bits = (uint8_t)(husart->Instance->DR & (uint8_t)0x00FF);
 8003166:	687b      	ldr	r3, [r7, #4]
 8003168:	681b      	ldr	r3, [r3, #0]
 800316a:	685b      	ldr	r3, [r3, #4]
 800316c:	b2da      	uxtb	r2, r3
 800316e:	68fb      	ldr	r3, [r7, #12]
 8003170:	701a      	strb	r2, [r3, #0]
 8003172:	e008      	b.n	8003186 <USART_TransmitReceive_IT+0x136>
          }
          else
          {
            *pdata8bits = (uint8_t)(husart->Instance->DR & (uint8_t)0x007F);
 8003174:	687b      	ldr	r3, [r7, #4]
 8003176:	681b      	ldr	r3, [r3, #0]
 8003178:	685b      	ldr	r3, [r3, #4]
 800317a:	b2db      	uxtb	r3, r3
 800317c:	f003 037f 	and.w	r3, r3, #127	; 0x7f
 8003180:	b2da      	uxtb	r2, r3
 8003182:	68fb      	ldr	r3, [r7, #12]
 8003184:	701a      	strb	r2, [r3, #0]
          }
          husart->pRxBuffPtr += 1U;
 8003186:	687b      	ldr	r3, [r7, #4]
 8003188:	6adb      	ldr	r3, [r3, #44]	; 0x2c
 800318a:	1c5a      	adds	r2, r3, #1
 800318c:	687b      	ldr	r3, [r7, #4]
 800318e:	62da      	str	r2, [r3, #44]	; 0x2c
        }

        husart->RxXferCount--;
 8003190:	687b      	ldr	r3, [r7, #4]
 8003192:	8e5b      	ldrh	r3, [r3, #50]	; 0x32
 8003194:	b29b      	uxth	r3, r3
 8003196:	3b01      	subs	r3, #1
 8003198:	b29a      	uxth	r2, r3
 800319a:	687b      	ldr	r3, [r7, #4]
 800319c:	865a      	strh	r2, [r3, #50]	; 0x32
      }
    }

    /* Check the latest data received */
    if (husart->RxXferCount == 0U)
 800319e:	687b      	ldr	r3, [r7, #4]
 80031a0:	8e5b      	ldrh	r3, [r3, #50]	; 0x32
 80031a2:	b29b      	uxth	r3, r3
 80031a4:	2b00      	cmp	r3, #0
 80031a6:	d120      	bne.n	80031ea <USART_TransmitReceive_IT+0x19a>
    {
      /* Disable the USART RXNE Interrupt */
      CLEAR_BIT(husart->Instance->CR1, USART_CR1_RXNEIE);
 80031a8:	687b      	ldr	r3, [r7, #4]
 80031aa:	681b      	ldr	r3, [r3, #0]
 80031ac:	68da      	ldr	r2, [r3, #12]
 80031ae:	687b      	ldr	r3, [r7, #4]
 80031b0:	681b      	ldr	r3, [r3, #0]
 80031b2:	f022 0220 	bic.w	r2, r2, #32
 80031b6:	60da      	str	r2, [r3, #12]

      /* Disable the USART Parity Error Interrupt */
      CLEAR_BIT(husart->Instance->CR1, USART_CR1_PEIE);
 80031b8:	687b      	ldr	r3, [r7, #4]
 80031ba:	681b      	ldr	r3, [r3, #0]
 80031bc:	68da      	ldr	r2, [r3, #12]
 80031be:	687b      	ldr	r3, [r7, #4]
 80031c0:	681b      	ldr	r3, [r3, #0]
 80031c2:	f422 7280 	bic.w	r2, r2, #256	; 0x100
 80031c6:	60da      	str	r2, [r3, #12]

      /* Disable the USART Error Interrupt: (Frame error, noise error, overrun error) */
      CLEAR_BIT(husart->Instance->CR3, USART_CR3_EIE);
 80031c8:	687b      	ldr	r3, [r7, #4]
 80031ca:	681b      	ldr	r3, [r3, #0]
 80031cc:	695a      	ldr	r2, [r3, #20]
 80031ce:	687b      	ldr	r3, [r7, #4]
 80031d0:	681b      	ldr	r3, [r3, #0]
 80031d2:	f022 0201 	bic.w	r2, r2, #1
 80031d6:	615a      	str	r2, [r3, #20]

      husart->State = HAL_USART_STATE_READY;
 80031d8:	687b      	ldr	r3, [r7, #4]
 80031da:	2201      	movs	r2, #1
 80031dc:	f883 203d 	strb.w	r2, [r3, #61]	; 0x3d
#if (USE_HAL_USART_REGISTER_CALLBACKS == 1)
      /* Call registered Tx Rx Complete Callback */
      husart->TxRxCpltCallback(husart);
#else
      /* Call legacy weak Tx Rx Complete Callback */
      HAL_USART_TxRxCpltCallback(husart);
 80031e0:	6878      	ldr	r0, [r7, #4]
 80031e2:	f7ff fdfd 	bl	8002de0 <HAL_USART_TxRxCpltCallback>
#endif /* USE_HAL_USART_REGISTER_CALLBACKS */

      return HAL_OK;
 80031e6:	2300      	movs	r3, #0
 80031e8:	e002      	b.n	80031f0 <USART_TransmitReceive_IT+0x1a0>
    }

    return HAL_OK;
 80031ea:	2300      	movs	r3, #0
 80031ec:	e000      	b.n	80031f0 <USART_TransmitReceive_IT+0x1a0>
  }
  else
  {
    return HAL_BUSY;
 80031ee:	2302      	movs	r3, #2
  }
}
 80031f0:	4618      	mov	r0, r3
 80031f2:	3710      	adds	r7, #16
 80031f4:	46bd      	mov	sp, r7
 80031f6:	bd80      	pop	{r7, pc}

080031f8 <USART_SetConfig>:
  * @param  husart Pointer to a USART_HandleTypeDef structure that contains
  *                the configuration information for the specified USART module.
  * @retval None
  */
static void USART_SetConfig(USART_HandleTypeDef *husart)
{
 80031f8:	b580      	push	{r7, lr}
 80031fa:	b084      	sub	sp, #16
 80031fc:	af00      	add	r7, sp, #0
 80031fe:	6078      	str	r0, [r7, #4]
  uint32_t tmpreg = 0x00U;
 8003200:	2300      	movs	r3, #0
 8003202:	60fb      	str	r3, [r7, #12]
  assert_param(IS_USART_PARITY(husart->Init.Parity));
  assert_param(IS_USART_MODE(husart->Init.Mode));

  /* The LBCL, CPOL and CPHA bits have to be selected when both the transmitter and the
     receiver are disabled (TE=RE=0) to ensure that the clock pulses function correctly. */
  CLEAR_BIT(husart->Instance->CR1, (USART_CR1_TE | USART_CR1_RE));
 8003204:	687b      	ldr	r3, [r7, #4]
 8003206:	681b      	ldr	r3, [r3, #0]
 8003208:	68da      	ldr	r2, [r3, #12]
 800320a:	687b      	ldr	r3, [r7, #4]
 800320c:	681b      	ldr	r3, [r3, #0]
 800320e:	f022 020c 	bic.w	r2, r2, #12
 8003212:	60da      	str	r2, [r3, #12]

  /*---------------------------- USART CR2 Configuration ---------------------*/
  tmpreg = husart->Instance->CR2;
 8003214:	687b      	ldr	r3, [r7, #4]
 8003216:	681b      	ldr	r3, [r3, #0]
 8003218:	691b      	ldr	r3, [r3, #16]
 800321a:	60fb      	str	r3, [r7, #12]
  /* Clear CLKEN, CPOL, CPHA and LBCL bits */
  tmpreg &= (uint32_t)~((uint32_t)(USART_CR2_CPHA | USART_CR2_CPOL | USART_CR2_CLKEN | USART_CR2_LBCL | USART_CR2_STOP));
 800321c:	68fb      	ldr	r3, [r7, #12]
 800321e:	f423 537c 	bic.w	r3, r3, #16128	; 0x3f00
 8003222:	60fb      	str	r3, [r7, #12]
  /* Configure the USART Clock, CPOL, CPHA and LastBit -----------------------*/
  /* Set CPOL bit according to husart->Init.CLKPolarity value */
  /* Set CPHA bit according to husart->Init.CLKPhase value */
  /* Set LBCL bit according to husart->Init.CLKLastBit value */
  /* Set Stop Bits: Set STOP[13:12] bits according to husart->Init.StopBits value */
  tmpreg |= (uint32_t)(USART_CLOCK_ENABLE | husart->Init.CLKPolarity |
 8003224:	687b      	ldr	r3, [r7, #4]
 8003226:	699a      	ldr	r2, [r3, #24]
                       husart->Init.CLKPhase | husart->Init.CLKLastBit | husart->Init.StopBits);
 8003228:	687b      	ldr	r3, [r7, #4]
 800322a:	69db      	ldr	r3, [r3, #28]
  tmpreg |= (uint32_t)(USART_CLOCK_ENABLE | husart->Init.CLKPolarity |
 800322c:	431a      	orrs	r2, r3
                       husart->Init.CLKPhase | husart->Init.CLKLastBit | husart->Init.StopBits);
 800322e:	687b      	ldr	r3, [r7, #4]
 8003230:	6a1b      	ldr	r3, [r3, #32]
 8003232:	431a      	orrs	r2, r3
 8003234:	687b      	ldr	r3, [r7, #4]
 8003236:	68db      	ldr	r3, [r3, #12]
  tmpreg |= (uint32_t)(USART_CLOCK_ENABLE | husart->Init.CLKPolarity |
 8003238:	431a      	orrs	r2, r3
 800323a:	68fb      	ldr	r3, [r7, #12]
 800323c:	4313      	orrs	r3, r2
 800323e:	f443 6300 	orr.w	r3, r3, #2048	; 0x800
 8003242:	60fb      	str	r3, [r7, #12]
  /* Write to USART CR2 */
  WRITE_REG(husart->Instance->CR2, (uint32_t)tmpreg);
 8003244:	687b      	ldr	r3, [r7, #4]
 8003246:	681b      	ldr	r3, [r3, #0]
 8003248:	68fa      	ldr	r2, [r7, #12]
 800324a:	611a      	str	r2, [r3, #16]

  /*-------------------------- USART CR1 Configuration -----------------------*/
  tmpreg = husart->Instance->CR1;
 800324c:	687b      	ldr	r3, [r7, #4]
 800324e:	681b      	ldr	r3, [r3, #0]
 8003250:	68db      	ldr	r3, [r3, #12]
 8003252:	60fb      	str	r3, [r7, #12]

  /* Clear M, PCE, PS, TE and RE bits */
  tmpreg &= (uint32_t)~((uint32_t)(USART_CR1_M | USART_CR1_PCE | USART_CR1_PS | USART_CR1_TE | USART_CR1_RE));
 8003254:	68fb      	ldr	r3, [r7, #12]
 8003256:	f423 53b0 	bic.w	r3, r3, #5632	; 0x1600
 800325a:	f023 030c 	bic.w	r3, r3, #12
 800325e:	60fb      	str	r3, [r7, #12]
  /* Configure the USART Word Length, Parity and mode:
     Set the M bits according to husart->Init.WordLength value
     Set PCE and PS bits according to husart->Init.Parity value
     Set TE and RE bits according to husart->Init.Mode value
   */
  tmpreg |= (uint32_t)husart->Init.WordLength | husart->Init.Parity | husart->Init.Mode;
 8003260:	687b      	ldr	r3, [r7, #4]
 8003262:	689a      	ldr	r2, [r3, #8]
 8003264:	687b      	ldr	r3, [r7, #4]
 8003266:	691b      	ldr	r3, [r3, #16]
 8003268:	431a      	orrs	r2, r3
 800326a:	687b      	ldr	r3, [r7, #4]
 800326c:	695b      	ldr	r3, [r3, #20]
 800326e:	4313      	orrs	r3, r2
 8003270:	68fa      	ldr	r2, [r7, #12]
 8003272:	4313      	orrs	r3, r2
 8003274:	60fb      	str	r3, [r7, #12]

  /* Write to USART CR1 */
  WRITE_REG(husart->Instance->CR1, (uint32_t)tmpreg);
 8003276:	687b      	ldr	r3, [r7, #4]
 8003278:	681b      	ldr	r3, [r3, #0]
 800327a:	68fa      	ldr	r2, [r7, #12]
 800327c:	60da      	str	r2, [r3, #12]

  /*-------------------------- USART CR3 Configuration -----------------------*/
  /* Clear CTSE and RTSE bits */
  CLEAR_BIT(husart->Instance->CR3, (USART_CR3_RTSE | USART_CR3_CTSE));
 800327e:	687b      	ldr	r3, [r7, #4]
 8003280:	681b      	ldr	r3, [r3, #0]
 8003282:	695a      	ldr	r2, [r3, #20]
 8003284:	687b      	ldr	r3, [r7, #4]
 8003286:	681b      	ldr	r3, [r3, #0]
 8003288:	f422 7240 	bic.w	r2, r2, #768	; 0x300
 800328c:	615a      	str	r2, [r3, #20]

  /*-------------------------- USART BRR Configuration -----------------------*/
  if((husart->Instance == USART1))
 800328e:	687b      	ldr	r3, [r7, #4]
 8003290:	681b      	ldr	r3, [r3, #0]
 8003292:	4a53      	ldr	r2, [pc, #332]	; (80033e0 <USART_SetConfig+0x1e8>)
 8003294:	4293      	cmp	r3, r2
 8003296:	d14f      	bne.n	8003338 <USART_SetConfig+0x140>
  {
    pclk = HAL_RCC_GetPCLK2Freq();
 8003298:	f7ff fbfe 	bl	8002a98 <HAL_RCC_GetPCLK2Freq>
 800329c:	60b8      	str	r0, [r7, #8]
    husart->Instance->BRR = USART_BRR(pclk, husart->Init.BaudRate);
 800329e:	68ba      	ldr	r2, [r7, #8]
 80032a0:	4613      	mov	r3, r2
 80032a2:	009b      	lsls	r3, r3, #2
 80032a4:	4413      	add	r3, r2
 80032a6:	009a      	lsls	r2, r3, #2
 80032a8:	441a      	add	r2, r3
 80032aa:	687b      	ldr	r3, [r7, #4]
 80032ac:	685b      	ldr	r3, [r3, #4]
 80032ae:	009b      	lsls	r3, r3, #2
 80032b0:	fbb2 f3f3 	udiv	r3, r2, r3
 80032b4:	4a4b      	ldr	r2, [pc, #300]	; (80033e4 <USART_SetConfig+0x1ec>)
 80032b6:	fba2 2303 	umull	r2, r3, r2, r3
 80032ba:	095b      	lsrs	r3, r3, #5
 80032bc:	0119      	lsls	r1, r3, #4
 80032be:	68ba      	ldr	r2, [r7, #8]
 80032c0:	4613      	mov	r3, r2
 80032c2:	009b      	lsls	r3, r3, #2
 80032c4:	4413      	add	r3, r2
 80032c6:	009a      	lsls	r2, r3, #2
 80032c8:	441a      	add	r2, r3
 80032ca:	687b      	ldr	r3, [r7, #4]
 80032cc:	685b      	ldr	r3, [r3, #4]
 80032ce:	009b      	lsls	r3, r3, #2
 80032d0:	fbb2 f2f3 	udiv	r2, r2, r3
 80032d4:	4b43      	ldr	r3, [pc, #268]	; (80033e4 <USART_SetConfig+0x1ec>)
 80032d6:	fba3 0302 	umull	r0, r3, r3, r2
 80032da:	095b      	lsrs	r3, r3, #5
 80032dc:	2064      	movs	r0, #100	; 0x64
 80032de:	fb00 f303 	mul.w	r3, r0, r3
 80032e2:	1ad3      	subs	r3, r2, r3
 80032e4:	011b      	lsls	r3, r3, #4
 80032e6:	3332      	adds	r3, #50	; 0x32
 80032e8:	4a3e      	ldr	r2, [pc, #248]	; (80033e4 <USART_SetConfig+0x1ec>)
 80032ea:	fba2 2303 	umull	r2, r3, r2, r3
 80032ee:	095b      	lsrs	r3, r3, #5
 80032f0:	005b      	lsls	r3, r3, #1
 80032f2:	f403 73f0 	and.w	r3, r3, #480	; 0x1e0
 80032f6:	4419      	add	r1, r3
 80032f8:	68ba      	ldr	r2, [r7, #8]
 80032fa:	4613      	mov	r3, r2
 80032fc:	009b      	lsls	r3, r3, #2
 80032fe:	4413      	add	r3, r2
 8003300:	009a      	lsls	r2, r3, #2
 8003302:	441a      	add	r2, r3
 8003304:	687b      	ldr	r3, [r7, #4]
 8003306:	685b      	ldr	r3, [r3, #4]
 8003308:	009b      	lsls	r3, r3, #2
 800330a:	fbb2 f2f3 	udiv	r2, r2, r3
 800330e:	4b35      	ldr	r3, [pc, #212]	; (80033e4 <USART_SetConfig+0x1ec>)
 8003310:	fba3 0302 	umull	r0, r3, r3, r2
 8003314:	095b      	lsrs	r3, r3, #5
 8003316:	2064      	movs	r0, #100	; 0x64
 8003318:	fb00 f303 	mul.w	r3, r0, r3
 800331c:	1ad3      	subs	r3, r2, r3
 800331e:	011b      	lsls	r3, r3, #4
 8003320:	3332      	adds	r3, #50	; 0x32
 8003322:	4a30      	ldr	r2, [pc, #192]	; (80033e4 <USART_SetConfig+0x1ec>)
 8003324:	fba2 2303 	umull	r2, r3, r2, r3
 8003328:	095b      	lsrs	r3, r3, #5
 800332a:	f003 020f 	and.w	r2, r3, #15
 800332e:	687b      	ldr	r3, [r7, #4]
 8003330:	681b      	ldr	r3, [r3, #0]
 8003332:	440a      	add	r2, r1
 8003334:	609a      	str	r2, [r3, #8]
  else
  {
    pclk = HAL_RCC_GetPCLK1Freq();
    husart->Instance->BRR = USART_BRR(pclk, husart->Init.BaudRate);
  }
}
 8003336:	e04e      	b.n	80033d6 <USART_SetConfig+0x1de>
    pclk = HAL_RCC_GetPCLK1Freq();
 8003338:	f7ff fb9a 	bl	8002a70 <HAL_RCC_GetPCLK1Freq>
 800333c:	60b8      	str	r0, [r7, #8]
    husart->Instance->BRR = USART_BRR(pclk, husart->Init.BaudRate);
 800333e:	68ba      	ldr	r2, [r7, #8]
 8003340:	4613      	mov	r3, r2
 8003342:	009b      	lsls	r3, r3, #2
 8003344:	4413      	add	r3, r2
 8003346:	009a      	lsls	r2, r3, #2
 8003348:	441a      	add	r2, r3
 800334a:	687b      	ldr	r3, [r7, #4]
 800334c:	685b      	ldr	r3, [r3, #4]
 800334e:	009b      	lsls	r3, r3, #2
 8003350:	fbb2 f3f3 	udiv	r3, r2, r3
 8003354:	4a23      	ldr	r2, [pc, #140]	; (80033e4 <USART_SetConfig+0x1ec>)
 8003356:	fba2 2303 	umull	r2, r3, r2, r3
 800335a:	095b      	lsrs	r3, r3, #5
 800335c:	0119      	lsls	r1, r3, #4
 800335e:	68ba      	ldr	r2, [r7, #8]
 8003360:	4613      	mov	r3, r2
 8003362:	009b      	lsls	r3, r3, #2
 8003364:	4413      	add	r3, r2
 8003366:	009a      	lsls	r2, r3, #2
 8003368:	441a      	add	r2, r3
 800336a:	687b      	ldr	r3, [r7, #4]
 800336c:	685b      	ldr	r3, [r3, #4]
 800336e:	009b      	lsls	r3, r3, #2
 8003370:	fbb2 f2f3 	udiv	r2, r2, r3
 8003374:	4b1b      	ldr	r3, [pc, #108]	; (80033e4 <USART_SetConfig+0x1ec>)
 8003376:	fba3 0302 	umull	r0, r3, r3, r2
 800337a:	095b      	lsrs	r3, r3, #5
 800337c:	2064      	movs	r0, #100	; 0x64
 800337e:	fb00 f303 	mul.w	r3, r0, r3
 8003382:	1ad3      	subs	r3, r2, r3
 8003384:	011b      	lsls	r3, r3, #4
 8003386:	3332      	adds	r3, #50	; 0x32
 8003388:	4a16      	ldr	r2, [pc, #88]	; (80033e4 <USART_SetConfig+0x1ec>)
 800338a:	fba2 2303 	umull	r2, r3, r2, r3
 800338e:	095b      	lsrs	r3, r3, #5
 8003390:	005b      	lsls	r3, r3, #1
 8003392:	f403 73f0 	and.w	r3, r3, #480	; 0x1e0
 8003396:	4419      	add	r1, r3
 8003398:	68ba      	ldr	r2, [r7, #8]
 800339a:	4613      	mov	r3, r2
 800339c:	009b      	lsls	r3, r3, #2
 800339e:	4413      	add	r3, r2
 80033a0:	009a      	lsls	r2, r3, #2
 80033a2:	441a      	add	r2, r3
 80033a4:	687b      	ldr	r3, [r7, #4]
 80033a6:	685b      	ldr	r3, [r3, #4]
 80033a8:	009b      	lsls	r3, r3, #2
 80033aa:	fbb2 f2f3 	udiv	r2, r2, r3
 80033ae:	4b0d      	ldr	r3, [pc, #52]	; (80033e4 <USART_SetConfig+0x1ec>)
 80033b0:	fba3 0302 	umull	r0, r3, r3, r2
 80033b4:	095b      	lsrs	r3, r3, #5
 80033b6:	2064      	movs	r0, #100	; 0x64
 80033b8:	fb00 f303 	mul.w	r3, r0, r3
 80033bc:	1ad3      	subs	r3, r2, r3
 80033be:	011b      	lsls	r3, r3, #4
 80033c0:	3332      	adds	r3, #50	; 0x32
 80033c2:	4a08      	ldr	r2, [pc, #32]	; (80033e4 <USART_SetConfig+0x1ec>)
 80033c4:	fba2 2303 	umull	r2, r3, r2, r3
 80033c8:	095b      	lsrs	r3, r3, #5
 80033ca:	f003 020f 	and.w	r2, r3, #15
 80033ce:	687b      	ldr	r3, [r7, #4]
 80033d0:	681b      	ldr	r3, [r3, #0]
 80033d2:	440a      	add	r2, r1
 80033d4:	609a      	str	r2, [r3, #8]
}
 80033d6:	bf00      	nop
 80033d8:	3710      	adds	r7, #16
 80033da:	46bd      	mov	sp, r7
 80033dc:	bd80      	pop	{r7, pc}
 80033de:	bf00      	nop
 80033e0:	40013800 	.word	0x40013800
 80033e4:	51eb851f 	.word	0x51eb851f

080033e8 <__libc_init_array>:
 80033e8:	b570      	push	{r4, r5, r6, lr}
 80033ea:	2600      	movs	r6, #0
 80033ec:	4d0c      	ldr	r5, [pc, #48]	; (8003420 <__libc_init_array+0x38>)
 80033ee:	4c0d      	ldr	r4, [pc, #52]	; (8003424 <__libc_init_array+0x3c>)
 80033f0:	1b64      	subs	r4, r4, r5
 80033f2:	10a4      	asrs	r4, r4, #2
 80033f4:	42a6      	cmp	r6, r4
 80033f6:	d109      	bne.n	800340c <__libc_init_array+0x24>
 80033f8:	f000 f822 	bl	8003440 <_init>
 80033fc:	2600      	movs	r6, #0
 80033fe:	4d0a      	ldr	r5, [pc, #40]	; (8003428 <__libc_init_array+0x40>)
 8003400:	4c0a      	ldr	r4, [pc, #40]	; (800342c <__libc_init_array+0x44>)
 8003402:	1b64      	subs	r4, r4, r5
 8003404:	10a4      	asrs	r4, r4, #2
 8003406:	42a6      	cmp	r6, r4
 8003408:	d105      	bne.n	8003416 <__libc_init_array+0x2e>
 800340a:	bd70      	pop	{r4, r5, r6, pc}
 800340c:	f855 3b04 	ldr.w	r3, [r5], #4
 8003410:	4798      	blx	r3
 8003412:	3601      	adds	r6, #1
 8003414:	e7ee      	b.n	80033f4 <__libc_init_array+0xc>
 8003416:	f855 3b04 	ldr.w	r3, [r5], #4
 800341a:	4798      	blx	r3
 800341c:	3601      	adds	r6, #1
 800341e:	e7f2      	b.n	8003406 <__libc_init_array+0x1e>
 8003420:	08003804 	.word	0x08003804
 8003424:	08003804 	.word	0x08003804
 8003428:	08003804 	.word	0x08003804
 800342c:	08003808 	.word	0x08003808

08003430 <memset>:
 8003430:	4603      	mov	r3, r0
 8003432:	4402      	add	r2, r0
 8003434:	4293      	cmp	r3, r2
 8003436:	d100      	bne.n	800343a <memset+0xa>
 8003438:	4770      	bx	lr
 800343a:	f803 1b01 	strb.w	r1, [r3], #1
 800343e:	e7f9      	b.n	8003434 <memset+0x4>

08003440 <_init>:
 8003440:	b5f8      	push	{r3, r4, r5, r6, r7, lr}
 8003442:	bf00      	nop
 8003444:	bcf8      	pop	{r3, r4, r5, r6, r7}
 8003446:	bc08      	pop	{r3}
 8003448:	469e      	mov	lr, r3
 800344a:	4770      	bx	lr

0800344c <_fini>:
 800344c:	b5f8      	push	{r3, r4, r5, r6, r7, lr}
 800344e:	bf00      	nop
 8003450:	bcf8      	pop	{r3, r4, r5, r6, r7}
 8003452:	bc08      	pop	{r3}
 8003454:	469e      	mov	lr, r3
 8003456:	4770      	bx	lr
