
Encrypt_M3.elf:     file format elf32-littlearm

Sections:
Idx Name          Size      VMA       LMA       File off  Algn
  0 .isr_vector   0000010c  08000000  08000000  00010000  2**0
                  CONTENTS, ALLOC, LOAD, READONLY, DATA
  1 .text         00003e78  0800010c  0800010c  0001010c  2**2
                  CONTENTS, ALLOC, LOAD, READONLY, CODE
  2 .rodata       000001e8  08003f84  08003f84  00013f84  2**2
                  CONTENTS, ALLOC, LOAD, READONLY, DATA
  3 .ARM.extab    00000000  0800416c  0800416c  0002005c  2**0
                  CONTENTS
  4 .ARM          00000000  0800416c  0800416c  0002005c  2**0
                  CONTENTS
  5 .preinit_array 00000000  0800416c  0800416c  0002005c  2**0
                  CONTENTS, ALLOC, LOAD, DATA
  6 .init_array   00000004  0800416c  0800416c  0001416c  2**2
                  CONTENTS, ALLOC, LOAD, DATA
  7 .fini_array   00000004  08004170  08004170  00014170  2**2
                  CONTENTS, ALLOC, LOAD, DATA
  8 .data         0000005c  20000000  08004174  00020000  2**2
                  CONTENTS, ALLOC, LOAD, DATA
  9 .bss          00000204  2000005c  080041d0  0002005c  2**2
                  ALLOC
 10 ._user_heap_stack 00000600  20000260  080041d0  00020260  2**0
                  ALLOC
 11 .ARM.attributes 00000029  00000000  00000000  0002005c  2**0
                  CONTENTS, READONLY
 12 .comment      00000043  00000000  00000000  00020085  2**0
                  CONTENTS, READONLY
 13 .debug_info   00009642  00000000  00000000  000200c8  2**0
                  CONTENTS, READONLY, DEBUGGING, OCTETS
 14 .debug_abbrev 00001c8f  00000000  00000000  0002970a  2**0
                  CONTENTS, READONLY, DEBUGGING, OCTETS
 15 .debug_aranges 000009f0  00000000  00000000  0002b3a0  2**3
                  CONTENTS, READONLY, DEBUGGING, OCTETS
 16 .debug_rnglists 000007ae  00000000  00000000  0002bd90  2**0
                  CONTENTS, READONLY, DEBUGGING, OCTETS
 17 .debug_macro  000175d4  00000000  00000000  0002c53e  2**0
                  CONTENTS, READONLY, DEBUGGING, OCTETS
 18 .debug_line   0000cbd7  00000000  00000000  00043b12  2**0
                  CONTENTS, READONLY, DEBUGGING, OCTETS
 19 .debug_str    00084211  00000000  00000000  000506e9  2**0
                  CONTENTS, READONLY, DEBUGGING, OCTETS
 20 .debug_frame  00002bc8  00000000  00000000  000d48fc  2**2
                  CONTENTS, READONLY, DEBUGGING, OCTETS
 21 .debug_line_str 0000006e  00000000  00000000  000d74c4  2**0
                  CONTENTS, READONLY, DEBUGGING, OCTETS

Disassembly of section .text:

0800010c <__do_global_dtors_aux>:
 800010c:	b510      	push	{r4, lr}
 800010e:	4c05      	ldr	r4, [pc, #20]	; (8000124 <__do_global_dtors_aux+0x18>)
 8000110:	7823      	ldrb	r3, [r4, #0]
 8000112:	b933      	cbnz	r3, 8000122 <__do_global_dtors_aux+0x16>
 8000114:	4b04      	ldr	r3, [pc, #16]	; (8000128 <__do_global_dtors_aux+0x1c>)
 8000116:	b113      	cbz	r3, 800011e <__do_global_dtors_aux+0x12>
 8000118:	4804      	ldr	r0, [pc, #16]	; (800012c <__do_global_dtors_aux+0x20>)
 800011a:	f3af 8000 	nop.w
 800011e:	2301      	movs	r3, #1
 8000120:	7023      	strb	r3, [r4, #0]
 8000122:	bd10      	pop	{r4, pc}
 8000124:	2000005c 	.word	0x2000005c
 8000128:	00000000 	.word	0x00000000
 800012c:	08003f6c 	.word	0x08003f6c

08000130 <frame_dummy>:
 8000130:	b508      	push	{r3, lr}
 8000132:	4b03      	ldr	r3, [pc, #12]	; (8000140 <frame_dummy+0x10>)
 8000134:	b11b      	cbz	r3, 800013e <frame_dummy+0xe>
 8000136:	4903      	ldr	r1, [pc, #12]	; (8000144 <frame_dummy+0x14>)
 8000138:	4803      	ldr	r0, [pc, #12]	; (8000148 <frame_dummy+0x18>)
 800013a:	f3af 8000 	nop.w
 800013e:	bd08      	pop	{r3, pc}
 8000140:	00000000 	.word	0x00000000
 8000144:	20000060 	.word	0x20000060
 8000148:	08003f6c 	.word	0x08003f6c

0800014c <atCRC>:
uint8_t CRC_LSB = 0x00;
uint8_t CRC_MSB = 0x00;


void atCRC(uint8_t *data, uint8_t size, uint8_t *crc_le)
{
 800014c:	b480      	push	{r7}
 800014e:	b089      	sub	sp, #36	; 0x24
 8000150:	af00      	add	r7, sp, #0
 8000152:	60f8      	str	r0, [r7, #12]
 8000154:	460b      	mov	r3, r1
 8000156:	607a      	str	r2, [r7, #4]
 8000158:	72fb      	strb	r3, [r7, #11]
    uint8_t counter;
    uint16_t crc_register = 0;
 800015a:	2300      	movs	r3, #0
 800015c:	83bb      	strh	r3, [r7, #28]
    uint16_t polynom = 0x8005;
 800015e:	f248 0305 	movw	r3, #32773	; 0x8005
 8000162:	833b      	strh	r3, [r7, #24]
    uint8_t shift_register;
    uint8_t data_bit, crc_bit;

    for (counter = 1; counter < (size - 2); counter++)
 8000164:	2301      	movs	r3, #1
 8000166:	77fb      	strb	r3, [r7, #31]
 8000168:	e027      	b.n	80001ba <atCRC+0x6e>
    {
        for (shift_register = 0x01; shift_register > 0x00; shift_register <<= 1)
 800016a:	2301      	movs	r3, #1
 800016c:	76fb      	strb	r3, [r7, #27]
 800016e:	e01e      	b.n	80001ae <atCRC+0x62>
        {
            data_bit = (data[counter] & shift_register) ? 1 : 0;
 8000170:	7ffb      	ldrb	r3, [r7, #31]
 8000172:	68fa      	ldr	r2, [r7, #12]
 8000174:	4413      	add	r3, r2
 8000176:	781a      	ldrb	r2, [r3, #0]
 8000178:	7efb      	ldrb	r3, [r7, #27]
 800017a:	4013      	ands	r3, r2
 800017c:	b2db      	uxtb	r3, r3
 800017e:	2b00      	cmp	r3, #0
 8000180:	bf14      	ite	ne
 8000182:	2301      	movne	r3, #1
 8000184:	2300      	moveq	r3, #0
 8000186:	b2db      	uxtb	r3, r3
 8000188:	75fb      	strb	r3, [r7, #23]
            crc_bit = crc_register >> 15;
 800018a:	8bbb      	ldrh	r3, [r7, #28]
 800018c:	0bdb      	lsrs	r3, r3, #15
 800018e:	b29b      	uxth	r3, r3
 8000190:	75bb      	strb	r3, [r7, #22]
            crc_register <<= 1;
 8000192:	8bbb      	ldrh	r3, [r7, #28]
 8000194:	005b      	lsls	r3, r3, #1
 8000196:	83bb      	strh	r3, [r7, #28]
            if (data_bit != crc_bit)
 8000198:	7dfa      	ldrb	r2, [r7, #23]
 800019a:	7dbb      	ldrb	r3, [r7, #22]
 800019c:	429a      	cmp	r2, r3
 800019e:	d003      	beq.n	80001a8 <atCRC+0x5c>
            {
                crc_register ^= polynom;
 80001a0:	8bba      	ldrh	r2, [r7, #28]
 80001a2:	8b3b      	ldrh	r3, [r7, #24]
 80001a4:	4053      	eors	r3, r2
 80001a6:	83bb      	strh	r3, [r7, #28]
        for (shift_register = 0x01; shift_register > 0x00; shift_register <<= 1)
 80001a8:	7efb      	ldrb	r3, [r7, #27]
 80001aa:	005b      	lsls	r3, r3, #1
 80001ac:	76fb      	strb	r3, [r7, #27]
 80001ae:	7efb      	ldrb	r3, [r7, #27]
 80001b0:	2b00      	cmp	r3, #0
 80001b2:	d1dd      	bne.n	8000170 <atCRC+0x24>
    for (counter = 1; counter < (size - 2); counter++)
 80001b4:	7ffb      	ldrb	r3, [r7, #31]
 80001b6:	3301      	adds	r3, #1
 80001b8:	77fb      	strb	r3, [r7, #31]
 80001ba:	7ffa      	ldrb	r2, [r7, #31]
 80001bc:	7afb      	ldrb	r3, [r7, #11]
 80001be:	3b02      	subs	r3, #2
 80001c0:	429a      	cmp	r2, r3
 80001c2:	dbd2      	blt.n	800016a <atCRC+0x1e>
            }
        }
    }
    crc_le[0] = (uint8_t)(crc_register & 0x00FF);
 80001c4:	8bbb      	ldrh	r3, [r7, #28]
 80001c6:	b2da      	uxtb	r2, r3
 80001c8:	687b      	ldr	r3, [r7, #4]
 80001ca:	701a      	strb	r2, [r3, #0]
    crc_le[1] = (uint8_t)(crc_register >> 8);
 80001cc:	8bbb      	ldrh	r3, [r7, #28]
 80001ce:	0a1b      	lsrs	r3, r3, #8
 80001d0:	b29a      	uxth	r2, r3
 80001d2:	687b      	ldr	r3, [r7, #4]
 80001d4:	3301      	adds	r3, #1
 80001d6:	b2d2      	uxtb	r2, r2
 80001d8:	701a      	strb	r2, [r3, #0]
}
 80001da:	bf00      	nop
 80001dc:	3724      	adds	r7, #36	; 0x24
 80001de:	46bd      	mov	sp, r7
 80001e0:	bc80      	pop	{r7}
 80001e2:	4770      	bx	lr

080001e4 <WakeUp>:


void WakeUp(uint8_t *receiv){
 80001e4:	b580      	push	{r7, lr}
 80001e6:	b086      	sub	sp, #24
 80001e8:	af02      	add	r7, sp, #8
 80001ea:	6078      	str	r0, [r7, #4]

	uint8_t data = 0;
 80001ec:	2300      	movs	r3, #0
 80001ee:	73fb      	strb	r3, [r7, #15]

	HAL_I2C_Master_Receive(&hi2c2, 0xFE, &data, sizeof(data), 1000);
 80001f0:	f107 020f 	add.w	r2, r7, #15
 80001f4:	f44f 737a 	mov.w	r3, #1000	; 0x3e8
 80001f8:	9300      	str	r3, [sp, #0]
 80001fa:	2301      	movs	r3, #1
 80001fc:	21fe      	movs	r1, #254	; 0xfe
 80001fe:	4818      	ldr	r0, [pc, #96]	; (8000260 <WakeUp+0x7c>)
 8000200:	f001 ff50 	bl	80020a4 <HAL_I2C_Master_Receive>
	HAL_Delay(5); // 2.5 ms para acordar; 45 ms para entrar em sleep
 8000204:	2005      	movs	r0, #5
 8000206:	f001 f9df 	bl	80015c8 <HAL_Delay>
	// first read: 0 byte read - should receive an ACK

	HAL_I2C_Master_Receive(&hi2c2, I2C_ADDRESS, &data, 1, 1000);
 800020a:	f107 020f 	add.w	r2, r7, #15
 800020e:	f44f 737a 	mov.w	r3, #1000	; 0x3e8
 8000212:	9300      	str	r3, [sp, #0]
 8000214:	2301      	movs	r3, #1
 8000216:	21c8      	movs	r1, #200	; 0xc8
 8000218:	4811      	ldr	r0, [pc, #68]	; (8000260 <WakeUp+0x7c>)
 800021a:	f001 ff43 	bl	80020a4 <HAL_I2C_Master_Receive>
	HAL_Delay(5);
 800021e:	2005      	movs	r0, #5
 8000220:	f001 f9d2 	bl	80015c8 <HAL_Delay>

	// Read 88bytes
	HAL_I2C_Master_Transmit(&hi2c2, I2C_ADDRESS, &data, sizeof(data), 1000);	// Send 1 byte
 8000224:	f107 020f 	add.w	r2, r7, #15
 8000228:	f44f 737a 	mov.w	r3, #1000	; 0x3e8
 800022c:	9300      	str	r3, [sp, #0]
 800022e:	2301      	movs	r3, #1
 8000230:	21c8      	movs	r1, #200	; 0xc8
 8000232:	480b      	ldr	r0, [pc, #44]	; (8000260 <WakeUp+0x7c>)
 8000234:	f001 fe38 	bl	8001ea8 <HAL_I2C_Master_Transmit>
	HAL_Delay(5);
 8000238:	2005      	movs	r0, #5
 800023a:	f001 f9c5 	bl	80015c8 <HAL_Delay>
	HAL_I2C_Master_Receive(&hi2c2, I2C_ADDRESS, receiv, 4, 1000); 		    	// Receiv: 0x04, 0x11, 0x33, 0x43.
 800023e:	f44f 737a 	mov.w	r3, #1000	; 0x3e8
 8000242:	9300      	str	r3, [sp, #0]
 8000244:	2304      	movs	r3, #4
 8000246:	687a      	ldr	r2, [r7, #4]
 8000248:	21c8      	movs	r1, #200	; 0xc8
 800024a:	4805      	ldr	r0, [pc, #20]	; (8000260 <WakeUp+0x7c>)
 800024c:	f001 ff2a 	bl	80020a4 <HAL_I2C_Master_Receive>
	HAL_Delay(5);
 8000250:	2005      	movs	r0, #5
 8000252:	f001 f9b9 	bl	80015c8 <HAL_Delay>
}
 8000256:	bf00      	nop
 8000258:	3710      	adds	r7, #16
 800025a:	46bd      	mov	sp, r7
 800025c:	bd80      	pop	{r7, pc}
 800025e:	bf00      	nop
 8000260:	20000078 	.word	0x20000078

08000264 <ReadConfig>:


void ReadConfig(uint8_t *data, uint16_t size, uint8_t *receiv) {
 8000264:	b580      	push	{r7, lr}
 8000266:	b086      	sub	sp, #24
 8000268:	af02      	add	r7, sp, #8
 800026a:	60f8      	str	r0, [r7, #12]
 800026c:	460b      	mov	r3, r1
 800026e:	607a      	str	r2, [r7, #4]
 8000270:	817b      	strh	r3, [r7, #10]

	HAL_I2C_Master_Transmit(&hi2c2, I2C_ADDRESS, data, 8, 1000); 		    // Send read command
 8000272:	f44f 737a 	mov.w	r3, #1000	; 0x3e8
 8000276:	9300      	str	r3, [sp, #0]
 8000278:	2308      	movs	r3, #8
 800027a:	68fa      	ldr	r2, [r7, #12]
 800027c:	21c8      	movs	r1, #200	; 0xc8
 800027e:	480b      	ldr	r0, [pc, #44]	; (80002ac <ReadConfig+0x48>)
 8000280:	f001 fe12 	bl	8001ea8 <HAL_I2C_Master_Transmit>
	HAL_Delay(5);
 8000284:	2005      	movs	r0, #5
 8000286:	f001 f99f 	bl	80015c8 <HAL_Delay>
	HAL_I2C_Master_Receive(&hi2c2, I2C_ADDRESS, receiv, size, 1000); 	    // Receive: data packet size, 0x01 0x23..., CRC_LSB, CRC_MSB
 800028a:	897b      	ldrh	r3, [r7, #10]
 800028c:	f44f 727a 	mov.w	r2, #1000	; 0x3e8
 8000290:	9200      	str	r2, [sp, #0]
 8000292:	687a      	ldr	r2, [r7, #4]
 8000294:	21c8      	movs	r1, #200	; 0xc8
 8000296:	4805      	ldr	r0, [pc, #20]	; (80002ac <ReadConfig+0x48>)
 8000298:	f001 ff04 	bl	80020a4 <HAL_I2C_Master_Receive>
	HAL_Delay(5);
 800029c:	2005      	movs	r0, #5
 800029e:	f001 f993 	bl	80015c8 <HAL_Delay>
}
 80002a2:	bf00      	nop
 80002a4:	3710      	adds	r7, #16
 80002a6:	46bd      	mov	sp, r7
 80002a8:	bd80      	pop	{r7, pc}
 80002aa:	bf00      	nop
 80002ac:	20000078 	.word	0x20000078

080002b0 <CommandNonce>:
	HAL_I2C_Master_Receive(&hi2c2, I2C_ADDRESS, receiv, size, 1000);
	HAL_Delay(5);
}


void CommandNonce(uint8_t *NumIn, uint16_t size, uint8_t *receiv){ //OK
 80002b0:	b580      	push	{r7, lr}
 80002b2:	b090      	sub	sp, #64	; 0x40
 80002b4:	af02      	add	r7, sp, #8
 80002b6:	60f8      	str	r0, [r7, #12]
 80002b8:	460b      	mov	r3, r1
 80002ba:	607a      	str	r2, [r7, #4]
 80002bc:	817b      	strh	r3, [r7, #10]

	// NONCE command: {COMMAND, COUNT, OPCODE, Param1_mode, 0x00, 0x00, NumIn[20], CRC_LSB, CRC_MSB}
	uint8_t noncecommand[28]; //40
	uint8_t CRC_receiv[2];

    noncecommand[0] = COMMAND;
 80002be:	2303      	movs	r3, #3
 80002c0:	763b      	strb	r3, [r7, #24]
    noncecommand[1] = SIZE_WRITE_NONCE20; //SIZE_WRITE_NONCE32;
 80002c2:	231b      	movs	r3, #27
 80002c4:	767b      	strb	r3, [r7, #25]
    noncecommand[2] = COMMAND_NONCE;
 80002c6:	2316      	movs	r3, #22
 80002c8:	76bb      	strb	r3, [r7, #26]
    noncecommand[3] = 0x00; // modo3
 80002ca:	2300      	movs	r3, #0
 80002cc:	76fb      	strb	r3, [r7, #27]
    noncecommand[4] = 0x00;
 80002ce:	2300      	movs	r3, #0
 80002d0:	773b      	strb	r3, [r7, #28]
    noncecommand[5] = 0x00;
 80002d2:	2300      	movs	r3, #0
 80002d4:	777b      	strb	r3, [r7, #29]

	for(uint8_t i = 0; i <= 20; i++){  // <=32
 80002d6:	2300      	movs	r3, #0
 80002d8:	f887 3037 	strb.w	r3, [r7, #55]	; 0x37
 80002dc:	e010      	b.n	8000300 <CommandNonce+0x50>
		 noncecommand[6 + i] = NumIn[i];
 80002de:	f897 3037 	ldrb.w	r3, [r7, #55]	; 0x37
 80002e2:	68fa      	ldr	r2, [r7, #12]
 80002e4:	441a      	add	r2, r3
 80002e6:	f897 3037 	ldrb.w	r3, [r7, #55]	; 0x37
 80002ea:	3306      	adds	r3, #6
 80002ec:	7812      	ldrb	r2, [r2, #0]
 80002ee:	3338      	adds	r3, #56	; 0x38
 80002f0:	443b      	add	r3, r7
 80002f2:	f803 2c20 	strb.w	r2, [r3, #-32]
	for(uint8_t i = 0; i <= 20; i++){  // <=32
 80002f6:	f897 3037 	ldrb.w	r3, [r7, #55]	; 0x37
 80002fa:	3301      	adds	r3, #1
 80002fc:	f887 3037 	strb.w	r3, [r7, #55]	; 0x37
 8000300:	f897 3037 	ldrb.w	r3, [r7, #55]	; 0x37
 8000304:	2b14      	cmp	r3, #20
 8000306:	d9ea      	bls.n	80002de <CommandNonce+0x2e>
	}

	atCRC(noncecommand,sizeof(noncecommand), CRC_receiv);
 8000308:	f107 0214 	add.w	r2, r7, #20
 800030c:	f107 0318 	add.w	r3, r7, #24
 8000310:	211c      	movs	r1, #28
 8000312:	4618      	mov	r0, r3
 8000314:	f7ff ff1a 	bl	800014c <atCRC>
	noncecommand[sizeof(noncecommand) - 2] = CRC_receiv[0] ;
 8000318:	7d3b      	ldrb	r3, [r7, #20]
 800031a:	f887 3032 	strb.w	r3, [r7, #50]	; 0x32
	noncecommand[sizeof(noncecommand) - 1] = CRC_receiv[1] ;
 800031e:	7d7b      	ldrb	r3, [r7, #21]
 8000320:	f887 3033 	strb.w	r3, [r7, #51]	; 0x33

	HAL_I2C_Master_Transmit(&hi2c2, I2C_ADDRESS, noncecommand, sizeof(noncecommand), 1000);
 8000324:	f107 0218 	add.w	r2, r7, #24
 8000328:	f44f 737a 	mov.w	r3, #1000	; 0x3e8
 800032c:	9300      	str	r3, [sp, #0]
 800032e:	231c      	movs	r3, #28
 8000330:	21c8      	movs	r1, #200	; 0xc8
 8000332:	480b      	ldr	r0, [pc, #44]	; (8000360 <CommandNonce+0xb0>)
 8000334:	f001 fdb8 	bl	8001ea8 <HAL_I2C_Master_Transmit>
	HAL_Delay(40);
 8000338:	2028      	movs	r0, #40	; 0x28
 800033a:	f001 f945 	bl	80015c8 <HAL_Delay>
	HAL_I2C_Master_Receive(&hi2c2, I2C_ADDRESS, receiv, size, 1000);
 800033e:	897b      	ldrh	r3, [r7, #10]
 8000340:	f44f 727a 	mov.w	r2, #1000	; 0x3e8
 8000344:	9200      	str	r2, [sp, #0]
 8000346:	687a      	ldr	r2, [r7, #4]
 8000348:	21c8      	movs	r1, #200	; 0xc8
 800034a:	4805      	ldr	r0, [pc, #20]	; (8000360 <CommandNonce+0xb0>)
 800034c:	f001 feaa 	bl	80020a4 <HAL_I2C_Master_Receive>
	HAL_Delay(10);
 8000350:	200a      	movs	r0, #10
 8000352:	f001 f939 	bl	80015c8 <HAL_Delay>
}
 8000356:	bf00      	nop
 8000358:	3738      	adds	r7, #56	; 0x38
 800035a:	46bd      	mov	sp, r7
 800035c:	bd80      	pop	{r7, pc}
 800035e:	bf00      	nop
 8000360:	20000078 	.word	0x20000078

08000364 <GendigCommand>:


void GendigCommand(uint8_t SlotID_LSB, uint8_t SlotID_MSB, uint8_t size, uint8_t *receiv){
 8000364:	b580      	push	{r7, lr}
 8000366:	b088      	sub	sp, #32
 8000368:	af02      	add	r7, sp, #8
 800036a:	603b      	str	r3, [r7, #0]
 800036c:	4603      	mov	r3, r0
 800036e:	71fb      	strb	r3, [r7, #7]
 8000370:	460b      	mov	r3, r1
 8000372:	71bb      	strb	r3, [r7, #6]
 8000374:	4613      	mov	r3, r2
 8000376:	717b      	strb	r3, [r7, #5]
	uint8_t GenDig[8];
	uint8_t CRC_receiv[2];
	//{COMMAND, SIZE_WRITE_GENDIG, COMMAND_GENDIG, ZONE_DATA, SlotID_LSB, SlotID_MSB, /*0x33, 0xe8*/ 0x00, 0x00};
	//atCRC(GenDig,sizeof(GenDig));

	GenDig[0] = COMMAND;
 8000378:	2303      	movs	r3, #3
 800037a:	743b      	strb	r3, [r7, #16]
	GenDig[1] = SIZE_WRITE_GENDIG;
 800037c:	2307      	movs	r3, #7
 800037e:	747b      	strb	r3, [r7, #17]
	GenDig[2] = COMMAND_GENDIG;
 8000380:	2315      	movs	r3, #21
 8000382:	74bb      	strb	r3, [r7, #18]
	GenDig[3] = ZONE_DATA;
 8000384:	2302      	movs	r3, #2
 8000386:	74fb      	strb	r3, [r7, #19]
	GenDig[4] = SlotID_LSB;
 8000388:	79fb      	ldrb	r3, [r7, #7]
 800038a:	753b      	strb	r3, [r7, #20]
	GenDig[5] = SlotID_MSB;
 800038c:	79bb      	ldrb	r3, [r7, #6]
 800038e:	757b      	strb	r3, [r7, #21]

	atCRC(GenDig,sizeof(GenDig), CRC_receiv);
 8000390:	f107 020c 	add.w	r2, r7, #12
 8000394:	f107 0310 	add.w	r3, r7, #16
 8000398:	2108      	movs	r1, #8
 800039a:	4618      	mov	r0, r3
 800039c:	f7ff fed6 	bl	800014c <atCRC>
	GenDig[6] = CRC_receiv[0] ;
 80003a0:	7b3b      	ldrb	r3, [r7, #12]
 80003a2:	75bb      	strb	r3, [r7, #22]
	GenDig[7] = CRC_receiv[1] ;
 80003a4:	7b7b      	ldrb	r3, [r7, #13]
 80003a6:	75fb      	strb	r3, [r7, #23]

	HAL_I2C_Master_Transmit(&hi2c2, I2C_ADDRESS, GenDig, sizeof(GenDig), 1000);
 80003a8:	f107 0210 	add.w	r2, r7, #16
 80003ac:	f44f 737a 	mov.w	r3, #1000	; 0x3e8
 80003b0:	9300      	str	r3, [sp, #0]
 80003b2:	2308      	movs	r3, #8
 80003b4:	21c8      	movs	r1, #200	; 0xc8
 80003b6:	480b      	ldr	r0, [pc, #44]	; (80003e4 <GendigCommand+0x80>)
 80003b8:	f001 fd76 	bl	8001ea8 <HAL_I2C_Master_Transmit>
	HAL_Delay(40);
 80003bc:	2028      	movs	r0, #40	; 0x28
 80003be:	f001 f903 	bl	80015c8 <HAL_Delay>
	HAL_I2C_Master_Receive(&hi2c2, I2C_ADDRESS, receiv, size, 1000);
 80003c2:	797b      	ldrb	r3, [r7, #5]
 80003c4:	b29b      	uxth	r3, r3
 80003c6:	f44f 727a 	mov.w	r2, #1000	; 0x3e8
 80003ca:	9200      	str	r2, [sp, #0]
 80003cc:	683a      	ldr	r2, [r7, #0]
 80003ce:	21c8      	movs	r1, #200	; 0xc8
 80003d0:	4804      	ldr	r0, [pc, #16]	; (80003e4 <GendigCommand+0x80>)
 80003d2:	f001 fe67 	bl	80020a4 <HAL_I2C_Master_Receive>
	HAL_Delay(5);
 80003d6:	2005      	movs	r0, #5
 80003d8:	f001 f8f6 	bl	80015c8 <HAL_Delay>
}
 80003dc:	bf00      	nop
 80003de:	3718      	adds	r7, #24
 80003e0:	46bd      	mov	sp, r7
 80003e2:	bd80      	pop	{r7, pc}
 80003e4:	20000078 	.word	0x20000078

080003e8 <MacCommand>:

void MacCommand(uint8_t SlotID_LSB, uint8_t SlotID_MSB, uint16_t size, uint8_t *receiv){
 80003e8:	b580      	push	{r7, lr}
 80003ea:	b088      	sub	sp, #32
 80003ec:	af02      	add	r7, sp, #8
 80003ee:	603b      	str	r3, [r7, #0]
 80003f0:	4603      	mov	r3, r0
 80003f2:	71fb      	strb	r3, [r7, #7]
 80003f4:	460b      	mov	r3, r1
 80003f6:	71bb      	strb	r3, [r7, #6]
 80003f8:	4613      	mov	r3, r2
 80003fa:	80bb      	strh	r3, [r7, #4]
	uint8_t  MAC[8];
	uint8_t CRC_receiv[2];

	//uint8_t Challenge [32] = {0x00};

	 MAC[0]= COMMAND;
 80003fc:	2303      	movs	r3, #3
 80003fe:	743b      	strb	r3, [r7, #16]
	 MAC[1]= 0x07; 	//size 0x27
 8000400:	2307      	movs	r3, #7
 8000402:	747b      	strb	r3, [r7, #17]
	 MAC[2]= COMMAND_MAC;
 8000404:	2308      	movs	r3, #8
 8000406:	74bb      	strb	r3, [r7, #18]
	 MAC[3]= 0x01 ; 	//mode
 8000408:	2301      	movs	r3, #1
 800040a:	74fb      	strb	r3, [r7, #19]
	 MAC[4]= SlotID_LSB;
 800040c:	79fb      	ldrb	r3, [r7, #7]
 800040e:	753b      	strb	r3, [r7, #20]
	 MAC[5]= SlotID_MSB;
 8000410:	79bb      	ldrb	r3, [r7, #6]
 8000412:	757b      	strb	r3, [r7, #21]
/*
	for(uint8_t i = 0; i <= 32; i++){
		MAC[6 + i] = Challenge[i];
	}
*/
	atCRC(MAC, sizeof(MAC), CRC_receiv);
 8000414:	f107 020c 	add.w	r2, r7, #12
 8000418:	f107 0310 	add.w	r3, r7, #16
 800041c:	2108      	movs	r1, #8
 800041e:	4618      	mov	r0, r3
 8000420:	f7ff fe94 	bl	800014c <atCRC>
	MAC[sizeof(MAC) - 2] = CRC_receiv[0] ;
 8000424:	7b3b      	ldrb	r3, [r7, #12]
 8000426:	75bb      	strb	r3, [r7, #22]
	MAC[sizeof(MAC) - 1] = CRC_receiv[1] ;
 8000428:	7b7b      	ldrb	r3, [r7, #13]
 800042a:	75fb      	strb	r3, [r7, #23]

	HAL_I2C_Master_Transmit(&hi2c2, I2C_ADDRESS, MAC, sizeof(MAC), 1000);
 800042c:	f107 0210 	add.w	r2, r7, #16
 8000430:	f44f 737a 	mov.w	r3, #1000	; 0x3e8
 8000434:	9300      	str	r3, [sp, #0]
 8000436:	2308      	movs	r3, #8
 8000438:	21c8      	movs	r1, #200	; 0xc8
 800043a:	480b      	ldr	r0, [pc, #44]	; (8000468 <MacCommand+0x80>)
 800043c:	f001 fd34 	bl	8001ea8 <HAL_I2C_Master_Transmit>
	HAL_Delay(45);
 8000440:	202d      	movs	r0, #45	; 0x2d
 8000442:	f001 f8c1 	bl	80015c8 <HAL_Delay>
	HAL_I2C_Master_Receive(&hi2c2, I2C_ADDRESS, receiv, size, 1000);
 8000446:	88bb      	ldrh	r3, [r7, #4]
 8000448:	f44f 727a 	mov.w	r2, #1000	; 0x3e8
 800044c:	9200      	str	r2, [sp, #0]
 800044e:	683a      	ldr	r2, [r7, #0]
 8000450:	21c8      	movs	r1, #200	; 0xc8
 8000452:	4805      	ldr	r0, [pc, #20]	; (8000468 <MacCommand+0x80>)
 8000454:	f001 fe26 	bl	80020a4 <HAL_I2C_Master_Receive>
	HAL_Delay(5);
 8000458:	2005      	movs	r0, #5
 800045a:	f001 f8b5 	bl	80015c8 <HAL_Delay>
}
 800045e:	bf00      	nop
 8000460:	3718      	adds	r7, #24
 8000462:	46bd      	mov	sp, r7
 8000464:	bd80      	pop	{r7, pc}
 8000466:	bf00      	nop
 8000468:	20000078 	.word	0x20000078

0800046c <main>:
/**
  * @brief  The application entry point.
  * @retval int
  */
int main(void)
{
 800046c:	b5b0      	push	{r4, r5, r7, lr}
 800046e:	f5ad 7d32 	sub.w	sp, sp, #712	; 0x2c8
 8000472:	af00      	add	r7, sp, #0

  /* MCU Configuration--------------------------------------------------------*/

  /* Reset of all peripherals, Initializes the Flash interface and the Systick. */

	HAL_Init();
 8000474:	f001 f846 	bl	8001504 <HAL_Init>
  /* USER CODE BEGIN Init */

  /* USER CODE END Init */

  /* Configure the system clock */
  SystemClock_Config();
 8000478:	f000 f9ce 	bl	8000818 <SystemClock_Config>
  /* USER CODE BEGIN SysInit */

  /* USER CODE END SysInit */

  /* Initialize all configured peripherals */
  MX_GPIO_Init();
 800047c:	f000 fa6c 	bl	8000958 <MX_GPIO_Init>
  MX_USART1_Init();
 8000480:	f000 fa3e 	bl	8000900 <MX_USART1_Init>
  MX_I2C2_Init();
 8000484:	f000 fa0e 	bl	80008a4 <MX_I2C2_Init>
  /* USER CODE BEGIN 2 */

  // read configuration zone: {COMMAND, COUNT, OPCODE, ZONE, ADDRESS_1, ADDRESS_2, CRC_LSB, CRC_MSB}
  uint8_t readCommand0[8] = {0x03, 0x07, 0x02, 0x80, 0x00, 0x00, 0x09, 0xAD};
 8000488:	4ad5      	ldr	r2, [pc, #852]	; (80007e0 <main+0x374>)
 800048a:	f507 7330 	add.w	r3, r7, #704	; 0x2c0
 800048e:	e892 0003 	ldmia.w	r2, {r0, r1}
 8000492:	e883 0003 	stmia.w	r3, {r0, r1}
  uint8_t readCommand1[8] = {0x03, 0x07, 0x02, 0x80, 0x08, 0x00, 0x0a, 0x4d};
 8000496:	4ad3      	ldr	r2, [pc, #844]	; (80007e4 <main+0x378>)
 8000498:	f507 732e 	add.w	r3, r7, #696	; 0x2b8
 800049c:	e892 0003 	ldmia.w	r2, {r0, r1}
 80004a0:	e883 0003 	stmia.w	r3, {r0, r1}
  uint8_t readCommand2[8] = {0x03, 0x07, 0x02, 0x00, 0x10, 0x00, 0x1d, 0x9d};
 80004a4:	4ad0      	ldr	r2, [pc, #832]	; (80007e8 <main+0x37c>)
 80004a6:	f507 732c 	add.w	r3, r7, #688	; 0x2b0
 80004aa:	e892 0003 	ldmia.w	r2, {r0, r1}
 80004ae:	e883 0003 	stmia.w	r3, {r0, r1}
  uint8_t readCommand3[8] = {0x03, 0x07, 0x02, 0x00, 0x11, 0x00, 0x14, 0x1d};
 80004b2:	4ace      	ldr	r2, [pc, #824]	; (80007ec <main+0x380>)
 80004b4:	f507 732a 	add.w	r3, r7, #680	; 0x2a8
 80004b8:	e892 0003 	ldmia.w	r2, {r0, r1}
 80004bc:	e883 0003 	stmia.w	r3, {r0, r1}
  uint8_t readCommand4[8] = {0x03, 0x07, 0x02, 0x00, 0x12, 0x00, 0x1b, 0x1d};
 80004c0:	4acb      	ldr	r2, [pc, #812]	; (80007f0 <main+0x384>)
 80004c2:	f507 7328 	add.w	r3, r7, #672	; 0x2a0
 80004c6:	e892 0003 	ldmia.w	r2, {r0, r1}
 80004ca:	e883 0003 	stmia.w	r3, {r0, r1}
  uint8_t readCommand5[8] = {0x03, 0x07, 0x02, 0x00, 0x13, 0x00, 0x12, 0x9d};
 80004ce:	4ac9      	ldr	r2, [pc, #804]	; (80007f4 <main+0x388>)
 80004d0:	f507 7326 	add.w	r3, r7, #664	; 0x298
 80004d4:	e892 0003 	ldmia.w	r2, {r0, r1}
 80004d8:	e883 0003 	stmia.w	r3, {r0, r1}
  uint8_t readCommand6[8] = {0x03, 0x07, 0x02, 0x00, 0x14, 0x00, 0x1e, 0xdd};
 80004dc:	4ac6      	ldr	r2, [pc, #792]	; (80007f8 <main+0x38c>)
 80004de:	f507 7324 	add.w	r3, r7, #656	; 0x290
 80004e2:	e892 0003 	ldmia.w	r2, {r0, r1}
 80004e6:	e883 0003 	stmia.w	r3, {r0, r1}
  uint8_t readCommand7[8] = {0x03, 0x07, 0x02, 0x00, 0x15, 0x00, 0x17, 0x5d};
 80004ea:	4ac4      	ldr	r2, [pc, #784]	; (80007fc <main+0x390>)
 80004ec:	f507 7322 	add.w	r3, r7, #648	; 0x288
 80004f0:	e892 0003 	ldmia.w	r2, {r0, r1}
 80004f4:	e883 0003 	stmia.w	r3, {r0, r1}

  uint8_t readMASTERKEY[8] = {0x03, 0x07, 0x02, 0x82, 0x70, 0x00, 0x09, 0x8c};
 80004f8:	4ac1      	ldr	r2, [pc, #772]	; (8000800 <main+0x394>)
 80004fa:	f507 7320 	add.w	r3, r7, #640	; 0x280
 80004fe:	e892 0003 	ldmia.w	r2, {r0, r1}
 8000502:	e883 0003 	stmia.w	r3, {r0, r1}
  uint8_t readDATA2[8] = {0x03, 0x07, 0x02, 0x82, 0x50, 0x00, 0x0a, 0x14};
 8000506:	4abf      	ldr	r2, [pc, #764]	; (8000804 <main+0x398>)
 8000508:	f507 731e 	add.w	r3, r7, #632	; 0x278
 800050c:	e892 0003 	ldmia.w	r2, {r0, r1}
 8000510:	e883 0003 	stmia.w	r3, {r0, r1}

  uint8_t WritePwd2[8] =  {0x03, 0x07, 0x02, 0x82, 0x48, 0x00, 0x0a, 0x44};
 8000514:	4abc      	ldr	r2, [pc, #752]	; (8000808 <main+0x39c>)
 8000516:	f507 731c 	add.w	r3, r7, #624	; 0x270
 800051a:	e892 0003 	ldmia.w	r2, {r0, r1}
 800051e:	e883 0003 	stmia.w	r3, {r0, r1}
  uint8_t LOBBYKEY_2[8] = {0x03, 0x07, 0x02,  0x82, 0x20, 0x00, 0x09, 0xb0};
 8000522:	4aba      	ldr	r2, [pc, #744]	; (800080c <main+0x3a0>)
 8000524:	f507 731a 	add.w	r3, r7, #616	; 0x268
 8000528:	e892 0003 	ldmia.w	r2, {r0, r1}
 800052c:	e883 0003 	stmia.w	r3, {r0, r1}

  uint8_t temp_nonce[] = {};

  uint8_t receiv_MASTERKEY[35] = {0};
 8000530:	2300      	movs	r3, #0
 8000532:	f8c7 3244 	str.w	r3, [r7, #580]	; 0x244
 8000536:	f507 7312 	add.w	r3, r7, #584	; 0x248
 800053a:	221f      	movs	r2, #31
 800053c:	2100      	movs	r1, #0
 800053e:	4618      	mov	r0, r3
 8000540:	f003 fc88 	bl	8003e54 <memset>


  // NONCE
  uint8_t NumIn[20] = { 0x00, 0x01, 0x02, 0x03, 0x04, 0x05, 0x06, 0x07, 0x08, 0x09,
 8000544:	4bb2      	ldr	r3, [pc, #712]	; (8000810 <main+0x3a4>)
 8000546:	f507 740c 	add.w	r4, r7, #560	; 0x230
 800054a:	461d      	mov	r5, r3
 800054c:	cd0f      	ldmia	r5!, {r0, r1, r2, r3}
 800054e:	c40f      	stmia	r4!, {r0, r1, r2, r3}
 8000550:	682b      	ldr	r3, [r5, #0]
 8000552:	6023      	str	r3, [r4, #0]
		  	  	  	  	0x00, 0x01, 0x02, 0x03, 0x04, 0x05, 0x06, 0x07, 0x08, 0x09};
						// 0x00, 0x01, 0x02, 0x03, 0x04, 0x05, 0x06, 0x07, 0x08, 0x09,
						//  0x00, 0x01};

  uint8_t aux[35] = {0};
 8000554:	2300      	movs	r3, #0
 8000556:	f8c7 320c 	str.w	r3, [r7, #524]	; 0x20c
 800055a:	f507 7304 	add.w	r3, r7, #528	; 0x210
 800055e:	221f      	movs	r2, #31
 8000560:	2100      	movs	r1, #0
 8000562:	4618      	mov	r0, r3
 8000564:	f003 fc76 	bl	8003e54 <memset>
  uint8_t nonce_receiv[35] = {0};
 8000568:	2300      	movs	r3, #0
 800056a:	f8c7 31e8 	str.w	r3, [r7, #488]	; 0x1e8
 800056e:	f507 73f6 	add.w	r3, r7, #492	; 0x1ec
 8000572:	221f      	movs	r2, #31
 8000574:	2100      	movs	r1, #0
 8000576:	4618      	mov	r0, r3
 8000578:	f003 fc6c 	bl	8003e54 <memset>
  uint8_t tempnonce[35] = {0};
 800057c:	f507 7332 	add.w	r3, r7, #712	; 0x2c8
 8000580:	f5a3 7382 	sub.w	r3, r3, #260	; 0x104
 8000584:	2200      	movs	r2, #0
 8000586:	601a      	str	r2, [r3, #0]
 8000588:	3304      	adds	r3, #4
 800058a:	221f      	movs	r2, #31
 800058c:	2100      	movs	r1, #0
 800058e:	4618      	mov	r0, r3
 8000590:	f003 fc60 	bl	8003e54 <memset>
  uint8_t LOBBYKEY_rec[35];

  uint8_t receiv_sha256[35];

  // SHA-256
  uint8_t sha_init[1] = {0};
 8000594:	f507 7332 	add.w	r3, r7, #712	; 0x2c8
 8000598:	f5a3 73a8 	sub.w	r3, r3, #336	; 0x150
 800059c:	2200      	movs	r2, #0
 800059e:	701a      	strb	r2, [r3, #0]
  uint8_t SHA_receiv[35] = {0};
 80005a0:	f507 7332 	add.w	r3, r7, #712	; 0x2c8
 80005a4:	f5a3 73ba 	sub.w	r3, r3, #372	; 0x174
 80005a8:	2200      	movs	r2, #0
 80005aa:	601a      	str	r2, [r3, #0]
 80005ac:	3304      	adds	r3, #4
 80005ae:	221f      	movs	r2, #31
 80005b0:	2100      	movs	r1, #0
 80005b2:	4618      	mov	r0, r3
 80005b4:	f003 fc4e 	bl	8003e54 <memset>

  // GENDIG
  uint8_t gendig_receiv[4] = {0};
 80005b8:	f507 7332 	add.w	r3, r7, #712	; 0x2c8
 80005bc:	f5a3 73bc 	sub.w	r3, r3, #376	; 0x178
 80005c0:	2200      	movs	r2, #0
 80005c2:	601a      	str	r2, [r3, #0]


  //MAC
  uint8_t MAC_receiv[35] = {0};
 80005c4:	f507 7332 	add.w	r3, r7, #712	; 0x2c8
 80005c8:	f5a3 73ce 	sub.w	r3, r3, #412	; 0x19c
 80005cc:	2200      	movs	r2, #0
 80005ce:	601a      	str	r2, [r3, #0]
 80005d0:	3304      	adds	r3, #4
 80005d2:	221f      	movs	r2, #31
 80005d4:	2100      	movs	r1, #0
 80005d6:	4618      	mov	r0, r3
 80005d8:	f003 fc3c 	bl	8003e54 <memset>
  uint8_t CheckMAC_receiv[4] = {0};
 80005dc:	f507 7332 	add.w	r3, r7, #712	; 0x2c8
 80005e0:	f5a3 73d0 	sub.w	r3, r3, #416	; 0x1a0
 80005e4:	2200      	movs	r2, #0
 80005e6:	601a      	str	r2, [r3, #0]
  uint8_t dado[32] = {0};
 80005e8:	f507 7332 	add.w	r3, r7, #712	; 0x2c8
 80005ec:	f5a3 73e0 	sub.w	r3, r3, #448	; 0x1c0
 80005f0:	2200      	movs	r2, #0
 80005f2:	601a      	str	r2, [r3, #0]
 80005f4:	3304      	adds	r3, #4
 80005f6:	2200      	movs	r2, #0
 80005f8:	601a      	str	r2, [r3, #0]
 80005fa:	605a      	str	r2, [r3, #4]
 80005fc:	609a      	str	r2, [r3, #8]
 80005fe:	60da      	str	r2, [r3, #12]
 8000600:	611a      	str	r2, [r3, #16]
 8000602:	615a      	str	r2, [r3, #20]
 8000604:	619a      	str	r2, [r3, #24]


  uint8_t read_byte[4];
  uint8_t receiv_ack[4] = {0};
 8000606:	f507 7332 	add.w	r3, r7, #712	; 0x2c8
 800060a:	f5a3 73e4 	sub.w	r3, r3, #456	; 0x1c8
 800060e:	2200      	movs	r2, #0
 8000610:	601a      	str	r2, [r3, #0]

  //uint8_t read_config[32] = {0};
  uint8_t read_config0[35] = {0};
 8000612:	f507 7332 	add.w	r3, r7, #712	; 0x2c8
 8000616:	f5a3 73f6 	sub.w	r3, r3, #492	; 0x1ec
 800061a:	2200      	movs	r2, #0
 800061c:	601a      	str	r2, [r3, #0]
 800061e:	3304      	adds	r3, #4
 8000620:	221f      	movs	r2, #31
 8000622:	2100      	movs	r1, #0
 8000624:	4618      	mov	r0, r3
 8000626:	f003 fc15 	bl	8003e54 <memset>
  uint8_t read_config1[35] = {0};
 800062a:	f507 7332 	add.w	r3, r7, #712	; 0x2c8
 800062e:	f5a3 7304 	sub.w	r3, r3, #528	; 0x210
 8000632:	2200      	movs	r2, #0
 8000634:	601a      	str	r2, [r3, #0]
 8000636:	3304      	adds	r3, #4
 8000638:	221f      	movs	r2, #31
 800063a:	2100      	movs	r1, #0
 800063c:	4618      	mov	r0, r3
 800063e:	f003 fc09 	bl	8003e54 <memset>
  uint8_t read_config2[7] = {0};
 8000642:	f507 7332 	add.w	r3, r7, #712	; 0x2c8
 8000646:	f5a3 7306 	sub.w	r3, r3, #536	; 0x218
 800064a:	2200      	movs	r2, #0
 800064c:	601a      	str	r2, [r3, #0]
 800064e:	3304      	adds	r3, #4
 8000650:	2100      	movs	r1, #0
 8000652:	460a      	mov	r2, r1
 8000654:	801a      	strh	r2, [r3, #0]
 8000656:	460a      	mov	r2, r1
 8000658:	709a      	strb	r2, [r3, #2]
  uint8_t read_config3[7] = {0};
 800065a:	f507 7332 	add.w	r3, r7, #712	; 0x2c8
 800065e:	f5a3 7308 	sub.w	r3, r3, #544	; 0x220
 8000662:	2200      	movs	r2, #0
 8000664:	601a      	str	r2, [r3, #0]
 8000666:	3304      	adds	r3, #4
 8000668:	2100      	movs	r1, #0
 800066a:	460a      	mov	r2, r1
 800066c:	801a      	strh	r2, [r3, #0]
 800066e:	460a      	mov	r2, r1
 8000670:	709a      	strb	r2, [r3, #2]
  uint8_t read_config4[7] = {0};
 8000672:	f507 7332 	add.w	r3, r7, #712	; 0x2c8
 8000676:	f5a3 730a 	sub.w	r3, r3, #552	; 0x228
 800067a:	2200      	movs	r2, #0
 800067c:	601a      	str	r2, [r3, #0]
 800067e:	3304      	adds	r3, #4
 8000680:	2100      	movs	r1, #0
 8000682:	460a      	mov	r2, r1
 8000684:	801a      	strh	r2, [r3, #0]
 8000686:	460a      	mov	r2, r1
 8000688:	709a      	strb	r2, [r3, #2]
  uint8_t read_config5[7] = {0};
 800068a:	f507 7332 	add.w	r3, r7, #712	; 0x2c8
 800068e:	f5a3 730c 	sub.w	r3, r3, #560	; 0x230
 8000692:	2200      	movs	r2, #0
 8000694:	601a      	str	r2, [r3, #0]
 8000696:	3304      	adds	r3, #4
 8000698:	2100      	movs	r1, #0
 800069a:	460a      	mov	r2, r1
 800069c:	801a      	strh	r2, [r3, #0]
 800069e:	460a      	mov	r2, r1
 80006a0:	709a      	strb	r2, [r3, #2]
  uint8_t read_config6[7] = {0};
 80006a2:	f507 7332 	add.w	r3, r7, #712	; 0x2c8
 80006a6:	f5a3 730e 	sub.w	r3, r3, #568	; 0x238
 80006aa:	2200      	movs	r2, #0
 80006ac:	601a      	str	r2, [r3, #0]
 80006ae:	3304      	adds	r3, #4
 80006b0:	2100      	movs	r1, #0
 80006b2:	460a      	mov	r2, r1
 80006b4:	801a      	strh	r2, [r3, #0]
 80006b6:	460a      	mov	r2, r1
 80006b8:	709a      	strb	r2, [r3, #2]
  uint8_t read_config7[7] = {0};
 80006ba:	f507 7332 	add.w	r3, r7, #712	; 0x2c8
 80006be:	f5a3 7310 	sub.w	r3, r3, #576	; 0x240
 80006c2:	2200      	movs	r2, #0
 80006c4:	601a      	str	r2, [r3, #0]
 80006c6:	3304      	adds	r3, #4
 80006c8:	2100      	movs	r1, #0
 80006ca:	460a      	mov	r2, r1
 80006cc:	801a      	strh	r2, [r3, #0]
 80006ce:	460a      	mov	r2, r1
 80006d0:	709a      	strb	r2, [r3, #2]
  uint8_t read_config8[7] = {0};
 80006d2:	f507 7332 	add.w	r3, r7, #712	; 0x2c8
 80006d6:	f5a3 7312 	sub.w	r3, r3, #584	; 0x248
 80006da:	2200      	movs	r2, #0
 80006dc:	601a      	str	r2, [r3, #0]
 80006de:	3304      	adds	r3, #4
 80006e0:	2100      	movs	r1, #0
 80006e2:	460a      	mov	r2, r1
 80006e4:	801a      	strh	r2, [r3, #0]
 80006e6:	460a      	mov	r2, r1
 80006e8:	709a      	strb	r2, [r3, #2]


  uint8_t data[] = {0x0c, 0x7d, 0x32, 0xd4, 0xb9, 0x98, 0xa1, 0xb8, 0x44, 0x32, 0xc7, 0x88, 0x80, 0x22, 0x66, 0xa1,
 80006ea:	f507 7332 	add.w	r3, r7, #712	; 0x2c8
 80006ee:	f5a3 7320 	sub.w	r3, r3, #640	; 0x280
 80006f2:	4a48      	ldr	r2, [pc, #288]	; (8000814 <main+0x3a8>)
 80006f4:	461c      	mov	r4, r3
 80006f6:	4615      	mov	r5, r2
 80006f8:	cd0f      	ldmia	r5!, {r0, r1, r2, r3}
 80006fa:	c40f      	stmia	r4!, {r0, r1, r2, r3}
 80006fc:	cd0f      	ldmia	r5!, {r0, r1, r2, r3}
 80006fe:	c40f      	stmia	r4!, {r0, r1, r2, r3}
 8000700:	cd0f      	ldmia	r5!, {r0, r1, r2, r3}
 8000702:	c40f      	stmia	r4!, {r0, r1, r2, r3}
 8000704:	e895 0003 	ldmia.w	r5, {r0, r1}
 8000708:	6020      	str	r0, [r4, #0]
 800070a:	3404      	adds	r4, #4
 800070c:	8021      	strh	r1, [r4, #0]
 800070e:	3402      	adds	r4, #2
 8000710:	0c0b      	lsrs	r3, r1, #16
 8000712:	7023      	strb	r3, [r4, #0]

  /* Infinite loop */
  /* USER CODE BEGIN WHILE */
  while (1)
  {
	  WakeUp(read_byte);
 8000714:	f507 7382 	add.w	r3, r7, #260	; 0x104
 8000718:	4618      	mov	r0, r3
 800071a:	f7ff fd63 	bl	80001e4 <WakeUp>
	  //BlockConfigZone(receiv_ack);
	  //WriteDataZone();
	  //WriteOTPZone();
	  //BlockDataZone();

	  ReadConfig(readCommand0, 35, read_config0);
 800071e:	f107 02dc 	add.w	r2, r7, #220	; 0xdc
 8000722:	f507 7330 	add.w	r3, r7, #704	; 0x2c0
 8000726:	2123      	movs	r1, #35	; 0x23
 8000728:	4618      	mov	r0, r3
 800072a:	f7ff fd9b 	bl	8000264 <ReadConfig>
	  ReadConfig(readCommand1, 35, read_config1);
 800072e:	f107 02b8 	add.w	r2, r7, #184	; 0xb8
 8000732:	f507 732e 	add.w	r3, r7, #696	; 0x2b8
 8000736:	2123      	movs	r1, #35	; 0x23
 8000738:	4618      	mov	r0, r3
 800073a:	f7ff fd93 	bl	8000264 <ReadConfig>
	  ReadConfig(readCommand2, 7, read_config2);
 800073e:	f107 02b0 	add.w	r2, r7, #176	; 0xb0
 8000742:	f507 732c 	add.w	r3, r7, #688	; 0x2b0
 8000746:	2107      	movs	r1, #7
 8000748:	4618      	mov	r0, r3
 800074a:	f7ff fd8b 	bl	8000264 <ReadConfig>
	  ReadConfig(readCommand3, 7, read_config3);
 800074e:	f107 02a8 	add.w	r2, r7, #168	; 0xa8
 8000752:	f507 732a 	add.w	r3, r7, #680	; 0x2a8
 8000756:	2107      	movs	r1, #7
 8000758:	4618      	mov	r0, r3
 800075a:	f7ff fd83 	bl	8000264 <ReadConfig>
	  ReadConfig(readCommand4, 7, read_config4);
 800075e:	f107 02a0 	add.w	r2, r7, #160	; 0xa0
 8000762:	f507 7328 	add.w	r3, r7, #672	; 0x2a0
 8000766:	2107      	movs	r1, #7
 8000768:	4618      	mov	r0, r3
 800076a:	f7ff fd7b 	bl	8000264 <ReadConfig>
	  ReadConfig(readCommand5, 7, read_config5);
 800076e:	f107 0298 	add.w	r2, r7, #152	; 0x98
 8000772:	f507 7326 	add.w	r3, r7, #664	; 0x298
 8000776:	2107      	movs	r1, #7
 8000778:	4618      	mov	r0, r3
 800077a:	f7ff fd73 	bl	8000264 <ReadConfig>
	  ReadConfig(readCommand6, 7, read_config6);
 800077e:	f107 0290 	add.w	r2, r7, #144	; 0x90
 8000782:	f507 7324 	add.w	r3, r7, #656	; 0x290
 8000786:	2107      	movs	r1, #7
 8000788:	4618      	mov	r0, r3
 800078a:	f7ff fd6b 	bl	8000264 <ReadConfig>
	  ReadConfig(readCommand7, 7, read_config7);
 800078e:	f107 0288 	add.w	r2, r7, #136	; 0x88
 8000792:	f507 7322 	add.w	r3, r7, #648	; 0x288
 8000796:	2107      	movs	r1, #7
 8000798:	4618      	mov	r0, r3
 800079a:	f7ff fd63 	bl	8000264 <ReadConfig>

	  CommandNonce(NumIn, 35, nonce_receiv);
 800079e:	f507 72f4 	add.w	r2, r7, #488	; 0x1e8
 80007a2:	f507 730c 	add.w	r3, r7, #560	; 0x230
 80007a6:	2123      	movs	r1, #35	; 0x23
 80007a8:	4618      	mov	r0, r3
 80007aa:	f7ff fd81 	bl	80002b0 <CommandNonce>
	  //TempKeyGen(nonce_receiv, NumIn, 0, 55, 35, tempnonce);
	  GendigCommand(0x02, 0x00, 4, gendig_receiv);
 80007ae:	f507 73a8 	add.w	r3, r7, #336	; 0x150
 80007b2:	2204      	movs	r2, #4
 80007b4:	2100      	movs	r1, #0
 80007b6:	2002      	movs	r0, #2
 80007b8:	f7ff fdd4 	bl	8000364 <GendigCommand>
	  //ReadDataZone(readMASTERKEY, 35, receiv_MASTERKEY);
	  //SHACommandInit(1, sha_init);
	  //SHACommandCompute(35, SHA_receiv);
	  MacCommand(0x04, 0x00, 35, MAC_receiv);
 80007bc:	f507 7396 	add.w	r3, r7, #300	; 0x12c
 80007c0:	2223      	movs	r2, #35	; 0x23
 80007c2:	2100      	movs	r1, #0
 80007c4:	2004      	movs	r0, #4
 80007c6:	f7ff fe0f 	bl	80003e8 <MacCommand>
	  calculateSHA256Hash(data, sizeof(data), hashString);
 80007ca:	1d3a      	adds	r2, r7, #4
 80007cc:	f107 0348 	add.w	r3, r7, #72	; 0x48
 80007d0:	2137      	movs	r1, #55	; 0x37
 80007d2:	4618      	mov	r0, r3
 80007d4:	f000 fd14 	bl	8001200 <calculateSHA256Hash>
	  //CheckMacCommand(0x04, 0x00, MAC_receiv, 4, CheckMAC_receiv);

	  //ReadEncript(LOBBYKEY_2, 35, LOBBYKEY_rec);

	  HAL_Delay(10);
 80007d8:	200a      	movs	r0, #10
 80007da:	f000 fef5 	bl	80015c8 <HAL_Delay>
	  WakeUp(read_byte);
 80007de:	e799      	b.n	8000714 <main+0x2a8>
 80007e0:	08003f84 	.word	0x08003f84
 80007e4:	08003f8c 	.word	0x08003f8c
 80007e8:	08003f94 	.word	0x08003f94
 80007ec:	08003f9c 	.word	0x08003f9c
 80007f0:	08003fa4 	.word	0x08003fa4
 80007f4:	08003fac 	.word	0x08003fac
 80007f8:	08003fb4 	.word	0x08003fb4
 80007fc:	08003fbc 	.word	0x08003fbc
 8000800:	08003fc4 	.word	0x08003fc4
 8000804:	08003fcc 	.word	0x08003fcc
 8000808:	08003fd4 	.word	0x08003fd4
 800080c:	08003fdc 	.word	0x08003fdc
 8000810:	08003fe4 	.word	0x08003fe4
 8000814:	08003ff8 	.word	0x08003ff8

08000818 <SystemClock_Config>:
/**
  * @brief System Clock Configuration
  * @retval None
  */
void SystemClock_Config(void)
{
 8000818:	b580      	push	{r7, lr}
 800081a:	b090      	sub	sp, #64	; 0x40
 800081c:	af00      	add	r7, sp, #0
  RCC_OscInitTypeDef RCC_OscInitStruct = {0};
 800081e:	f107 0318 	add.w	r3, r7, #24
 8000822:	2228      	movs	r2, #40	; 0x28
 8000824:	2100      	movs	r1, #0
 8000826:	4618      	mov	r0, r3
 8000828:	f003 fb14 	bl	8003e54 <memset>
  RCC_ClkInitTypeDef RCC_ClkInitStruct = {0};
 800082c:	1d3b      	adds	r3, r7, #4
 800082e:	2200      	movs	r2, #0
 8000830:	601a      	str	r2, [r3, #0]
 8000832:	605a      	str	r2, [r3, #4]
 8000834:	609a      	str	r2, [r3, #8]
 8000836:	60da      	str	r2, [r3, #12]
 8000838:	611a      	str	r2, [r3, #16]

  /** Initializes the RCC Oscillators according to the specified parameters
  * in the RCC_OscInitTypeDef structure.
  */
  RCC_OscInitStruct.OscillatorType = RCC_OSCILLATORTYPE_HSE;
 800083a:	2301      	movs	r3, #1
 800083c:	61bb      	str	r3, [r7, #24]
  RCC_OscInitStruct.HSEState = RCC_HSE_ON;
 800083e:	f44f 3380 	mov.w	r3, #65536	; 0x10000
 8000842:	61fb      	str	r3, [r7, #28]
  RCC_OscInitStruct.HSEPredivValue = RCC_HSE_PREDIV_DIV1;
 8000844:	2300      	movs	r3, #0
 8000846:	623b      	str	r3, [r7, #32]
  RCC_OscInitStruct.HSIState = RCC_HSI_ON;
 8000848:	2301      	movs	r3, #1
 800084a:	62bb      	str	r3, [r7, #40]	; 0x28
  RCC_OscInitStruct.PLL.PLLState = RCC_PLL_ON;
 800084c:	2302      	movs	r3, #2
 800084e:	637b      	str	r3, [r7, #52]	; 0x34
  RCC_OscInitStruct.PLL.PLLSource = RCC_PLLSOURCE_HSE;
 8000850:	f44f 3380 	mov.w	r3, #65536	; 0x10000
 8000854:	63bb      	str	r3, [r7, #56]	; 0x38
  RCC_OscInitStruct.PLL.PLLMUL = RCC_PLL_MUL9;
 8000856:	f44f 13e0 	mov.w	r3, #1835008	; 0x1c0000
 800085a:	63fb      	str	r3, [r7, #60]	; 0x3c
  if (HAL_RCC_OscConfig(&RCC_OscInitStruct) != HAL_OK)
 800085c:	f107 0318 	add.w	r3, r7, #24
 8000860:	4618      	mov	r0, r3
 8000862:	f002 f9ab 	bl	8002bbc <HAL_RCC_OscConfig>
 8000866:	4603      	mov	r3, r0
 8000868:	2b00      	cmp	r3, #0
 800086a:	d001      	beq.n	8000870 <SystemClock_Config+0x58>
  {
    Error_Handler();
 800086c:	f000 f8ae 	bl	80009cc <Error_Handler>
  }

  /** Initializes the CPU, AHB and APB buses clocks
  */
  RCC_ClkInitStruct.ClockType = RCC_CLOCKTYPE_HCLK|RCC_CLOCKTYPE_SYSCLK
 8000870:	230f      	movs	r3, #15
 8000872:	607b      	str	r3, [r7, #4]
                              |RCC_CLOCKTYPE_PCLK1|RCC_CLOCKTYPE_PCLK2;
  RCC_ClkInitStruct.SYSCLKSource = RCC_SYSCLKSOURCE_PLLCLK;
 8000874:	2302      	movs	r3, #2
 8000876:	60bb      	str	r3, [r7, #8]
  RCC_ClkInitStruct.AHBCLKDivider = RCC_SYSCLK_DIV1;
 8000878:	2300      	movs	r3, #0
 800087a:	60fb      	str	r3, [r7, #12]
  RCC_ClkInitStruct.APB1CLKDivider = RCC_HCLK_DIV2;
 800087c:	f44f 6380 	mov.w	r3, #1024	; 0x400
 8000880:	613b      	str	r3, [r7, #16]
  RCC_ClkInitStruct.APB2CLKDivider = RCC_HCLK_DIV1;
 8000882:	2300      	movs	r3, #0
 8000884:	617b      	str	r3, [r7, #20]

  if (HAL_RCC_ClockConfig(&RCC_ClkInitStruct, FLASH_LATENCY_2) != HAL_OK)
 8000886:	1d3b      	adds	r3, r7, #4
 8000888:	2102      	movs	r1, #2
 800088a:	4618      	mov	r0, r3
 800088c:	f002 fc18 	bl	80030c0 <HAL_RCC_ClockConfig>
 8000890:	4603      	mov	r3, r0
 8000892:	2b00      	cmp	r3, #0
 8000894:	d001      	beq.n	800089a <SystemClock_Config+0x82>
  {
    Error_Handler();
 8000896:	f000 f899 	bl	80009cc <Error_Handler>
  }
}
 800089a:	bf00      	nop
 800089c:	3740      	adds	r7, #64	; 0x40
 800089e:	46bd      	mov	sp, r7
 80008a0:	bd80      	pop	{r7, pc}
	...

080008a4 <MX_I2C2_Init>:
  * @brief I2C2 Initialization Function
  * @param None
  * @retval None
  */
static void MX_I2C2_Init(void)
{
 80008a4:	b580      	push	{r7, lr}
 80008a6:	af00      	add	r7, sp, #0
  /* USER CODE END I2C2_Init 0 */

  /* USER CODE BEGIN I2C2_Init 1 */

  /* USER CODE END I2C2_Init 1 */
  hi2c2.Instance = I2C2;
 80008a8:	4b12      	ldr	r3, [pc, #72]	; (80008f4 <MX_I2C2_Init+0x50>)
 80008aa:	4a13      	ldr	r2, [pc, #76]	; (80008f8 <MX_I2C2_Init+0x54>)
 80008ac:	601a      	str	r2, [r3, #0]
  hi2c2.Init.ClockSpeed = 100000;
 80008ae:	4b11      	ldr	r3, [pc, #68]	; (80008f4 <MX_I2C2_Init+0x50>)
 80008b0:	4a12      	ldr	r2, [pc, #72]	; (80008fc <MX_I2C2_Init+0x58>)
 80008b2:	605a      	str	r2, [r3, #4]
  hi2c2.Init.DutyCycle = I2C_DUTYCYCLE_2;
 80008b4:	4b0f      	ldr	r3, [pc, #60]	; (80008f4 <MX_I2C2_Init+0x50>)
 80008b6:	2200      	movs	r2, #0
 80008b8:	609a      	str	r2, [r3, #8]
  hi2c2.Init.OwnAddress1 = 0;
 80008ba:	4b0e      	ldr	r3, [pc, #56]	; (80008f4 <MX_I2C2_Init+0x50>)
 80008bc:	2200      	movs	r2, #0
 80008be:	60da      	str	r2, [r3, #12]
  hi2c2.Init.AddressingMode = I2C_ADDRESSINGMODE_7BIT;
 80008c0:	4b0c      	ldr	r3, [pc, #48]	; (80008f4 <MX_I2C2_Init+0x50>)
 80008c2:	f44f 4280 	mov.w	r2, #16384	; 0x4000
 80008c6:	611a      	str	r2, [r3, #16]
  hi2c2.Init.DualAddressMode = I2C_DUALADDRESS_DISABLE;
 80008c8:	4b0a      	ldr	r3, [pc, #40]	; (80008f4 <MX_I2C2_Init+0x50>)
 80008ca:	2200      	movs	r2, #0
 80008cc:	615a      	str	r2, [r3, #20]
  hi2c2.Init.OwnAddress2 = 0;
 80008ce:	4b09      	ldr	r3, [pc, #36]	; (80008f4 <MX_I2C2_Init+0x50>)
 80008d0:	2200      	movs	r2, #0
 80008d2:	619a      	str	r2, [r3, #24]
  hi2c2.Init.GeneralCallMode = I2C_GENERALCALL_DISABLE;
 80008d4:	4b07      	ldr	r3, [pc, #28]	; (80008f4 <MX_I2C2_Init+0x50>)
 80008d6:	2200      	movs	r2, #0
 80008d8:	61da      	str	r2, [r3, #28]
  hi2c2.Init.NoStretchMode = I2C_NOSTRETCH_DISABLE;
 80008da:	4b06      	ldr	r3, [pc, #24]	; (80008f4 <MX_I2C2_Init+0x50>)
 80008dc:	2200      	movs	r2, #0
 80008de:	621a      	str	r2, [r3, #32]
  if (HAL_I2C_Init(&hi2c2) != HAL_OK)
 80008e0:	4804      	ldr	r0, [pc, #16]	; (80008f4 <MX_I2C2_Init+0x50>)
 80008e2:	f001 f99d 	bl	8001c20 <HAL_I2C_Init>
 80008e6:	4603      	mov	r3, r0
 80008e8:	2b00      	cmp	r3, #0
 80008ea:	d001      	beq.n	80008f0 <MX_I2C2_Init+0x4c>
  {
    Error_Handler();
 80008ec:	f000 f86e 	bl	80009cc <Error_Handler>
  }
  /* USER CODE BEGIN I2C2_Init 2 */

  /* USER CODE END I2C2_Init 2 */

}
 80008f0:	bf00      	nop
 80008f2:	bd80      	pop	{r7, pc}
 80008f4:	20000078 	.word	0x20000078
 80008f8:	40005800 	.word	0x40005800
 80008fc:	000186a0 	.word	0x000186a0

08000900 <MX_USART1_Init>:
  * @brief USART1 Initialization Function
  * @param None
  * @retval None
  */
static void MX_USART1_Init(void)
{
 8000900:	b580      	push	{r7, lr}
 8000902:	af00      	add	r7, sp, #0
  /* USER CODE END USART1_Init 0 */

  /* USER CODE BEGIN USART1_Init 1 */

  /* USER CODE END USART1_Init 1 */
  husart1.Instance = USART1;
 8000904:	4b12      	ldr	r3, [pc, #72]	; (8000950 <MX_USART1_Init+0x50>)
 8000906:	4a13      	ldr	r2, [pc, #76]	; (8000954 <MX_USART1_Init+0x54>)
 8000908:	601a      	str	r2, [r3, #0]
  husart1.Init.BaudRate = 115200;
 800090a:	4b11      	ldr	r3, [pc, #68]	; (8000950 <MX_USART1_Init+0x50>)
 800090c:	f44f 32e1 	mov.w	r2, #115200	; 0x1c200
 8000910:	605a      	str	r2, [r3, #4]
  husart1.Init.WordLength = USART_WORDLENGTH_8B;
 8000912:	4b0f      	ldr	r3, [pc, #60]	; (8000950 <MX_USART1_Init+0x50>)
 8000914:	2200      	movs	r2, #0
 8000916:	609a      	str	r2, [r3, #8]
  husart1.Init.StopBits = USART_STOPBITS_1;
 8000918:	4b0d      	ldr	r3, [pc, #52]	; (8000950 <MX_USART1_Init+0x50>)
 800091a:	2200      	movs	r2, #0
 800091c:	60da      	str	r2, [r3, #12]
  husart1.Init.Parity = USART_PARITY_NONE;
 800091e:	4b0c      	ldr	r3, [pc, #48]	; (8000950 <MX_USART1_Init+0x50>)
 8000920:	2200      	movs	r2, #0
 8000922:	611a      	str	r2, [r3, #16]
  husart1.Init.Mode = USART_MODE_TX_RX;
 8000924:	4b0a      	ldr	r3, [pc, #40]	; (8000950 <MX_USART1_Init+0x50>)
 8000926:	220c      	movs	r2, #12
 8000928:	615a      	str	r2, [r3, #20]
  husart1.Init.CLKPolarity = USART_POLARITY_LOW;
 800092a:	4b09      	ldr	r3, [pc, #36]	; (8000950 <MX_USART1_Init+0x50>)
 800092c:	2200      	movs	r2, #0
 800092e:	619a      	str	r2, [r3, #24]
  husart1.Init.CLKPhase = USART_PHASE_1EDGE;
 8000930:	4b07      	ldr	r3, [pc, #28]	; (8000950 <MX_USART1_Init+0x50>)
 8000932:	2200      	movs	r2, #0
 8000934:	61da      	str	r2, [r3, #28]
  husart1.Init.CLKLastBit = USART_LASTBIT_DISABLE;
 8000936:	4b06      	ldr	r3, [pc, #24]	; (8000950 <MX_USART1_Init+0x50>)
 8000938:	2200      	movs	r2, #0
 800093a:	621a      	str	r2, [r3, #32]
  if (HAL_USART_Init(&husart1) != HAL_OK)
 800093c:	4804      	ldr	r0, [pc, #16]	; (8000950 <MX_USART1_Init+0x50>)
 800093e:	f002 fd57 	bl	80033f0 <HAL_USART_Init>
 8000942:	4603      	mov	r3, r0
 8000944:	2b00      	cmp	r3, #0
 8000946:	d001      	beq.n	800094c <MX_USART1_Init+0x4c>
  {
    Error_Handler();
 8000948:	f000 f840 	bl	80009cc <Error_Handler>
  }
  /* USER CODE BEGIN USART1_Init 2 */

  /* USER CODE END USART1_Init 2 */

}
 800094c:	bf00      	nop
 800094e:	bd80      	pop	{r7, pc}
 8000950:	200000cc 	.word	0x200000cc
 8000954:	40013800 	.word	0x40013800

08000958 <MX_GPIO_Init>:
  * @brief GPIO Initialization Function
  * @param None
  * @retval None
  */
static void MX_GPIO_Init(void)
{
 8000958:	b480      	push	{r7}
 800095a:	b085      	sub	sp, #20
 800095c:	af00      	add	r7, sp, #0

  /* GPIO Ports Clock Enable */
  __HAL_RCC_GPIOC_CLK_ENABLE();
 800095e:	4b1a      	ldr	r3, [pc, #104]	; (80009c8 <MX_GPIO_Init+0x70>)
 8000960:	699b      	ldr	r3, [r3, #24]
 8000962:	4a19      	ldr	r2, [pc, #100]	; (80009c8 <MX_GPIO_Init+0x70>)
 8000964:	f043 0310 	orr.w	r3, r3, #16
 8000968:	6193      	str	r3, [r2, #24]
 800096a:	4b17      	ldr	r3, [pc, #92]	; (80009c8 <MX_GPIO_Init+0x70>)
 800096c:	699b      	ldr	r3, [r3, #24]
 800096e:	f003 0310 	and.w	r3, r3, #16
 8000972:	60fb      	str	r3, [r7, #12]
 8000974:	68fb      	ldr	r3, [r7, #12]
  __HAL_RCC_GPIOD_CLK_ENABLE();
 8000976:	4b14      	ldr	r3, [pc, #80]	; (80009c8 <MX_GPIO_Init+0x70>)
 8000978:	699b      	ldr	r3, [r3, #24]
 800097a:	4a13      	ldr	r2, [pc, #76]	; (80009c8 <MX_GPIO_Init+0x70>)
 800097c:	f043 0320 	orr.w	r3, r3, #32
 8000980:	6193      	str	r3, [r2, #24]
 8000982:	4b11      	ldr	r3, [pc, #68]	; (80009c8 <MX_GPIO_Init+0x70>)
 8000984:	699b      	ldr	r3, [r3, #24]
 8000986:	f003 0320 	and.w	r3, r3, #32
 800098a:	60bb      	str	r3, [r7, #8]
 800098c:	68bb      	ldr	r3, [r7, #8]
  __HAL_RCC_GPIOB_CLK_ENABLE();
 800098e:	4b0e      	ldr	r3, [pc, #56]	; (80009c8 <MX_GPIO_Init+0x70>)
 8000990:	699b      	ldr	r3, [r3, #24]
 8000992:	4a0d      	ldr	r2, [pc, #52]	; (80009c8 <MX_GPIO_Init+0x70>)
 8000994:	f043 0308 	orr.w	r3, r3, #8
 8000998:	6193      	str	r3, [r2, #24]
 800099a:	4b0b      	ldr	r3, [pc, #44]	; (80009c8 <MX_GPIO_Init+0x70>)
 800099c:	699b      	ldr	r3, [r3, #24]
 800099e:	f003 0308 	and.w	r3, r3, #8
 80009a2:	607b      	str	r3, [r7, #4]
 80009a4:	687b      	ldr	r3, [r7, #4]
  __HAL_RCC_GPIOA_CLK_ENABLE();
 80009a6:	4b08      	ldr	r3, [pc, #32]	; (80009c8 <MX_GPIO_Init+0x70>)
 80009a8:	699b      	ldr	r3, [r3, #24]
 80009aa:	4a07      	ldr	r2, [pc, #28]	; (80009c8 <MX_GPIO_Init+0x70>)
 80009ac:	f043 0304 	orr.w	r3, r3, #4
 80009b0:	6193      	str	r3, [r2, #24]
 80009b2:	4b05      	ldr	r3, [pc, #20]	; (80009c8 <MX_GPIO_Init+0x70>)
 80009b4:	699b      	ldr	r3, [r3, #24]
 80009b6:	f003 0304 	and.w	r3, r3, #4
 80009ba:	603b      	str	r3, [r7, #0]
 80009bc:	683b      	ldr	r3, [r7, #0]

}
 80009be:	bf00      	nop
 80009c0:	3714      	adds	r7, #20
 80009c2:	46bd      	mov	sp, r7
 80009c4:	bc80      	pop	{r7}
 80009c6:	4770      	bx	lr
 80009c8:	40021000 	.word	0x40021000

080009cc <Error_Handler>:
/**
  * @brief  This function is executed in case of error occurrence.
  * @retval None
  */
void Error_Handler(void)
{
 80009cc:	b480      	push	{r7}
 80009ce:	af00      	add	r7, sp, #0
  \details Disables IRQ interrupts by setting the I-bit in the CPSR.
           Can only be executed in Privileged modes.
 */
__STATIC_FORCEINLINE void __disable_irq(void)
{
  __ASM volatile ("cpsid i" : : : "memory");
 80009d0:	b672      	cpsid	i
}
 80009d2:	bf00      	nop
  /* USER CODE BEGIN Error_Handler_Debug */
  /* User can add his own implementation to report the HAL error return state */
  __disable_irq();
  while (1)
 80009d4:	e7fe      	b.n	80009d4 <Error_Handler+0x8>
	...

080009d8 <sha256_init>:
};

SHA256 ctx;

// Implementao do construtor SHA256::SHA256()
void sha256_init(SHA256 *ctx) {
 80009d8:	b480      	push	{r7}
 80009da:	b083      	sub	sp, #12
 80009dc:	af00      	add	r7, sp, #0
 80009de:	6078      	str	r0, [r7, #4]
    // Inicialize m_blocklen e m_bitlen
    ctx->m_blocklen = 0;
 80009e0:	687b      	ldr	r3, [r7, #4]
 80009e2:	2200      	movs	r2, #0
 80009e4:	669a      	str	r2, [r3, #104]	; 0x68
    ctx->m_bitlen = 0;
 80009e6:	6879      	ldr	r1, [r7, #4]
 80009e8:	f04f 0200 	mov.w	r2, #0
 80009ec:	f04f 0300 	mov.w	r3, #0
 80009f0:	e9c1 2318 	strd	r2, r3, [r1, #96]	; 0x60

    // Inicialize o estado do hash
    ctx->m_state[0] = 0x6a09e667;
 80009f4:	687b      	ldr	r3, [r7, #4]
 80009f6:	4a0e      	ldr	r2, [pc, #56]	; (8000a30 <sha256_init+0x58>)
 80009f8:	601a      	str	r2, [r3, #0]
    ctx->m_state[1] = 0xbb67ae85;
 80009fa:	687b      	ldr	r3, [r7, #4]
 80009fc:	4a0d      	ldr	r2, [pc, #52]	; (8000a34 <sha256_init+0x5c>)
 80009fe:	605a      	str	r2, [r3, #4]
    ctx->m_state[2] = 0x3c6ef372;
 8000a00:	687b      	ldr	r3, [r7, #4]
 8000a02:	4a0d      	ldr	r2, [pc, #52]	; (8000a38 <sha256_init+0x60>)
 8000a04:	609a      	str	r2, [r3, #8]
    ctx->m_state[3] = 0xa54ff53a;
 8000a06:	687b      	ldr	r3, [r7, #4]
 8000a08:	4a0c      	ldr	r2, [pc, #48]	; (8000a3c <sha256_init+0x64>)
 8000a0a:	60da      	str	r2, [r3, #12]
    ctx->m_state[4] = 0x510e527f;
 8000a0c:	687b      	ldr	r3, [r7, #4]
 8000a0e:	4a0c      	ldr	r2, [pc, #48]	; (8000a40 <sha256_init+0x68>)
 8000a10:	611a      	str	r2, [r3, #16]
    ctx->m_state[5] = 0x9b05688c;
 8000a12:	687b      	ldr	r3, [r7, #4]
 8000a14:	4a0b      	ldr	r2, [pc, #44]	; (8000a44 <sha256_init+0x6c>)
 8000a16:	615a      	str	r2, [r3, #20]
    ctx->m_state[6] = 0x1f83d9ab;
 8000a18:	687b      	ldr	r3, [r7, #4]
 8000a1a:	4a0b      	ldr	r2, [pc, #44]	; (8000a48 <sha256_init+0x70>)
 8000a1c:	619a      	str	r2, [r3, #24]
    ctx->m_state[7] = 0x5be0cd19;
 8000a1e:	687b      	ldr	r3, [r7, #4]
 8000a20:	4a0a      	ldr	r2, [pc, #40]	; (8000a4c <sha256_init+0x74>)
 8000a22:	61da      	str	r2, [r3, #28]
}
 8000a24:	bf00      	nop
 8000a26:	370c      	adds	r7, #12
 8000a28:	46bd      	mov	sp, r7
 8000a2a:	bc80      	pop	{r7}
 8000a2c:	4770      	bx	lr
 8000a2e:	bf00      	nop
 8000a30:	6a09e667 	.word	0x6a09e667
 8000a34:	bb67ae85 	.word	0xbb67ae85
 8000a38:	3c6ef372 	.word	0x3c6ef372
 8000a3c:	a54ff53a 	.word	0xa54ff53a
 8000a40:	510e527f 	.word	0x510e527f
 8000a44:	9b05688c 	.word	0x9b05688c
 8000a48:	1f83d9ab 	.word	0x1f83d9ab
 8000a4c:	5be0cd19 	.word	0x5be0cd19

08000a50 <sha256_update>:

void sha256_update(SHA256 *ctx, const uint8_t *data, uint8_t length) {
 8000a50:	b5b0      	push	{r4, r5, r7, lr}
 8000a52:	b086      	sub	sp, #24
 8000a54:	af00      	add	r7, sp, #0
 8000a56:	60f8      	str	r0, [r7, #12]
 8000a58:	60b9      	str	r1, [r7, #8]
 8000a5a:	4613      	mov	r3, r2
 8000a5c:	71fb      	strb	r3, [r7, #7]
    for (size_t i = 0; i < length; i++) {
 8000a5e:	2300      	movs	r3, #0
 8000a60:	617b      	str	r3, [r7, #20]
 8000a62:	e024      	b.n	8000aae <sha256_update+0x5e>
        ctx->m_data[ctx->m_blocklen++] = data[i];
 8000a64:	68ba      	ldr	r2, [r7, #8]
 8000a66:	697b      	ldr	r3, [r7, #20]
 8000a68:	441a      	add	r2, r3
 8000a6a:	68fb      	ldr	r3, [r7, #12]
 8000a6c:	6e9b      	ldr	r3, [r3, #104]	; 0x68
 8000a6e:	1c58      	adds	r0, r3, #1
 8000a70:	68f9      	ldr	r1, [r7, #12]
 8000a72:	6688      	str	r0, [r1, #104]	; 0x68
 8000a74:	7811      	ldrb	r1, [r2, #0]
 8000a76:	68fa      	ldr	r2, [r7, #12]
 8000a78:	4413      	add	r3, r2
 8000a7a:	460a      	mov	r2, r1
 8000a7c:	f883 2020 	strb.w	r2, [r3, #32]
        if (ctx->m_blocklen == 64) {
 8000a80:	68fb      	ldr	r3, [r7, #12]
 8000a82:	6e9b      	ldr	r3, [r3, #104]	; 0x68
 8000a84:	2b40      	cmp	r3, #64	; 0x40
 8000a86:	d10f      	bne.n	8000aa8 <sha256_update+0x58>
            // Chame a funo transform() aqui usando ctx->m_state
        	sha256_transform(ctx);
 8000a88:	68f8      	ldr	r0, [r7, #12]
 8000a8a:	f000 f897 	bl	8000bbc <sha256_transform>


            // Fim do bloco
            ctx->m_bitlen += 512;
 8000a8e:	68fb      	ldr	r3, [r7, #12]
 8000a90:	e9d3 2318 	ldrd	r2, r3, [r3, #96]	; 0x60
 8000a94:	f512 7400 	adds.w	r4, r2, #512	; 0x200
 8000a98:	f143 0500 	adc.w	r5, r3, #0
 8000a9c:	68fb      	ldr	r3, [r7, #12]
 8000a9e:	e9c3 4518 	strd	r4, r5, [r3, #96]	; 0x60
            ctx->m_blocklen = 0;
 8000aa2:	68fb      	ldr	r3, [r7, #12]
 8000aa4:	2200      	movs	r2, #0
 8000aa6:	669a      	str	r2, [r3, #104]	; 0x68
    for (size_t i = 0; i < length; i++) {
 8000aa8:	697b      	ldr	r3, [r7, #20]
 8000aaa:	3301      	adds	r3, #1
 8000aac:	617b      	str	r3, [r7, #20]
 8000aae:	79fb      	ldrb	r3, [r7, #7]
 8000ab0:	697a      	ldr	r2, [r7, #20]
 8000ab2:	429a      	cmp	r2, r3
 8000ab4:	d3d6      	bcc.n	8000a64 <sha256_update+0x14>
        }
    }
}
 8000ab6:	bf00      	nop
 8000ab8:	bf00      	nop
 8000aba:	3718      	adds	r7, #24
 8000abc:	46bd      	mov	sp, r7
 8000abe:	bdb0      	pop	{r4, r5, r7, pc}

08000ac0 <sha256_digest>:
    size_t length = strlen(data);
    sha256_update(ctx, (const uint8_t *)data, length);
}


uint8_t *sha256_digest(SHA256 *ctx) {
 8000ac0:	b580      	push	{r7, lr}
 8000ac2:	b084      	sub	sp, #16
 8000ac4:	af00      	add	r7, sp, #0
 8000ac6:	6078      	str	r0, [r7, #4]
    uint8_t *hash = (uint8_t *)malloc(32 * sizeof(uint8_t));
 8000ac8:	2020      	movs	r0, #32
 8000aca:	f003 f907 	bl	8003cdc <malloc>
 8000ace:	4603      	mov	r3, r0
 8000ad0:	60fb      	str	r3, [r7, #12]
    if (hash == NULL) {
 8000ad2:	68fb      	ldr	r3, [r7, #12]
 8000ad4:	2b00      	cmp	r3, #0
 8000ad6:	d101      	bne.n	8000adc <sha256_digest+0x1c>
        // Tratamento de erro, no foi possvel alocar memria
        return NULL;
 8000ad8:	2300      	movs	r3, #0
 8000ada:	e007      	b.n	8000aec <sha256_digest+0x2c>
    }

    sha256_pad(ctx);
 8000adc:	6878      	ldr	r0, [r7, #4]
 8000ade:	f000 fa4d 	bl	8000f7c <sha256_pad>
    sha256_revert(ctx, hash);
 8000ae2:	68f9      	ldr	r1, [r7, #12]
 8000ae4:	6878      	ldr	r0, [r7, #4]
 8000ae6:	f000 fb16 	bl	8001116 <sha256_revert>

    return hash;
 8000aea:	68fb      	ldr	r3, [r7, #12]
}
 8000aec:	4618      	mov	r0, r3
 8000aee:	3710      	adds	r7, #16
 8000af0:	46bd      	mov	sp, r7
 8000af2:	bd80      	pop	{r7, pc}

08000af4 <sha256_rotr>:


uint32_t sha256_rotr(uint32_t x, uint32_t n) {
 8000af4:	b480      	push	{r7}
 8000af6:	b083      	sub	sp, #12
 8000af8:	af00      	add	r7, sp, #0
 8000afa:	6078      	str	r0, [r7, #4]
 8000afc:	6039      	str	r1, [r7, #0]
    return (x >> n) | (x << (32 - n));
 8000afe:	687a      	ldr	r2, [r7, #4]
 8000b00:	683b      	ldr	r3, [r7, #0]
 8000b02:	fa62 f303 	ror.w	r3, r2, r3
}
 8000b06:	4618      	mov	r0, r3
 8000b08:	370c      	adds	r7, #12
 8000b0a:	46bd      	mov	sp, r7
 8000b0c:	bc80      	pop	{r7}
 8000b0e:	4770      	bx	lr

08000b10 <sha256_choose>:

uint32_t sha256_choose(uint32_t e, uint32_t f, uint32_t g) {
 8000b10:	b480      	push	{r7}
 8000b12:	b085      	sub	sp, #20
 8000b14:	af00      	add	r7, sp, #0
 8000b16:	60f8      	str	r0, [r7, #12]
 8000b18:	60b9      	str	r1, [r7, #8]
 8000b1a:	607a      	str	r2, [r7, #4]
    return (e & f) ^ (~e & g);
 8000b1c:	68fa      	ldr	r2, [r7, #12]
 8000b1e:	68bb      	ldr	r3, [r7, #8]
 8000b20:	401a      	ands	r2, r3
 8000b22:	68fb      	ldr	r3, [r7, #12]
 8000b24:	43d9      	mvns	r1, r3
 8000b26:	687b      	ldr	r3, [r7, #4]
 8000b28:	400b      	ands	r3, r1
 8000b2a:	4053      	eors	r3, r2
}
 8000b2c:	4618      	mov	r0, r3
 8000b2e:	3714      	adds	r7, #20
 8000b30:	46bd      	mov	sp, r7
 8000b32:	bc80      	pop	{r7}
 8000b34:	4770      	bx	lr

08000b36 <sha256_majority>:

uint32_t sha256_majority(uint32_t a, uint32_t b, uint32_t c) {
 8000b36:	b480      	push	{r7}
 8000b38:	b085      	sub	sp, #20
 8000b3a:	af00      	add	r7, sp, #0
 8000b3c:	60f8      	str	r0, [r7, #12]
 8000b3e:	60b9      	str	r1, [r7, #8]
 8000b40:	607a      	str	r2, [r7, #4]
    return (a & (b | c)) | (b & c);
 8000b42:	68ba      	ldr	r2, [r7, #8]
 8000b44:	687b      	ldr	r3, [r7, #4]
 8000b46:	431a      	orrs	r2, r3
 8000b48:	68fb      	ldr	r3, [r7, #12]
 8000b4a:	401a      	ands	r2, r3
 8000b4c:	68b9      	ldr	r1, [r7, #8]
 8000b4e:	687b      	ldr	r3, [r7, #4]
 8000b50:	400b      	ands	r3, r1
 8000b52:	4313      	orrs	r3, r2
}
 8000b54:	4618      	mov	r0, r3
 8000b56:	3714      	adds	r7, #20
 8000b58:	46bd      	mov	sp, r7
 8000b5a:	bc80      	pop	{r7}
 8000b5c:	4770      	bx	lr

08000b5e <sha256_sig0>:

uint32_t sha256_sig0(uint32_t x) {
 8000b5e:	b590      	push	{r4, r7, lr}
 8000b60:	b083      	sub	sp, #12
 8000b62:	af00      	add	r7, sp, #0
 8000b64:	6078      	str	r0, [r7, #4]
    return sha256_rotr(x, 7) ^ sha256_rotr(x, 18) ^ (x >> 3);
 8000b66:	2107      	movs	r1, #7
 8000b68:	6878      	ldr	r0, [r7, #4]
 8000b6a:	f7ff ffc3 	bl	8000af4 <sha256_rotr>
 8000b6e:	4604      	mov	r4, r0
 8000b70:	2112      	movs	r1, #18
 8000b72:	6878      	ldr	r0, [r7, #4]
 8000b74:	f7ff ffbe 	bl	8000af4 <sha256_rotr>
 8000b78:	4603      	mov	r3, r0
 8000b7a:	ea84 0203 	eor.w	r2, r4, r3
 8000b7e:	687b      	ldr	r3, [r7, #4]
 8000b80:	08db      	lsrs	r3, r3, #3
 8000b82:	4053      	eors	r3, r2
}
 8000b84:	4618      	mov	r0, r3
 8000b86:	370c      	adds	r7, #12
 8000b88:	46bd      	mov	sp, r7
 8000b8a:	bd90      	pop	{r4, r7, pc}

08000b8c <sha256_sig1>:

uint32_t sha256_sig1(uint32_t x) {
 8000b8c:	b590      	push	{r4, r7, lr}
 8000b8e:	b083      	sub	sp, #12
 8000b90:	af00      	add	r7, sp, #0
 8000b92:	6078      	str	r0, [r7, #4]
    return sha256_rotr(x, 17) ^ sha256_rotr(x, 19) ^ (x >> 10);
 8000b94:	2111      	movs	r1, #17
 8000b96:	6878      	ldr	r0, [r7, #4]
 8000b98:	f7ff ffac 	bl	8000af4 <sha256_rotr>
 8000b9c:	4604      	mov	r4, r0
 8000b9e:	2113      	movs	r1, #19
 8000ba0:	6878      	ldr	r0, [r7, #4]
 8000ba2:	f7ff ffa7 	bl	8000af4 <sha256_rotr>
 8000ba6:	4603      	mov	r3, r0
 8000ba8:	ea84 0203 	eor.w	r2, r4, r3
 8000bac:	687b      	ldr	r3, [r7, #4]
 8000bae:	0a9b      	lsrs	r3, r3, #10
 8000bb0:	4053      	eors	r3, r2
}
 8000bb2:	4618      	mov	r0, r3
 8000bb4:	370c      	adds	r7, #12
 8000bb6:	46bd      	mov	sp, r7
 8000bb8:	bd90      	pop	{r4, r7, pc}
	...

08000bbc <sha256_transform>:

void sha256_transform(SHA256 *ctx) {
 8000bbc:	b590      	push	{r4, r7, lr}
 8000bbe:	b0d5      	sub	sp, #340	; 0x154
 8000bc0:	af00      	add	r7, sp, #0
 8000bc2:	f507 73a8 	add.w	r3, r7, #336	; 0x150
 8000bc6:	f5a3 73a6 	sub.w	r3, r3, #332	; 0x14c
 8000bca:	6018      	str	r0, [r3, #0]
    uint32_t maj, xorA, ch, xorE, sum, newA, newE, m[64];
    uint32_t state[8];

    for (uint8_t i = 0, j = 0; i < 16; i++, j += 4) {
 8000bcc:	2300      	movs	r3, #0
 8000bce:	f887 314f 	strb.w	r3, [r7, #335]	; 0x14f
 8000bd2:	2300      	movs	r3, #0
 8000bd4:	f887 314e 	strb.w	r3, [r7, #334]	; 0x14e
 8000bd8:	e043      	b.n	8000c62 <sha256_transform+0xa6>
        m[i] = (ctx->m_data[j] << 24) | (ctx->m_data[j + 1] << 16) | (ctx->m_data[j + 2] << 8) | (ctx->m_data[j + 3]);
 8000bda:	f897 314e 	ldrb.w	r3, [r7, #334]	; 0x14e
 8000bde:	f507 72a8 	add.w	r2, r7, #336	; 0x150
 8000be2:	f5a2 72a6 	sub.w	r2, r2, #332	; 0x14c
 8000be6:	6812      	ldr	r2, [r2, #0]
 8000be8:	4413      	add	r3, r2
 8000bea:	f893 3020 	ldrb.w	r3, [r3, #32]
 8000bee:	061a      	lsls	r2, r3, #24
 8000bf0:	f897 314e 	ldrb.w	r3, [r7, #334]	; 0x14e
 8000bf4:	3301      	adds	r3, #1
 8000bf6:	f507 71a8 	add.w	r1, r7, #336	; 0x150
 8000bfa:	f5a1 71a6 	sub.w	r1, r1, #332	; 0x14c
 8000bfe:	6809      	ldr	r1, [r1, #0]
 8000c00:	440b      	add	r3, r1
 8000c02:	f893 3020 	ldrb.w	r3, [r3, #32]
 8000c06:	041b      	lsls	r3, r3, #16
 8000c08:	431a      	orrs	r2, r3
 8000c0a:	f897 314e 	ldrb.w	r3, [r7, #334]	; 0x14e
 8000c0e:	3302      	adds	r3, #2
 8000c10:	f507 71a8 	add.w	r1, r7, #336	; 0x150
 8000c14:	f5a1 71a6 	sub.w	r1, r1, #332	; 0x14c
 8000c18:	6809      	ldr	r1, [r1, #0]
 8000c1a:	440b      	add	r3, r1
 8000c1c:	f893 3020 	ldrb.w	r3, [r3, #32]
 8000c20:	021b      	lsls	r3, r3, #8
 8000c22:	4313      	orrs	r3, r2
 8000c24:	f897 214e 	ldrb.w	r2, [r7, #334]	; 0x14e
 8000c28:	3203      	adds	r2, #3
 8000c2a:	f507 71a8 	add.w	r1, r7, #336	; 0x150
 8000c2e:	f5a1 71a6 	sub.w	r1, r1, #332	; 0x14c
 8000c32:	6809      	ldr	r1, [r1, #0]
 8000c34:	440a      	add	r2, r1
 8000c36:	f892 2020 	ldrb.w	r2, [r2, #32]
 8000c3a:	4313      	orrs	r3, r2
 8000c3c:	f897 214f 	ldrb.w	r2, [r7, #335]	; 0x14f
 8000c40:	4619      	mov	r1, r3
 8000c42:	f507 73a8 	add.w	r3, r7, #336	; 0x150
 8000c46:	f5a3 7392 	sub.w	r3, r3, #292	; 0x124
 8000c4a:	f843 1022 	str.w	r1, [r3, r2, lsl #2]
    for (uint8_t i = 0, j = 0; i < 16; i++, j += 4) {
 8000c4e:	f897 314f 	ldrb.w	r3, [r7, #335]	; 0x14f
 8000c52:	3301      	adds	r3, #1
 8000c54:	f887 314f 	strb.w	r3, [r7, #335]	; 0x14f
 8000c58:	f897 314e 	ldrb.w	r3, [r7, #334]	; 0x14e
 8000c5c:	3304      	adds	r3, #4
 8000c5e:	f887 314e 	strb.w	r3, [r7, #334]	; 0x14e
 8000c62:	f897 314f 	ldrb.w	r3, [r7, #335]	; 0x14f
 8000c66:	2b0f      	cmp	r3, #15
 8000c68:	d9b7      	bls.n	8000bda <sha256_transform+0x1e>
    }

    for (uint8_t k = 16; k < 64; k++) {
 8000c6a:	2310      	movs	r3, #16
 8000c6c:	f887 314d 	strb.w	r3, [r7, #333]	; 0x14d
 8000c70:	e03d      	b.n	8000cee <sha256_transform+0x132>
        m[k] = sha256_sig1(m[k - 2]) + m[k - 7] + sha256_sig0(m[k - 15]) + m[k - 16];
 8000c72:	f897 314d 	ldrb.w	r3, [r7, #333]	; 0x14d
 8000c76:	1e9a      	subs	r2, r3, #2
 8000c78:	f507 73a8 	add.w	r3, r7, #336	; 0x150
 8000c7c:	f5a3 7392 	sub.w	r3, r3, #292	; 0x124
 8000c80:	f853 3022 	ldr.w	r3, [r3, r2, lsl #2]
 8000c84:	4618      	mov	r0, r3
 8000c86:	f7ff ff81 	bl	8000b8c <sha256_sig1>
 8000c8a:	4601      	mov	r1, r0
 8000c8c:	f897 314d 	ldrb.w	r3, [r7, #333]	; 0x14d
 8000c90:	1fda      	subs	r2, r3, #7
 8000c92:	f507 73a8 	add.w	r3, r7, #336	; 0x150
 8000c96:	f5a3 7392 	sub.w	r3, r3, #292	; 0x124
 8000c9a:	f853 3022 	ldr.w	r3, [r3, r2, lsl #2]
 8000c9e:	18cc      	adds	r4, r1, r3
 8000ca0:	f897 314d 	ldrb.w	r3, [r7, #333]	; 0x14d
 8000ca4:	f1a3 020f 	sub.w	r2, r3, #15
 8000ca8:	f507 73a8 	add.w	r3, r7, #336	; 0x150
 8000cac:	f5a3 7392 	sub.w	r3, r3, #292	; 0x124
 8000cb0:	f853 3022 	ldr.w	r3, [r3, r2, lsl #2]
 8000cb4:	4618      	mov	r0, r3
 8000cb6:	f7ff ff52 	bl	8000b5e <sha256_sig0>
 8000cba:	4603      	mov	r3, r0
 8000cbc:	18e1      	adds	r1, r4, r3
 8000cbe:	f897 314d 	ldrb.w	r3, [r7, #333]	; 0x14d
 8000cc2:	f1a3 0210 	sub.w	r2, r3, #16
 8000cc6:	f507 73a8 	add.w	r3, r7, #336	; 0x150
 8000cca:	f5a3 7392 	sub.w	r3, r3, #292	; 0x124
 8000cce:	f853 3022 	ldr.w	r3, [r3, r2, lsl #2]
 8000cd2:	f897 214d 	ldrb.w	r2, [r7, #333]	; 0x14d
 8000cd6:	4419      	add	r1, r3
 8000cd8:	f507 73a8 	add.w	r3, r7, #336	; 0x150
 8000cdc:	f5a3 7392 	sub.w	r3, r3, #292	; 0x124
 8000ce0:	f843 1022 	str.w	r1, [r3, r2, lsl #2]
    for (uint8_t k = 16; k < 64; k++) {
 8000ce4:	f897 314d 	ldrb.w	r3, [r7, #333]	; 0x14d
 8000ce8:	3301      	adds	r3, #1
 8000cea:	f887 314d 	strb.w	r3, [r7, #333]	; 0x14d
 8000cee:	f897 314d 	ldrb.w	r3, [r7, #333]	; 0x14d
 8000cf2:	2b3f      	cmp	r3, #63	; 0x3f
 8000cf4:	d9bd      	bls.n	8000c72 <sha256_transform+0xb6>
    }

    for (uint8_t i = 0; i < 8; i++) {
 8000cf6:	2300      	movs	r3, #0
 8000cf8:	f887 314c 	strb.w	r3, [r7, #332]	; 0x14c
 8000cfc:	e015      	b.n	8000d2a <sha256_transform+0x16e>
        state[i] = ctx->m_state[i];
 8000cfe:	f897 114c 	ldrb.w	r1, [r7, #332]	; 0x14c
 8000d02:	f897 214c 	ldrb.w	r2, [r7, #332]	; 0x14c
 8000d06:	f507 73a8 	add.w	r3, r7, #336	; 0x150
 8000d0a:	f5a3 73a6 	sub.w	r3, r3, #332	; 0x14c
 8000d0e:	681b      	ldr	r3, [r3, #0]
 8000d10:	f853 1021 	ldr.w	r1, [r3, r1, lsl #2]
 8000d14:	f507 73a8 	add.w	r3, r7, #336	; 0x150
 8000d18:	f5a3 73a2 	sub.w	r3, r3, #324	; 0x144
 8000d1c:	f843 1022 	str.w	r1, [r3, r2, lsl #2]
    for (uint8_t i = 0; i < 8; i++) {
 8000d20:	f897 314c 	ldrb.w	r3, [r7, #332]	; 0x14c
 8000d24:	3301      	adds	r3, #1
 8000d26:	f887 314c 	strb.w	r3, [r7, #332]	; 0x14c
 8000d2a:	f897 314c 	ldrb.w	r3, [r7, #332]	; 0x14c
 8000d2e:	2b07      	cmp	r3, #7
 8000d30:	d9e5      	bls.n	8000cfe <sha256_transform+0x142>
    }

    for (uint8_t i = 0; i < 64; i++) {
 8000d32:	2300      	movs	r3, #0
 8000d34:	f887 314b 	strb.w	r3, [r7, #331]	; 0x14b
 8000d38:	e0ea      	b.n	8000f10 <sha256_transform+0x354>
        maj = sha256_majority(state[0], state[1], state[2]);
 8000d3a:	f507 73a8 	add.w	r3, r7, #336	; 0x150
 8000d3e:	f5a3 73a2 	sub.w	r3, r3, #324	; 0x144
 8000d42:	6818      	ldr	r0, [r3, #0]
 8000d44:	f507 73a8 	add.w	r3, r7, #336	; 0x150
 8000d48:	f5a3 73a2 	sub.w	r3, r3, #324	; 0x144
 8000d4c:	6859      	ldr	r1, [r3, #4]
 8000d4e:	f507 73a8 	add.w	r3, r7, #336	; 0x150
 8000d52:	f5a3 73a2 	sub.w	r3, r3, #324	; 0x144
 8000d56:	689b      	ldr	r3, [r3, #8]
 8000d58:	461a      	mov	r2, r3
 8000d5a:	f7ff feec 	bl	8000b36 <sha256_majority>
 8000d5e:	f8c7 0144 	str.w	r0, [r7, #324]	; 0x144
        xorA = sha256_rotr(state[0], 2) ^ sha256_rotr(state[0], 13) ^ sha256_rotr(state[0], 22);
 8000d62:	f507 73a8 	add.w	r3, r7, #336	; 0x150
 8000d66:	f5a3 73a2 	sub.w	r3, r3, #324	; 0x144
 8000d6a:	681b      	ldr	r3, [r3, #0]
 8000d6c:	2102      	movs	r1, #2
 8000d6e:	4618      	mov	r0, r3
 8000d70:	f7ff fec0 	bl	8000af4 <sha256_rotr>
 8000d74:	4604      	mov	r4, r0
 8000d76:	f507 73a8 	add.w	r3, r7, #336	; 0x150
 8000d7a:	f5a3 73a2 	sub.w	r3, r3, #324	; 0x144
 8000d7e:	681b      	ldr	r3, [r3, #0]
 8000d80:	210d      	movs	r1, #13
 8000d82:	4618      	mov	r0, r3
 8000d84:	f7ff feb6 	bl	8000af4 <sha256_rotr>
 8000d88:	4603      	mov	r3, r0
 8000d8a:	405c      	eors	r4, r3
 8000d8c:	f507 73a8 	add.w	r3, r7, #336	; 0x150
 8000d90:	f5a3 73a2 	sub.w	r3, r3, #324	; 0x144
 8000d94:	681b      	ldr	r3, [r3, #0]
 8000d96:	2116      	movs	r1, #22
 8000d98:	4618      	mov	r0, r3
 8000d9a:	f7ff feab 	bl	8000af4 <sha256_rotr>
 8000d9e:	4603      	mov	r3, r0
 8000da0:	4063      	eors	r3, r4
 8000da2:	f8c7 3140 	str.w	r3, [r7, #320]	; 0x140

        ch = sha256_choose(state[4], state[5], state[6]);
 8000da6:	f507 73a8 	add.w	r3, r7, #336	; 0x150
 8000daa:	f5a3 73a2 	sub.w	r3, r3, #324	; 0x144
 8000dae:	6918      	ldr	r0, [r3, #16]
 8000db0:	f507 73a8 	add.w	r3, r7, #336	; 0x150
 8000db4:	f5a3 73a2 	sub.w	r3, r3, #324	; 0x144
 8000db8:	6959      	ldr	r1, [r3, #20]
 8000dba:	f507 73a8 	add.w	r3, r7, #336	; 0x150
 8000dbe:	f5a3 73a2 	sub.w	r3, r3, #324	; 0x144
 8000dc2:	699b      	ldr	r3, [r3, #24]
 8000dc4:	461a      	mov	r2, r3
 8000dc6:	f7ff fea3 	bl	8000b10 <sha256_choose>
 8000dca:	f8c7 013c 	str.w	r0, [r7, #316]	; 0x13c

        xorE = sha256_rotr(state[4], 6) ^ sha256_rotr(state[4], 11) ^ sha256_rotr(state[4], 25);
 8000dce:	f507 73a8 	add.w	r3, r7, #336	; 0x150
 8000dd2:	f5a3 73a2 	sub.w	r3, r3, #324	; 0x144
 8000dd6:	691b      	ldr	r3, [r3, #16]
 8000dd8:	2106      	movs	r1, #6
 8000dda:	4618      	mov	r0, r3
 8000ddc:	f7ff fe8a 	bl	8000af4 <sha256_rotr>
 8000de0:	4604      	mov	r4, r0
 8000de2:	f507 73a8 	add.w	r3, r7, #336	; 0x150
 8000de6:	f5a3 73a2 	sub.w	r3, r3, #324	; 0x144
 8000dea:	691b      	ldr	r3, [r3, #16]
 8000dec:	210b      	movs	r1, #11
 8000dee:	4618      	mov	r0, r3
 8000df0:	f7ff fe80 	bl	8000af4 <sha256_rotr>
 8000df4:	4603      	mov	r3, r0
 8000df6:	405c      	eors	r4, r3
 8000df8:	f507 73a8 	add.w	r3, r7, #336	; 0x150
 8000dfc:	f5a3 73a2 	sub.w	r3, r3, #324	; 0x144
 8000e00:	691b      	ldr	r3, [r3, #16]
 8000e02:	2119      	movs	r1, #25
 8000e04:	4618      	mov	r0, r3
 8000e06:	f7ff fe75 	bl	8000af4 <sha256_rotr>
 8000e0a:	4603      	mov	r3, r0
 8000e0c:	4063      	eors	r3, r4
 8000e0e:	f8c7 3138 	str.w	r3, [r7, #312]	; 0x138

        sum = m[i] + K[i] + state[7] + ch + xorE;
 8000e12:	f897 214b 	ldrb.w	r2, [r7, #331]	; 0x14b
 8000e16:	f507 73a8 	add.w	r3, r7, #336	; 0x150
 8000e1a:	f5a3 7392 	sub.w	r3, r3, #292	; 0x124
 8000e1e:	f853 2022 	ldr.w	r2, [r3, r2, lsl #2]
 8000e22:	f897 314b 	ldrb.w	r3, [r7, #331]	; 0x14b
 8000e26:	4954      	ldr	r1, [pc, #336]	; (8000f78 <sha256_transform+0x3bc>)
 8000e28:	f851 3023 	ldr.w	r3, [r1, r3, lsl #2]
 8000e2c:	441a      	add	r2, r3
 8000e2e:	f507 73a8 	add.w	r3, r7, #336	; 0x150
 8000e32:	f5a3 73a2 	sub.w	r3, r3, #324	; 0x144
 8000e36:	69db      	ldr	r3, [r3, #28]
 8000e38:	441a      	add	r2, r3
 8000e3a:	f8d7 313c 	ldr.w	r3, [r7, #316]	; 0x13c
 8000e3e:	4413      	add	r3, r2
 8000e40:	f8d7 2138 	ldr.w	r2, [r7, #312]	; 0x138
 8000e44:	4413      	add	r3, r2
 8000e46:	f8c7 3134 	str.w	r3, [r7, #308]	; 0x134
        newA = xorA + maj + sum;
 8000e4a:	f8d7 2140 	ldr.w	r2, [r7, #320]	; 0x140
 8000e4e:	f8d7 3144 	ldr.w	r3, [r7, #324]	; 0x144
 8000e52:	4413      	add	r3, r2
 8000e54:	f8d7 2134 	ldr.w	r2, [r7, #308]	; 0x134
 8000e58:	4413      	add	r3, r2
 8000e5a:	f8c7 3130 	str.w	r3, [r7, #304]	; 0x130
        newE = state[3] + sum;
 8000e5e:	f507 73a8 	add.w	r3, r7, #336	; 0x150
 8000e62:	f5a3 73a2 	sub.w	r3, r3, #324	; 0x144
 8000e66:	68db      	ldr	r3, [r3, #12]
 8000e68:	f8d7 2134 	ldr.w	r2, [r7, #308]	; 0x134
 8000e6c:	4413      	add	r3, r2
 8000e6e:	f8c7 312c 	str.w	r3, [r7, #300]	; 0x12c

        state[7] = state[6];
 8000e72:	f507 73a8 	add.w	r3, r7, #336	; 0x150
 8000e76:	f5a3 73a2 	sub.w	r3, r3, #324	; 0x144
 8000e7a:	699a      	ldr	r2, [r3, #24]
 8000e7c:	f507 73a8 	add.w	r3, r7, #336	; 0x150
 8000e80:	f5a3 73a2 	sub.w	r3, r3, #324	; 0x144
 8000e84:	61da      	str	r2, [r3, #28]
        state[6] = state[5];
 8000e86:	f507 73a8 	add.w	r3, r7, #336	; 0x150
 8000e8a:	f5a3 73a2 	sub.w	r3, r3, #324	; 0x144
 8000e8e:	695a      	ldr	r2, [r3, #20]
 8000e90:	f507 73a8 	add.w	r3, r7, #336	; 0x150
 8000e94:	f5a3 73a2 	sub.w	r3, r3, #324	; 0x144
 8000e98:	619a      	str	r2, [r3, #24]
        state[5] = state[4];
 8000e9a:	f507 73a8 	add.w	r3, r7, #336	; 0x150
 8000e9e:	f5a3 73a2 	sub.w	r3, r3, #324	; 0x144
 8000ea2:	691a      	ldr	r2, [r3, #16]
 8000ea4:	f507 73a8 	add.w	r3, r7, #336	; 0x150
 8000ea8:	f5a3 73a2 	sub.w	r3, r3, #324	; 0x144
 8000eac:	615a      	str	r2, [r3, #20]
        state[4] = newE;
 8000eae:	f507 73a8 	add.w	r3, r7, #336	; 0x150
 8000eb2:	f5a3 73a2 	sub.w	r3, r3, #324	; 0x144
 8000eb6:	f8d7 212c 	ldr.w	r2, [r7, #300]	; 0x12c
 8000eba:	611a      	str	r2, [r3, #16]
        state[3] = state[2];
 8000ebc:	f507 73a8 	add.w	r3, r7, #336	; 0x150
 8000ec0:	f5a3 73a2 	sub.w	r3, r3, #324	; 0x144
 8000ec4:	689a      	ldr	r2, [r3, #8]
 8000ec6:	f507 73a8 	add.w	r3, r7, #336	; 0x150
 8000eca:	f5a3 73a2 	sub.w	r3, r3, #324	; 0x144
 8000ece:	60da      	str	r2, [r3, #12]
        state[2] = state[1];
 8000ed0:	f507 73a8 	add.w	r3, r7, #336	; 0x150
 8000ed4:	f5a3 73a2 	sub.w	r3, r3, #324	; 0x144
 8000ed8:	685a      	ldr	r2, [r3, #4]
 8000eda:	f507 73a8 	add.w	r3, r7, #336	; 0x150
 8000ede:	f5a3 73a2 	sub.w	r3, r3, #324	; 0x144
 8000ee2:	609a      	str	r2, [r3, #8]
        state[1] = state[0];
 8000ee4:	f507 73a8 	add.w	r3, r7, #336	; 0x150
 8000ee8:	f5a3 73a2 	sub.w	r3, r3, #324	; 0x144
 8000eec:	681a      	ldr	r2, [r3, #0]
 8000eee:	f507 73a8 	add.w	r3, r7, #336	; 0x150
 8000ef2:	f5a3 73a2 	sub.w	r3, r3, #324	; 0x144
 8000ef6:	605a      	str	r2, [r3, #4]
        state[0] = newA;
 8000ef8:	f507 73a8 	add.w	r3, r7, #336	; 0x150
 8000efc:	f5a3 73a2 	sub.w	r3, r3, #324	; 0x144
 8000f00:	f8d7 2130 	ldr.w	r2, [r7, #304]	; 0x130
 8000f04:	601a      	str	r2, [r3, #0]
    for (uint8_t i = 0; i < 64; i++) {
 8000f06:	f897 314b 	ldrb.w	r3, [r7, #331]	; 0x14b
 8000f0a:	3301      	adds	r3, #1
 8000f0c:	f887 314b 	strb.w	r3, [r7, #331]	; 0x14b
 8000f10:	f897 314b 	ldrb.w	r3, [r7, #331]	; 0x14b
 8000f14:	2b3f      	cmp	r3, #63	; 0x3f
 8000f16:	f67f af10 	bls.w	8000d3a <sha256_transform+0x17e>
    }

    for (uint8_t i = 0; i < 8; i++) {
 8000f1a:	2300      	movs	r3, #0
 8000f1c:	f887 314a 	strb.w	r3, [r7, #330]	; 0x14a
 8000f20:	e01f      	b.n	8000f62 <sha256_transform+0x3a6>
        ctx->m_state[i] += state[i];
 8000f22:	f897 214a 	ldrb.w	r2, [r7, #330]	; 0x14a
 8000f26:	f507 73a8 	add.w	r3, r7, #336	; 0x150
 8000f2a:	f5a3 73a6 	sub.w	r3, r3, #332	; 0x14c
 8000f2e:	681b      	ldr	r3, [r3, #0]
 8000f30:	f853 1022 	ldr.w	r1, [r3, r2, lsl #2]
 8000f34:	f897 214a 	ldrb.w	r2, [r7, #330]	; 0x14a
 8000f38:	f507 73a8 	add.w	r3, r7, #336	; 0x150
 8000f3c:	f5a3 73a2 	sub.w	r3, r3, #324	; 0x144
 8000f40:	f853 3022 	ldr.w	r3, [r3, r2, lsl #2]
 8000f44:	f897 214a 	ldrb.w	r2, [r7, #330]	; 0x14a
 8000f48:	4419      	add	r1, r3
 8000f4a:	f507 73a8 	add.w	r3, r7, #336	; 0x150
 8000f4e:	f5a3 73a6 	sub.w	r3, r3, #332	; 0x14c
 8000f52:	681b      	ldr	r3, [r3, #0]
 8000f54:	f843 1022 	str.w	r1, [r3, r2, lsl #2]
    for (uint8_t i = 0; i < 8; i++) {
 8000f58:	f897 314a 	ldrb.w	r3, [r7, #330]	; 0x14a
 8000f5c:	3301      	adds	r3, #1
 8000f5e:	f887 314a 	strb.w	r3, [r7, #330]	; 0x14a
 8000f62:	f897 314a 	ldrb.w	r3, [r7, #330]	; 0x14a
 8000f66:	2b07      	cmp	r3, #7
 8000f68:	d9db      	bls.n	8000f22 <sha256_transform+0x366>
    }
}
 8000f6a:	bf00      	nop
 8000f6c:	bf00      	nop
 8000f6e:	f507 77aa 	add.w	r7, r7, #340	; 0x154
 8000f72:	46bd      	mov	sp, r7
 8000f74:	bd90      	pop	{r4, r7, pc}
 8000f76:	bf00      	nop
 8000f78:	08004054 	.word	0x08004054

08000f7c <sha256_pad>:

void sha256_pad(SHA256 *ctx) {
 8000f7c:	e92d 4fb0 	stmdb	sp!, {r4, r5, r7, r8, r9, sl, fp, lr}
 8000f80:	b08a      	sub	sp, #40	; 0x28
 8000f82:	af00      	add	r7, sp, #0
 8000f84:	6178      	str	r0, [r7, #20]
    uint64_t i = ctx->m_blocklen;
 8000f86:	697b      	ldr	r3, [r7, #20]
 8000f88:	6e9b      	ldr	r3, [r3, #104]	; 0x68
 8000f8a:	2000      	movs	r0, #0
 8000f8c:	4619      	mov	r1, r3
 8000f8e:	4602      	mov	r2, r0
 8000f90:	e9c7 1208 	strd	r1, r2, [r7, #32]
    uint8_t end = (ctx->m_blocklen < 56) ? 56 : 64;
 8000f94:	697b      	ldr	r3, [r7, #20]
 8000f96:	6e9b      	ldr	r3, [r3, #104]	; 0x68
 8000f98:	2b37      	cmp	r3, #55	; 0x37
 8000f9a:	d801      	bhi.n	8000fa0 <sha256_pad+0x24>
 8000f9c:	2338      	movs	r3, #56	; 0x38
 8000f9e:	e000      	b.n	8000fa2 <sha256_pad+0x26>
 8000fa0:	2340      	movs	r3, #64	; 0x40
 8000fa2:	77fb      	strb	r3, [r7, #31]

    ctx->m_data[i++] = 0x80; // Anexar um bit 1
 8000fa4:	e9d7 2308 	ldrd	r2, r3, [r7, #32]
 8000fa8:	1c51      	adds	r1, r2, #1
 8000faa:	60b9      	str	r1, [r7, #8]
 8000fac:	f143 0100 	adc.w	r1, r3, #0
 8000fb0:	60f9      	str	r1, [r7, #12]
 8000fb2:	e9d7 0102 	ldrd	r0, r1, [r7, #8]
 8000fb6:	e9c7 0108 	strd	r0, r1, [r7, #32]
 8000fba:	6979      	ldr	r1, [r7, #20]
 8000fbc:	188b      	adds	r3, r1, r2
 8000fbe:	3320      	adds	r3, #32
 8000fc0:	2280      	movs	r2, #128	; 0x80
 8000fc2:	701a      	strb	r2, [r3, #0]
    while (i < end) {
 8000fc4:	e00f      	b.n	8000fe6 <sha256_pad+0x6a>
        ctx->m_data[i++] = 0x00; // Preencher com zeros
 8000fc6:	e9d7 2308 	ldrd	r2, r3, [r7, #32]
 8000fca:	1c51      	adds	r1, r2, #1
 8000fcc:	6039      	str	r1, [r7, #0]
 8000fce:	f143 0100 	adc.w	r1, r3, #0
 8000fd2:	6079      	str	r1, [r7, #4]
 8000fd4:	e9d7 0100 	ldrd	r0, r1, [r7]
 8000fd8:	e9c7 0108 	strd	r0, r1, [r7, #32]
 8000fdc:	6979      	ldr	r1, [r7, #20]
 8000fde:	188b      	adds	r3, r1, r2
 8000fe0:	3320      	adds	r3, #32
 8000fe2:	2200      	movs	r2, #0
 8000fe4:	701a      	strb	r2, [r3, #0]
    while (i < end) {
 8000fe6:	7ffb      	ldrb	r3, [r7, #31]
 8000fe8:	2200      	movs	r2, #0
 8000fea:	4698      	mov	r8, r3
 8000fec:	4691      	mov	r9, r2
 8000fee:	e9d7 2308 	ldrd	r2, r3, [r7, #32]
 8000ff2:	4542      	cmp	r2, r8
 8000ff4:	eb73 0309 	sbcs.w	r3, r3, r9
 8000ff8:	d3e5      	bcc.n	8000fc6 <sha256_pad+0x4a>
    }

    if (ctx->m_blocklen >= 56) {
 8000ffa:	697b      	ldr	r3, [r7, #20]
 8000ffc:	6e9b      	ldr	r3, [r3, #104]	; 0x68
 8000ffe:	2b37      	cmp	r3, #55	; 0x37
 8001000:	d909      	bls.n	8001016 <sha256_pad+0x9a>
        sha256_transform(ctx); // Chame a funo transform()
 8001002:	6978      	ldr	r0, [r7, #20]
 8001004:	f7ff fdda 	bl	8000bbc <sha256_transform>
        memset(ctx->m_data, 0, 56);
 8001008:	697b      	ldr	r3, [r7, #20]
 800100a:	3320      	adds	r3, #32
 800100c:	2238      	movs	r2, #56	; 0x38
 800100e:	2100      	movs	r1, #0
 8001010:	4618      	mov	r0, r3
 8001012:	f002 ff1f 	bl	8003e54 <memset>
    }

    ctx->m_bitlen += ctx->m_blocklen * 8;
 8001016:	697b      	ldr	r3, [r7, #20]
 8001018:	e9d3 2318 	ldrd	r2, r3, [r3, #96]	; 0x60
 800101c:	6979      	ldr	r1, [r7, #20]
 800101e:	6e89      	ldr	r1, [r1, #104]	; 0x68
 8001020:	00c9      	lsls	r1, r1, #3
 8001022:	2000      	movs	r0, #0
 8001024:	460c      	mov	r4, r1
 8001026:	4605      	mov	r5, r0
 8001028:	eb12 0a04 	adds.w	sl, r2, r4
 800102c:	eb43 0b05 	adc.w	fp, r3, r5
 8001030:	697b      	ldr	r3, [r7, #20]
 8001032:	e9c3 ab18 	strd	sl, fp, [r3, #96]	; 0x60
    ctx->m_data[63] = (uint8_t)(ctx->m_bitlen);
 8001036:	697b      	ldr	r3, [r7, #20]
 8001038:	e9d3 2318 	ldrd	r2, r3, [r3, #96]	; 0x60
 800103c:	b2d2      	uxtb	r2, r2
 800103e:	697b      	ldr	r3, [r7, #20]
 8001040:	f883 205f 	strb.w	r2, [r3, #95]	; 0x5f
    ctx->m_data[62] = (uint8_t)(ctx->m_bitlen >> 8);
 8001044:	697b      	ldr	r3, [r7, #20]
 8001046:	e9d3 0118 	ldrd	r0, r1, [r3, #96]	; 0x60
 800104a:	f04f 0200 	mov.w	r2, #0
 800104e:	f04f 0300 	mov.w	r3, #0
 8001052:	0a02      	lsrs	r2, r0, #8
 8001054:	ea42 6201 	orr.w	r2, r2, r1, lsl #24
 8001058:	0a0b      	lsrs	r3, r1, #8
 800105a:	b2d2      	uxtb	r2, r2
 800105c:	697b      	ldr	r3, [r7, #20]
 800105e:	f883 205e 	strb.w	r2, [r3, #94]	; 0x5e
    ctx->m_data[61] = (uint8_t)(ctx->m_bitlen >> 16);
 8001062:	697b      	ldr	r3, [r7, #20]
 8001064:	e9d3 0118 	ldrd	r0, r1, [r3, #96]	; 0x60
 8001068:	f04f 0200 	mov.w	r2, #0
 800106c:	f04f 0300 	mov.w	r3, #0
 8001070:	0c02      	lsrs	r2, r0, #16
 8001072:	ea42 4201 	orr.w	r2, r2, r1, lsl #16
 8001076:	0c0b      	lsrs	r3, r1, #16
 8001078:	b2d2      	uxtb	r2, r2
 800107a:	697b      	ldr	r3, [r7, #20]
 800107c:	f883 205d 	strb.w	r2, [r3, #93]	; 0x5d
    ctx->m_data[60] = (uint8_t)(ctx->m_bitlen >> 24);
 8001080:	697b      	ldr	r3, [r7, #20]
 8001082:	e9d3 0118 	ldrd	r0, r1, [r3, #96]	; 0x60
 8001086:	f04f 0200 	mov.w	r2, #0
 800108a:	f04f 0300 	mov.w	r3, #0
 800108e:	0e02      	lsrs	r2, r0, #24
 8001090:	ea42 2201 	orr.w	r2, r2, r1, lsl #8
 8001094:	0e0b      	lsrs	r3, r1, #24
 8001096:	b2d2      	uxtb	r2, r2
 8001098:	697b      	ldr	r3, [r7, #20]
 800109a:	f883 205c 	strb.w	r2, [r3, #92]	; 0x5c
    ctx->m_data[59] = (uint8_t)(ctx->m_bitlen >> 32);
 800109e:	697b      	ldr	r3, [r7, #20]
 80010a0:	e9d3 0118 	ldrd	r0, r1, [r3, #96]	; 0x60
 80010a4:	f04f 0200 	mov.w	r2, #0
 80010a8:	f04f 0300 	mov.w	r3, #0
 80010ac:	000a      	movs	r2, r1
 80010ae:	2300      	movs	r3, #0
 80010b0:	b2d2      	uxtb	r2, r2
 80010b2:	697b      	ldr	r3, [r7, #20]
 80010b4:	f883 205b 	strb.w	r2, [r3, #91]	; 0x5b
    ctx->m_data[58] = (uint8_t)(ctx->m_bitlen >> 40);
 80010b8:	697b      	ldr	r3, [r7, #20]
 80010ba:	e9d3 0118 	ldrd	r0, r1, [r3, #96]	; 0x60
 80010be:	f04f 0200 	mov.w	r2, #0
 80010c2:	f04f 0300 	mov.w	r3, #0
 80010c6:	0a0a      	lsrs	r2, r1, #8
 80010c8:	2300      	movs	r3, #0
 80010ca:	b2d2      	uxtb	r2, r2
 80010cc:	697b      	ldr	r3, [r7, #20]
 80010ce:	f883 205a 	strb.w	r2, [r3, #90]	; 0x5a
    ctx->m_data[57] = (uint8_t)(ctx->m_bitlen >> 48);
 80010d2:	697b      	ldr	r3, [r7, #20]
 80010d4:	e9d3 0118 	ldrd	r0, r1, [r3, #96]	; 0x60
 80010d8:	f04f 0200 	mov.w	r2, #0
 80010dc:	f04f 0300 	mov.w	r3, #0
 80010e0:	0c0a      	lsrs	r2, r1, #16
 80010e2:	2300      	movs	r3, #0
 80010e4:	b2d2      	uxtb	r2, r2
 80010e6:	697b      	ldr	r3, [r7, #20]
 80010e8:	f883 2059 	strb.w	r2, [r3, #89]	; 0x59
    ctx->m_data[56] = (uint8_t)(ctx->m_bitlen >> 56);
 80010ec:	697b      	ldr	r3, [r7, #20]
 80010ee:	e9d3 0118 	ldrd	r0, r1, [r3, #96]	; 0x60
 80010f2:	f04f 0200 	mov.w	r2, #0
 80010f6:	f04f 0300 	mov.w	r3, #0
 80010fa:	0e0a      	lsrs	r2, r1, #24
 80010fc:	2300      	movs	r3, #0
 80010fe:	b2d2      	uxtb	r2, r2
 8001100:	697b      	ldr	r3, [r7, #20]
 8001102:	f883 2058 	strb.w	r2, [r3, #88]	; 0x58
    sha256_transform(ctx);
 8001106:	6978      	ldr	r0, [r7, #20]
 8001108:	f7ff fd58 	bl	8000bbc <sha256_transform>
}
 800110c:	bf00      	nop
 800110e:	3728      	adds	r7, #40	; 0x28
 8001110:	46bd      	mov	sp, r7
 8001112:	e8bd 8fb0 	ldmia.w	sp!, {r4, r5, r7, r8, r9, sl, fp, pc}

08001116 <sha256_revert>:

void sha256_revert( SHA256 *ctx, uint8_t*hash) {
 8001116:	b480      	push	{r7}
 8001118:	b085      	sub	sp, #20
 800111a:	af00      	add	r7, sp, #0
 800111c:	6078      	str	r0, [r7, #4]
 800111e:	6039      	str	r1, [r7, #0]
    // O SHA usa ordenao de bytes big-endian
    // Reverter todos os bytes
    for (uint8_t i = 0; i < 4; i++) {
 8001120:	2300      	movs	r3, #0
 8001122:	73fb      	strb	r3, [r7, #15]
 8001124:	e01e      	b.n	8001164 <sha256_revert+0x4e>
        for (uint8_t j = 0; j < 8; j++) {
 8001126:	2300      	movs	r3, #0
 8001128:	73bb      	strb	r3, [r7, #14]
 800112a:	e015      	b.n	8001158 <sha256_revert+0x42>
            hash[i + (j * 4)] = (ctx->m_state[j] >> (24 - i * 8)) & 0x000000ff;
 800112c:	7bba      	ldrb	r2, [r7, #14]
 800112e:	687b      	ldr	r3, [r7, #4]
 8001130:	f853 2022 	ldr.w	r2, [r3, r2, lsl #2]
 8001134:	7bfb      	ldrb	r3, [r7, #15]
 8001136:	f1c3 0303 	rsb	r3, r3, #3
 800113a:	00db      	lsls	r3, r3, #3
 800113c:	fa22 f103 	lsr.w	r1, r2, r3
 8001140:	7bfa      	ldrb	r2, [r7, #15]
 8001142:	7bbb      	ldrb	r3, [r7, #14]
 8001144:	009b      	lsls	r3, r3, #2
 8001146:	4413      	add	r3, r2
 8001148:	461a      	mov	r2, r3
 800114a:	683b      	ldr	r3, [r7, #0]
 800114c:	4413      	add	r3, r2
 800114e:	b2ca      	uxtb	r2, r1
 8001150:	701a      	strb	r2, [r3, #0]
        for (uint8_t j = 0; j < 8; j++) {
 8001152:	7bbb      	ldrb	r3, [r7, #14]
 8001154:	3301      	adds	r3, #1
 8001156:	73bb      	strb	r3, [r7, #14]
 8001158:	7bbb      	ldrb	r3, [r7, #14]
 800115a:	2b07      	cmp	r3, #7
 800115c:	d9e6      	bls.n	800112c <sha256_revert+0x16>
    for (uint8_t i = 0; i < 4; i++) {
 800115e:	7bfb      	ldrb	r3, [r7, #15]
 8001160:	3301      	adds	r3, #1
 8001162:	73fb      	strb	r3, [r7, #15]
 8001164:	7bfb      	ldrb	r3, [r7, #15]
 8001166:	2b03      	cmp	r3, #3
 8001168:	d9dd      	bls.n	8001126 <sha256_revert+0x10>
        }
    }
}
 800116a:	bf00      	nop
 800116c:	bf00      	nop
 800116e:	3714      	adds	r7, #20
 8001170:	46bd      	mov	sp, r7
 8001172:	bc80      	pop	{r7}
 8001174:	4770      	bx	lr
	...

08001178 <sha256_toString>:

void sha256_toString(const uint8_t *digest, char *hashString) {
 8001178:	b4b0      	push	{r4, r5, r7}
 800117a:	b089      	sub	sp, #36	; 0x24
 800117c:	af00      	add	r7, sp, #0
 800117e:	6078      	str	r0, [r7, #4]
 8001180:	6039      	str	r1, [r7, #0]
    const char hexChars[] = "0123456789abcdef";
 8001182:	4b1e      	ldr	r3, [pc, #120]	; (80011fc <sha256_toString+0x84>)
 8001184:	f107 0408 	add.w	r4, r7, #8
 8001188:	461d      	mov	r5, r3
 800118a:	cd0f      	ldmia	r5!, {r0, r1, r2, r3}
 800118c:	c40f      	stmia	r4!, {r0, r1, r2, r3}
 800118e:	682b      	ldr	r3, [r5, #0]
 8001190:	7023      	strb	r3, [r4, #0]

    for (int i = 0; i < 32; i++) {
 8001192:	2300      	movs	r3, #0
 8001194:	61fb      	str	r3, [r7, #28]
 8001196:	e024      	b.n	80011e2 <sha256_toString+0x6a>
        hashString[i * 2] = hexChars[(digest[i] >> 4) & 0xF];
 8001198:	69fb      	ldr	r3, [r7, #28]
 800119a:	687a      	ldr	r2, [r7, #4]
 800119c:	4413      	add	r3, r2
 800119e:	781b      	ldrb	r3, [r3, #0]
 80011a0:	091b      	lsrs	r3, r3, #4
 80011a2:	b2db      	uxtb	r3, r3
 80011a4:	f003 020f 	and.w	r2, r3, #15
 80011a8:	69fb      	ldr	r3, [r7, #28]
 80011aa:	005b      	lsls	r3, r3, #1
 80011ac:	4619      	mov	r1, r3
 80011ae:	683b      	ldr	r3, [r7, #0]
 80011b0:	440b      	add	r3, r1
 80011b2:	3220      	adds	r2, #32
 80011b4:	443a      	add	r2, r7
 80011b6:	f812 2c18 	ldrb.w	r2, [r2, #-24]
 80011ba:	701a      	strb	r2, [r3, #0]
        hashString[i * 2 + 1] = hexChars[digest[i] & 0xF];
 80011bc:	69fb      	ldr	r3, [r7, #28]
 80011be:	687a      	ldr	r2, [r7, #4]
 80011c0:	4413      	add	r3, r2
 80011c2:	781b      	ldrb	r3, [r3, #0]
 80011c4:	f003 020f 	and.w	r2, r3, #15
 80011c8:	69fb      	ldr	r3, [r7, #28]
 80011ca:	005b      	lsls	r3, r3, #1
 80011cc:	3301      	adds	r3, #1
 80011ce:	6839      	ldr	r1, [r7, #0]
 80011d0:	440b      	add	r3, r1
 80011d2:	3220      	adds	r2, #32
 80011d4:	443a      	add	r2, r7
 80011d6:	f812 2c18 	ldrb.w	r2, [r2, #-24]
 80011da:	701a      	strb	r2, [r3, #0]
    for (int i = 0; i < 32; i++) {
 80011dc:	69fb      	ldr	r3, [r7, #28]
 80011de:	3301      	adds	r3, #1
 80011e0:	61fb      	str	r3, [r7, #28]
 80011e2:	69fb      	ldr	r3, [r7, #28]
 80011e4:	2b1f      	cmp	r3, #31
 80011e6:	ddd7      	ble.n	8001198 <sha256_toString+0x20>
    }
    hashString[64] = '\0'; // Adiciona o terminador nulo no final da string
 80011e8:	683b      	ldr	r3, [r7, #0]
 80011ea:	3340      	adds	r3, #64	; 0x40
 80011ec:	2200      	movs	r2, #0
 80011ee:	701a      	strb	r2, [r3, #0]
}
 80011f0:	bf00      	nop
 80011f2:	3724      	adds	r7, #36	; 0x24
 80011f4:	46bd      	mov	sp, r7
 80011f6:	bcb0      	pop	{r4, r5, r7}
 80011f8:	4770      	bx	lr
 80011fa:	bf00      	nop
 80011fc:	08004030 	.word	0x08004030

08001200 <calculateSHA256Hash>:

void calculateSHA256Hash(uint8_t *data, uint8_t dataSize, char *hashString) {
 8001200:	b580      	push	{r7, lr}
 8001202:	b0a2      	sub	sp, #136	; 0x88
 8001204:	af00      	add	r7, sp, #0
 8001206:	60f8      	str	r0, [r7, #12]
 8001208:	460b      	mov	r3, r1
 800120a:	607a      	str	r2, [r7, #4]
 800120c:	72fb      	strb	r3, [r7, #11]
    SHA256 sha;
    sha256_init(&sha);
 800120e:	f107 0310 	add.w	r3, r7, #16
 8001212:	4618      	mov	r0, r3
 8001214:	f7ff fbe0 	bl	80009d8 <sha256_init>
    sha256_update(&sha, data, dataSize);
 8001218:	7afa      	ldrb	r2, [r7, #11]
 800121a:	f107 0310 	add.w	r3, r7, #16
 800121e:	68f9      	ldr	r1, [r7, #12]
 8001220:	4618      	mov	r0, r3
 8001222:	f7ff fc15 	bl	8000a50 <sha256_update>
    uint8_t *digest = sha256_digest(&sha);
 8001226:	f107 0310 	add.w	r3, r7, #16
 800122a:	4618      	mov	r0, r3
 800122c:	f7ff fc48 	bl	8000ac0 <sha256_digest>
 8001230:	f8c7 0084 	str.w	r0, [r7, #132]	; 0x84

    sha256_toString(digest, hashString);
 8001234:	6879      	ldr	r1, [r7, #4]
 8001236:	f8d7 0084 	ldr.w	r0, [r7, #132]	; 0x84
 800123a:	f7ff ff9d 	bl	8001178 <sha256_toString>

    // Liberar a memria alocada para o digest
    free(digest);
 800123e:	f8d7 0084 	ldr.w	r0, [r7, #132]	; 0x84
 8001242:	f002 fd53 	bl	8003cec <free>
}
 8001246:	bf00      	nop
 8001248:	3788      	adds	r7, #136	; 0x88
 800124a:	46bd      	mov	sp, r7
 800124c:	bd80      	pop	{r7, pc}
	...

08001250 <HAL_MspInit>:
/* USER CODE END 0 */
/**
  * Initializes the Global MSP.
  */
void HAL_MspInit(void)
{
 8001250:	b480      	push	{r7}
 8001252:	b085      	sub	sp, #20
 8001254:	af00      	add	r7, sp, #0
  /* USER CODE BEGIN MspInit 0 */

  /* USER CODE END MspInit 0 */

  __HAL_RCC_AFIO_CLK_ENABLE();
 8001256:	4b15      	ldr	r3, [pc, #84]	; (80012ac <HAL_MspInit+0x5c>)
 8001258:	699b      	ldr	r3, [r3, #24]
 800125a:	4a14      	ldr	r2, [pc, #80]	; (80012ac <HAL_MspInit+0x5c>)
 800125c:	f043 0301 	orr.w	r3, r3, #1
 8001260:	6193      	str	r3, [r2, #24]
 8001262:	4b12      	ldr	r3, [pc, #72]	; (80012ac <HAL_MspInit+0x5c>)
 8001264:	699b      	ldr	r3, [r3, #24]
 8001266:	f003 0301 	and.w	r3, r3, #1
 800126a:	60bb      	str	r3, [r7, #8]
 800126c:	68bb      	ldr	r3, [r7, #8]
  __HAL_RCC_PWR_CLK_ENABLE();
 800126e:	4b0f      	ldr	r3, [pc, #60]	; (80012ac <HAL_MspInit+0x5c>)
 8001270:	69db      	ldr	r3, [r3, #28]
 8001272:	4a0e      	ldr	r2, [pc, #56]	; (80012ac <HAL_MspInit+0x5c>)
 8001274:	f043 5380 	orr.w	r3, r3, #268435456	; 0x10000000
 8001278:	61d3      	str	r3, [r2, #28]
 800127a:	4b0c      	ldr	r3, [pc, #48]	; (80012ac <HAL_MspInit+0x5c>)
 800127c:	69db      	ldr	r3, [r3, #28]
 800127e:	f003 5380 	and.w	r3, r3, #268435456	; 0x10000000
 8001282:	607b      	str	r3, [r7, #4]
 8001284:	687b      	ldr	r3, [r7, #4]

  /* System interrupt init*/

  /** NOJTAG: JTAG-DP Disabled and SW-DP Enabled
  */
  __HAL_AFIO_REMAP_SWJ_NOJTAG();
 8001286:	4b0a      	ldr	r3, [pc, #40]	; (80012b0 <HAL_MspInit+0x60>)
 8001288:	685b      	ldr	r3, [r3, #4]
 800128a:	60fb      	str	r3, [r7, #12]
 800128c:	68fb      	ldr	r3, [r7, #12]
 800128e:	f023 63e0 	bic.w	r3, r3, #117440512	; 0x7000000
 8001292:	60fb      	str	r3, [r7, #12]
 8001294:	68fb      	ldr	r3, [r7, #12]
 8001296:	f043 7300 	orr.w	r3, r3, #33554432	; 0x2000000
 800129a:	60fb      	str	r3, [r7, #12]
 800129c:	4a04      	ldr	r2, [pc, #16]	; (80012b0 <HAL_MspInit+0x60>)
 800129e:	68fb      	ldr	r3, [r7, #12]
 80012a0:	6053      	str	r3, [r2, #4]

  /* USER CODE BEGIN MspInit 1 */

  /* USER CODE END MspInit 1 */
}
 80012a2:	bf00      	nop
 80012a4:	3714      	adds	r7, #20
 80012a6:	46bd      	mov	sp, r7
 80012a8:	bc80      	pop	{r7}
 80012aa:	4770      	bx	lr
 80012ac:	40021000 	.word	0x40021000
 80012b0:	40010000 	.word	0x40010000

080012b4 <HAL_I2C_MspInit>:
* This function configures the hardware resources used in this example
* @param hi2c: I2C handle pointer
* @retval None
*/
void HAL_I2C_MspInit(I2C_HandleTypeDef* hi2c)
{
 80012b4:	b580      	push	{r7, lr}
 80012b6:	b088      	sub	sp, #32
 80012b8:	af00      	add	r7, sp, #0
 80012ba:	6078      	str	r0, [r7, #4]
  GPIO_InitTypeDef GPIO_InitStruct = {0};
 80012bc:	f107 0310 	add.w	r3, r7, #16
 80012c0:	2200      	movs	r2, #0
 80012c2:	601a      	str	r2, [r3, #0]
 80012c4:	605a      	str	r2, [r3, #4]
 80012c6:	609a      	str	r2, [r3, #8]
 80012c8:	60da      	str	r2, [r3, #12]
  if(hi2c->Instance==I2C2)
 80012ca:	687b      	ldr	r3, [r7, #4]
 80012cc:	681b      	ldr	r3, [r3, #0]
 80012ce:	4a16      	ldr	r2, [pc, #88]	; (8001328 <HAL_I2C_MspInit+0x74>)
 80012d0:	4293      	cmp	r3, r2
 80012d2:	d124      	bne.n	800131e <HAL_I2C_MspInit+0x6a>
  {
  /* USER CODE BEGIN I2C2_MspInit 0 */

  /* USER CODE END I2C2_MspInit 0 */

    __HAL_RCC_GPIOB_CLK_ENABLE();
 80012d4:	4b15      	ldr	r3, [pc, #84]	; (800132c <HAL_I2C_MspInit+0x78>)
 80012d6:	699b      	ldr	r3, [r3, #24]
 80012d8:	4a14      	ldr	r2, [pc, #80]	; (800132c <HAL_I2C_MspInit+0x78>)
 80012da:	f043 0308 	orr.w	r3, r3, #8
 80012de:	6193      	str	r3, [r2, #24]
 80012e0:	4b12      	ldr	r3, [pc, #72]	; (800132c <HAL_I2C_MspInit+0x78>)
 80012e2:	699b      	ldr	r3, [r3, #24]
 80012e4:	f003 0308 	and.w	r3, r3, #8
 80012e8:	60fb      	str	r3, [r7, #12]
 80012ea:	68fb      	ldr	r3, [r7, #12]
    /**I2C2 GPIO Configuration
    PB10     ------> I2C2_SCL
    PB11     ------> I2C2_SDA
    */
    GPIO_InitStruct.Pin = GPIO_PIN_10|GPIO_PIN_11;
 80012ec:	f44f 6340 	mov.w	r3, #3072	; 0xc00
 80012f0:	613b      	str	r3, [r7, #16]
    GPIO_InitStruct.Mode = GPIO_MODE_AF_OD;
 80012f2:	2312      	movs	r3, #18
 80012f4:	617b      	str	r3, [r7, #20]
    GPIO_InitStruct.Speed = GPIO_SPEED_FREQ_HIGH;
 80012f6:	2303      	movs	r3, #3
 80012f8:	61fb      	str	r3, [r7, #28]
    HAL_GPIO_Init(GPIOB, &GPIO_InitStruct);
 80012fa:	f107 0310 	add.w	r3, r7, #16
 80012fe:	4619      	mov	r1, r3
 8001300:	480b      	ldr	r0, [pc, #44]	; (8001330 <HAL_I2C_MspInit+0x7c>)
 8001302:	f000 fb09 	bl	8001918 <HAL_GPIO_Init>

    /* Peripheral clock enable */
    __HAL_RCC_I2C2_CLK_ENABLE();
 8001306:	4b09      	ldr	r3, [pc, #36]	; (800132c <HAL_I2C_MspInit+0x78>)
 8001308:	69db      	ldr	r3, [r3, #28]
 800130a:	4a08      	ldr	r2, [pc, #32]	; (800132c <HAL_I2C_MspInit+0x78>)
 800130c:	f443 0380 	orr.w	r3, r3, #4194304	; 0x400000
 8001310:	61d3      	str	r3, [r2, #28]
 8001312:	4b06      	ldr	r3, [pc, #24]	; (800132c <HAL_I2C_MspInit+0x78>)
 8001314:	69db      	ldr	r3, [r3, #28]
 8001316:	f403 0380 	and.w	r3, r3, #4194304	; 0x400000
 800131a:	60bb      	str	r3, [r7, #8]
 800131c:	68bb      	ldr	r3, [r7, #8]
  /* USER CODE BEGIN I2C2_MspInit 1 */

  /* USER CODE END I2C2_MspInit 1 */
  }

}
 800131e:	bf00      	nop
 8001320:	3720      	adds	r7, #32
 8001322:	46bd      	mov	sp, r7
 8001324:	bd80      	pop	{r7, pc}
 8001326:	bf00      	nop
 8001328:	40005800 	.word	0x40005800
 800132c:	40021000 	.word	0x40021000
 8001330:	40010c00 	.word	0x40010c00

08001334 <HAL_USART_MspInit>:
* This function configures the hardware resources used in this example
* @param husart: USART handle pointer
* @retval None
*/
void HAL_USART_MspInit(USART_HandleTypeDef* husart)
{
 8001334:	b580      	push	{r7, lr}
 8001336:	b088      	sub	sp, #32
 8001338:	af00      	add	r7, sp, #0
 800133a:	6078      	str	r0, [r7, #4]
  GPIO_InitTypeDef GPIO_InitStruct = {0};
 800133c:	f107 0310 	add.w	r3, r7, #16
 8001340:	2200      	movs	r2, #0
 8001342:	601a      	str	r2, [r3, #0]
 8001344:	605a      	str	r2, [r3, #4]
 8001346:	609a      	str	r2, [r3, #8]
 8001348:	60da      	str	r2, [r3, #12]
  if(husart->Instance==USART1)
 800134a:	687b      	ldr	r3, [r7, #4]
 800134c:	681b      	ldr	r3, [r3, #0]
 800134e:	4a20      	ldr	r2, [pc, #128]	; (80013d0 <HAL_USART_MspInit+0x9c>)
 8001350:	4293      	cmp	r3, r2
 8001352:	d139      	bne.n	80013c8 <HAL_USART_MspInit+0x94>
  {
  /* USER CODE BEGIN USART1_MspInit 0 */

  /* USER CODE END USART1_MspInit 0 */
    /* Peripheral clock enable */
    __HAL_RCC_USART1_CLK_ENABLE();
 8001354:	4b1f      	ldr	r3, [pc, #124]	; (80013d4 <HAL_USART_MspInit+0xa0>)
 8001356:	699b      	ldr	r3, [r3, #24]
 8001358:	4a1e      	ldr	r2, [pc, #120]	; (80013d4 <HAL_USART_MspInit+0xa0>)
 800135a:	f443 4380 	orr.w	r3, r3, #16384	; 0x4000
 800135e:	6193      	str	r3, [r2, #24]
 8001360:	4b1c      	ldr	r3, [pc, #112]	; (80013d4 <HAL_USART_MspInit+0xa0>)
 8001362:	699b      	ldr	r3, [r3, #24]
 8001364:	f403 4380 	and.w	r3, r3, #16384	; 0x4000
 8001368:	60fb      	str	r3, [r7, #12]
 800136a:	68fb      	ldr	r3, [r7, #12]

    __HAL_RCC_GPIOA_CLK_ENABLE();
 800136c:	4b19      	ldr	r3, [pc, #100]	; (80013d4 <HAL_USART_MspInit+0xa0>)
 800136e:	699b      	ldr	r3, [r3, #24]
 8001370:	4a18      	ldr	r2, [pc, #96]	; (80013d4 <HAL_USART_MspInit+0xa0>)
 8001372:	f043 0304 	orr.w	r3, r3, #4
 8001376:	6193      	str	r3, [r2, #24]
 8001378:	4b16      	ldr	r3, [pc, #88]	; (80013d4 <HAL_USART_MspInit+0xa0>)
 800137a:	699b      	ldr	r3, [r3, #24]
 800137c:	f003 0304 	and.w	r3, r3, #4
 8001380:	60bb      	str	r3, [r7, #8]
 8001382:	68bb      	ldr	r3, [r7, #8]
    /**USART1 GPIO Configuration
    PA8     ------> USART1_CK
    PA9     ------> USART1_TX
    PA10     ------> USART1_RX
    */
    GPIO_InitStruct.Pin = GPIO_PIN_8|GPIO_PIN_9;
 8001384:	f44f 7340 	mov.w	r3, #768	; 0x300
 8001388:	613b      	str	r3, [r7, #16]
    GPIO_InitStruct.Mode = GPIO_MODE_AF_PP;
 800138a:	2302      	movs	r3, #2
 800138c:	617b      	str	r3, [r7, #20]
    GPIO_InitStruct.Speed = GPIO_SPEED_FREQ_HIGH;
 800138e:	2303      	movs	r3, #3
 8001390:	61fb      	str	r3, [r7, #28]
    HAL_GPIO_Init(GPIOA, &GPIO_InitStruct);
 8001392:	f107 0310 	add.w	r3, r7, #16
 8001396:	4619      	mov	r1, r3
 8001398:	480f      	ldr	r0, [pc, #60]	; (80013d8 <HAL_USART_MspInit+0xa4>)
 800139a:	f000 fabd 	bl	8001918 <HAL_GPIO_Init>

    GPIO_InitStruct.Pin = GPIO_PIN_10;
 800139e:	f44f 6380 	mov.w	r3, #1024	; 0x400
 80013a2:	613b      	str	r3, [r7, #16]
    GPIO_InitStruct.Mode = GPIO_MODE_INPUT;
 80013a4:	2300      	movs	r3, #0
 80013a6:	617b      	str	r3, [r7, #20]
    GPIO_InitStruct.Pull = GPIO_NOPULL;
 80013a8:	2300      	movs	r3, #0
 80013aa:	61bb      	str	r3, [r7, #24]
    HAL_GPIO_Init(GPIOA, &GPIO_InitStruct);
 80013ac:	f107 0310 	add.w	r3, r7, #16
 80013b0:	4619      	mov	r1, r3
 80013b2:	4809      	ldr	r0, [pc, #36]	; (80013d8 <HAL_USART_MspInit+0xa4>)
 80013b4:	f000 fab0 	bl	8001918 <HAL_GPIO_Init>

    /* USART1 interrupt Init */
    HAL_NVIC_SetPriority(USART1_IRQn, 0, 0);
 80013b8:	2200      	movs	r2, #0
 80013ba:	2100      	movs	r1, #0
 80013bc:	2025      	movs	r0, #37	; 0x25
 80013be:	f000 f9fe 	bl	80017be <HAL_NVIC_SetPriority>
    HAL_NVIC_EnableIRQ(USART1_IRQn);
 80013c2:	2025      	movs	r0, #37	; 0x25
 80013c4:	f000 fa17 	bl	80017f6 <HAL_NVIC_EnableIRQ>
  /* USER CODE BEGIN USART1_MspInit 1 */

  /* USER CODE END USART1_MspInit 1 */
  }

}
 80013c8:	bf00      	nop
 80013ca:	3720      	adds	r7, #32
 80013cc:	46bd      	mov	sp, r7
 80013ce:	bd80      	pop	{r7, pc}
 80013d0:	40013800 	.word	0x40013800
 80013d4:	40021000 	.word	0x40021000
 80013d8:	40010800 	.word	0x40010800

080013dc <NMI_Handler>:
/******************************************************************************/
/**
  * @brief This function handles Non maskable interrupt.
  */
void NMI_Handler(void)
{
 80013dc:	b480      	push	{r7}
 80013de:	af00      	add	r7, sp, #0
  /* USER CODE BEGIN NonMaskableInt_IRQn 0 */

  /* USER CODE END NonMaskableInt_IRQn 0 */
  /* USER CODE BEGIN NonMaskableInt_IRQn 1 */
  while (1)
 80013e0:	e7fe      	b.n	80013e0 <NMI_Handler+0x4>

080013e2 <HardFault_Handler>:

/**
  * @brief This function handles Hard fault interrupt.
  */
void HardFault_Handler(void)
{
 80013e2:	b480      	push	{r7}
 80013e4:	af00      	add	r7, sp, #0
  /* USER CODE BEGIN HardFault_IRQn 0 */

  /* USER CODE END HardFault_IRQn 0 */
  while (1)
 80013e6:	e7fe      	b.n	80013e6 <HardFault_Handler+0x4>

080013e8 <MemManage_Handler>:

/**
  * @brief This function handles Memory management fault.
  */
void MemManage_Handler(void)
{
 80013e8:	b480      	push	{r7}
 80013ea:	af00      	add	r7, sp, #0
  /* USER CODE BEGIN MemoryManagement_IRQn 0 */

  /* USER CODE END MemoryManagement_IRQn 0 */
  while (1)
 80013ec:	e7fe      	b.n	80013ec <MemManage_Handler+0x4>

080013ee <BusFault_Handler>:

/**
  * @brief This function handles Prefetch fault, memory access fault.
  */
void BusFault_Handler(void)
{
 80013ee:	b480      	push	{r7}
 80013f0:	af00      	add	r7, sp, #0
  /* USER CODE BEGIN BusFault_IRQn 0 */

  /* USER CODE END BusFault_IRQn 0 */
  while (1)
 80013f2:	e7fe      	b.n	80013f2 <BusFault_Handler+0x4>

080013f4 <UsageFault_Handler>:

/**
  * @brief This function handles Undefined instruction or illegal state.
  */
void UsageFault_Handler(void)
{
 80013f4:	b480      	push	{r7}
 80013f6:	af00      	add	r7, sp, #0
  /* USER CODE BEGIN UsageFault_IRQn 0 */

  /* USER CODE END UsageFault_IRQn 0 */
  while (1)
 80013f8:	e7fe      	b.n	80013f8 <UsageFault_Handler+0x4>

080013fa <SVC_Handler>:

/**
  * @brief This function handles System service call via SWI instruction.
  */
void SVC_Handler(void)
{
 80013fa:	b480      	push	{r7}
 80013fc:	af00      	add	r7, sp, #0

  /* USER CODE END SVCall_IRQn 0 */
  /* USER CODE BEGIN SVCall_IRQn 1 */

  /* USER CODE END SVCall_IRQn 1 */
}
 80013fe:	bf00      	nop
 8001400:	46bd      	mov	sp, r7
 8001402:	bc80      	pop	{r7}
 8001404:	4770      	bx	lr

08001406 <DebugMon_Handler>:

/**
  * @brief This function handles Debug monitor.
  */
void DebugMon_Handler(void)
{
 8001406:	b480      	push	{r7}
 8001408:	af00      	add	r7, sp, #0

  /* USER CODE END DebugMonitor_IRQn 0 */
  /* USER CODE BEGIN DebugMonitor_IRQn 1 */

  /* USER CODE END DebugMonitor_IRQn 1 */
}
 800140a:	bf00      	nop
 800140c:	46bd      	mov	sp, r7
 800140e:	bc80      	pop	{r7}
 8001410:	4770      	bx	lr

08001412 <PendSV_Handler>:

/**
  * @brief This function handles Pendable request for system service.
  */
void PendSV_Handler(void)
{
 8001412:	b480      	push	{r7}
 8001414:	af00      	add	r7, sp, #0

  /* USER CODE END PendSV_IRQn 0 */
  /* USER CODE BEGIN PendSV_IRQn 1 */

  /* USER CODE END PendSV_IRQn 1 */
}
 8001416:	bf00      	nop
 8001418:	46bd      	mov	sp, r7
 800141a:	bc80      	pop	{r7}
 800141c:	4770      	bx	lr

0800141e <SysTick_Handler>:

/**
  * @brief This function handles System tick timer.
  */
void SysTick_Handler(void)
{
 800141e:	b580      	push	{r7, lr}
 8001420:	af00      	add	r7, sp, #0
  /* USER CODE BEGIN SysTick_IRQn 0 */

  /* USER CODE END SysTick_IRQn 0 */
  HAL_IncTick();
 8001422:	f000 f8b5 	bl	8001590 <HAL_IncTick>
  /* USER CODE BEGIN SysTick_IRQn 1 */

  /* USER CODE END SysTick_IRQn 1 */
}
 8001426:	bf00      	nop
 8001428:	bd80      	pop	{r7, pc}
	...

0800142c <USART1_IRQHandler>:

/**
  * @brief This function handles USART1 global interrupt.
  */
void USART1_IRQHandler(void)
{
 800142c:	b580      	push	{r7, lr}
 800142e:	af00      	add	r7, sp, #0
  /* USER CODE BEGIN USART1_IRQn 0 */

  /* USER CODE END USART1_IRQn 0 */
  HAL_USART_IRQHandler(&husart1);
 8001430:	4802      	ldr	r0, [pc, #8]	; (800143c <USART1_IRQHandler+0x10>)
 8001432:	f002 f81f 	bl	8003474 <HAL_USART_IRQHandler>
  /* USER CODE BEGIN USART1_IRQn 1 */

  /* USER CODE END USART1_IRQn 1 */
}
 8001436:	bf00      	nop
 8001438:	bd80      	pop	{r7, pc}
 800143a:	bf00      	nop
 800143c:	200000cc 	.word	0x200000cc

08001440 <_sbrk>:
 *
 * @param incr Memory size
 * @return Pointer to allocated memory
 */
void *_sbrk(ptrdiff_t incr)
{
 8001440:	b580      	push	{r7, lr}
 8001442:	b086      	sub	sp, #24
 8001444:	af00      	add	r7, sp, #0
 8001446:	6078      	str	r0, [r7, #4]
  extern uint8_t _end; /* Symbol defined in the linker script */
  extern uint8_t _estack; /* Symbol defined in the linker script */
  extern uint32_t _Min_Stack_Size; /* Symbol defined in the linker script */
  const uint32_t stack_limit = (uint32_t)&_estack - (uint32_t)&_Min_Stack_Size;
 8001448:	4a14      	ldr	r2, [pc, #80]	; (800149c <_sbrk+0x5c>)
 800144a:	4b15      	ldr	r3, [pc, #84]	; (80014a0 <_sbrk+0x60>)
 800144c:	1ad3      	subs	r3, r2, r3
 800144e:	617b      	str	r3, [r7, #20]
  const uint8_t *max_heap = (uint8_t *)stack_limit;
 8001450:	697b      	ldr	r3, [r7, #20]
 8001452:	613b      	str	r3, [r7, #16]
  uint8_t *prev_heap_end;

  /* Initialize heap end at first call */
  if (NULL == __sbrk_heap_end)
 8001454:	4b13      	ldr	r3, [pc, #76]	; (80014a4 <_sbrk+0x64>)
 8001456:	681b      	ldr	r3, [r3, #0]
 8001458:	2b00      	cmp	r3, #0
 800145a:	d102      	bne.n	8001462 <_sbrk+0x22>
  {
    __sbrk_heap_end = &_end;
 800145c:	4b11      	ldr	r3, [pc, #68]	; (80014a4 <_sbrk+0x64>)
 800145e:	4a12      	ldr	r2, [pc, #72]	; (80014a8 <_sbrk+0x68>)
 8001460:	601a      	str	r2, [r3, #0]
  }

  /* Protect heap from growing into the reserved MSP stack */
  if (__sbrk_heap_end + incr > max_heap)
 8001462:	4b10      	ldr	r3, [pc, #64]	; (80014a4 <_sbrk+0x64>)
 8001464:	681a      	ldr	r2, [r3, #0]
 8001466:	687b      	ldr	r3, [r7, #4]
 8001468:	4413      	add	r3, r2
 800146a:	693a      	ldr	r2, [r7, #16]
 800146c:	429a      	cmp	r2, r3
 800146e:	d207      	bcs.n	8001480 <_sbrk+0x40>
  {
    errno = ENOMEM;
 8001470:	f002 fd08 	bl	8003e84 <__errno>
 8001474:	4603      	mov	r3, r0
 8001476:	220c      	movs	r2, #12
 8001478:	601a      	str	r2, [r3, #0]
    return (void *)-1;
 800147a:	f04f 33ff 	mov.w	r3, #4294967295
 800147e:	e009      	b.n	8001494 <_sbrk+0x54>
  }

  prev_heap_end = __sbrk_heap_end;
 8001480:	4b08      	ldr	r3, [pc, #32]	; (80014a4 <_sbrk+0x64>)
 8001482:	681b      	ldr	r3, [r3, #0]
 8001484:	60fb      	str	r3, [r7, #12]
  __sbrk_heap_end += incr;
 8001486:	4b07      	ldr	r3, [pc, #28]	; (80014a4 <_sbrk+0x64>)
 8001488:	681a      	ldr	r2, [r3, #0]
 800148a:	687b      	ldr	r3, [r7, #4]
 800148c:	4413      	add	r3, r2
 800148e:	4a05      	ldr	r2, [pc, #20]	; (80014a4 <_sbrk+0x64>)
 8001490:	6013      	str	r3, [r2, #0]

  return (void *)prev_heap_end;
 8001492:	68fb      	ldr	r3, [r7, #12]
}
 8001494:	4618      	mov	r0, r3
 8001496:	3718      	adds	r7, #24
 8001498:	46bd      	mov	sp, r7
 800149a:	bd80      	pop	{r7, pc}
 800149c:	20005000 	.word	0x20005000
 80014a0:	00000400 	.word	0x00000400
 80014a4:	20000110 	.word	0x20000110
 80014a8:	20000260 	.word	0x20000260

080014ac <SystemInit>:
  * @note   This function should be used only after reset.
  * @param  None
  * @retval None
  */
void SystemInit (void)
{
 80014ac:	b480      	push	{r7}
 80014ae:	af00      	add	r7, sp, #0

  /* Configure the Vector Table location -------------------------------------*/
#if defined(USER_VECT_TAB_ADDRESS)
  SCB->VTOR = VECT_TAB_BASE_ADDRESS | VECT_TAB_OFFSET; /* Vector Table Relocation in Internal SRAM. */
#endif /* USER_VECT_TAB_ADDRESS */
}
 80014b0:	bf00      	nop
 80014b2:	46bd      	mov	sp, r7
 80014b4:	bc80      	pop	{r7}
 80014b6:	4770      	bx	lr

080014b8 <Reset_Handler>:
  .weak Reset_Handler
  .type Reset_Handler, %function
Reset_Handler:

/* Copy the data segment initializers from flash to SRAM */
  ldr r0, =_sdata
 80014b8:	480c      	ldr	r0, [pc, #48]	; (80014ec <LoopFillZerobss+0x12>)
  ldr r1, =_edata
 80014ba:	490d      	ldr	r1, [pc, #52]	; (80014f0 <LoopFillZerobss+0x16>)
  ldr r2, =_sidata
 80014bc:	4a0d      	ldr	r2, [pc, #52]	; (80014f4 <LoopFillZerobss+0x1a>)
  movs r3, #0
 80014be:	2300      	movs	r3, #0
  b LoopCopyDataInit
 80014c0:	e002      	b.n	80014c8 <LoopCopyDataInit>

080014c2 <CopyDataInit>:

CopyDataInit:
  ldr r4, [r2, r3]
 80014c2:	58d4      	ldr	r4, [r2, r3]
  str r4, [r0, r3]
 80014c4:	50c4      	str	r4, [r0, r3]
  adds r3, r3, #4
 80014c6:	3304      	adds	r3, #4

080014c8 <LoopCopyDataInit>:

LoopCopyDataInit:
  adds r4, r0, r3
 80014c8:	18c4      	adds	r4, r0, r3
  cmp r4, r1
 80014ca:	428c      	cmp	r4, r1
  bcc CopyDataInit
 80014cc:	d3f9      	bcc.n	80014c2 <CopyDataInit>
  
/* Zero fill the bss segment. */
  ldr r2, =_sbss
 80014ce:	4a0a      	ldr	r2, [pc, #40]	; (80014f8 <LoopFillZerobss+0x1e>)
  ldr r4, =_ebss
 80014d0:	4c0a      	ldr	r4, [pc, #40]	; (80014fc <LoopFillZerobss+0x22>)
  movs r3, #0
 80014d2:	2300      	movs	r3, #0
  b LoopFillZerobss
 80014d4:	e001      	b.n	80014da <LoopFillZerobss>

080014d6 <FillZerobss>:

FillZerobss:
  str  r3, [r2]
 80014d6:	6013      	str	r3, [r2, #0]
  adds r2, r2, #4
 80014d8:	3204      	adds	r2, #4

080014da <LoopFillZerobss>:

LoopFillZerobss:
  cmp r2, r4
 80014da:	42a2      	cmp	r2, r4
  bcc FillZerobss
 80014dc:	d3fb      	bcc.n	80014d6 <FillZerobss>

/* Call the clock system intitialization function.*/
    bl  SystemInit
 80014de:	f7ff ffe5 	bl	80014ac <SystemInit>
/* Call static constructors */
    bl __libc_init_array
 80014e2:	f002 fcd5 	bl	8003e90 <__libc_init_array>
/* Call the application's entry point.*/
  bl main
 80014e6:	f7fe ffc1 	bl	800046c <main>
  bx lr
 80014ea:	4770      	bx	lr
  ldr r0, =_sdata
 80014ec:	20000000 	.word	0x20000000
  ldr r1, =_edata
 80014f0:	2000005c 	.word	0x2000005c
  ldr r2, =_sidata
 80014f4:	08004174 	.word	0x08004174
  ldr r2, =_sbss
 80014f8:	2000005c 	.word	0x2000005c
  ldr r4, =_ebss
 80014fc:	20000260 	.word	0x20000260

08001500 <ADC1_2_IRQHandler>:
 * @retval : None
*/
    .section .text.Default_Handler,"ax",%progbits
Default_Handler:
Infinite_Loop:
  b Infinite_Loop
 8001500:	e7fe      	b.n	8001500 <ADC1_2_IRQHandler>
	...

08001504 <HAL_Init>:
  *         need to ensure that the SysTick time base is always set to 1 millisecond
  *         to have correct HAL operation.
  * @retval HAL status
  */
HAL_StatusTypeDef HAL_Init(void)
{
 8001504:	b580      	push	{r7, lr}
 8001506:	af00      	add	r7, sp, #0
    defined(STM32F102x6) || defined(STM32F102xB) || \
    defined(STM32F103x6) || defined(STM32F103xB) || defined(STM32F103xE) || defined(STM32F103xG) || \
    defined(STM32F105xC) || defined(STM32F107xC)

  /* Prefetch buffer is not available on value line devices */
  __HAL_FLASH_PREFETCH_BUFFER_ENABLE();
 8001508:	4b08      	ldr	r3, [pc, #32]	; (800152c <HAL_Init+0x28>)
 800150a:	681b      	ldr	r3, [r3, #0]
 800150c:	4a07      	ldr	r2, [pc, #28]	; (800152c <HAL_Init+0x28>)
 800150e:	f043 0310 	orr.w	r3, r3, #16
 8001512:	6013      	str	r3, [r2, #0]
#endif
#endif /* PREFETCH_ENABLE */

  /* Set Interrupt Group Priority */
  HAL_NVIC_SetPriorityGrouping(NVIC_PRIORITYGROUP_4);
 8001514:	2003      	movs	r0, #3
 8001516:	f000 f947 	bl	80017a8 <HAL_NVIC_SetPriorityGrouping>

  /* Use systick as time base source and configure 1ms tick (default clock after Reset is HSI) */
  HAL_InitTick(TICK_INT_PRIORITY);
 800151a:	200f      	movs	r0, #15
 800151c:	f000 f808 	bl	8001530 <HAL_InitTick>

  /* Init the low level hardware */
  HAL_MspInit();
 8001520:	f7ff fe96 	bl	8001250 <HAL_MspInit>

  /* Return function status */
  return HAL_OK;
 8001524:	2300      	movs	r3, #0
}
 8001526:	4618      	mov	r0, r3
 8001528:	bd80      	pop	{r7, pc}
 800152a:	bf00      	nop
 800152c:	40022000 	.word	0x40022000

08001530 <HAL_InitTick>:
  *       implementation  in user file.
  * @param TickPriority Tick interrupt priority.
  * @retval HAL status
  */
__weak HAL_StatusTypeDef HAL_InitTick(uint32_t TickPriority)
{
 8001530:	b580      	push	{r7, lr}
 8001532:	b082      	sub	sp, #8
 8001534:	af00      	add	r7, sp, #0
 8001536:	6078      	str	r0, [r7, #4]
  /* Configure the SysTick to have interrupt in 1ms time basis*/
  if (HAL_SYSTICK_Config(SystemCoreClock / (1000U / uwTickFreq)) > 0U)
 8001538:	4b12      	ldr	r3, [pc, #72]	; (8001584 <HAL_InitTick+0x54>)
 800153a:	681a      	ldr	r2, [r3, #0]
 800153c:	4b12      	ldr	r3, [pc, #72]	; (8001588 <HAL_InitTick+0x58>)
 800153e:	781b      	ldrb	r3, [r3, #0]
 8001540:	4619      	mov	r1, r3
 8001542:	f44f 737a 	mov.w	r3, #1000	; 0x3e8
 8001546:	fbb3 f3f1 	udiv	r3, r3, r1
 800154a:	fbb2 f3f3 	udiv	r3, r2, r3
 800154e:	4618      	mov	r0, r3
 8001550:	f000 f95f 	bl	8001812 <HAL_SYSTICK_Config>
 8001554:	4603      	mov	r3, r0
 8001556:	2b00      	cmp	r3, #0
 8001558:	d001      	beq.n	800155e <HAL_InitTick+0x2e>
  {
    return HAL_ERROR;
 800155a:	2301      	movs	r3, #1
 800155c:	e00e      	b.n	800157c <HAL_InitTick+0x4c>
  }

  /* Configure the SysTick IRQ priority */
  if (TickPriority < (1UL << __NVIC_PRIO_BITS))
 800155e:	687b      	ldr	r3, [r7, #4]
 8001560:	2b0f      	cmp	r3, #15
 8001562:	d80a      	bhi.n	800157a <HAL_InitTick+0x4a>
  {
    HAL_NVIC_SetPriority(SysTick_IRQn, TickPriority, 0U);
 8001564:	2200      	movs	r2, #0
 8001566:	6879      	ldr	r1, [r7, #4]
 8001568:	f04f 30ff 	mov.w	r0, #4294967295
 800156c:	f000 f927 	bl	80017be <HAL_NVIC_SetPriority>
    uwTickPrio = TickPriority;
 8001570:	4a06      	ldr	r2, [pc, #24]	; (800158c <HAL_InitTick+0x5c>)
 8001572:	687b      	ldr	r3, [r7, #4]
 8001574:	6013      	str	r3, [r2, #0]
  {
    return HAL_ERROR;
  }

  /* Return function status */
  return HAL_OK;
 8001576:	2300      	movs	r3, #0
 8001578:	e000      	b.n	800157c <HAL_InitTick+0x4c>
    return HAL_ERROR;
 800157a:	2301      	movs	r3, #1
}
 800157c:	4618      	mov	r0, r3
 800157e:	3708      	adds	r7, #8
 8001580:	46bd      	mov	sp, r7
 8001582:	bd80      	pop	{r7, pc}
 8001584:	20000000 	.word	0x20000000
 8001588:	20000008 	.word	0x20000008
 800158c:	20000004 	.word	0x20000004

08001590 <HAL_IncTick>:
  * @note This function is declared as __weak to be overwritten in case of other
  *      implementations in user file.
  * @retval None
  */
__weak void HAL_IncTick(void)
{
 8001590:	b480      	push	{r7}
 8001592:	af00      	add	r7, sp, #0
  uwTick += uwTickFreq;
 8001594:	4b05      	ldr	r3, [pc, #20]	; (80015ac <HAL_IncTick+0x1c>)
 8001596:	781b      	ldrb	r3, [r3, #0]
 8001598:	461a      	mov	r2, r3
 800159a:	4b05      	ldr	r3, [pc, #20]	; (80015b0 <HAL_IncTick+0x20>)
 800159c:	681b      	ldr	r3, [r3, #0]
 800159e:	4413      	add	r3, r2
 80015a0:	4a03      	ldr	r2, [pc, #12]	; (80015b0 <HAL_IncTick+0x20>)
 80015a2:	6013      	str	r3, [r2, #0]
}
 80015a4:	bf00      	nop
 80015a6:	46bd      	mov	sp, r7
 80015a8:	bc80      	pop	{r7}
 80015aa:	4770      	bx	lr
 80015ac:	20000008 	.word	0x20000008
 80015b0:	20000114 	.word	0x20000114

080015b4 <HAL_GetTick>:
  * @note  This function is declared as __weak to be overwritten in case of other
  *       implementations in user file.
  * @retval tick value
  */
__weak uint32_t HAL_GetTick(void)
{
 80015b4:	b480      	push	{r7}
 80015b6:	af00      	add	r7, sp, #0
  return uwTick;
 80015b8:	4b02      	ldr	r3, [pc, #8]	; (80015c4 <HAL_GetTick+0x10>)
 80015ba:	681b      	ldr	r3, [r3, #0]
}
 80015bc:	4618      	mov	r0, r3
 80015be:	46bd      	mov	sp, r7
 80015c0:	bc80      	pop	{r7}
 80015c2:	4770      	bx	lr
 80015c4:	20000114 	.word	0x20000114

080015c8 <HAL_Delay>:
  *       implementations in user file.
  * @param Delay specifies the delay time length, in milliseconds.
  * @retval None
  */
__weak void HAL_Delay(uint32_t Delay)
{
 80015c8:	b580      	push	{r7, lr}
 80015ca:	b084      	sub	sp, #16
 80015cc:	af00      	add	r7, sp, #0
 80015ce:	6078      	str	r0, [r7, #4]
  uint32_t tickstart = HAL_GetTick();
 80015d0:	f7ff fff0 	bl	80015b4 <HAL_GetTick>
 80015d4:	60b8      	str	r0, [r7, #8]
  uint32_t wait = Delay;
 80015d6:	687b      	ldr	r3, [r7, #4]
 80015d8:	60fb      	str	r3, [r7, #12]

  /* Add a freq to guarantee minimum wait */
  if (wait < HAL_MAX_DELAY)
 80015da:	68fb      	ldr	r3, [r7, #12]
 80015dc:	f1b3 3fff 	cmp.w	r3, #4294967295
 80015e0:	d005      	beq.n	80015ee <HAL_Delay+0x26>
  {
    wait += (uint32_t)(uwTickFreq);
 80015e2:	4b0a      	ldr	r3, [pc, #40]	; (800160c <HAL_Delay+0x44>)
 80015e4:	781b      	ldrb	r3, [r3, #0]
 80015e6:	461a      	mov	r2, r3
 80015e8:	68fb      	ldr	r3, [r7, #12]
 80015ea:	4413      	add	r3, r2
 80015ec:	60fb      	str	r3, [r7, #12]
  }

  while ((HAL_GetTick() - tickstart) < wait)
 80015ee:	bf00      	nop
 80015f0:	f7ff ffe0 	bl	80015b4 <HAL_GetTick>
 80015f4:	4602      	mov	r2, r0
 80015f6:	68bb      	ldr	r3, [r7, #8]
 80015f8:	1ad3      	subs	r3, r2, r3
 80015fa:	68fa      	ldr	r2, [r7, #12]
 80015fc:	429a      	cmp	r2, r3
 80015fe:	d8f7      	bhi.n	80015f0 <HAL_Delay+0x28>
  {
  }
}
 8001600:	bf00      	nop
 8001602:	bf00      	nop
 8001604:	3710      	adds	r7, #16
 8001606:	46bd      	mov	sp, r7
 8001608:	bd80      	pop	{r7, pc}
 800160a:	bf00      	nop
 800160c:	20000008 	.word	0x20000008

08001610 <__NVIC_SetPriorityGrouping>:
           In case of a conflict between priority grouping and available
           priority bits (__NVIC_PRIO_BITS), the smallest possible priority group is set.
  \param [in]      PriorityGroup  Priority grouping field.
 */
__STATIC_INLINE void __NVIC_SetPriorityGrouping(uint32_t PriorityGroup)
{
 8001610:	b480      	push	{r7}
 8001612:	b085      	sub	sp, #20
 8001614:	af00      	add	r7, sp, #0
 8001616:	6078      	str	r0, [r7, #4]
  uint32_t reg_value;
  uint32_t PriorityGroupTmp = (PriorityGroup & (uint32_t)0x07UL);             /* only values 0..7 are used          */
 8001618:	687b      	ldr	r3, [r7, #4]
 800161a:	f003 0307 	and.w	r3, r3, #7
 800161e:	60fb      	str	r3, [r7, #12]

  reg_value  =  SCB->AIRCR;                                                   /* read old register configuration    */
 8001620:	4b0c      	ldr	r3, [pc, #48]	; (8001654 <__NVIC_SetPriorityGrouping+0x44>)
 8001622:	68db      	ldr	r3, [r3, #12]
 8001624:	60bb      	str	r3, [r7, #8]
  reg_value &= ~((uint32_t)(SCB_AIRCR_VECTKEY_Msk | SCB_AIRCR_PRIGROUP_Msk)); /* clear bits to change               */
 8001626:	68ba      	ldr	r2, [r7, #8]
 8001628:	f64f 03ff 	movw	r3, #63743	; 0xf8ff
 800162c:	4013      	ands	r3, r2
 800162e:	60bb      	str	r3, [r7, #8]
  reg_value  =  (reg_value                                   |
                ((uint32_t)0x5FAUL << SCB_AIRCR_VECTKEY_Pos) |
                (PriorityGroupTmp << SCB_AIRCR_PRIGROUP_Pos) );               /* Insert write key and priority group */
 8001630:	68fb      	ldr	r3, [r7, #12]
 8001632:	021a      	lsls	r2, r3, #8
                ((uint32_t)0x5FAUL << SCB_AIRCR_VECTKEY_Pos) |
 8001634:	68bb      	ldr	r3, [r7, #8]
 8001636:	4313      	orrs	r3, r2
  reg_value  =  (reg_value                                   |
 8001638:	f043 63bf 	orr.w	r3, r3, #100139008	; 0x5f80000
 800163c:	f443 3300 	orr.w	r3, r3, #131072	; 0x20000
 8001640:	60bb      	str	r3, [r7, #8]
  SCB->AIRCR =  reg_value;
 8001642:	4a04      	ldr	r2, [pc, #16]	; (8001654 <__NVIC_SetPriorityGrouping+0x44>)
 8001644:	68bb      	ldr	r3, [r7, #8]
 8001646:	60d3      	str	r3, [r2, #12]
}
 8001648:	bf00      	nop
 800164a:	3714      	adds	r7, #20
 800164c:	46bd      	mov	sp, r7
 800164e:	bc80      	pop	{r7}
 8001650:	4770      	bx	lr
 8001652:	bf00      	nop
 8001654:	e000ed00 	.word	0xe000ed00

08001658 <__NVIC_GetPriorityGrouping>:
  \brief   Get Priority Grouping
  \details Reads the priority grouping field from the NVIC Interrupt Controller.
  \return                Priority grouping field (SCB->AIRCR [10:8] PRIGROUP field).
 */
__STATIC_INLINE uint32_t __NVIC_GetPriorityGrouping(void)
{
 8001658:	b480      	push	{r7}
 800165a:	af00      	add	r7, sp, #0
  return ((uint32_t)((SCB->AIRCR & SCB_AIRCR_PRIGROUP_Msk) >> SCB_AIRCR_PRIGROUP_Pos));
 800165c:	4b04      	ldr	r3, [pc, #16]	; (8001670 <__NVIC_GetPriorityGrouping+0x18>)
 800165e:	68db      	ldr	r3, [r3, #12]
 8001660:	0a1b      	lsrs	r3, r3, #8
 8001662:	f003 0307 	and.w	r3, r3, #7
}
 8001666:	4618      	mov	r0, r3
 8001668:	46bd      	mov	sp, r7
 800166a:	bc80      	pop	{r7}
 800166c:	4770      	bx	lr
 800166e:	bf00      	nop
 8001670:	e000ed00 	.word	0xe000ed00

08001674 <__NVIC_EnableIRQ>:
  \details Enables a device specific interrupt in the NVIC interrupt controller.
  \param [in]      IRQn  Device specific interrupt number.
  \note    IRQn must not be negative.
 */
__STATIC_INLINE void __NVIC_EnableIRQ(IRQn_Type IRQn)
{
 8001674:	b480      	push	{r7}
 8001676:	b083      	sub	sp, #12
 8001678:	af00      	add	r7, sp, #0
 800167a:	4603      	mov	r3, r0
 800167c:	71fb      	strb	r3, [r7, #7]
  if ((int32_t)(IRQn) >= 0)
 800167e:	f997 3007 	ldrsb.w	r3, [r7, #7]
 8001682:	2b00      	cmp	r3, #0
 8001684:	db0b      	blt.n	800169e <__NVIC_EnableIRQ+0x2a>
  {
    NVIC->ISER[(((uint32_t)IRQn) >> 5UL)] = (uint32_t)(1UL << (((uint32_t)IRQn) & 0x1FUL));
 8001686:	79fb      	ldrb	r3, [r7, #7]
 8001688:	f003 021f 	and.w	r2, r3, #31
 800168c:	4906      	ldr	r1, [pc, #24]	; (80016a8 <__NVIC_EnableIRQ+0x34>)
 800168e:	f997 3007 	ldrsb.w	r3, [r7, #7]
 8001692:	095b      	lsrs	r3, r3, #5
 8001694:	2001      	movs	r0, #1
 8001696:	fa00 f202 	lsl.w	r2, r0, r2
 800169a:	f841 2023 	str.w	r2, [r1, r3, lsl #2]
  }
}
 800169e:	bf00      	nop
 80016a0:	370c      	adds	r7, #12
 80016a2:	46bd      	mov	sp, r7
 80016a4:	bc80      	pop	{r7}
 80016a6:	4770      	bx	lr
 80016a8:	e000e100 	.word	0xe000e100

080016ac <__NVIC_SetPriority>:
  \param [in]      IRQn  Interrupt number.
  \param [in]  priority  Priority to set.
  \note    The priority cannot be set for every processor exception.
 */
__STATIC_INLINE void __NVIC_SetPriority(IRQn_Type IRQn, uint32_t priority)
{
 80016ac:	b480      	push	{r7}
 80016ae:	b083      	sub	sp, #12
 80016b0:	af00      	add	r7, sp, #0
 80016b2:	4603      	mov	r3, r0
 80016b4:	6039      	str	r1, [r7, #0]
 80016b6:	71fb      	strb	r3, [r7, #7]
  if ((int32_t)(IRQn) >= 0)
 80016b8:	f997 3007 	ldrsb.w	r3, [r7, #7]
 80016bc:	2b00      	cmp	r3, #0
 80016be:	db0a      	blt.n	80016d6 <__NVIC_SetPriority+0x2a>
  {
    NVIC->IP[((uint32_t)IRQn)]               = (uint8_t)((priority << (8U - __NVIC_PRIO_BITS)) & (uint32_t)0xFFUL);
 80016c0:	683b      	ldr	r3, [r7, #0]
 80016c2:	b2da      	uxtb	r2, r3
 80016c4:	490c      	ldr	r1, [pc, #48]	; (80016f8 <__NVIC_SetPriority+0x4c>)
 80016c6:	f997 3007 	ldrsb.w	r3, [r7, #7]
 80016ca:	0112      	lsls	r2, r2, #4
 80016cc:	b2d2      	uxtb	r2, r2
 80016ce:	440b      	add	r3, r1
 80016d0:	f883 2300 	strb.w	r2, [r3, #768]	; 0x300
  }
  else
  {
    SCB->SHP[(((uint32_t)IRQn) & 0xFUL)-4UL] = (uint8_t)((priority << (8U - __NVIC_PRIO_BITS)) & (uint32_t)0xFFUL);
  }
}
 80016d4:	e00a      	b.n	80016ec <__NVIC_SetPriority+0x40>
    SCB->SHP[(((uint32_t)IRQn) & 0xFUL)-4UL] = (uint8_t)((priority << (8U - __NVIC_PRIO_BITS)) & (uint32_t)0xFFUL);
 80016d6:	683b      	ldr	r3, [r7, #0]
 80016d8:	b2da      	uxtb	r2, r3
 80016da:	4908      	ldr	r1, [pc, #32]	; (80016fc <__NVIC_SetPriority+0x50>)
 80016dc:	79fb      	ldrb	r3, [r7, #7]
 80016de:	f003 030f 	and.w	r3, r3, #15
 80016e2:	3b04      	subs	r3, #4
 80016e4:	0112      	lsls	r2, r2, #4
 80016e6:	b2d2      	uxtb	r2, r2
 80016e8:	440b      	add	r3, r1
 80016ea:	761a      	strb	r2, [r3, #24]
}
 80016ec:	bf00      	nop
 80016ee:	370c      	adds	r7, #12
 80016f0:	46bd      	mov	sp, r7
 80016f2:	bc80      	pop	{r7}
 80016f4:	4770      	bx	lr
 80016f6:	bf00      	nop
 80016f8:	e000e100 	.word	0xe000e100
 80016fc:	e000ed00 	.word	0xe000ed00

08001700 <NVIC_EncodePriority>:
  \param [in]   PreemptPriority  Preemptive priority value (starting from 0).
  \param [in]       SubPriority  Subpriority value (starting from 0).
  \return                        Encoded priority. Value can be used in the function \ref NVIC_SetPriority().
 */
__STATIC_INLINE uint32_t NVIC_EncodePriority (uint32_t PriorityGroup, uint32_t PreemptPriority, uint32_t SubPriority)
{
 8001700:	b480      	push	{r7}
 8001702:	b089      	sub	sp, #36	; 0x24
 8001704:	af00      	add	r7, sp, #0
 8001706:	60f8      	str	r0, [r7, #12]
 8001708:	60b9      	str	r1, [r7, #8]
 800170a:	607a      	str	r2, [r7, #4]
  uint32_t PriorityGroupTmp = (PriorityGroup & (uint32_t)0x07UL);   /* only values 0..7 are used          */
 800170c:	68fb      	ldr	r3, [r7, #12]
 800170e:	f003 0307 	and.w	r3, r3, #7
 8001712:	61fb      	str	r3, [r7, #28]
  uint32_t PreemptPriorityBits;
  uint32_t SubPriorityBits;

  PreemptPriorityBits = ((7UL - PriorityGroupTmp) > (uint32_t)(__NVIC_PRIO_BITS)) ? (uint32_t)(__NVIC_PRIO_BITS) : (uint32_t)(7UL - PriorityGroupTmp);
 8001714:	69fb      	ldr	r3, [r7, #28]
 8001716:	f1c3 0307 	rsb	r3, r3, #7
 800171a:	2b04      	cmp	r3, #4
 800171c:	bf28      	it	cs
 800171e:	2304      	movcs	r3, #4
 8001720:	61bb      	str	r3, [r7, #24]
  SubPriorityBits     = ((PriorityGroupTmp + (uint32_t)(__NVIC_PRIO_BITS)) < (uint32_t)7UL) ? (uint32_t)0UL : (uint32_t)((PriorityGroupTmp - 7UL) + (uint32_t)(__NVIC_PRIO_BITS));
 8001722:	69fb      	ldr	r3, [r7, #28]
 8001724:	3304      	adds	r3, #4
 8001726:	2b06      	cmp	r3, #6
 8001728:	d902      	bls.n	8001730 <NVIC_EncodePriority+0x30>
 800172a:	69fb      	ldr	r3, [r7, #28]
 800172c:	3b03      	subs	r3, #3
 800172e:	e000      	b.n	8001732 <NVIC_EncodePriority+0x32>
 8001730:	2300      	movs	r3, #0
 8001732:	617b      	str	r3, [r7, #20]

  return (
           ((PreemptPriority & (uint32_t)((1UL << (PreemptPriorityBits)) - 1UL)) << SubPriorityBits) |
 8001734:	f04f 32ff 	mov.w	r2, #4294967295
 8001738:	69bb      	ldr	r3, [r7, #24]
 800173a:	fa02 f303 	lsl.w	r3, r2, r3
 800173e:	43da      	mvns	r2, r3
 8001740:	68bb      	ldr	r3, [r7, #8]
 8001742:	401a      	ands	r2, r3
 8001744:	697b      	ldr	r3, [r7, #20]
 8001746:	409a      	lsls	r2, r3
           ((SubPriority     & (uint32_t)((1UL << (SubPriorityBits    )) - 1UL)))
 8001748:	f04f 31ff 	mov.w	r1, #4294967295
 800174c:	697b      	ldr	r3, [r7, #20]
 800174e:	fa01 f303 	lsl.w	r3, r1, r3
 8001752:	43d9      	mvns	r1, r3
 8001754:	687b      	ldr	r3, [r7, #4]
 8001756:	400b      	ands	r3, r1
           ((PreemptPriority & (uint32_t)((1UL << (PreemptPriorityBits)) - 1UL)) << SubPriorityBits) |
 8001758:	4313      	orrs	r3, r2
         );
}
 800175a:	4618      	mov	r0, r3
 800175c:	3724      	adds	r7, #36	; 0x24
 800175e:	46bd      	mov	sp, r7
 8001760:	bc80      	pop	{r7}
 8001762:	4770      	bx	lr

08001764 <SysTick_Config>:
  \note    When the variable <b>__Vendor_SysTickConfig</b> is set to 1, then the
           function <b>SysTick_Config</b> is not included. In this case, the file <b><i>device</i>.h</b>
           must contain a vendor-specific implementation of this function.
 */
__STATIC_INLINE uint32_t SysTick_Config(uint32_t ticks)
{
 8001764:	b580      	push	{r7, lr}
 8001766:	b082      	sub	sp, #8
 8001768:	af00      	add	r7, sp, #0
 800176a:	6078      	str	r0, [r7, #4]
  if ((ticks - 1UL) > SysTick_LOAD_RELOAD_Msk)
 800176c:	687b      	ldr	r3, [r7, #4]
 800176e:	3b01      	subs	r3, #1
 8001770:	f1b3 7f80 	cmp.w	r3, #16777216	; 0x1000000
 8001774:	d301      	bcc.n	800177a <SysTick_Config+0x16>
  {
    return (1UL);                                                   /* Reload value impossible */
 8001776:	2301      	movs	r3, #1
 8001778:	e00f      	b.n	800179a <SysTick_Config+0x36>
  }

  SysTick->LOAD  = (uint32_t)(ticks - 1UL);                         /* set reload register */
 800177a:	4a0a      	ldr	r2, [pc, #40]	; (80017a4 <SysTick_Config+0x40>)
 800177c:	687b      	ldr	r3, [r7, #4]
 800177e:	3b01      	subs	r3, #1
 8001780:	6053      	str	r3, [r2, #4]
  NVIC_SetPriority (SysTick_IRQn, (1UL << __NVIC_PRIO_BITS) - 1UL); /* set Priority for Systick Interrupt */
 8001782:	210f      	movs	r1, #15
 8001784:	f04f 30ff 	mov.w	r0, #4294967295
 8001788:	f7ff ff90 	bl	80016ac <__NVIC_SetPriority>
  SysTick->VAL   = 0UL;                                             /* Load the SysTick Counter Value */
 800178c:	4b05      	ldr	r3, [pc, #20]	; (80017a4 <SysTick_Config+0x40>)
 800178e:	2200      	movs	r2, #0
 8001790:	609a      	str	r2, [r3, #8]
  SysTick->CTRL  = SysTick_CTRL_CLKSOURCE_Msk |
 8001792:	4b04      	ldr	r3, [pc, #16]	; (80017a4 <SysTick_Config+0x40>)
 8001794:	2207      	movs	r2, #7
 8001796:	601a      	str	r2, [r3, #0]
                   SysTick_CTRL_TICKINT_Msk   |
                   SysTick_CTRL_ENABLE_Msk;                         /* Enable SysTick IRQ and SysTick Timer */
  return (0UL);                                                     /* Function successful */
 8001798:	2300      	movs	r3, #0
}
 800179a:	4618      	mov	r0, r3
 800179c:	3708      	adds	r7, #8
 800179e:	46bd      	mov	sp, r7
 80017a0:	bd80      	pop	{r7, pc}
 80017a2:	bf00      	nop
 80017a4:	e000e010 	.word	0xe000e010

080017a8 <HAL_NVIC_SetPriorityGrouping>:
  * @note   When the NVIC_PriorityGroup_0 is selected, IRQ preemption is no more possible. 
  *         The pending IRQ priority will be managed only by the subpriority. 
  * @retval None
  */
void HAL_NVIC_SetPriorityGrouping(uint32_t PriorityGroup)
{
 80017a8:	b580      	push	{r7, lr}
 80017aa:	b082      	sub	sp, #8
 80017ac:	af00      	add	r7, sp, #0
 80017ae:	6078      	str	r0, [r7, #4]
  /* Check the parameters */
  assert_param(IS_NVIC_PRIORITY_GROUP(PriorityGroup));
  
  /* Set the PRIGROUP[10:8] bits according to the PriorityGroup parameter value */
  NVIC_SetPriorityGrouping(PriorityGroup);
 80017b0:	6878      	ldr	r0, [r7, #4]
 80017b2:	f7ff ff2d 	bl	8001610 <__NVIC_SetPriorityGrouping>
}
 80017b6:	bf00      	nop
 80017b8:	3708      	adds	r7, #8
 80017ba:	46bd      	mov	sp, r7
 80017bc:	bd80      	pop	{r7, pc}

080017be <HAL_NVIC_SetPriority>:
  *         This parameter can be a value between 0 and 15
  *         A lower priority value indicates a higher priority.          
  * @retval None
  */
void HAL_NVIC_SetPriority(IRQn_Type IRQn, uint32_t PreemptPriority, uint32_t SubPriority)
{ 
 80017be:	b580      	push	{r7, lr}
 80017c0:	b086      	sub	sp, #24
 80017c2:	af00      	add	r7, sp, #0
 80017c4:	4603      	mov	r3, r0
 80017c6:	60b9      	str	r1, [r7, #8]
 80017c8:	607a      	str	r2, [r7, #4]
 80017ca:	73fb      	strb	r3, [r7, #15]
  uint32_t prioritygroup = 0x00U;
 80017cc:	2300      	movs	r3, #0
 80017ce:	617b      	str	r3, [r7, #20]
  
  /* Check the parameters */
  assert_param(IS_NVIC_SUB_PRIORITY(SubPriority));
  assert_param(IS_NVIC_PREEMPTION_PRIORITY(PreemptPriority));
  
  prioritygroup = NVIC_GetPriorityGrouping();
 80017d0:	f7ff ff42 	bl	8001658 <__NVIC_GetPriorityGrouping>
 80017d4:	6178      	str	r0, [r7, #20]
  
  NVIC_SetPriority(IRQn, NVIC_EncodePriority(prioritygroup, PreemptPriority, SubPriority));
 80017d6:	687a      	ldr	r2, [r7, #4]
 80017d8:	68b9      	ldr	r1, [r7, #8]
 80017da:	6978      	ldr	r0, [r7, #20]
 80017dc:	f7ff ff90 	bl	8001700 <NVIC_EncodePriority>
 80017e0:	4602      	mov	r2, r0
 80017e2:	f997 300f 	ldrsb.w	r3, [r7, #15]
 80017e6:	4611      	mov	r1, r2
 80017e8:	4618      	mov	r0, r3
 80017ea:	f7ff ff5f 	bl	80016ac <__NVIC_SetPriority>
}
 80017ee:	bf00      	nop
 80017f0:	3718      	adds	r7, #24
 80017f2:	46bd      	mov	sp, r7
 80017f4:	bd80      	pop	{r7, pc}

080017f6 <HAL_NVIC_EnableIRQ>:
  *         This parameter can be an enumerator of IRQn_Type enumeration
  *         (For the complete STM32 Devices IRQ Channels list, please refer to the appropriate CMSIS device file (stm32f10xxx.h))
  * @retval None
  */
void HAL_NVIC_EnableIRQ(IRQn_Type IRQn)
{
 80017f6:	b580      	push	{r7, lr}
 80017f8:	b082      	sub	sp, #8
 80017fa:	af00      	add	r7, sp, #0
 80017fc:	4603      	mov	r3, r0
 80017fe:	71fb      	strb	r3, [r7, #7]
  /* Check the parameters */
  assert_param(IS_NVIC_DEVICE_IRQ(IRQn));

  /* Enable interrupt */
  NVIC_EnableIRQ(IRQn);
 8001800:	f997 3007 	ldrsb.w	r3, [r7, #7]
 8001804:	4618      	mov	r0, r3
 8001806:	f7ff ff35 	bl	8001674 <__NVIC_EnableIRQ>
}
 800180a:	bf00      	nop
 800180c:	3708      	adds	r7, #8
 800180e:	46bd      	mov	sp, r7
 8001810:	bd80      	pop	{r7, pc}

08001812 <HAL_SYSTICK_Config>:
  * @param  TicksNumb: Specifies the ticks Number of ticks between two interrupts.
  * @retval status:  - 0  Function succeeded.
  *                  - 1  Function failed.
  */
uint32_t HAL_SYSTICK_Config(uint32_t TicksNumb)
{
 8001812:	b580      	push	{r7, lr}
 8001814:	b082      	sub	sp, #8
 8001816:	af00      	add	r7, sp, #0
 8001818:	6078      	str	r0, [r7, #4]
   return SysTick_Config(TicksNumb);
 800181a:	6878      	ldr	r0, [r7, #4]
 800181c:	f7ff ffa2 	bl	8001764 <SysTick_Config>
 8001820:	4603      	mov	r3, r0
}
 8001822:	4618      	mov	r0, r3
 8001824:	3708      	adds	r7, #8
 8001826:	46bd      	mov	sp, r7
 8001828:	bd80      	pop	{r7, pc}
	...

0800182c <HAL_DMA_Abort_IT>:
  * @param  hdma  : pointer to a DMA_HandleTypeDef structure that contains
  *                 the configuration information for the specified DMA Channel.
  * @retval HAL status
  */
HAL_StatusTypeDef HAL_DMA_Abort_IT(DMA_HandleTypeDef *hdma)
{  
 800182c:	b580      	push	{r7, lr}
 800182e:	b084      	sub	sp, #16
 8001830:	af00      	add	r7, sp, #0
 8001832:	6078      	str	r0, [r7, #4]
  HAL_StatusTypeDef status = HAL_OK;
 8001834:	2300      	movs	r3, #0
 8001836:	73fb      	strb	r3, [r7, #15]
  
  if(HAL_DMA_STATE_BUSY != hdma->State)
 8001838:	687b      	ldr	r3, [r7, #4]
 800183a:	f893 3021 	ldrb.w	r3, [r3, #33]	; 0x21
 800183e:	2b02      	cmp	r3, #2
 8001840:	d005      	beq.n	800184e <HAL_DMA_Abort_IT+0x22>
  {
    /* no transfer ongoing */
    hdma->ErrorCode = HAL_DMA_ERROR_NO_XFER;
 8001842:	687b      	ldr	r3, [r7, #4]
 8001844:	2204      	movs	r2, #4
 8001846:	639a      	str	r2, [r3, #56]	; 0x38
        
    status = HAL_ERROR;
 8001848:	2301      	movs	r3, #1
 800184a:	73fb      	strb	r3, [r7, #15]
 800184c:	e051      	b.n	80018f2 <HAL_DMA_Abort_IT+0xc6>
  }
  else
  { 
    /* Disable DMA IT */
    __HAL_DMA_DISABLE_IT(hdma, (DMA_IT_TC | DMA_IT_HT | DMA_IT_TE));
 800184e:	687b      	ldr	r3, [r7, #4]
 8001850:	681b      	ldr	r3, [r3, #0]
 8001852:	681a      	ldr	r2, [r3, #0]
 8001854:	687b      	ldr	r3, [r7, #4]
 8001856:	681b      	ldr	r3, [r3, #0]
 8001858:	f022 020e 	bic.w	r2, r2, #14
 800185c:	601a      	str	r2, [r3, #0]

    /* Disable the channel */
    __HAL_DMA_DISABLE(hdma);
 800185e:	687b      	ldr	r3, [r7, #4]
 8001860:	681b      	ldr	r3, [r3, #0]
 8001862:	681a      	ldr	r2, [r3, #0]
 8001864:	687b      	ldr	r3, [r7, #4]
 8001866:	681b      	ldr	r3, [r3, #0]
 8001868:	f022 0201 	bic.w	r2, r2, #1
 800186c:	601a      	str	r2, [r3, #0]

    /* Clear all flags */
    __HAL_DMA_CLEAR_FLAG(hdma, __HAL_DMA_GET_GI_FLAG_INDEX(hdma));
 800186e:	687b      	ldr	r3, [r7, #4]
 8001870:	681b      	ldr	r3, [r3, #0]
 8001872:	4a22      	ldr	r2, [pc, #136]	; (80018fc <HAL_DMA_Abort_IT+0xd0>)
 8001874:	4293      	cmp	r3, r2
 8001876:	d029      	beq.n	80018cc <HAL_DMA_Abort_IT+0xa0>
 8001878:	687b      	ldr	r3, [r7, #4]
 800187a:	681b      	ldr	r3, [r3, #0]
 800187c:	4a20      	ldr	r2, [pc, #128]	; (8001900 <HAL_DMA_Abort_IT+0xd4>)
 800187e:	4293      	cmp	r3, r2
 8001880:	d022      	beq.n	80018c8 <HAL_DMA_Abort_IT+0x9c>
 8001882:	687b      	ldr	r3, [r7, #4]
 8001884:	681b      	ldr	r3, [r3, #0]
 8001886:	4a1f      	ldr	r2, [pc, #124]	; (8001904 <HAL_DMA_Abort_IT+0xd8>)
 8001888:	4293      	cmp	r3, r2
 800188a:	d01a      	beq.n	80018c2 <HAL_DMA_Abort_IT+0x96>
 800188c:	687b      	ldr	r3, [r7, #4]
 800188e:	681b      	ldr	r3, [r3, #0]
 8001890:	4a1d      	ldr	r2, [pc, #116]	; (8001908 <HAL_DMA_Abort_IT+0xdc>)
 8001892:	4293      	cmp	r3, r2
 8001894:	d012      	beq.n	80018bc <HAL_DMA_Abort_IT+0x90>
 8001896:	687b      	ldr	r3, [r7, #4]
 8001898:	681b      	ldr	r3, [r3, #0]
 800189a:	4a1c      	ldr	r2, [pc, #112]	; (800190c <HAL_DMA_Abort_IT+0xe0>)
 800189c:	4293      	cmp	r3, r2
 800189e:	d00a      	beq.n	80018b6 <HAL_DMA_Abort_IT+0x8a>
 80018a0:	687b      	ldr	r3, [r7, #4]
 80018a2:	681b      	ldr	r3, [r3, #0]
 80018a4:	4a1a      	ldr	r2, [pc, #104]	; (8001910 <HAL_DMA_Abort_IT+0xe4>)
 80018a6:	4293      	cmp	r3, r2
 80018a8:	d102      	bne.n	80018b0 <HAL_DMA_Abort_IT+0x84>
 80018aa:	f44f 1380 	mov.w	r3, #1048576	; 0x100000
 80018ae:	e00e      	b.n	80018ce <HAL_DMA_Abort_IT+0xa2>
 80018b0:	f04f 7380 	mov.w	r3, #16777216	; 0x1000000
 80018b4:	e00b      	b.n	80018ce <HAL_DMA_Abort_IT+0xa2>
 80018b6:	f44f 3380 	mov.w	r3, #65536	; 0x10000
 80018ba:	e008      	b.n	80018ce <HAL_DMA_Abort_IT+0xa2>
 80018bc:	f44f 5380 	mov.w	r3, #4096	; 0x1000
 80018c0:	e005      	b.n	80018ce <HAL_DMA_Abort_IT+0xa2>
 80018c2:	f44f 7380 	mov.w	r3, #256	; 0x100
 80018c6:	e002      	b.n	80018ce <HAL_DMA_Abort_IT+0xa2>
 80018c8:	2310      	movs	r3, #16
 80018ca:	e000      	b.n	80018ce <HAL_DMA_Abort_IT+0xa2>
 80018cc:	2301      	movs	r3, #1
 80018ce:	4a11      	ldr	r2, [pc, #68]	; (8001914 <HAL_DMA_Abort_IT+0xe8>)
 80018d0:	6053      	str	r3, [r2, #4]

    /* Change the DMA state */
    hdma->State = HAL_DMA_STATE_READY;
 80018d2:	687b      	ldr	r3, [r7, #4]
 80018d4:	2201      	movs	r2, #1
 80018d6:	f883 2021 	strb.w	r2, [r3, #33]	; 0x21

    /* Process Unlocked */
    __HAL_UNLOCK(hdma);
 80018da:	687b      	ldr	r3, [r7, #4]
 80018dc:	2200      	movs	r2, #0
 80018de:	f883 2020 	strb.w	r2, [r3, #32]

    /* Call User Abort callback */
    if(hdma->XferAbortCallback != NULL)
 80018e2:	687b      	ldr	r3, [r7, #4]
 80018e4:	6b5b      	ldr	r3, [r3, #52]	; 0x34
 80018e6:	2b00      	cmp	r3, #0
 80018e8:	d003      	beq.n	80018f2 <HAL_DMA_Abort_IT+0xc6>
    {
      hdma->XferAbortCallback(hdma);
 80018ea:	687b      	ldr	r3, [r7, #4]
 80018ec:	6b5b      	ldr	r3, [r3, #52]	; 0x34
 80018ee:	6878      	ldr	r0, [r7, #4]
 80018f0:	4798      	blx	r3
    } 
  }
  return status;
 80018f2:	7bfb      	ldrb	r3, [r7, #15]
}
 80018f4:	4618      	mov	r0, r3
 80018f6:	3710      	adds	r7, #16
 80018f8:	46bd      	mov	sp, r7
 80018fa:	bd80      	pop	{r7, pc}
 80018fc:	40020008 	.word	0x40020008
 8001900:	4002001c 	.word	0x4002001c
 8001904:	40020030 	.word	0x40020030
 8001908:	40020044 	.word	0x40020044
 800190c:	40020058 	.word	0x40020058
 8001910:	4002006c 	.word	0x4002006c
 8001914:	40020000 	.word	0x40020000

08001918 <HAL_GPIO_Init>:
  * @param  GPIO_Init: pointer to a GPIO_InitTypeDef structure that contains
  *         the configuration information for the specified GPIO peripheral.
  * @retval None
  */
void HAL_GPIO_Init(GPIO_TypeDef  *GPIOx, GPIO_InitTypeDef *GPIO_Init)
{
 8001918:	b480      	push	{r7}
 800191a:	b08b      	sub	sp, #44	; 0x2c
 800191c:	af00      	add	r7, sp, #0
 800191e:	6078      	str	r0, [r7, #4]
 8001920:	6039      	str	r1, [r7, #0]
  uint32_t position = 0x00u;
 8001922:	2300      	movs	r3, #0
 8001924:	627b      	str	r3, [r7, #36]	; 0x24
  uint32_t ioposition;
  uint32_t iocurrent;
  uint32_t temp;
  uint32_t config = 0x00u;
 8001926:	2300      	movs	r3, #0
 8001928:	623b      	str	r3, [r7, #32]
  assert_param(IS_GPIO_ALL_INSTANCE(GPIOx));
  assert_param(IS_GPIO_PIN(GPIO_Init->Pin));
  assert_param(IS_GPIO_MODE(GPIO_Init->Mode));

  /* Configure the port pins */
  while (((GPIO_Init->Pin) >> position) != 0x00u)
 800192a:	e169      	b.n	8001c00 <HAL_GPIO_Init+0x2e8>
  {
    /* Get the IO position */
    ioposition = (0x01uL << position);
 800192c:	2201      	movs	r2, #1
 800192e:	6a7b      	ldr	r3, [r7, #36]	; 0x24
 8001930:	fa02 f303 	lsl.w	r3, r2, r3
 8001934:	61fb      	str	r3, [r7, #28]

    /* Get the current IO position */
    iocurrent = (uint32_t)(GPIO_Init->Pin) & ioposition;
 8001936:	683b      	ldr	r3, [r7, #0]
 8001938:	681b      	ldr	r3, [r3, #0]
 800193a:	69fa      	ldr	r2, [r7, #28]
 800193c:	4013      	ands	r3, r2
 800193e:	61bb      	str	r3, [r7, #24]

    if (iocurrent == ioposition)
 8001940:	69ba      	ldr	r2, [r7, #24]
 8001942:	69fb      	ldr	r3, [r7, #28]
 8001944:	429a      	cmp	r2, r3
 8001946:	f040 8158 	bne.w	8001bfa <HAL_GPIO_Init+0x2e2>
    {
      /* Check the Alternate function parameters */
      assert_param(IS_GPIO_AF_INSTANCE(GPIOx));

      /* Based on the required mode, filling config variable with MODEy[1:0] and CNFy[3:2] corresponding bits */
      switch (GPIO_Init->Mode)
 800194a:	683b      	ldr	r3, [r7, #0]
 800194c:	685b      	ldr	r3, [r3, #4]
 800194e:	4a9a      	ldr	r2, [pc, #616]	; (8001bb8 <HAL_GPIO_Init+0x2a0>)
 8001950:	4293      	cmp	r3, r2
 8001952:	d05e      	beq.n	8001a12 <HAL_GPIO_Init+0xfa>
 8001954:	4a98      	ldr	r2, [pc, #608]	; (8001bb8 <HAL_GPIO_Init+0x2a0>)
 8001956:	4293      	cmp	r3, r2
 8001958:	d875      	bhi.n	8001a46 <HAL_GPIO_Init+0x12e>
 800195a:	4a98      	ldr	r2, [pc, #608]	; (8001bbc <HAL_GPIO_Init+0x2a4>)
 800195c:	4293      	cmp	r3, r2
 800195e:	d058      	beq.n	8001a12 <HAL_GPIO_Init+0xfa>
 8001960:	4a96      	ldr	r2, [pc, #600]	; (8001bbc <HAL_GPIO_Init+0x2a4>)
 8001962:	4293      	cmp	r3, r2
 8001964:	d86f      	bhi.n	8001a46 <HAL_GPIO_Init+0x12e>
 8001966:	4a96      	ldr	r2, [pc, #600]	; (8001bc0 <HAL_GPIO_Init+0x2a8>)
 8001968:	4293      	cmp	r3, r2
 800196a:	d052      	beq.n	8001a12 <HAL_GPIO_Init+0xfa>
 800196c:	4a94      	ldr	r2, [pc, #592]	; (8001bc0 <HAL_GPIO_Init+0x2a8>)
 800196e:	4293      	cmp	r3, r2
 8001970:	d869      	bhi.n	8001a46 <HAL_GPIO_Init+0x12e>
 8001972:	4a94      	ldr	r2, [pc, #592]	; (8001bc4 <HAL_GPIO_Init+0x2ac>)
 8001974:	4293      	cmp	r3, r2
 8001976:	d04c      	beq.n	8001a12 <HAL_GPIO_Init+0xfa>
 8001978:	4a92      	ldr	r2, [pc, #584]	; (8001bc4 <HAL_GPIO_Init+0x2ac>)
 800197a:	4293      	cmp	r3, r2
 800197c:	d863      	bhi.n	8001a46 <HAL_GPIO_Init+0x12e>
 800197e:	4a92      	ldr	r2, [pc, #584]	; (8001bc8 <HAL_GPIO_Init+0x2b0>)
 8001980:	4293      	cmp	r3, r2
 8001982:	d046      	beq.n	8001a12 <HAL_GPIO_Init+0xfa>
 8001984:	4a90      	ldr	r2, [pc, #576]	; (8001bc8 <HAL_GPIO_Init+0x2b0>)
 8001986:	4293      	cmp	r3, r2
 8001988:	d85d      	bhi.n	8001a46 <HAL_GPIO_Init+0x12e>
 800198a:	2b12      	cmp	r3, #18
 800198c:	d82a      	bhi.n	80019e4 <HAL_GPIO_Init+0xcc>
 800198e:	2b12      	cmp	r3, #18
 8001990:	d859      	bhi.n	8001a46 <HAL_GPIO_Init+0x12e>
 8001992:	a201      	add	r2, pc, #4	; (adr r2, 8001998 <HAL_GPIO_Init+0x80>)
 8001994:	f852 f023 	ldr.w	pc, [r2, r3, lsl #2]
 8001998:	08001a13 	.word	0x08001a13
 800199c:	080019ed 	.word	0x080019ed
 80019a0:	080019ff 	.word	0x080019ff
 80019a4:	08001a41 	.word	0x08001a41
 80019a8:	08001a47 	.word	0x08001a47
 80019ac:	08001a47 	.word	0x08001a47
 80019b0:	08001a47 	.word	0x08001a47
 80019b4:	08001a47 	.word	0x08001a47
 80019b8:	08001a47 	.word	0x08001a47
 80019bc:	08001a47 	.word	0x08001a47
 80019c0:	08001a47 	.word	0x08001a47
 80019c4:	08001a47 	.word	0x08001a47
 80019c8:	08001a47 	.word	0x08001a47
 80019cc:	08001a47 	.word	0x08001a47
 80019d0:	08001a47 	.word	0x08001a47
 80019d4:	08001a47 	.word	0x08001a47
 80019d8:	08001a47 	.word	0x08001a47
 80019dc:	080019f5 	.word	0x080019f5
 80019e0:	08001a09 	.word	0x08001a09
 80019e4:	4a79      	ldr	r2, [pc, #484]	; (8001bcc <HAL_GPIO_Init+0x2b4>)
 80019e6:	4293      	cmp	r3, r2
 80019e8:	d013      	beq.n	8001a12 <HAL_GPIO_Init+0xfa>
          config = GPIO_CR_MODE_INPUT + GPIO_CR_CNF_ANALOG;
          break;

        /* Parameters are checked with assert_param */
        default:
          break;
 80019ea:	e02c      	b.n	8001a46 <HAL_GPIO_Init+0x12e>
          config = GPIO_Init->Speed + GPIO_CR_CNF_GP_OUTPUT_PP;
 80019ec:	683b      	ldr	r3, [r7, #0]
 80019ee:	68db      	ldr	r3, [r3, #12]
 80019f0:	623b      	str	r3, [r7, #32]
          break;
 80019f2:	e029      	b.n	8001a48 <HAL_GPIO_Init+0x130>
          config = GPIO_Init->Speed + GPIO_CR_CNF_GP_OUTPUT_OD;
 80019f4:	683b      	ldr	r3, [r7, #0]
 80019f6:	68db      	ldr	r3, [r3, #12]
 80019f8:	3304      	adds	r3, #4
 80019fa:	623b      	str	r3, [r7, #32]
          break;
 80019fc:	e024      	b.n	8001a48 <HAL_GPIO_Init+0x130>
          config = GPIO_Init->Speed + GPIO_CR_CNF_AF_OUTPUT_PP;
 80019fe:	683b      	ldr	r3, [r7, #0]
 8001a00:	68db      	ldr	r3, [r3, #12]
 8001a02:	3308      	adds	r3, #8
 8001a04:	623b      	str	r3, [r7, #32]
          break;
 8001a06:	e01f      	b.n	8001a48 <HAL_GPIO_Init+0x130>
          config = GPIO_Init->Speed + GPIO_CR_CNF_AF_OUTPUT_OD;
 8001a08:	683b      	ldr	r3, [r7, #0]
 8001a0a:	68db      	ldr	r3, [r3, #12]
 8001a0c:	330c      	adds	r3, #12
 8001a0e:	623b      	str	r3, [r7, #32]
          break;
 8001a10:	e01a      	b.n	8001a48 <HAL_GPIO_Init+0x130>
          if (GPIO_Init->Pull == GPIO_NOPULL)
 8001a12:	683b      	ldr	r3, [r7, #0]
 8001a14:	689b      	ldr	r3, [r3, #8]
 8001a16:	2b00      	cmp	r3, #0
 8001a18:	d102      	bne.n	8001a20 <HAL_GPIO_Init+0x108>
            config = GPIO_CR_MODE_INPUT + GPIO_CR_CNF_INPUT_FLOATING;
 8001a1a:	2304      	movs	r3, #4
 8001a1c:	623b      	str	r3, [r7, #32]
          break;
 8001a1e:	e013      	b.n	8001a48 <HAL_GPIO_Init+0x130>
          else if (GPIO_Init->Pull == GPIO_PULLUP)
 8001a20:	683b      	ldr	r3, [r7, #0]
 8001a22:	689b      	ldr	r3, [r3, #8]
 8001a24:	2b01      	cmp	r3, #1
 8001a26:	d105      	bne.n	8001a34 <HAL_GPIO_Init+0x11c>
            config = GPIO_CR_MODE_INPUT + GPIO_CR_CNF_INPUT_PU_PD;
 8001a28:	2308      	movs	r3, #8
 8001a2a:	623b      	str	r3, [r7, #32]
            GPIOx->BSRR = ioposition;
 8001a2c:	687b      	ldr	r3, [r7, #4]
 8001a2e:	69fa      	ldr	r2, [r7, #28]
 8001a30:	611a      	str	r2, [r3, #16]
          break;
 8001a32:	e009      	b.n	8001a48 <HAL_GPIO_Init+0x130>
            config = GPIO_CR_MODE_INPUT + GPIO_CR_CNF_INPUT_PU_PD;
 8001a34:	2308      	movs	r3, #8
 8001a36:	623b      	str	r3, [r7, #32]
            GPIOx->BRR = ioposition;
 8001a38:	687b      	ldr	r3, [r7, #4]
 8001a3a:	69fa      	ldr	r2, [r7, #28]
 8001a3c:	615a      	str	r2, [r3, #20]
          break;
 8001a3e:	e003      	b.n	8001a48 <HAL_GPIO_Init+0x130>
          config = GPIO_CR_MODE_INPUT + GPIO_CR_CNF_ANALOG;
 8001a40:	2300      	movs	r3, #0
 8001a42:	623b      	str	r3, [r7, #32]
          break;
 8001a44:	e000      	b.n	8001a48 <HAL_GPIO_Init+0x130>
          break;
 8001a46:	bf00      	nop
      }

      /* Check if the current bit belongs to first half or last half of the pin count number
       in order to address CRH or CRL register*/
      configregister = (iocurrent < GPIO_PIN_8) ? &GPIOx->CRL     : &GPIOx->CRH;
 8001a48:	69bb      	ldr	r3, [r7, #24]
 8001a4a:	2bff      	cmp	r3, #255	; 0xff
 8001a4c:	d801      	bhi.n	8001a52 <HAL_GPIO_Init+0x13a>
 8001a4e:	687b      	ldr	r3, [r7, #4]
 8001a50:	e001      	b.n	8001a56 <HAL_GPIO_Init+0x13e>
 8001a52:	687b      	ldr	r3, [r7, #4]
 8001a54:	3304      	adds	r3, #4
 8001a56:	617b      	str	r3, [r7, #20]
      registeroffset = (iocurrent < GPIO_PIN_8) ? (position << 2u) : ((position - 8u) << 2u);
 8001a58:	69bb      	ldr	r3, [r7, #24]
 8001a5a:	2bff      	cmp	r3, #255	; 0xff
 8001a5c:	d802      	bhi.n	8001a64 <HAL_GPIO_Init+0x14c>
 8001a5e:	6a7b      	ldr	r3, [r7, #36]	; 0x24
 8001a60:	009b      	lsls	r3, r3, #2
 8001a62:	e002      	b.n	8001a6a <HAL_GPIO_Init+0x152>
 8001a64:	6a7b      	ldr	r3, [r7, #36]	; 0x24
 8001a66:	3b08      	subs	r3, #8
 8001a68:	009b      	lsls	r3, r3, #2
 8001a6a:	613b      	str	r3, [r7, #16]

      /* Apply the new configuration of the pin to the register */
      MODIFY_REG((*configregister), ((GPIO_CRL_MODE0 | GPIO_CRL_CNF0) << registeroffset), (config << registeroffset));
 8001a6c:	697b      	ldr	r3, [r7, #20]
 8001a6e:	681a      	ldr	r2, [r3, #0]
 8001a70:	210f      	movs	r1, #15
 8001a72:	693b      	ldr	r3, [r7, #16]
 8001a74:	fa01 f303 	lsl.w	r3, r1, r3
 8001a78:	43db      	mvns	r3, r3
 8001a7a:	401a      	ands	r2, r3
 8001a7c:	6a39      	ldr	r1, [r7, #32]
 8001a7e:	693b      	ldr	r3, [r7, #16]
 8001a80:	fa01 f303 	lsl.w	r3, r1, r3
 8001a84:	431a      	orrs	r2, r3
 8001a86:	697b      	ldr	r3, [r7, #20]
 8001a88:	601a      	str	r2, [r3, #0]

      /*--------------------- EXTI Mode Configuration ------------------------*/
      /* Configure the External Interrupt or event for the current IO */
      if ((GPIO_Init->Mode & EXTI_MODE) == EXTI_MODE)
 8001a8a:	683b      	ldr	r3, [r7, #0]
 8001a8c:	685b      	ldr	r3, [r3, #4]
 8001a8e:	f003 5380 	and.w	r3, r3, #268435456	; 0x10000000
 8001a92:	2b00      	cmp	r3, #0
 8001a94:	f000 80b1 	beq.w	8001bfa <HAL_GPIO_Init+0x2e2>
      {
        /* Enable AFIO Clock */
        __HAL_RCC_AFIO_CLK_ENABLE();
 8001a98:	4b4d      	ldr	r3, [pc, #308]	; (8001bd0 <HAL_GPIO_Init+0x2b8>)
 8001a9a:	699b      	ldr	r3, [r3, #24]
 8001a9c:	4a4c      	ldr	r2, [pc, #304]	; (8001bd0 <HAL_GPIO_Init+0x2b8>)
 8001a9e:	f043 0301 	orr.w	r3, r3, #1
 8001aa2:	6193      	str	r3, [r2, #24]
 8001aa4:	4b4a      	ldr	r3, [pc, #296]	; (8001bd0 <HAL_GPIO_Init+0x2b8>)
 8001aa6:	699b      	ldr	r3, [r3, #24]
 8001aa8:	f003 0301 	and.w	r3, r3, #1
 8001aac:	60bb      	str	r3, [r7, #8]
 8001aae:	68bb      	ldr	r3, [r7, #8]
        temp = AFIO->EXTICR[position >> 2u];
 8001ab0:	4a48      	ldr	r2, [pc, #288]	; (8001bd4 <HAL_GPIO_Init+0x2bc>)
 8001ab2:	6a7b      	ldr	r3, [r7, #36]	; 0x24
 8001ab4:	089b      	lsrs	r3, r3, #2
 8001ab6:	3302      	adds	r3, #2
 8001ab8:	f852 3023 	ldr.w	r3, [r2, r3, lsl #2]
 8001abc:	60fb      	str	r3, [r7, #12]
        CLEAR_BIT(temp, (0x0Fu) << (4u * (position & 0x03u)));
 8001abe:	6a7b      	ldr	r3, [r7, #36]	; 0x24
 8001ac0:	f003 0303 	and.w	r3, r3, #3
 8001ac4:	009b      	lsls	r3, r3, #2
 8001ac6:	220f      	movs	r2, #15
 8001ac8:	fa02 f303 	lsl.w	r3, r2, r3
 8001acc:	43db      	mvns	r3, r3
 8001ace:	68fa      	ldr	r2, [r7, #12]
 8001ad0:	4013      	ands	r3, r2
 8001ad2:	60fb      	str	r3, [r7, #12]
        SET_BIT(temp, (GPIO_GET_INDEX(GPIOx)) << (4u * (position & 0x03u)));
 8001ad4:	687b      	ldr	r3, [r7, #4]
 8001ad6:	4a40      	ldr	r2, [pc, #256]	; (8001bd8 <HAL_GPIO_Init+0x2c0>)
 8001ad8:	4293      	cmp	r3, r2
 8001ada:	d013      	beq.n	8001b04 <HAL_GPIO_Init+0x1ec>
 8001adc:	687b      	ldr	r3, [r7, #4]
 8001ade:	4a3f      	ldr	r2, [pc, #252]	; (8001bdc <HAL_GPIO_Init+0x2c4>)
 8001ae0:	4293      	cmp	r3, r2
 8001ae2:	d00d      	beq.n	8001b00 <HAL_GPIO_Init+0x1e8>
 8001ae4:	687b      	ldr	r3, [r7, #4]
 8001ae6:	4a3e      	ldr	r2, [pc, #248]	; (8001be0 <HAL_GPIO_Init+0x2c8>)
 8001ae8:	4293      	cmp	r3, r2
 8001aea:	d007      	beq.n	8001afc <HAL_GPIO_Init+0x1e4>
 8001aec:	687b      	ldr	r3, [r7, #4]
 8001aee:	4a3d      	ldr	r2, [pc, #244]	; (8001be4 <HAL_GPIO_Init+0x2cc>)
 8001af0:	4293      	cmp	r3, r2
 8001af2:	d101      	bne.n	8001af8 <HAL_GPIO_Init+0x1e0>
 8001af4:	2303      	movs	r3, #3
 8001af6:	e006      	b.n	8001b06 <HAL_GPIO_Init+0x1ee>
 8001af8:	2304      	movs	r3, #4
 8001afa:	e004      	b.n	8001b06 <HAL_GPIO_Init+0x1ee>
 8001afc:	2302      	movs	r3, #2
 8001afe:	e002      	b.n	8001b06 <HAL_GPIO_Init+0x1ee>
 8001b00:	2301      	movs	r3, #1
 8001b02:	e000      	b.n	8001b06 <HAL_GPIO_Init+0x1ee>
 8001b04:	2300      	movs	r3, #0
 8001b06:	6a7a      	ldr	r2, [r7, #36]	; 0x24
 8001b08:	f002 0203 	and.w	r2, r2, #3
 8001b0c:	0092      	lsls	r2, r2, #2
 8001b0e:	4093      	lsls	r3, r2
 8001b10:	68fa      	ldr	r2, [r7, #12]
 8001b12:	4313      	orrs	r3, r2
 8001b14:	60fb      	str	r3, [r7, #12]
        AFIO->EXTICR[position >> 2u] = temp;
 8001b16:	492f      	ldr	r1, [pc, #188]	; (8001bd4 <HAL_GPIO_Init+0x2bc>)
 8001b18:	6a7b      	ldr	r3, [r7, #36]	; 0x24
 8001b1a:	089b      	lsrs	r3, r3, #2
 8001b1c:	3302      	adds	r3, #2
 8001b1e:	68fa      	ldr	r2, [r7, #12]
 8001b20:	f841 2023 	str.w	r2, [r1, r3, lsl #2]


        /* Configure the interrupt mask */
        if ((GPIO_Init->Mode & GPIO_MODE_IT) == GPIO_MODE_IT)
 8001b24:	683b      	ldr	r3, [r7, #0]
 8001b26:	685b      	ldr	r3, [r3, #4]
 8001b28:	f403 3380 	and.w	r3, r3, #65536	; 0x10000
 8001b2c:	2b00      	cmp	r3, #0
 8001b2e:	d006      	beq.n	8001b3e <HAL_GPIO_Init+0x226>
        {
          SET_BIT(EXTI->IMR, iocurrent);
 8001b30:	4b2d      	ldr	r3, [pc, #180]	; (8001be8 <HAL_GPIO_Init+0x2d0>)
 8001b32:	681a      	ldr	r2, [r3, #0]
 8001b34:	492c      	ldr	r1, [pc, #176]	; (8001be8 <HAL_GPIO_Init+0x2d0>)
 8001b36:	69bb      	ldr	r3, [r7, #24]
 8001b38:	4313      	orrs	r3, r2
 8001b3a:	600b      	str	r3, [r1, #0]
 8001b3c:	e006      	b.n	8001b4c <HAL_GPIO_Init+0x234>
        }
        else
        {
          CLEAR_BIT(EXTI->IMR, iocurrent);
 8001b3e:	4b2a      	ldr	r3, [pc, #168]	; (8001be8 <HAL_GPIO_Init+0x2d0>)
 8001b40:	681a      	ldr	r2, [r3, #0]
 8001b42:	69bb      	ldr	r3, [r7, #24]
 8001b44:	43db      	mvns	r3, r3
 8001b46:	4928      	ldr	r1, [pc, #160]	; (8001be8 <HAL_GPIO_Init+0x2d0>)
 8001b48:	4013      	ands	r3, r2
 8001b4a:	600b      	str	r3, [r1, #0]
        }

        /* Configure the event mask */
        if ((GPIO_Init->Mode & GPIO_MODE_EVT) == GPIO_MODE_EVT)
 8001b4c:	683b      	ldr	r3, [r7, #0]
 8001b4e:	685b      	ldr	r3, [r3, #4]
 8001b50:	f403 3300 	and.w	r3, r3, #131072	; 0x20000
 8001b54:	2b00      	cmp	r3, #0
 8001b56:	d006      	beq.n	8001b66 <HAL_GPIO_Init+0x24e>
        {
          SET_BIT(EXTI->EMR, iocurrent);
 8001b58:	4b23      	ldr	r3, [pc, #140]	; (8001be8 <HAL_GPIO_Init+0x2d0>)
 8001b5a:	685a      	ldr	r2, [r3, #4]
 8001b5c:	4922      	ldr	r1, [pc, #136]	; (8001be8 <HAL_GPIO_Init+0x2d0>)
 8001b5e:	69bb      	ldr	r3, [r7, #24]
 8001b60:	4313      	orrs	r3, r2
 8001b62:	604b      	str	r3, [r1, #4]
 8001b64:	e006      	b.n	8001b74 <HAL_GPIO_Init+0x25c>
        }
        else
        {
          CLEAR_BIT(EXTI->EMR, iocurrent);
 8001b66:	4b20      	ldr	r3, [pc, #128]	; (8001be8 <HAL_GPIO_Init+0x2d0>)
 8001b68:	685a      	ldr	r2, [r3, #4]
 8001b6a:	69bb      	ldr	r3, [r7, #24]
 8001b6c:	43db      	mvns	r3, r3
 8001b6e:	491e      	ldr	r1, [pc, #120]	; (8001be8 <HAL_GPIO_Init+0x2d0>)
 8001b70:	4013      	ands	r3, r2
 8001b72:	604b      	str	r3, [r1, #4]
        }

        /* Enable or disable the rising trigger */
        if ((GPIO_Init->Mode & RISING_EDGE) == RISING_EDGE)
 8001b74:	683b      	ldr	r3, [r7, #0]
 8001b76:	685b      	ldr	r3, [r3, #4]
 8001b78:	f403 1380 	and.w	r3, r3, #1048576	; 0x100000
 8001b7c:	2b00      	cmp	r3, #0
 8001b7e:	d006      	beq.n	8001b8e <HAL_GPIO_Init+0x276>
        {
          SET_BIT(EXTI->RTSR, iocurrent);
 8001b80:	4b19      	ldr	r3, [pc, #100]	; (8001be8 <HAL_GPIO_Init+0x2d0>)
 8001b82:	689a      	ldr	r2, [r3, #8]
 8001b84:	4918      	ldr	r1, [pc, #96]	; (8001be8 <HAL_GPIO_Init+0x2d0>)
 8001b86:	69bb      	ldr	r3, [r7, #24]
 8001b88:	4313      	orrs	r3, r2
 8001b8a:	608b      	str	r3, [r1, #8]
 8001b8c:	e006      	b.n	8001b9c <HAL_GPIO_Init+0x284>
        }
        else
        {
          CLEAR_BIT(EXTI->RTSR, iocurrent);
 8001b8e:	4b16      	ldr	r3, [pc, #88]	; (8001be8 <HAL_GPIO_Init+0x2d0>)
 8001b90:	689a      	ldr	r2, [r3, #8]
 8001b92:	69bb      	ldr	r3, [r7, #24]
 8001b94:	43db      	mvns	r3, r3
 8001b96:	4914      	ldr	r1, [pc, #80]	; (8001be8 <HAL_GPIO_Init+0x2d0>)
 8001b98:	4013      	ands	r3, r2
 8001b9a:	608b      	str	r3, [r1, #8]
        }

        /* Enable or disable the falling trigger */
        if ((GPIO_Init->Mode & FALLING_EDGE) == FALLING_EDGE)
 8001b9c:	683b      	ldr	r3, [r7, #0]
 8001b9e:	685b      	ldr	r3, [r3, #4]
 8001ba0:	f403 1300 	and.w	r3, r3, #2097152	; 0x200000
 8001ba4:	2b00      	cmp	r3, #0
 8001ba6:	d021      	beq.n	8001bec <HAL_GPIO_Init+0x2d4>
        {
          SET_BIT(EXTI->FTSR, iocurrent);
 8001ba8:	4b0f      	ldr	r3, [pc, #60]	; (8001be8 <HAL_GPIO_Init+0x2d0>)
 8001baa:	68da      	ldr	r2, [r3, #12]
 8001bac:	490e      	ldr	r1, [pc, #56]	; (8001be8 <HAL_GPIO_Init+0x2d0>)
 8001bae:	69bb      	ldr	r3, [r7, #24]
 8001bb0:	4313      	orrs	r3, r2
 8001bb2:	60cb      	str	r3, [r1, #12]
 8001bb4:	e021      	b.n	8001bfa <HAL_GPIO_Init+0x2e2>
 8001bb6:	bf00      	nop
 8001bb8:	10320000 	.word	0x10320000
 8001bbc:	10310000 	.word	0x10310000
 8001bc0:	10220000 	.word	0x10220000
 8001bc4:	10210000 	.word	0x10210000
 8001bc8:	10120000 	.word	0x10120000
 8001bcc:	10110000 	.word	0x10110000
 8001bd0:	40021000 	.word	0x40021000
 8001bd4:	40010000 	.word	0x40010000
 8001bd8:	40010800 	.word	0x40010800
 8001bdc:	40010c00 	.word	0x40010c00
 8001be0:	40011000 	.word	0x40011000
 8001be4:	40011400 	.word	0x40011400
 8001be8:	40010400 	.word	0x40010400
        }
        else
        {
          CLEAR_BIT(EXTI->FTSR, iocurrent);
 8001bec:	4b0b      	ldr	r3, [pc, #44]	; (8001c1c <HAL_GPIO_Init+0x304>)
 8001bee:	68da      	ldr	r2, [r3, #12]
 8001bf0:	69bb      	ldr	r3, [r7, #24]
 8001bf2:	43db      	mvns	r3, r3
 8001bf4:	4909      	ldr	r1, [pc, #36]	; (8001c1c <HAL_GPIO_Init+0x304>)
 8001bf6:	4013      	ands	r3, r2
 8001bf8:	60cb      	str	r3, [r1, #12]
        }
      }
    }

	position++;
 8001bfa:	6a7b      	ldr	r3, [r7, #36]	; 0x24
 8001bfc:	3301      	adds	r3, #1
 8001bfe:	627b      	str	r3, [r7, #36]	; 0x24
  while (((GPIO_Init->Pin) >> position) != 0x00u)
 8001c00:	683b      	ldr	r3, [r7, #0]
 8001c02:	681a      	ldr	r2, [r3, #0]
 8001c04:	6a7b      	ldr	r3, [r7, #36]	; 0x24
 8001c06:	fa22 f303 	lsr.w	r3, r2, r3
 8001c0a:	2b00      	cmp	r3, #0
 8001c0c:	f47f ae8e 	bne.w	800192c <HAL_GPIO_Init+0x14>
  }
}
 8001c10:	bf00      	nop
 8001c12:	bf00      	nop
 8001c14:	372c      	adds	r7, #44	; 0x2c
 8001c16:	46bd      	mov	sp, r7
 8001c18:	bc80      	pop	{r7}
 8001c1a:	4770      	bx	lr
 8001c1c:	40010400 	.word	0x40010400

08001c20 <HAL_I2C_Init>:
  * @param  hi2c Pointer to a I2C_HandleTypeDef structure that contains
  *                the configuration information for the specified I2C.
  * @retval HAL status
  */
HAL_StatusTypeDef HAL_I2C_Init(I2C_HandleTypeDef *hi2c)
{
 8001c20:	b580      	push	{r7, lr}
 8001c22:	b084      	sub	sp, #16
 8001c24:	af00      	add	r7, sp, #0
 8001c26:	6078      	str	r0, [r7, #4]
  uint32_t freqrange;
  uint32_t pclk1;

  /* Check the I2C handle allocation */
  if (hi2c == NULL)
 8001c28:	687b      	ldr	r3, [r7, #4]
 8001c2a:	2b00      	cmp	r3, #0
 8001c2c:	d101      	bne.n	8001c32 <HAL_I2C_Init+0x12>
  {
    return HAL_ERROR;
 8001c2e:	2301      	movs	r3, #1
 8001c30:	e12b      	b.n	8001e8a <HAL_I2C_Init+0x26a>
  assert_param(IS_I2C_DUAL_ADDRESS(hi2c->Init.DualAddressMode));
  assert_param(IS_I2C_OWN_ADDRESS2(hi2c->Init.OwnAddress2));
  assert_param(IS_I2C_GENERAL_CALL(hi2c->Init.GeneralCallMode));
  assert_param(IS_I2C_NO_STRETCH(hi2c->Init.NoStretchMode));

  if (hi2c->State == HAL_I2C_STATE_RESET)
 8001c32:	687b      	ldr	r3, [r7, #4]
 8001c34:	f893 303d 	ldrb.w	r3, [r3, #61]	; 0x3d
 8001c38:	b2db      	uxtb	r3, r3
 8001c3a:	2b00      	cmp	r3, #0
 8001c3c:	d106      	bne.n	8001c4c <HAL_I2C_Init+0x2c>
  {
    /* Allocate lock resource and initialize it */
    hi2c->Lock = HAL_UNLOCKED;
 8001c3e:	687b      	ldr	r3, [r7, #4]
 8001c40:	2200      	movs	r2, #0
 8001c42:	f883 203c 	strb.w	r2, [r3, #60]	; 0x3c

    /* Init the low level hardware : GPIO, CLOCK, NVIC */
    hi2c->MspInitCallback(hi2c);
#else
    /* Init the low level hardware : GPIO, CLOCK, NVIC */
    HAL_I2C_MspInit(hi2c);
 8001c46:	6878      	ldr	r0, [r7, #4]
 8001c48:	f7ff fb34 	bl	80012b4 <HAL_I2C_MspInit>
#endif /* USE_HAL_I2C_REGISTER_CALLBACKS */
  }

  hi2c->State = HAL_I2C_STATE_BUSY;
 8001c4c:	687b      	ldr	r3, [r7, #4]
 8001c4e:	2224      	movs	r2, #36	; 0x24
 8001c50:	f883 203d 	strb.w	r2, [r3, #61]	; 0x3d

  /* Disable the selected I2C peripheral */
  __HAL_I2C_DISABLE(hi2c);
 8001c54:	687b      	ldr	r3, [r7, #4]
 8001c56:	681b      	ldr	r3, [r3, #0]
 8001c58:	681a      	ldr	r2, [r3, #0]
 8001c5a:	687b      	ldr	r3, [r7, #4]
 8001c5c:	681b      	ldr	r3, [r3, #0]
 8001c5e:	f022 0201 	bic.w	r2, r2, #1
 8001c62:	601a      	str	r2, [r3, #0]

  /*Reset I2C*/
  hi2c->Instance->CR1 |= I2C_CR1_SWRST;
 8001c64:	687b      	ldr	r3, [r7, #4]
 8001c66:	681b      	ldr	r3, [r3, #0]
 8001c68:	681a      	ldr	r2, [r3, #0]
 8001c6a:	687b      	ldr	r3, [r7, #4]
 8001c6c:	681b      	ldr	r3, [r3, #0]
 8001c6e:	f442 4200 	orr.w	r2, r2, #32768	; 0x8000
 8001c72:	601a      	str	r2, [r3, #0]
  hi2c->Instance->CR1 &= ~I2C_CR1_SWRST;
 8001c74:	687b      	ldr	r3, [r7, #4]
 8001c76:	681b      	ldr	r3, [r3, #0]
 8001c78:	681a      	ldr	r2, [r3, #0]
 8001c7a:	687b      	ldr	r3, [r7, #4]
 8001c7c:	681b      	ldr	r3, [r3, #0]
 8001c7e:	f422 4200 	bic.w	r2, r2, #32768	; 0x8000
 8001c82:	601a      	str	r2, [r3, #0]

  /* Get PCLK1 frequency */
  pclk1 = HAL_RCC_GetPCLK1Freq();
 8001c84:	f001 fb6e 	bl	8003364 <HAL_RCC_GetPCLK1Freq>
 8001c88:	60f8      	str	r0, [r7, #12]

  /* Check the minimum allowed PCLK1 frequency */
  if (I2C_MIN_PCLK_FREQ(pclk1, hi2c->Init.ClockSpeed) == 1U)
 8001c8a:	687b      	ldr	r3, [r7, #4]
 8001c8c:	685b      	ldr	r3, [r3, #4]
 8001c8e:	4a81      	ldr	r2, [pc, #516]	; (8001e94 <HAL_I2C_Init+0x274>)
 8001c90:	4293      	cmp	r3, r2
 8001c92:	d807      	bhi.n	8001ca4 <HAL_I2C_Init+0x84>
 8001c94:	68fb      	ldr	r3, [r7, #12]
 8001c96:	4a80      	ldr	r2, [pc, #512]	; (8001e98 <HAL_I2C_Init+0x278>)
 8001c98:	4293      	cmp	r3, r2
 8001c9a:	bf94      	ite	ls
 8001c9c:	2301      	movls	r3, #1
 8001c9e:	2300      	movhi	r3, #0
 8001ca0:	b2db      	uxtb	r3, r3
 8001ca2:	e006      	b.n	8001cb2 <HAL_I2C_Init+0x92>
 8001ca4:	68fb      	ldr	r3, [r7, #12]
 8001ca6:	4a7d      	ldr	r2, [pc, #500]	; (8001e9c <HAL_I2C_Init+0x27c>)
 8001ca8:	4293      	cmp	r3, r2
 8001caa:	bf94      	ite	ls
 8001cac:	2301      	movls	r3, #1
 8001cae:	2300      	movhi	r3, #0
 8001cb0:	b2db      	uxtb	r3, r3
 8001cb2:	2b00      	cmp	r3, #0
 8001cb4:	d001      	beq.n	8001cba <HAL_I2C_Init+0x9a>
  {
    return HAL_ERROR;
 8001cb6:	2301      	movs	r3, #1
 8001cb8:	e0e7      	b.n	8001e8a <HAL_I2C_Init+0x26a>
  }

  /* Calculate frequency range */
  freqrange = I2C_FREQRANGE(pclk1);
 8001cba:	68fb      	ldr	r3, [r7, #12]
 8001cbc:	4a78      	ldr	r2, [pc, #480]	; (8001ea0 <HAL_I2C_Init+0x280>)
 8001cbe:	fba2 2303 	umull	r2, r3, r2, r3
 8001cc2:	0c9b      	lsrs	r3, r3, #18
 8001cc4:	60bb      	str	r3, [r7, #8]

  /*---------------------------- I2Cx CR2 Configuration ----------------------*/
  /* Configure I2Cx: Frequency range */
  MODIFY_REG(hi2c->Instance->CR2, I2C_CR2_FREQ, freqrange);
 8001cc6:	687b      	ldr	r3, [r7, #4]
 8001cc8:	681b      	ldr	r3, [r3, #0]
 8001cca:	685b      	ldr	r3, [r3, #4]
 8001ccc:	f023 013f 	bic.w	r1, r3, #63	; 0x3f
 8001cd0:	687b      	ldr	r3, [r7, #4]
 8001cd2:	681b      	ldr	r3, [r3, #0]
 8001cd4:	68ba      	ldr	r2, [r7, #8]
 8001cd6:	430a      	orrs	r2, r1
 8001cd8:	605a      	str	r2, [r3, #4]

  /*---------------------------- I2Cx TRISE Configuration --------------------*/
  /* Configure I2Cx: Rise Time */
  MODIFY_REG(hi2c->Instance->TRISE, I2C_TRISE_TRISE, I2C_RISE_TIME(freqrange, hi2c->Init.ClockSpeed));
 8001cda:	687b      	ldr	r3, [r7, #4]
 8001cdc:	681b      	ldr	r3, [r3, #0]
 8001cde:	6a1b      	ldr	r3, [r3, #32]
 8001ce0:	f023 013f 	bic.w	r1, r3, #63	; 0x3f
 8001ce4:	687b      	ldr	r3, [r7, #4]
 8001ce6:	685b      	ldr	r3, [r3, #4]
 8001ce8:	4a6a      	ldr	r2, [pc, #424]	; (8001e94 <HAL_I2C_Init+0x274>)
 8001cea:	4293      	cmp	r3, r2
 8001cec:	d802      	bhi.n	8001cf4 <HAL_I2C_Init+0xd4>
 8001cee:	68bb      	ldr	r3, [r7, #8]
 8001cf0:	3301      	adds	r3, #1
 8001cf2:	e009      	b.n	8001d08 <HAL_I2C_Init+0xe8>
 8001cf4:	68bb      	ldr	r3, [r7, #8]
 8001cf6:	f44f 7296 	mov.w	r2, #300	; 0x12c
 8001cfa:	fb02 f303 	mul.w	r3, r2, r3
 8001cfe:	4a69      	ldr	r2, [pc, #420]	; (8001ea4 <HAL_I2C_Init+0x284>)
 8001d00:	fba2 2303 	umull	r2, r3, r2, r3
 8001d04:	099b      	lsrs	r3, r3, #6
 8001d06:	3301      	adds	r3, #1
 8001d08:	687a      	ldr	r2, [r7, #4]
 8001d0a:	6812      	ldr	r2, [r2, #0]
 8001d0c:	430b      	orrs	r3, r1
 8001d0e:	6213      	str	r3, [r2, #32]

  /*---------------------------- I2Cx CCR Configuration ----------------------*/
  /* Configure I2Cx: Speed */
  MODIFY_REG(hi2c->Instance->CCR, (I2C_CCR_FS | I2C_CCR_DUTY | I2C_CCR_CCR), I2C_SPEED(pclk1, hi2c->Init.ClockSpeed, hi2c->Init.DutyCycle));
 8001d10:	687b      	ldr	r3, [r7, #4]
 8001d12:	681b      	ldr	r3, [r3, #0]
 8001d14:	69db      	ldr	r3, [r3, #28]
 8001d16:	f423 424f 	bic.w	r2, r3, #52992	; 0xcf00
 8001d1a:	f022 02ff 	bic.w	r2, r2, #255	; 0xff
 8001d1e:	687b      	ldr	r3, [r7, #4]
 8001d20:	685b      	ldr	r3, [r3, #4]
 8001d22:	495c      	ldr	r1, [pc, #368]	; (8001e94 <HAL_I2C_Init+0x274>)
 8001d24:	428b      	cmp	r3, r1
 8001d26:	d819      	bhi.n	8001d5c <HAL_I2C_Init+0x13c>
 8001d28:	68fb      	ldr	r3, [r7, #12]
 8001d2a:	1e59      	subs	r1, r3, #1
 8001d2c:	687b      	ldr	r3, [r7, #4]
 8001d2e:	685b      	ldr	r3, [r3, #4]
 8001d30:	005b      	lsls	r3, r3, #1
 8001d32:	fbb1 f3f3 	udiv	r3, r1, r3
 8001d36:	1c59      	adds	r1, r3, #1
 8001d38:	f640 73fc 	movw	r3, #4092	; 0xffc
 8001d3c:	400b      	ands	r3, r1
 8001d3e:	2b00      	cmp	r3, #0
 8001d40:	d00a      	beq.n	8001d58 <HAL_I2C_Init+0x138>
 8001d42:	68fb      	ldr	r3, [r7, #12]
 8001d44:	1e59      	subs	r1, r3, #1
 8001d46:	687b      	ldr	r3, [r7, #4]
 8001d48:	685b      	ldr	r3, [r3, #4]
 8001d4a:	005b      	lsls	r3, r3, #1
 8001d4c:	fbb1 f3f3 	udiv	r3, r1, r3
 8001d50:	3301      	adds	r3, #1
 8001d52:	f3c3 030b 	ubfx	r3, r3, #0, #12
 8001d56:	e051      	b.n	8001dfc <HAL_I2C_Init+0x1dc>
 8001d58:	2304      	movs	r3, #4
 8001d5a:	e04f      	b.n	8001dfc <HAL_I2C_Init+0x1dc>
 8001d5c:	687b      	ldr	r3, [r7, #4]
 8001d5e:	689b      	ldr	r3, [r3, #8]
 8001d60:	2b00      	cmp	r3, #0
 8001d62:	d111      	bne.n	8001d88 <HAL_I2C_Init+0x168>
 8001d64:	68fb      	ldr	r3, [r7, #12]
 8001d66:	1e58      	subs	r0, r3, #1
 8001d68:	687b      	ldr	r3, [r7, #4]
 8001d6a:	6859      	ldr	r1, [r3, #4]
 8001d6c:	460b      	mov	r3, r1
 8001d6e:	005b      	lsls	r3, r3, #1
 8001d70:	440b      	add	r3, r1
 8001d72:	fbb0 f3f3 	udiv	r3, r0, r3
 8001d76:	3301      	adds	r3, #1
 8001d78:	f3c3 030b 	ubfx	r3, r3, #0, #12
 8001d7c:	2b00      	cmp	r3, #0
 8001d7e:	bf0c      	ite	eq
 8001d80:	2301      	moveq	r3, #1
 8001d82:	2300      	movne	r3, #0
 8001d84:	b2db      	uxtb	r3, r3
 8001d86:	e012      	b.n	8001dae <HAL_I2C_Init+0x18e>
 8001d88:	68fb      	ldr	r3, [r7, #12]
 8001d8a:	1e58      	subs	r0, r3, #1
 8001d8c:	687b      	ldr	r3, [r7, #4]
 8001d8e:	6859      	ldr	r1, [r3, #4]
 8001d90:	460b      	mov	r3, r1
 8001d92:	009b      	lsls	r3, r3, #2
 8001d94:	440b      	add	r3, r1
 8001d96:	0099      	lsls	r1, r3, #2
 8001d98:	440b      	add	r3, r1
 8001d9a:	fbb0 f3f3 	udiv	r3, r0, r3
 8001d9e:	3301      	adds	r3, #1
 8001da0:	f3c3 030b 	ubfx	r3, r3, #0, #12
 8001da4:	2b00      	cmp	r3, #0
 8001da6:	bf0c      	ite	eq
 8001da8:	2301      	moveq	r3, #1
 8001daa:	2300      	movne	r3, #0
 8001dac:	b2db      	uxtb	r3, r3
 8001dae:	2b00      	cmp	r3, #0
 8001db0:	d001      	beq.n	8001db6 <HAL_I2C_Init+0x196>
 8001db2:	2301      	movs	r3, #1
 8001db4:	e022      	b.n	8001dfc <HAL_I2C_Init+0x1dc>
 8001db6:	687b      	ldr	r3, [r7, #4]
 8001db8:	689b      	ldr	r3, [r3, #8]
 8001dba:	2b00      	cmp	r3, #0
 8001dbc:	d10e      	bne.n	8001ddc <HAL_I2C_Init+0x1bc>
 8001dbe:	68fb      	ldr	r3, [r7, #12]
 8001dc0:	1e58      	subs	r0, r3, #1
 8001dc2:	687b      	ldr	r3, [r7, #4]
 8001dc4:	6859      	ldr	r1, [r3, #4]
 8001dc6:	460b      	mov	r3, r1
 8001dc8:	005b      	lsls	r3, r3, #1
 8001dca:	440b      	add	r3, r1
 8001dcc:	fbb0 f3f3 	udiv	r3, r0, r3
 8001dd0:	3301      	adds	r3, #1
 8001dd2:	f3c3 030b 	ubfx	r3, r3, #0, #12
 8001dd6:	f443 4300 	orr.w	r3, r3, #32768	; 0x8000
 8001dda:	e00f      	b.n	8001dfc <HAL_I2C_Init+0x1dc>
 8001ddc:	68fb      	ldr	r3, [r7, #12]
 8001dde:	1e58      	subs	r0, r3, #1
 8001de0:	687b      	ldr	r3, [r7, #4]
 8001de2:	6859      	ldr	r1, [r3, #4]
 8001de4:	460b      	mov	r3, r1
 8001de6:	009b      	lsls	r3, r3, #2
 8001de8:	440b      	add	r3, r1
 8001dea:	0099      	lsls	r1, r3, #2
 8001dec:	440b      	add	r3, r1
 8001dee:	fbb0 f3f3 	udiv	r3, r0, r3
 8001df2:	3301      	adds	r3, #1
 8001df4:	f3c3 030b 	ubfx	r3, r3, #0, #12
 8001df8:	f443 4340 	orr.w	r3, r3, #49152	; 0xc000
 8001dfc:	6879      	ldr	r1, [r7, #4]
 8001dfe:	6809      	ldr	r1, [r1, #0]
 8001e00:	4313      	orrs	r3, r2
 8001e02:	61cb      	str	r3, [r1, #28]

  /*---------------------------- I2Cx CR1 Configuration ----------------------*/
  /* Configure I2Cx: Generalcall and NoStretch mode */
  MODIFY_REG(hi2c->Instance->CR1, (I2C_CR1_ENGC | I2C_CR1_NOSTRETCH), (hi2c->Init.GeneralCallMode | hi2c->Init.NoStretchMode));
 8001e04:	687b      	ldr	r3, [r7, #4]
 8001e06:	681b      	ldr	r3, [r3, #0]
 8001e08:	681b      	ldr	r3, [r3, #0]
 8001e0a:	f023 01c0 	bic.w	r1, r3, #192	; 0xc0
 8001e0e:	687b      	ldr	r3, [r7, #4]
 8001e10:	69da      	ldr	r2, [r3, #28]
 8001e12:	687b      	ldr	r3, [r7, #4]
 8001e14:	6a1b      	ldr	r3, [r3, #32]
 8001e16:	431a      	orrs	r2, r3
 8001e18:	687b      	ldr	r3, [r7, #4]
 8001e1a:	681b      	ldr	r3, [r3, #0]
 8001e1c:	430a      	orrs	r2, r1
 8001e1e:	601a      	str	r2, [r3, #0]

  /*---------------------------- I2Cx OAR1 Configuration ---------------------*/
  /* Configure I2Cx: Own Address1 and addressing mode */
  MODIFY_REG(hi2c->Instance->OAR1, (I2C_OAR1_ADDMODE | I2C_OAR1_ADD8_9 | I2C_OAR1_ADD1_7 | I2C_OAR1_ADD0), (hi2c->Init.AddressingMode | hi2c->Init.OwnAddress1));
 8001e20:	687b      	ldr	r3, [r7, #4]
 8001e22:	681b      	ldr	r3, [r3, #0]
 8001e24:	689b      	ldr	r3, [r3, #8]
 8001e26:	f423 4303 	bic.w	r3, r3, #33536	; 0x8300
 8001e2a:	f023 03ff 	bic.w	r3, r3, #255	; 0xff
 8001e2e:	687a      	ldr	r2, [r7, #4]
 8001e30:	6911      	ldr	r1, [r2, #16]
 8001e32:	687a      	ldr	r2, [r7, #4]
 8001e34:	68d2      	ldr	r2, [r2, #12]
 8001e36:	4311      	orrs	r1, r2
 8001e38:	687a      	ldr	r2, [r7, #4]
 8001e3a:	6812      	ldr	r2, [r2, #0]
 8001e3c:	430b      	orrs	r3, r1
 8001e3e:	6093      	str	r3, [r2, #8]

  /*---------------------------- I2Cx OAR2 Configuration ---------------------*/
  /* Configure I2Cx: Dual mode and Own Address2 */
  MODIFY_REG(hi2c->Instance->OAR2, (I2C_OAR2_ENDUAL | I2C_OAR2_ADD2), (hi2c->Init.DualAddressMode | hi2c->Init.OwnAddress2));
 8001e40:	687b      	ldr	r3, [r7, #4]
 8001e42:	681b      	ldr	r3, [r3, #0]
 8001e44:	68db      	ldr	r3, [r3, #12]
 8001e46:	f023 01ff 	bic.w	r1, r3, #255	; 0xff
 8001e4a:	687b      	ldr	r3, [r7, #4]
 8001e4c:	695a      	ldr	r2, [r3, #20]
 8001e4e:	687b      	ldr	r3, [r7, #4]
 8001e50:	699b      	ldr	r3, [r3, #24]
 8001e52:	431a      	orrs	r2, r3
 8001e54:	687b      	ldr	r3, [r7, #4]
 8001e56:	681b      	ldr	r3, [r3, #0]
 8001e58:	430a      	orrs	r2, r1
 8001e5a:	60da      	str	r2, [r3, #12]

  /* Enable the selected I2C peripheral */
  __HAL_I2C_ENABLE(hi2c);
 8001e5c:	687b      	ldr	r3, [r7, #4]
 8001e5e:	681b      	ldr	r3, [r3, #0]
 8001e60:	681a      	ldr	r2, [r3, #0]
 8001e62:	687b      	ldr	r3, [r7, #4]
 8001e64:	681b      	ldr	r3, [r3, #0]
 8001e66:	f042 0201 	orr.w	r2, r2, #1
 8001e6a:	601a      	str	r2, [r3, #0]

  hi2c->ErrorCode = HAL_I2C_ERROR_NONE;
 8001e6c:	687b      	ldr	r3, [r7, #4]
 8001e6e:	2200      	movs	r2, #0
 8001e70:	641a      	str	r2, [r3, #64]	; 0x40
  hi2c->State = HAL_I2C_STATE_READY;
 8001e72:	687b      	ldr	r3, [r7, #4]
 8001e74:	2220      	movs	r2, #32
 8001e76:	f883 203d 	strb.w	r2, [r3, #61]	; 0x3d
  hi2c->PreviousState = I2C_STATE_NONE;
 8001e7a:	687b      	ldr	r3, [r7, #4]
 8001e7c:	2200      	movs	r2, #0
 8001e7e:	631a      	str	r2, [r3, #48]	; 0x30
  hi2c->Mode = HAL_I2C_MODE_NONE;
 8001e80:	687b      	ldr	r3, [r7, #4]
 8001e82:	2200      	movs	r2, #0
 8001e84:	f883 203e 	strb.w	r2, [r3, #62]	; 0x3e

  return HAL_OK;
 8001e88:	2300      	movs	r3, #0
}
 8001e8a:	4618      	mov	r0, r3
 8001e8c:	3710      	adds	r7, #16
 8001e8e:	46bd      	mov	sp, r7
 8001e90:	bd80      	pop	{r7, pc}
 8001e92:	bf00      	nop
 8001e94:	000186a0 	.word	0x000186a0
 8001e98:	001e847f 	.word	0x001e847f
 8001e9c:	003d08ff 	.word	0x003d08ff
 8001ea0:	431bde83 	.word	0x431bde83
 8001ea4:	10624dd3 	.word	0x10624dd3

08001ea8 <HAL_I2C_Master_Transmit>:
  * @param  Size Amount of data to be sent
  * @param  Timeout Timeout duration
  * @retval HAL status
  */
HAL_StatusTypeDef HAL_I2C_Master_Transmit(I2C_HandleTypeDef *hi2c, uint16_t DevAddress, uint8_t *pData, uint16_t Size, uint32_t Timeout)
{
 8001ea8:	b580      	push	{r7, lr}
 8001eaa:	b088      	sub	sp, #32
 8001eac:	af02      	add	r7, sp, #8
 8001eae:	60f8      	str	r0, [r7, #12]
 8001eb0:	607a      	str	r2, [r7, #4]
 8001eb2:	461a      	mov	r2, r3
 8001eb4:	460b      	mov	r3, r1
 8001eb6:	817b      	strh	r3, [r7, #10]
 8001eb8:	4613      	mov	r3, r2
 8001eba:	813b      	strh	r3, [r7, #8]
  /* Init tickstart for timeout management*/
  uint32_t tickstart = HAL_GetTick();
 8001ebc:	f7ff fb7a 	bl	80015b4 <HAL_GetTick>
 8001ec0:	6178      	str	r0, [r7, #20]

  if (hi2c->State == HAL_I2C_STATE_READY)
 8001ec2:	68fb      	ldr	r3, [r7, #12]
 8001ec4:	f893 303d 	ldrb.w	r3, [r3, #61]	; 0x3d
 8001ec8:	b2db      	uxtb	r3, r3
 8001eca:	2b20      	cmp	r3, #32
 8001ecc:	f040 80e0 	bne.w	8002090 <HAL_I2C_Master_Transmit+0x1e8>
  {
    /* Wait until BUSY flag is reset */
    if (I2C_WaitOnFlagUntilTimeout(hi2c, I2C_FLAG_BUSY, SET, I2C_TIMEOUT_BUSY_FLAG, tickstart) != HAL_OK)
 8001ed0:	697b      	ldr	r3, [r7, #20]
 8001ed2:	9300      	str	r3, [sp, #0]
 8001ed4:	2319      	movs	r3, #25
 8001ed6:	2201      	movs	r2, #1
 8001ed8:	4970      	ldr	r1, [pc, #448]	; (800209c <HAL_I2C_Master_Transmit+0x1f4>)
 8001eda:	68f8      	ldr	r0, [r7, #12]
 8001edc:	f000 fc92 	bl	8002804 <I2C_WaitOnFlagUntilTimeout>
 8001ee0:	4603      	mov	r3, r0
 8001ee2:	2b00      	cmp	r3, #0
 8001ee4:	d001      	beq.n	8001eea <HAL_I2C_Master_Transmit+0x42>
    {
      return HAL_BUSY;
 8001ee6:	2302      	movs	r3, #2
 8001ee8:	e0d3      	b.n	8002092 <HAL_I2C_Master_Transmit+0x1ea>
    }

    /* Process Locked */
    __HAL_LOCK(hi2c);
 8001eea:	68fb      	ldr	r3, [r7, #12]
 8001eec:	f893 303c 	ldrb.w	r3, [r3, #60]	; 0x3c
 8001ef0:	2b01      	cmp	r3, #1
 8001ef2:	d101      	bne.n	8001ef8 <HAL_I2C_Master_Transmit+0x50>
 8001ef4:	2302      	movs	r3, #2
 8001ef6:	e0cc      	b.n	8002092 <HAL_I2C_Master_Transmit+0x1ea>
 8001ef8:	68fb      	ldr	r3, [r7, #12]
 8001efa:	2201      	movs	r2, #1
 8001efc:	f883 203c 	strb.w	r2, [r3, #60]	; 0x3c

    /* Check if the I2C is already enabled */
    if ((hi2c->Instance->CR1 & I2C_CR1_PE) != I2C_CR1_PE)
 8001f00:	68fb      	ldr	r3, [r7, #12]
 8001f02:	681b      	ldr	r3, [r3, #0]
 8001f04:	681b      	ldr	r3, [r3, #0]
 8001f06:	f003 0301 	and.w	r3, r3, #1
 8001f0a:	2b01      	cmp	r3, #1
 8001f0c:	d007      	beq.n	8001f1e <HAL_I2C_Master_Transmit+0x76>
    {
      /* Enable I2C peripheral */
      __HAL_I2C_ENABLE(hi2c);
 8001f0e:	68fb      	ldr	r3, [r7, #12]
 8001f10:	681b      	ldr	r3, [r3, #0]
 8001f12:	681a      	ldr	r2, [r3, #0]
 8001f14:	68fb      	ldr	r3, [r7, #12]
 8001f16:	681b      	ldr	r3, [r3, #0]
 8001f18:	f042 0201 	orr.w	r2, r2, #1
 8001f1c:	601a      	str	r2, [r3, #0]
    }

    /* Disable Pos */
    CLEAR_BIT(hi2c->Instance->CR1, I2C_CR1_POS);
 8001f1e:	68fb      	ldr	r3, [r7, #12]
 8001f20:	681b      	ldr	r3, [r3, #0]
 8001f22:	681a      	ldr	r2, [r3, #0]
 8001f24:	68fb      	ldr	r3, [r7, #12]
 8001f26:	681b      	ldr	r3, [r3, #0]
 8001f28:	f422 6200 	bic.w	r2, r2, #2048	; 0x800
 8001f2c:	601a      	str	r2, [r3, #0]

    hi2c->State       = HAL_I2C_STATE_BUSY_TX;
 8001f2e:	68fb      	ldr	r3, [r7, #12]
 8001f30:	2221      	movs	r2, #33	; 0x21
 8001f32:	f883 203d 	strb.w	r2, [r3, #61]	; 0x3d
    hi2c->Mode        = HAL_I2C_MODE_MASTER;
 8001f36:	68fb      	ldr	r3, [r7, #12]
 8001f38:	2210      	movs	r2, #16
 8001f3a:	f883 203e 	strb.w	r2, [r3, #62]	; 0x3e
    hi2c->ErrorCode   = HAL_I2C_ERROR_NONE;
 8001f3e:	68fb      	ldr	r3, [r7, #12]
 8001f40:	2200      	movs	r2, #0
 8001f42:	641a      	str	r2, [r3, #64]	; 0x40

    /* Prepare transfer parameters */
    hi2c->pBuffPtr    = pData;
 8001f44:	68fb      	ldr	r3, [r7, #12]
 8001f46:	687a      	ldr	r2, [r7, #4]
 8001f48:	625a      	str	r2, [r3, #36]	; 0x24
    hi2c->XferCount   = Size;
 8001f4a:	68fb      	ldr	r3, [r7, #12]
 8001f4c:	893a      	ldrh	r2, [r7, #8]
 8001f4e:	855a      	strh	r2, [r3, #42]	; 0x2a
    hi2c->XferSize    = hi2c->XferCount;
 8001f50:	68fb      	ldr	r3, [r7, #12]
 8001f52:	8d5b      	ldrh	r3, [r3, #42]	; 0x2a
 8001f54:	b29a      	uxth	r2, r3
 8001f56:	68fb      	ldr	r3, [r7, #12]
 8001f58:	851a      	strh	r2, [r3, #40]	; 0x28
    hi2c->XferOptions = I2C_NO_OPTION_FRAME;
 8001f5a:	68fb      	ldr	r3, [r7, #12]
 8001f5c:	4a50      	ldr	r2, [pc, #320]	; (80020a0 <HAL_I2C_Master_Transmit+0x1f8>)
 8001f5e:	62da      	str	r2, [r3, #44]	; 0x2c

    /* Send Slave Address */
    if (I2C_MasterRequestWrite(hi2c, DevAddress, Timeout, tickstart) != HAL_OK)
 8001f60:	8979      	ldrh	r1, [r7, #10]
 8001f62:	697b      	ldr	r3, [r7, #20]
 8001f64:	6a3a      	ldr	r2, [r7, #32]
 8001f66:	68f8      	ldr	r0, [r7, #12]
 8001f68:	f000 fafc 	bl	8002564 <I2C_MasterRequestWrite>
 8001f6c:	4603      	mov	r3, r0
 8001f6e:	2b00      	cmp	r3, #0
 8001f70:	d001      	beq.n	8001f76 <HAL_I2C_Master_Transmit+0xce>
    {
      return HAL_ERROR;
 8001f72:	2301      	movs	r3, #1
 8001f74:	e08d      	b.n	8002092 <HAL_I2C_Master_Transmit+0x1ea>
    }

    /* Clear ADDR flag */
    __HAL_I2C_CLEAR_ADDRFLAG(hi2c);
 8001f76:	2300      	movs	r3, #0
 8001f78:	613b      	str	r3, [r7, #16]
 8001f7a:	68fb      	ldr	r3, [r7, #12]
 8001f7c:	681b      	ldr	r3, [r3, #0]
 8001f7e:	695b      	ldr	r3, [r3, #20]
 8001f80:	613b      	str	r3, [r7, #16]
 8001f82:	68fb      	ldr	r3, [r7, #12]
 8001f84:	681b      	ldr	r3, [r3, #0]
 8001f86:	699b      	ldr	r3, [r3, #24]
 8001f88:	613b      	str	r3, [r7, #16]
 8001f8a:	693b      	ldr	r3, [r7, #16]

    while (hi2c->XferSize > 0U)
 8001f8c:	e066      	b.n	800205c <HAL_I2C_Master_Transmit+0x1b4>
    {
      /* Wait until TXE flag is set */
      if (I2C_WaitOnTXEFlagUntilTimeout(hi2c, Timeout, tickstart) != HAL_OK)
 8001f8e:	697a      	ldr	r2, [r7, #20]
 8001f90:	6a39      	ldr	r1, [r7, #32]
 8001f92:	68f8      	ldr	r0, [r7, #12]
 8001f94:	f000 fd0c 	bl	80029b0 <I2C_WaitOnTXEFlagUntilTimeout>
 8001f98:	4603      	mov	r3, r0
 8001f9a:	2b00      	cmp	r3, #0
 8001f9c:	d00d      	beq.n	8001fba <HAL_I2C_Master_Transmit+0x112>
      {
        if (hi2c->ErrorCode == HAL_I2C_ERROR_AF)
 8001f9e:	68fb      	ldr	r3, [r7, #12]
 8001fa0:	6c1b      	ldr	r3, [r3, #64]	; 0x40
 8001fa2:	2b04      	cmp	r3, #4
 8001fa4:	d107      	bne.n	8001fb6 <HAL_I2C_Master_Transmit+0x10e>
        {
          /* Generate Stop */
          SET_BIT(hi2c->Instance->CR1, I2C_CR1_STOP);
 8001fa6:	68fb      	ldr	r3, [r7, #12]
 8001fa8:	681b      	ldr	r3, [r3, #0]
 8001faa:	681a      	ldr	r2, [r3, #0]
 8001fac:	68fb      	ldr	r3, [r7, #12]
 8001fae:	681b      	ldr	r3, [r3, #0]
 8001fb0:	f442 7200 	orr.w	r2, r2, #512	; 0x200
 8001fb4:	601a      	str	r2, [r3, #0]
        }
        return HAL_ERROR;
 8001fb6:	2301      	movs	r3, #1
 8001fb8:	e06b      	b.n	8002092 <HAL_I2C_Master_Transmit+0x1ea>
      }

      /* Write data to DR */
      hi2c->Instance->DR = *hi2c->pBuffPtr;
 8001fba:	68fb      	ldr	r3, [r7, #12]
 8001fbc:	6a5b      	ldr	r3, [r3, #36]	; 0x24
 8001fbe:	781a      	ldrb	r2, [r3, #0]
 8001fc0:	68fb      	ldr	r3, [r7, #12]
 8001fc2:	681b      	ldr	r3, [r3, #0]
 8001fc4:	611a      	str	r2, [r3, #16]

      /* Increment Buffer pointer */
      hi2c->pBuffPtr++;
 8001fc6:	68fb      	ldr	r3, [r7, #12]
 8001fc8:	6a5b      	ldr	r3, [r3, #36]	; 0x24
 8001fca:	1c5a      	adds	r2, r3, #1
 8001fcc:	68fb      	ldr	r3, [r7, #12]
 8001fce:	625a      	str	r2, [r3, #36]	; 0x24

      /* Update counter */
      hi2c->XferCount--;
 8001fd0:	68fb      	ldr	r3, [r7, #12]
 8001fd2:	8d5b      	ldrh	r3, [r3, #42]	; 0x2a
 8001fd4:	b29b      	uxth	r3, r3
 8001fd6:	3b01      	subs	r3, #1
 8001fd8:	b29a      	uxth	r2, r3
 8001fda:	68fb      	ldr	r3, [r7, #12]
 8001fdc:	855a      	strh	r2, [r3, #42]	; 0x2a
      hi2c->XferSize--;
 8001fde:	68fb      	ldr	r3, [r7, #12]
 8001fe0:	8d1b      	ldrh	r3, [r3, #40]	; 0x28
 8001fe2:	3b01      	subs	r3, #1
 8001fe4:	b29a      	uxth	r2, r3
 8001fe6:	68fb      	ldr	r3, [r7, #12]
 8001fe8:	851a      	strh	r2, [r3, #40]	; 0x28

      if ((__HAL_I2C_GET_FLAG(hi2c, I2C_FLAG_BTF) == SET) && (hi2c->XferSize != 0U))
 8001fea:	68fb      	ldr	r3, [r7, #12]
 8001fec:	681b      	ldr	r3, [r3, #0]
 8001fee:	695b      	ldr	r3, [r3, #20]
 8001ff0:	f003 0304 	and.w	r3, r3, #4
 8001ff4:	2b04      	cmp	r3, #4
 8001ff6:	d11b      	bne.n	8002030 <HAL_I2C_Master_Transmit+0x188>
 8001ff8:	68fb      	ldr	r3, [r7, #12]
 8001ffa:	8d1b      	ldrh	r3, [r3, #40]	; 0x28
 8001ffc:	2b00      	cmp	r3, #0
 8001ffe:	d017      	beq.n	8002030 <HAL_I2C_Master_Transmit+0x188>
      {
        /* Write data to DR */
        hi2c->Instance->DR = *hi2c->pBuffPtr;
 8002000:	68fb      	ldr	r3, [r7, #12]
 8002002:	6a5b      	ldr	r3, [r3, #36]	; 0x24
 8002004:	781a      	ldrb	r2, [r3, #0]
 8002006:	68fb      	ldr	r3, [r7, #12]
 8002008:	681b      	ldr	r3, [r3, #0]
 800200a:	611a      	str	r2, [r3, #16]

        /* Increment Buffer pointer */
        hi2c->pBuffPtr++;
 800200c:	68fb      	ldr	r3, [r7, #12]
 800200e:	6a5b      	ldr	r3, [r3, #36]	; 0x24
 8002010:	1c5a      	adds	r2, r3, #1
 8002012:	68fb      	ldr	r3, [r7, #12]
 8002014:	625a      	str	r2, [r3, #36]	; 0x24

        /* Update counter */
        hi2c->XferCount--;
 8002016:	68fb      	ldr	r3, [r7, #12]
 8002018:	8d5b      	ldrh	r3, [r3, #42]	; 0x2a
 800201a:	b29b      	uxth	r3, r3
 800201c:	3b01      	subs	r3, #1
 800201e:	b29a      	uxth	r2, r3
 8002020:	68fb      	ldr	r3, [r7, #12]
 8002022:	855a      	strh	r2, [r3, #42]	; 0x2a
        hi2c->XferSize--;
 8002024:	68fb      	ldr	r3, [r7, #12]
 8002026:	8d1b      	ldrh	r3, [r3, #40]	; 0x28
 8002028:	3b01      	subs	r3, #1
 800202a:	b29a      	uxth	r2, r3
 800202c:	68fb      	ldr	r3, [r7, #12]
 800202e:	851a      	strh	r2, [r3, #40]	; 0x28
      }

      /* Wait until BTF flag is set */
      if (I2C_WaitOnBTFFlagUntilTimeout(hi2c, Timeout, tickstart) != HAL_OK)
 8002030:	697a      	ldr	r2, [r7, #20]
 8002032:	6a39      	ldr	r1, [r7, #32]
 8002034:	68f8      	ldr	r0, [r7, #12]
 8002036:	f000 fcfc 	bl	8002a32 <I2C_WaitOnBTFFlagUntilTimeout>
 800203a:	4603      	mov	r3, r0
 800203c:	2b00      	cmp	r3, #0
 800203e:	d00d      	beq.n	800205c <HAL_I2C_Master_Transmit+0x1b4>
      {
        if (hi2c->ErrorCode == HAL_I2C_ERROR_AF)
 8002040:	68fb      	ldr	r3, [r7, #12]
 8002042:	6c1b      	ldr	r3, [r3, #64]	; 0x40
 8002044:	2b04      	cmp	r3, #4
 8002046:	d107      	bne.n	8002058 <HAL_I2C_Master_Transmit+0x1b0>
        {
          /* Generate Stop */
          SET_BIT(hi2c->Instance->CR1, I2C_CR1_STOP);
 8002048:	68fb      	ldr	r3, [r7, #12]
 800204a:	681b      	ldr	r3, [r3, #0]
 800204c:	681a      	ldr	r2, [r3, #0]
 800204e:	68fb      	ldr	r3, [r7, #12]
 8002050:	681b      	ldr	r3, [r3, #0]
 8002052:	f442 7200 	orr.w	r2, r2, #512	; 0x200
 8002056:	601a      	str	r2, [r3, #0]
        }
        return HAL_ERROR;
 8002058:	2301      	movs	r3, #1
 800205a:	e01a      	b.n	8002092 <HAL_I2C_Master_Transmit+0x1ea>
    while (hi2c->XferSize > 0U)
 800205c:	68fb      	ldr	r3, [r7, #12]
 800205e:	8d1b      	ldrh	r3, [r3, #40]	; 0x28
 8002060:	2b00      	cmp	r3, #0
 8002062:	d194      	bne.n	8001f8e <HAL_I2C_Master_Transmit+0xe6>
      }
    }

    /* Generate Stop */
    SET_BIT(hi2c->Instance->CR1, I2C_CR1_STOP);
 8002064:	68fb      	ldr	r3, [r7, #12]
 8002066:	681b      	ldr	r3, [r3, #0]
 8002068:	681a      	ldr	r2, [r3, #0]
 800206a:	68fb      	ldr	r3, [r7, #12]
 800206c:	681b      	ldr	r3, [r3, #0]
 800206e:	f442 7200 	orr.w	r2, r2, #512	; 0x200
 8002072:	601a      	str	r2, [r3, #0]

    hi2c->State = HAL_I2C_STATE_READY;
 8002074:	68fb      	ldr	r3, [r7, #12]
 8002076:	2220      	movs	r2, #32
 8002078:	f883 203d 	strb.w	r2, [r3, #61]	; 0x3d
    hi2c->Mode = HAL_I2C_MODE_NONE;
 800207c:	68fb      	ldr	r3, [r7, #12]
 800207e:	2200      	movs	r2, #0
 8002080:	f883 203e 	strb.w	r2, [r3, #62]	; 0x3e

    /* Process Unlocked */
    __HAL_UNLOCK(hi2c);
 8002084:	68fb      	ldr	r3, [r7, #12]
 8002086:	2200      	movs	r2, #0
 8002088:	f883 203c 	strb.w	r2, [r3, #60]	; 0x3c

    return HAL_OK;
 800208c:	2300      	movs	r3, #0
 800208e:	e000      	b.n	8002092 <HAL_I2C_Master_Transmit+0x1ea>
  }
  else
  {
    return HAL_BUSY;
 8002090:	2302      	movs	r3, #2
  }
}
 8002092:	4618      	mov	r0, r3
 8002094:	3718      	adds	r7, #24
 8002096:	46bd      	mov	sp, r7
 8002098:	bd80      	pop	{r7, pc}
 800209a:	bf00      	nop
 800209c:	00100002 	.word	0x00100002
 80020a0:	ffff0000 	.word	0xffff0000

080020a4 <HAL_I2C_Master_Receive>:
  * @param  Size Amount of data to be sent
  * @param  Timeout Timeout duration
  * @retval HAL status
  */
HAL_StatusTypeDef HAL_I2C_Master_Receive(I2C_HandleTypeDef *hi2c, uint16_t DevAddress, uint8_t *pData, uint16_t Size, uint32_t Timeout)
{
 80020a4:	b580      	push	{r7, lr}
 80020a6:	b08c      	sub	sp, #48	; 0x30
 80020a8:	af02      	add	r7, sp, #8
 80020aa:	60f8      	str	r0, [r7, #12]
 80020ac:	607a      	str	r2, [r7, #4]
 80020ae:	461a      	mov	r2, r3
 80020b0:	460b      	mov	r3, r1
 80020b2:	817b      	strh	r3, [r7, #10]
 80020b4:	4613      	mov	r3, r2
 80020b6:	813b      	strh	r3, [r7, #8]
  __IO uint32_t count = 0U;
 80020b8:	2300      	movs	r3, #0
 80020ba:	623b      	str	r3, [r7, #32]

  /* Init tickstart for timeout management*/
  uint32_t tickstart = HAL_GetTick();
 80020bc:	f7ff fa7a 	bl	80015b4 <HAL_GetTick>
 80020c0:	6278      	str	r0, [r7, #36]	; 0x24

  if (hi2c->State == HAL_I2C_STATE_READY)
 80020c2:	68fb      	ldr	r3, [r7, #12]
 80020c4:	f893 303d 	ldrb.w	r3, [r3, #61]	; 0x3d
 80020c8:	b2db      	uxtb	r3, r3
 80020ca:	2b20      	cmp	r3, #32
 80020cc:	f040 823f 	bne.w	800254e <HAL_I2C_Master_Receive+0x4aa>
  {
    /* Wait until BUSY flag is reset */
    if (I2C_WaitOnFlagUntilTimeout(hi2c, I2C_FLAG_BUSY, SET, I2C_TIMEOUT_BUSY_FLAG, tickstart) != HAL_OK)
 80020d0:	6a7b      	ldr	r3, [r7, #36]	; 0x24
 80020d2:	9300      	str	r3, [sp, #0]
 80020d4:	2319      	movs	r3, #25
 80020d6:	2201      	movs	r2, #1
 80020d8:	497f      	ldr	r1, [pc, #508]	; (80022d8 <HAL_I2C_Master_Receive+0x234>)
 80020da:	68f8      	ldr	r0, [r7, #12]
 80020dc:	f000 fb92 	bl	8002804 <I2C_WaitOnFlagUntilTimeout>
 80020e0:	4603      	mov	r3, r0
 80020e2:	2b00      	cmp	r3, #0
 80020e4:	d001      	beq.n	80020ea <HAL_I2C_Master_Receive+0x46>
    {
      return HAL_BUSY;
 80020e6:	2302      	movs	r3, #2
 80020e8:	e232      	b.n	8002550 <HAL_I2C_Master_Receive+0x4ac>
    }

    /* Process Locked */
    __HAL_LOCK(hi2c);
 80020ea:	68fb      	ldr	r3, [r7, #12]
 80020ec:	f893 303c 	ldrb.w	r3, [r3, #60]	; 0x3c
 80020f0:	2b01      	cmp	r3, #1
 80020f2:	d101      	bne.n	80020f8 <HAL_I2C_Master_Receive+0x54>
 80020f4:	2302      	movs	r3, #2
 80020f6:	e22b      	b.n	8002550 <HAL_I2C_Master_Receive+0x4ac>
 80020f8:	68fb      	ldr	r3, [r7, #12]
 80020fa:	2201      	movs	r2, #1
 80020fc:	f883 203c 	strb.w	r2, [r3, #60]	; 0x3c

    /* Check if the I2C is already enabled */
    if ((hi2c->Instance->CR1 & I2C_CR1_PE) != I2C_CR1_PE)
 8002100:	68fb      	ldr	r3, [r7, #12]
 8002102:	681b      	ldr	r3, [r3, #0]
 8002104:	681b      	ldr	r3, [r3, #0]
 8002106:	f003 0301 	and.w	r3, r3, #1
 800210a:	2b01      	cmp	r3, #1
 800210c:	d007      	beq.n	800211e <HAL_I2C_Master_Receive+0x7a>
    {
      /* Enable I2C peripheral */
      __HAL_I2C_ENABLE(hi2c);
 800210e:	68fb      	ldr	r3, [r7, #12]
 8002110:	681b      	ldr	r3, [r3, #0]
 8002112:	681a      	ldr	r2, [r3, #0]
 8002114:	68fb      	ldr	r3, [r7, #12]
 8002116:	681b      	ldr	r3, [r3, #0]
 8002118:	f042 0201 	orr.w	r2, r2, #1
 800211c:	601a      	str	r2, [r3, #0]
    }

    /* Disable Pos */
    CLEAR_BIT(hi2c->Instance->CR1, I2C_CR1_POS);
 800211e:	68fb      	ldr	r3, [r7, #12]
 8002120:	681b      	ldr	r3, [r3, #0]
 8002122:	681a      	ldr	r2, [r3, #0]
 8002124:	68fb      	ldr	r3, [r7, #12]
 8002126:	681b      	ldr	r3, [r3, #0]
 8002128:	f422 6200 	bic.w	r2, r2, #2048	; 0x800
 800212c:	601a      	str	r2, [r3, #0]

    hi2c->State       = HAL_I2C_STATE_BUSY_RX;
 800212e:	68fb      	ldr	r3, [r7, #12]
 8002130:	2222      	movs	r2, #34	; 0x22
 8002132:	f883 203d 	strb.w	r2, [r3, #61]	; 0x3d
    hi2c->Mode        = HAL_I2C_MODE_MASTER;
 8002136:	68fb      	ldr	r3, [r7, #12]
 8002138:	2210      	movs	r2, #16
 800213a:	f883 203e 	strb.w	r2, [r3, #62]	; 0x3e
    hi2c->ErrorCode   = HAL_I2C_ERROR_NONE;
 800213e:	68fb      	ldr	r3, [r7, #12]
 8002140:	2200      	movs	r2, #0
 8002142:	641a      	str	r2, [r3, #64]	; 0x40

    /* Prepare transfer parameters */
    hi2c->pBuffPtr    = pData;
 8002144:	68fb      	ldr	r3, [r7, #12]
 8002146:	687a      	ldr	r2, [r7, #4]
 8002148:	625a      	str	r2, [r3, #36]	; 0x24
    hi2c->XferCount   = Size;
 800214a:	68fb      	ldr	r3, [r7, #12]
 800214c:	893a      	ldrh	r2, [r7, #8]
 800214e:	855a      	strh	r2, [r3, #42]	; 0x2a
    hi2c->XferSize    = hi2c->XferCount;
 8002150:	68fb      	ldr	r3, [r7, #12]
 8002152:	8d5b      	ldrh	r3, [r3, #42]	; 0x2a
 8002154:	b29a      	uxth	r2, r3
 8002156:	68fb      	ldr	r3, [r7, #12]
 8002158:	851a      	strh	r2, [r3, #40]	; 0x28
    hi2c->XferOptions = I2C_NO_OPTION_FRAME;
 800215a:	68fb      	ldr	r3, [r7, #12]
 800215c:	4a5f      	ldr	r2, [pc, #380]	; (80022dc <HAL_I2C_Master_Receive+0x238>)
 800215e:	62da      	str	r2, [r3, #44]	; 0x2c

    /* Send Slave Address */
    if (I2C_MasterRequestRead(hi2c, DevAddress, Timeout, tickstart) != HAL_OK)
 8002160:	8979      	ldrh	r1, [r7, #10]
 8002162:	6a7b      	ldr	r3, [r7, #36]	; 0x24
 8002164:	6b3a      	ldr	r2, [r7, #48]	; 0x30
 8002166:	68f8      	ldr	r0, [r7, #12]
 8002168:	f000 fa7e 	bl	8002668 <I2C_MasterRequestRead>
 800216c:	4603      	mov	r3, r0
 800216e:	2b00      	cmp	r3, #0
 8002170:	d001      	beq.n	8002176 <HAL_I2C_Master_Receive+0xd2>
    {
      return HAL_ERROR;
 8002172:	2301      	movs	r3, #1
 8002174:	e1ec      	b.n	8002550 <HAL_I2C_Master_Receive+0x4ac>
    }

    if (hi2c->XferSize == 0U)
 8002176:	68fb      	ldr	r3, [r7, #12]
 8002178:	8d1b      	ldrh	r3, [r3, #40]	; 0x28
 800217a:	2b00      	cmp	r3, #0
 800217c:	d113      	bne.n	80021a6 <HAL_I2C_Master_Receive+0x102>
    {
      /* Clear ADDR flag */
      __HAL_I2C_CLEAR_ADDRFLAG(hi2c);
 800217e:	2300      	movs	r3, #0
 8002180:	61fb      	str	r3, [r7, #28]
 8002182:	68fb      	ldr	r3, [r7, #12]
 8002184:	681b      	ldr	r3, [r3, #0]
 8002186:	695b      	ldr	r3, [r3, #20]
 8002188:	61fb      	str	r3, [r7, #28]
 800218a:	68fb      	ldr	r3, [r7, #12]
 800218c:	681b      	ldr	r3, [r3, #0]
 800218e:	699b      	ldr	r3, [r3, #24]
 8002190:	61fb      	str	r3, [r7, #28]
 8002192:	69fb      	ldr	r3, [r7, #28]

      /* Generate Stop */
      SET_BIT(hi2c->Instance->CR1, I2C_CR1_STOP);
 8002194:	68fb      	ldr	r3, [r7, #12]
 8002196:	681b      	ldr	r3, [r3, #0]
 8002198:	681a      	ldr	r2, [r3, #0]
 800219a:	68fb      	ldr	r3, [r7, #12]
 800219c:	681b      	ldr	r3, [r3, #0]
 800219e:	f442 7200 	orr.w	r2, r2, #512	; 0x200
 80021a2:	601a      	str	r2, [r3, #0]
 80021a4:	e1c0      	b.n	8002528 <HAL_I2C_Master_Receive+0x484>
    }
    else if (hi2c->XferSize == 1U)
 80021a6:	68fb      	ldr	r3, [r7, #12]
 80021a8:	8d1b      	ldrh	r3, [r3, #40]	; 0x28
 80021aa:	2b01      	cmp	r3, #1
 80021ac:	d11e      	bne.n	80021ec <HAL_I2C_Master_Receive+0x148>
    {
      /* Disable Acknowledge */
      CLEAR_BIT(hi2c->Instance->CR1, I2C_CR1_ACK);
 80021ae:	68fb      	ldr	r3, [r7, #12]
 80021b0:	681b      	ldr	r3, [r3, #0]
 80021b2:	681a      	ldr	r2, [r3, #0]
 80021b4:	68fb      	ldr	r3, [r7, #12]
 80021b6:	681b      	ldr	r3, [r3, #0]
 80021b8:	f422 6280 	bic.w	r2, r2, #1024	; 0x400
 80021bc:	601a      	str	r2, [r3, #0]
  __ASM volatile ("cpsid i" : : : "memory");
 80021be:	b672      	cpsid	i
}
 80021c0:	bf00      	nop
      /* Disable all active IRQs around ADDR clearing and STOP programming because the EV6_3
      software sequence must complete before the current byte end of transfer */
      __disable_irq();

      /* Clear ADDR flag */
      __HAL_I2C_CLEAR_ADDRFLAG(hi2c);
 80021c2:	2300      	movs	r3, #0
 80021c4:	61bb      	str	r3, [r7, #24]
 80021c6:	68fb      	ldr	r3, [r7, #12]
 80021c8:	681b      	ldr	r3, [r3, #0]
 80021ca:	695b      	ldr	r3, [r3, #20]
 80021cc:	61bb      	str	r3, [r7, #24]
 80021ce:	68fb      	ldr	r3, [r7, #12]
 80021d0:	681b      	ldr	r3, [r3, #0]
 80021d2:	699b      	ldr	r3, [r3, #24]
 80021d4:	61bb      	str	r3, [r7, #24]
 80021d6:	69bb      	ldr	r3, [r7, #24]

      /* Generate Stop */
      SET_BIT(hi2c->Instance->CR1, I2C_CR1_STOP);
 80021d8:	68fb      	ldr	r3, [r7, #12]
 80021da:	681b      	ldr	r3, [r3, #0]
 80021dc:	681a      	ldr	r2, [r3, #0]
 80021de:	68fb      	ldr	r3, [r7, #12]
 80021e0:	681b      	ldr	r3, [r3, #0]
 80021e2:	f442 7200 	orr.w	r2, r2, #512	; 0x200
 80021e6:	601a      	str	r2, [r3, #0]
  __ASM volatile ("cpsie i" : : : "memory");
 80021e8:	b662      	cpsie	i
}
 80021ea:	e035      	b.n	8002258 <HAL_I2C_Master_Receive+0x1b4>

      /* Re-enable IRQs */
      __enable_irq();
    }
    else if (hi2c->XferSize == 2U)
 80021ec:	68fb      	ldr	r3, [r7, #12]
 80021ee:	8d1b      	ldrh	r3, [r3, #40]	; 0x28
 80021f0:	2b02      	cmp	r3, #2
 80021f2:	d11e      	bne.n	8002232 <HAL_I2C_Master_Receive+0x18e>
    {
      /* Enable Pos */
      SET_BIT(hi2c->Instance->CR1, I2C_CR1_POS);
 80021f4:	68fb      	ldr	r3, [r7, #12]
 80021f6:	681b      	ldr	r3, [r3, #0]
 80021f8:	681a      	ldr	r2, [r3, #0]
 80021fa:	68fb      	ldr	r3, [r7, #12]
 80021fc:	681b      	ldr	r3, [r3, #0]
 80021fe:	f442 6200 	orr.w	r2, r2, #2048	; 0x800
 8002202:	601a      	str	r2, [r3, #0]
  __ASM volatile ("cpsid i" : : : "memory");
 8002204:	b672      	cpsid	i
}
 8002206:	bf00      	nop
      /* Disable all active IRQs around ADDR clearing and STOP programming because the EV6_3
      software sequence must complete before the current byte end of transfer */
      __disable_irq();

      /* Clear ADDR flag */
      __HAL_I2C_CLEAR_ADDRFLAG(hi2c);
 8002208:	2300      	movs	r3, #0
 800220a:	617b      	str	r3, [r7, #20]
 800220c:	68fb      	ldr	r3, [r7, #12]
 800220e:	681b      	ldr	r3, [r3, #0]
 8002210:	695b      	ldr	r3, [r3, #20]
 8002212:	617b      	str	r3, [r7, #20]
 8002214:	68fb      	ldr	r3, [r7, #12]
 8002216:	681b      	ldr	r3, [r3, #0]
 8002218:	699b      	ldr	r3, [r3, #24]
 800221a:	617b      	str	r3, [r7, #20]
 800221c:	697b      	ldr	r3, [r7, #20]

      /* Disable Acknowledge */
      CLEAR_BIT(hi2c->Instance->CR1, I2C_CR1_ACK);
 800221e:	68fb      	ldr	r3, [r7, #12]
 8002220:	681b      	ldr	r3, [r3, #0]
 8002222:	681a      	ldr	r2, [r3, #0]
 8002224:	68fb      	ldr	r3, [r7, #12]
 8002226:	681b      	ldr	r3, [r3, #0]
 8002228:	f422 6280 	bic.w	r2, r2, #1024	; 0x400
 800222c:	601a      	str	r2, [r3, #0]
  __ASM volatile ("cpsie i" : : : "memory");
 800222e:	b662      	cpsie	i
}
 8002230:	e012      	b.n	8002258 <HAL_I2C_Master_Receive+0x1b4>
      __enable_irq();
    }
    else
    {
      /* Enable Acknowledge */
      SET_BIT(hi2c->Instance->CR1, I2C_CR1_ACK);
 8002232:	68fb      	ldr	r3, [r7, #12]
 8002234:	681b      	ldr	r3, [r3, #0]
 8002236:	681a      	ldr	r2, [r3, #0]
 8002238:	68fb      	ldr	r3, [r7, #12]
 800223a:	681b      	ldr	r3, [r3, #0]
 800223c:	f442 6280 	orr.w	r2, r2, #1024	; 0x400
 8002240:	601a      	str	r2, [r3, #0]

      /* Clear ADDR flag */
      __HAL_I2C_CLEAR_ADDRFLAG(hi2c);
 8002242:	2300      	movs	r3, #0
 8002244:	613b      	str	r3, [r7, #16]
 8002246:	68fb      	ldr	r3, [r7, #12]
 8002248:	681b      	ldr	r3, [r3, #0]
 800224a:	695b      	ldr	r3, [r3, #20]
 800224c:	613b      	str	r3, [r7, #16]
 800224e:	68fb      	ldr	r3, [r7, #12]
 8002250:	681b      	ldr	r3, [r3, #0]
 8002252:	699b      	ldr	r3, [r3, #24]
 8002254:	613b      	str	r3, [r7, #16]
 8002256:	693b      	ldr	r3, [r7, #16]
    }

    while (hi2c->XferSize > 0U)
 8002258:	e166      	b.n	8002528 <HAL_I2C_Master_Receive+0x484>
    {
      if (hi2c->XferSize <= 3U)
 800225a:	68fb      	ldr	r3, [r7, #12]
 800225c:	8d1b      	ldrh	r3, [r3, #40]	; 0x28
 800225e:	2b03      	cmp	r3, #3
 8002260:	f200 811f 	bhi.w	80024a2 <HAL_I2C_Master_Receive+0x3fe>
      {
        /* One byte */
        if (hi2c->XferSize == 1U)
 8002264:	68fb      	ldr	r3, [r7, #12]
 8002266:	8d1b      	ldrh	r3, [r3, #40]	; 0x28
 8002268:	2b01      	cmp	r3, #1
 800226a:	d123      	bne.n	80022b4 <HAL_I2C_Master_Receive+0x210>
        {
          /* Wait until RXNE flag is set */
          if (I2C_WaitOnRXNEFlagUntilTimeout(hi2c, Timeout, tickstart) != HAL_OK)
 800226c:	6a7a      	ldr	r2, [r7, #36]	; 0x24
 800226e:	6b39      	ldr	r1, [r7, #48]	; 0x30
 8002270:	68f8      	ldr	r0, [r7, #12]
 8002272:	f000 fc1f 	bl	8002ab4 <I2C_WaitOnRXNEFlagUntilTimeout>
 8002276:	4603      	mov	r3, r0
 8002278:	2b00      	cmp	r3, #0
 800227a:	d001      	beq.n	8002280 <HAL_I2C_Master_Receive+0x1dc>
          {
            return HAL_ERROR;
 800227c:	2301      	movs	r3, #1
 800227e:	e167      	b.n	8002550 <HAL_I2C_Master_Receive+0x4ac>
          }

          /* Read data from DR */
          *hi2c->pBuffPtr = (uint8_t)hi2c->Instance->DR;
 8002280:	68fb      	ldr	r3, [r7, #12]
 8002282:	681b      	ldr	r3, [r3, #0]
 8002284:	691a      	ldr	r2, [r3, #16]
 8002286:	68fb      	ldr	r3, [r7, #12]
 8002288:	6a5b      	ldr	r3, [r3, #36]	; 0x24
 800228a:	b2d2      	uxtb	r2, r2
 800228c:	701a      	strb	r2, [r3, #0]

          /* Increment Buffer pointer */
          hi2c->pBuffPtr++;
 800228e:	68fb      	ldr	r3, [r7, #12]
 8002290:	6a5b      	ldr	r3, [r3, #36]	; 0x24
 8002292:	1c5a      	adds	r2, r3, #1
 8002294:	68fb      	ldr	r3, [r7, #12]
 8002296:	625a      	str	r2, [r3, #36]	; 0x24

          /* Update counter */
          hi2c->XferSize--;
 8002298:	68fb      	ldr	r3, [r7, #12]
 800229a:	8d1b      	ldrh	r3, [r3, #40]	; 0x28
 800229c:	3b01      	subs	r3, #1
 800229e:	b29a      	uxth	r2, r3
 80022a0:	68fb      	ldr	r3, [r7, #12]
 80022a2:	851a      	strh	r2, [r3, #40]	; 0x28
          hi2c->XferCount--;
 80022a4:	68fb      	ldr	r3, [r7, #12]
 80022a6:	8d5b      	ldrh	r3, [r3, #42]	; 0x2a
 80022a8:	b29b      	uxth	r3, r3
 80022aa:	3b01      	subs	r3, #1
 80022ac:	b29a      	uxth	r2, r3
 80022ae:	68fb      	ldr	r3, [r7, #12]
 80022b0:	855a      	strh	r2, [r3, #42]	; 0x2a
 80022b2:	e139      	b.n	8002528 <HAL_I2C_Master_Receive+0x484>
        }
        /* Two bytes */
        else if (hi2c->XferSize == 2U)
 80022b4:	68fb      	ldr	r3, [r7, #12]
 80022b6:	8d1b      	ldrh	r3, [r3, #40]	; 0x28
 80022b8:	2b02      	cmp	r3, #2
 80022ba:	d152      	bne.n	8002362 <HAL_I2C_Master_Receive+0x2be>
        {
          /* Wait until BTF flag is set */
          if (I2C_WaitOnFlagUntilTimeout(hi2c, I2C_FLAG_BTF, RESET, Timeout, tickstart) != HAL_OK)
 80022bc:	6a7b      	ldr	r3, [r7, #36]	; 0x24
 80022be:	9300      	str	r3, [sp, #0]
 80022c0:	6b3b      	ldr	r3, [r7, #48]	; 0x30
 80022c2:	2200      	movs	r2, #0
 80022c4:	4906      	ldr	r1, [pc, #24]	; (80022e0 <HAL_I2C_Master_Receive+0x23c>)
 80022c6:	68f8      	ldr	r0, [r7, #12]
 80022c8:	f000 fa9c 	bl	8002804 <I2C_WaitOnFlagUntilTimeout>
 80022cc:	4603      	mov	r3, r0
 80022ce:	2b00      	cmp	r3, #0
 80022d0:	d008      	beq.n	80022e4 <HAL_I2C_Master_Receive+0x240>
          {
            return HAL_ERROR;
 80022d2:	2301      	movs	r3, #1
 80022d4:	e13c      	b.n	8002550 <HAL_I2C_Master_Receive+0x4ac>
 80022d6:	bf00      	nop
 80022d8:	00100002 	.word	0x00100002
 80022dc:	ffff0000 	.word	0xffff0000
 80022e0:	00010004 	.word	0x00010004
  __ASM volatile ("cpsid i" : : : "memory");
 80022e4:	b672      	cpsid	i
}
 80022e6:	bf00      	nop
          /* Disable all active IRQs around ADDR clearing and STOP programming because the EV6_3
             software sequence must complete before the current byte end of transfer */
          __disable_irq();

          /* Generate Stop */
          SET_BIT(hi2c->Instance->CR1, I2C_CR1_STOP);
 80022e8:	68fb      	ldr	r3, [r7, #12]
 80022ea:	681b      	ldr	r3, [r3, #0]
 80022ec:	681a      	ldr	r2, [r3, #0]
 80022ee:	68fb      	ldr	r3, [r7, #12]
 80022f0:	681b      	ldr	r3, [r3, #0]
 80022f2:	f442 7200 	orr.w	r2, r2, #512	; 0x200
 80022f6:	601a      	str	r2, [r3, #0]

          /* Read data from DR */
          *hi2c->pBuffPtr = (uint8_t)hi2c->Instance->DR;
 80022f8:	68fb      	ldr	r3, [r7, #12]
 80022fa:	681b      	ldr	r3, [r3, #0]
 80022fc:	691a      	ldr	r2, [r3, #16]
 80022fe:	68fb      	ldr	r3, [r7, #12]
 8002300:	6a5b      	ldr	r3, [r3, #36]	; 0x24
 8002302:	b2d2      	uxtb	r2, r2
 8002304:	701a      	strb	r2, [r3, #0]

          /* Increment Buffer pointer */
          hi2c->pBuffPtr++;
 8002306:	68fb      	ldr	r3, [r7, #12]
 8002308:	6a5b      	ldr	r3, [r3, #36]	; 0x24
 800230a:	1c5a      	adds	r2, r3, #1
 800230c:	68fb      	ldr	r3, [r7, #12]
 800230e:	625a      	str	r2, [r3, #36]	; 0x24

          /* Update counter */
          hi2c->XferSize--;
 8002310:	68fb      	ldr	r3, [r7, #12]
 8002312:	8d1b      	ldrh	r3, [r3, #40]	; 0x28
 8002314:	3b01      	subs	r3, #1
 8002316:	b29a      	uxth	r2, r3
 8002318:	68fb      	ldr	r3, [r7, #12]
 800231a:	851a      	strh	r2, [r3, #40]	; 0x28
          hi2c->XferCount--;
 800231c:	68fb      	ldr	r3, [r7, #12]
 800231e:	8d5b      	ldrh	r3, [r3, #42]	; 0x2a
 8002320:	b29b      	uxth	r3, r3
 8002322:	3b01      	subs	r3, #1
 8002324:	b29a      	uxth	r2, r3
 8002326:	68fb      	ldr	r3, [r7, #12]
 8002328:	855a      	strh	r2, [r3, #42]	; 0x2a
  __ASM volatile ("cpsie i" : : : "memory");
 800232a:	b662      	cpsie	i
}
 800232c:	bf00      	nop

          /* Re-enable IRQs */
          __enable_irq();

          /* Read data from DR */
          *hi2c->pBuffPtr = (uint8_t)hi2c->Instance->DR;
 800232e:	68fb      	ldr	r3, [r7, #12]
 8002330:	681b      	ldr	r3, [r3, #0]
 8002332:	691a      	ldr	r2, [r3, #16]
 8002334:	68fb      	ldr	r3, [r7, #12]
 8002336:	6a5b      	ldr	r3, [r3, #36]	; 0x24
 8002338:	b2d2      	uxtb	r2, r2
 800233a:	701a      	strb	r2, [r3, #0]

          /* Increment Buffer pointer */
          hi2c->pBuffPtr++;
 800233c:	68fb      	ldr	r3, [r7, #12]
 800233e:	6a5b      	ldr	r3, [r3, #36]	; 0x24
 8002340:	1c5a      	adds	r2, r3, #1
 8002342:	68fb      	ldr	r3, [r7, #12]
 8002344:	625a      	str	r2, [r3, #36]	; 0x24

          /* Update counter */
          hi2c->XferSize--;
 8002346:	68fb      	ldr	r3, [r7, #12]
 8002348:	8d1b      	ldrh	r3, [r3, #40]	; 0x28
 800234a:	3b01      	subs	r3, #1
 800234c:	b29a      	uxth	r2, r3
 800234e:	68fb      	ldr	r3, [r7, #12]
 8002350:	851a      	strh	r2, [r3, #40]	; 0x28
          hi2c->XferCount--;
 8002352:	68fb      	ldr	r3, [r7, #12]
 8002354:	8d5b      	ldrh	r3, [r3, #42]	; 0x2a
 8002356:	b29b      	uxth	r3, r3
 8002358:	3b01      	subs	r3, #1
 800235a:	b29a      	uxth	r2, r3
 800235c:	68fb      	ldr	r3, [r7, #12]
 800235e:	855a      	strh	r2, [r3, #42]	; 0x2a
 8002360:	e0e2      	b.n	8002528 <HAL_I2C_Master_Receive+0x484>
        }
        /* 3 Last bytes */
        else
        {
          /* Wait until BTF flag is set */
          if (I2C_WaitOnFlagUntilTimeout(hi2c, I2C_FLAG_BTF, RESET, Timeout, tickstart) != HAL_OK)
 8002362:	6a7b      	ldr	r3, [r7, #36]	; 0x24
 8002364:	9300      	str	r3, [sp, #0]
 8002366:	6b3b      	ldr	r3, [r7, #48]	; 0x30
 8002368:	2200      	movs	r2, #0
 800236a:	497b      	ldr	r1, [pc, #492]	; (8002558 <HAL_I2C_Master_Receive+0x4b4>)
 800236c:	68f8      	ldr	r0, [r7, #12]
 800236e:	f000 fa49 	bl	8002804 <I2C_WaitOnFlagUntilTimeout>
 8002372:	4603      	mov	r3, r0
 8002374:	2b00      	cmp	r3, #0
 8002376:	d001      	beq.n	800237c <HAL_I2C_Master_Receive+0x2d8>
          {
            return HAL_ERROR;
 8002378:	2301      	movs	r3, #1
 800237a:	e0e9      	b.n	8002550 <HAL_I2C_Master_Receive+0x4ac>
          }

          /* Disable Acknowledge */
          CLEAR_BIT(hi2c->Instance->CR1, I2C_CR1_ACK);
 800237c:	68fb      	ldr	r3, [r7, #12]
 800237e:	681b      	ldr	r3, [r3, #0]
 8002380:	681a      	ldr	r2, [r3, #0]
 8002382:	68fb      	ldr	r3, [r7, #12]
 8002384:	681b      	ldr	r3, [r3, #0]
 8002386:	f422 6280 	bic.w	r2, r2, #1024	; 0x400
 800238a:	601a      	str	r2, [r3, #0]
  __ASM volatile ("cpsid i" : : : "memory");
 800238c:	b672      	cpsid	i
}
 800238e:	bf00      	nop
          /* Disable all active IRQs around ADDR clearing and STOP programming because the EV6_3
             software sequence must complete before the current byte end of transfer */
          __disable_irq();

          /* Read data from DR */
          *hi2c->pBuffPtr = (uint8_t)hi2c->Instance->DR;
 8002390:	68fb      	ldr	r3, [r7, #12]
 8002392:	681b      	ldr	r3, [r3, #0]
 8002394:	691a      	ldr	r2, [r3, #16]
 8002396:	68fb      	ldr	r3, [r7, #12]
 8002398:	6a5b      	ldr	r3, [r3, #36]	; 0x24
 800239a:	b2d2      	uxtb	r2, r2
 800239c:	701a      	strb	r2, [r3, #0]

          /* Increment Buffer pointer */
          hi2c->pBuffPtr++;
 800239e:	68fb      	ldr	r3, [r7, #12]
 80023a0:	6a5b      	ldr	r3, [r3, #36]	; 0x24
 80023a2:	1c5a      	adds	r2, r3, #1
 80023a4:	68fb      	ldr	r3, [r7, #12]
 80023a6:	625a      	str	r2, [r3, #36]	; 0x24

          /* Update counter */
          hi2c->XferSize--;
 80023a8:	68fb      	ldr	r3, [r7, #12]
 80023aa:	8d1b      	ldrh	r3, [r3, #40]	; 0x28
 80023ac:	3b01      	subs	r3, #1
 80023ae:	b29a      	uxth	r2, r3
 80023b0:	68fb      	ldr	r3, [r7, #12]
 80023b2:	851a      	strh	r2, [r3, #40]	; 0x28
          hi2c->XferCount--;
 80023b4:	68fb      	ldr	r3, [r7, #12]
 80023b6:	8d5b      	ldrh	r3, [r3, #42]	; 0x2a
 80023b8:	b29b      	uxth	r3, r3
 80023ba:	3b01      	subs	r3, #1
 80023bc:	b29a      	uxth	r2, r3
 80023be:	68fb      	ldr	r3, [r7, #12]
 80023c0:	855a      	strh	r2, [r3, #42]	; 0x2a

          /* Wait until BTF flag is set */
          count = I2C_TIMEOUT_FLAG * (SystemCoreClock / 25U / 1000U);
 80023c2:	4b66      	ldr	r3, [pc, #408]	; (800255c <HAL_I2C_Master_Receive+0x4b8>)
 80023c4:	681b      	ldr	r3, [r3, #0]
 80023c6:	08db      	lsrs	r3, r3, #3
 80023c8:	4a65      	ldr	r2, [pc, #404]	; (8002560 <HAL_I2C_Master_Receive+0x4bc>)
 80023ca:	fba2 2303 	umull	r2, r3, r2, r3
 80023ce:	0a1a      	lsrs	r2, r3, #8
 80023d0:	4613      	mov	r3, r2
 80023d2:	009b      	lsls	r3, r3, #2
 80023d4:	4413      	add	r3, r2
 80023d6:	00da      	lsls	r2, r3, #3
 80023d8:	1ad3      	subs	r3, r2, r3
 80023da:	623b      	str	r3, [r7, #32]
          do
          {
            count--;
 80023dc:	6a3b      	ldr	r3, [r7, #32]
 80023de:	3b01      	subs	r3, #1
 80023e0:	623b      	str	r3, [r7, #32]
            if (count == 0U)
 80023e2:	6a3b      	ldr	r3, [r7, #32]
 80023e4:	2b00      	cmp	r3, #0
 80023e6:	d118      	bne.n	800241a <HAL_I2C_Master_Receive+0x376>
            {
              hi2c->PreviousState       = I2C_STATE_NONE;
 80023e8:	68fb      	ldr	r3, [r7, #12]
 80023ea:	2200      	movs	r2, #0
 80023ec:	631a      	str	r2, [r3, #48]	; 0x30
              hi2c->State               = HAL_I2C_STATE_READY;
 80023ee:	68fb      	ldr	r3, [r7, #12]
 80023f0:	2220      	movs	r2, #32
 80023f2:	f883 203d 	strb.w	r2, [r3, #61]	; 0x3d
              hi2c->Mode                = HAL_I2C_MODE_NONE;
 80023f6:	68fb      	ldr	r3, [r7, #12]
 80023f8:	2200      	movs	r2, #0
 80023fa:	f883 203e 	strb.w	r2, [r3, #62]	; 0x3e
              hi2c->ErrorCode           |= HAL_I2C_ERROR_TIMEOUT;
 80023fe:	68fb      	ldr	r3, [r7, #12]
 8002400:	6c1b      	ldr	r3, [r3, #64]	; 0x40
 8002402:	f043 0220 	orr.w	r2, r3, #32
 8002406:	68fb      	ldr	r3, [r7, #12]
 8002408:	641a      	str	r2, [r3, #64]	; 0x40
  __ASM volatile ("cpsie i" : : : "memory");
 800240a:	b662      	cpsie	i
}
 800240c:	bf00      	nop

              /* Re-enable IRQs */
              __enable_irq();

              /* Process Unlocked */
              __HAL_UNLOCK(hi2c);
 800240e:	68fb      	ldr	r3, [r7, #12]
 8002410:	2200      	movs	r2, #0
 8002412:	f883 203c 	strb.w	r2, [r3, #60]	; 0x3c

              return HAL_ERROR;
 8002416:	2301      	movs	r3, #1
 8002418:	e09a      	b.n	8002550 <HAL_I2C_Master_Receive+0x4ac>
            }
          }
          while (__HAL_I2C_GET_FLAG(hi2c, I2C_FLAG_BTF) == RESET);
 800241a:	68fb      	ldr	r3, [r7, #12]
 800241c:	681b      	ldr	r3, [r3, #0]
 800241e:	695b      	ldr	r3, [r3, #20]
 8002420:	f003 0304 	and.w	r3, r3, #4
 8002424:	2b04      	cmp	r3, #4
 8002426:	d1d9      	bne.n	80023dc <HAL_I2C_Master_Receive+0x338>

          /* Generate Stop */
          SET_BIT(hi2c->Instance->CR1, I2C_CR1_STOP);
 8002428:	68fb      	ldr	r3, [r7, #12]
 800242a:	681b      	ldr	r3, [r3, #0]
 800242c:	681a      	ldr	r2, [r3, #0]
 800242e:	68fb      	ldr	r3, [r7, #12]
 8002430:	681b      	ldr	r3, [r3, #0]
 8002432:	f442 7200 	orr.w	r2, r2, #512	; 0x200
 8002436:	601a      	str	r2, [r3, #0]

          /* Read data from DR */
          *hi2c->pBuffPtr = (uint8_t)hi2c->Instance->DR;
 8002438:	68fb      	ldr	r3, [r7, #12]
 800243a:	681b      	ldr	r3, [r3, #0]
 800243c:	691a      	ldr	r2, [r3, #16]
 800243e:	68fb      	ldr	r3, [r7, #12]
 8002440:	6a5b      	ldr	r3, [r3, #36]	; 0x24
 8002442:	b2d2      	uxtb	r2, r2
 8002444:	701a      	strb	r2, [r3, #0]

          /* Increment Buffer pointer */
          hi2c->pBuffPtr++;
 8002446:	68fb      	ldr	r3, [r7, #12]
 8002448:	6a5b      	ldr	r3, [r3, #36]	; 0x24
 800244a:	1c5a      	adds	r2, r3, #1
 800244c:	68fb      	ldr	r3, [r7, #12]
 800244e:	625a      	str	r2, [r3, #36]	; 0x24

          /* Update counter */
          hi2c->XferSize--;
 8002450:	68fb      	ldr	r3, [r7, #12]
 8002452:	8d1b      	ldrh	r3, [r3, #40]	; 0x28
 8002454:	3b01      	subs	r3, #1
 8002456:	b29a      	uxth	r2, r3
 8002458:	68fb      	ldr	r3, [r7, #12]
 800245a:	851a      	strh	r2, [r3, #40]	; 0x28
          hi2c->XferCount--;
 800245c:	68fb      	ldr	r3, [r7, #12]
 800245e:	8d5b      	ldrh	r3, [r3, #42]	; 0x2a
 8002460:	b29b      	uxth	r3, r3
 8002462:	3b01      	subs	r3, #1
 8002464:	b29a      	uxth	r2, r3
 8002466:	68fb      	ldr	r3, [r7, #12]
 8002468:	855a      	strh	r2, [r3, #42]	; 0x2a
  __ASM volatile ("cpsie i" : : : "memory");
 800246a:	b662      	cpsie	i
}
 800246c:	bf00      	nop

          /* Re-enable IRQs */
          __enable_irq();

          /* Read data from DR */
          *hi2c->pBuffPtr = (uint8_t)hi2c->Instance->DR;
 800246e:	68fb      	ldr	r3, [r7, #12]
 8002470:	681b      	ldr	r3, [r3, #0]
 8002472:	691a      	ldr	r2, [r3, #16]
 8002474:	68fb      	ldr	r3, [r7, #12]
 8002476:	6a5b      	ldr	r3, [r3, #36]	; 0x24
 8002478:	b2d2      	uxtb	r2, r2
 800247a:	701a      	strb	r2, [r3, #0]

          /* Increment Buffer pointer */
          hi2c->pBuffPtr++;
 800247c:	68fb      	ldr	r3, [r7, #12]
 800247e:	6a5b      	ldr	r3, [r3, #36]	; 0x24
 8002480:	1c5a      	adds	r2, r3, #1
 8002482:	68fb      	ldr	r3, [r7, #12]
 8002484:	625a      	str	r2, [r3, #36]	; 0x24

          /* Update counter */
          hi2c->XferSize--;
 8002486:	68fb      	ldr	r3, [r7, #12]
 8002488:	8d1b      	ldrh	r3, [r3, #40]	; 0x28
 800248a:	3b01      	subs	r3, #1
 800248c:	b29a      	uxth	r2, r3
 800248e:	68fb      	ldr	r3, [r7, #12]
 8002490:	851a      	strh	r2, [r3, #40]	; 0x28
          hi2c->XferCount--;
 8002492:	68fb      	ldr	r3, [r7, #12]
 8002494:	8d5b      	ldrh	r3, [r3, #42]	; 0x2a
 8002496:	b29b      	uxth	r3, r3
 8002498:	3b01      	subs	r3, #1
 800249a:	b29a      	uxth	r2, r3
 800249c:	68fb      	ldr	r3, [r7, #12]
 800249e:	855a      	strh	r2, [r3, #42]	; 0x2a
 80024a0:	e042      	b.n	8002528 <HAL_I2C_Master_Receive+0x484>
        }
      }
      else
      {
        /* Wait until RXNE flag is set */
        if (I2C_WaitOnRXNEFlagUntilTimeout(hi2c, Timeout, tickstart) != HAL_OK)
 80024a2:	6a7a      	ldr	r2, [r7, #36]	; 0x24
 80024a4:	6b39      	ldr	r1, [r7, #48]	; 0x30
 80024a6:	68f8      	ldr	r0, [r7, #12]
 80024a8:	f000 fb04 	bl	8002ab4 <I2C_WaitOnRXNEFlagUntilTimeout>
 80024ac:	4603      	mov	r3, r0
 80024ae:	2b00      	cmp	r3, #0
 80024b0:	d001      	beq.n	80024b6 <HAL_I2C_Master_Receive+0x412>
        {
          return HAL_ERROR;
 80024b2:	2301      	movs	r3, #1
 80024b4:	e04c      	b.n	8002550 <HAL_I2C_Master_Receive+0x4ac>
        }

        /* Read data from DR */
        *hi2c->pBuffPtr = (uint8_t)hi2c->Instance->DR;
 80024b6:	68fb      	ldr	r3, [r7, #12]
 80024b8:	681b      	ldr	r3, [r3, #0]
 80024ba:	691a      	ldr	r2, [r3, #16]
 80024bc:	68fb      	ldr	r3, [r7, #12]
 80024be:	6a5b      	ldr	r3, [r3, #36]	; 0x24
 80024c0:	b2d2      	uxtb	r2, r2
 80024c2:	701a      	strb	r2, [r3, #0]

        /* Increment Buffer pointer */
        hi2c->pBuffPtr++;
 80024c4:	68fb      	ldr	r3, [r7, #12]
 80024c6:	6a5b      	ldr	r3, [r3, #36]	; 0x24
 80024c8:	1c5a      	adds	r2, r3, #1
 80024ca:	68fb      	ldr	r3, [r7, #12]
 80024cc:	625a      	str	r2, [r3, #36]	; 0x24

        /* Update counter */
        hi2c->XferSize--;
 80024ce:	68fb      	ldr	r3, [r7, #12]
 80024d0:	8d1b      	ldrh	r3, [r3, #40]	; 0x28
 80024d2:	3b01      	subs	r3, #1
 80024d4:	b29a      	uxth	r2, r3
 80024d6:	68fb      	ldr	r3, [r7, #12]
 80024d8:	851a      	strh	r2, [r3, #40]	; 0x28
        hi2c->XferCount--;
 80024da:	68fb      	ldr	r3, [r7, #12]
 80024dc:	8d5b      	ldrh	r3, [r3, #42]	; 0x2a
 80024de:	b29b      	uxth	r3, r3
 80024e0:	3b01      	subs	r3, #1
 80024e2:	b29a      	uxth	r2, r3
 80024e4:	68fb      	ldr	r3, [r7, #12]
 80024e6:	855a      	strh	r2, [r3, #42]	; 0x2a

        if (__HAL_I2C_GET_FLAG(hi2c, I2C_FLAG_BTF) == SET)
 80024e8:	68fb      	ldr	r3, [r7, #12]
 80024ea:	681b      	ldr	r3, [r3, #0]
 80024ec:	695b      	ldr	r3, [r3, #20]
 80024ee:	f003 0304 	and.w	r3, r3, #4
 80024f2:	2b04      	cmp	r3, #4
 80024f4:	d118      	bne.n	8002528 <HAL_I2C_Master_Receive+0x484>
        {
          /* Read data from DR */
          *hi2c->pBuffPtr = (uint8_t)hi2c->Instance->DR;
 80024f6:	68fb      	ldr	r3, [r7, #12]
 80024f8:	681b      	ldr	r3, [r3, #0]
 80024fa:	691a      	ldr	r2, [r3, #16]
 80024fc:	68fb      	ldr	r3, [r7, #12]
 80024fe:	6a5b      	ldr	r3, [r3, #36]	; 0x24
 8002500:	b2d2      	uxtb	r2, r2
 8002502:	701a      	strb	r2, [r3, #0]

          /* Increment Buffer pointer */
          hi2c->pBuffPtr++;
 8002504:	68fb      	ldr	r3, [r7, #12]
 8002506:	6a5b      	ldr	r3, [r3, #36]	; 0x24
 8002508:	1c5a      	adds	r2, r3, #1
 800250a:	68fb      	ldr	r3, [r7, #12]
 800250c:	625a      	str	r2, [r3, #36]	; 0x24

          /* Update counter */
          hi2c->XferSize--;
 800250e:	68fb      	ldr	r3, [r7, #12]
 8002510:	8d1b      	ldrh	r3, [r3, #40]	; 0x28
 8002512:	3b01      	subs	r3, #1
 8002514:	b29a      	uxth	r2, r3
 8002516:	68fb      	ldr	r3, [r7, #12]
 8002518:	851a      	strh	r2, [r3, #40]	; 0x28
          hi2c->XferCount--;
 800251a:	68fb      	ldr	r3, [r7, #12]
 800251c:	8d5b      	ldrh	r3, [r3, #42]	; 0x2a
 800251e:	b29b      	uxth	r3, r3
 8002520:	3b01      	subs	r3, #1
 8002522:	b29a      	uxth	r2, r3
 8002524:	68fb      	ldr	r3, [r7, #12]
 8002526:	855a      	strh	r2, [r3, #42]	; 0x2a
    while (hi2c->XferSize > 0U)
 8002528:	68fb      	ldr	r3, [r7, #12]
 800252a:	8d1b      	ldrh	r3, [r3, #40]	; 0x28
 800252c:	2b00      	cmp	r3, #0
 800252e:	f47f ae94 	bne.w	800225a <HAL_I2C_Master_Receive+0x1b6>
        }
      }
    }

    hi2c->State = HAL_I2C_STATE_READY;
 8002532:	68fb      	ldr	r3, [r7, #12]
 8002534:	2220      	movs	r2, #32
 8002536:	f883 203d 	strb.w	r2, [r3, #61]	; 0x3d
    hi2c->Mode = HAL_I2C_MODE_NONE;
 800253a:	68fb      	ldr	r3, [r7, #12]
 800253c:	2200      	movs	r2, #0
 800253e:	f883 203e 	strb.w	r2, [r3, #62]	; 0x3e

    /* Process Unlocked */
    __HAL_UNLOCK(hi2c);
 8002542:	68fb      	ldr	r3, [r7, #12]
 8002544:	2200      	movs	r2, #0
 8002546:	f883 203c 	strb.w	r2, [r3, #60]	; 0x3c

    return HAL_OK;
 800254a:	2300      	movs	r3, #0
 800254c:	e000      	b.n	8002550 <HAL_I2C_Master_Receive+0x4ac>
  }
  else
  {
    return HAL_BUSY;
 800254e:	2302      	movs	r3, #2
  }
}
 8002550:	4618      	mov	r0, r3
 8002552:	3728      	adds	r7, #40	; 0x28
 8002554:	46bd      	mov	sp, r7
 8002556:	bd80      	pop	{r7, pc}
 8002558:	00010004 	.word	0x00010004
 800255c:	20000000 	.word	0x20000000
 8002560:	14f8b589 	.word	0x14f8b589

08002564 <I2C_MasterRequestWrite>:
  * @param  Timeout Timeout duration
  * @param  Tickstart Tick start value
  * @retval HAL status
  */
static HAL_StatusTypeDef I2C_MasterRequestWrite(I2C_HandleTypeDef *hi2c, uint16_t DevAddress, uint32_t Timeout, uint32_t Tickstart)
{
 8002564:	b580      	push	{r7, lr}
 8002566:	b088      	sub	sp, #32
 8002568:	af02      	add	r7, sp, #8
 800256a:	60f8      	str	r0, [r7, #12]
 800256c:	607a      	str	r2, [r7, #4]
 800256e:	603b      	str	r3, [r7, #0]
 8002570:	460b      	mov	r3, r1
 8002572:	817b      	strh	r3, [r7, #10]
  /* Declaration of temporary variable to prevent undefined behavior of volatile usage */
  uint32_t CurrentXferOptions = hi2c->XferOptions;
 8002574:	68fb      	ldr	r3, [r7, #12]
 8002576:	6adb      	ldr	r3, [r3, #44]	; 0x2c
 8002578:	617b      	str	r3, [r7, #20]

  /* Generate Start condition if first transfer */
  if ((CurrentXferOptions == I2C_FIRST_AND_LAST_FRAME) || (CurrentXferOptions == I2C_FIRST_FRAME) || (CurrentXferOptions == I2C_NO_OPTION_FRAME))
 800257a:	697b      	ldr	r3, [r7, #20]
 800257c:	2b08      	cmp	r3, #8
 800257e:	d006      	beq.n	800258e <I2C_MasterRequestWrite+0x2a>
 8002580:	697b      	ldr	r3, [r7, #20]
 8002582:	2b01      	cmp	r3, #1
 8002584:	d003      	beq.n	800258e <I2C_MasterRequestWrite+0x2a>
 8002586:	697b      	ldr	r3, [r7, #20]
 8002588:	f513 3f80 	cmn.w	r3, #65536	; 0x10000
 800258c:	d108      	bne.n	80025a0 <I2C_MasterRequestWrite+0x3c>
  {
    /* Generate Start */
    SET_BIT(hi2c->Instance->CR1, I2C_CR1_START);
 800258e:	68fb      	ldr	r3, [r7, #12]
 8002590:	681b      	ldr	r3, [r3, #0]
 8002592:	681a      	ldr	r2, [r3, #0]
 8002594:	68fb      	ldr	r3, [r7, #12]
 8002596:	681b      	ldr	r3, [r3, #0]
 8002598:	f442 7280 	orr.w	r2, r2, #256	; 0x100
 800259c:	601a      	str	r2, [r3, #0]
 800259e:	e00b      	b.n	80025b8 <I2C_MasterRequestWrite+0x54>
  }
  else if (hi2c->PreviousState == I2C_STATE_MASTER_BUSY_RX)
 80025a0:	68fb      	ldr	r3, [r7, #12]
 80025a2:	6b1b      	ldr	r3, [r3, #48]	; 0x30
 80025a4:	2b12      	cmp	r3, #18
 80025a6:	d107      	bne.n	80025b8 <I2C_MasterRequestWrite+0x54>
  {
    /* Generate ReStart */
    SET_BIT(hi2c->Instance->CR1, I2C_CR1_START);
 80025a8:	68fb      	ldr	r3, [r7, #12]
 80025aa:	681b      	ldr	r3, [r3, #0]
 80025ac:	681a      	ldr	r2, [r3, #0]
 80025ae:	68fb      	ldr	r3, [r7, #12]
 80025b0:	681b      	ldr	r3, [r3, #0]
 80025b2:	f442 7280 	orr.w	r2, r2, #256	; 0x100
 80025b6:	601a      	str	r2, [r3, #0]
  {
    /* Do nothing */
  }

  /* Wait until SB flag is set */
  if (I2C_WaitOnFlagUntilTimeout(hi2c, I2C_FLAG_SB, RESET, Timeout, Tickstart) != HAL_OK)
 80025b8:	683b      	ldr	r3, [r7, #0]
 80025ba:	9300      	str	r3, [sp, #0]
 80025bc:	687b      	ldr	r3, [r7, #4]
 80025be:	2200      	movs	r2, #0
 80025c0:	f04f 1101 	mov.w	r1, #65537	; 0x10001
 80025c4:	68f8      	ldr	r0, [r7, #12]
 80025c6:	f000 f91d 	bl	8002804 <I2C_WaitOnFlagUntilTimeout>
 80025ca:	4603      	mov	r3, r0
 80025cc:	2b00      	cmp	r3, #0
 80025ce:	d00d      	beq.n	80025ec <I2C_MasterRequestWrite+0x88>
  {
    if (READ_BIT(hi2c->Instance->CR1, I2C_CR1_START) == I2C_CR1_START)
 80025d0:	68fb      	ldr	r3, [r7, #12]
 80025d2:	681b      	ldr	r3, [r3, #0]
 80025d4:	681b      	ldr	r3, [r3, #0]
 80025d6:	f403 7380 	and.w	r3, r3, #256	; 0x100
 80025da:	f5b3 7f80 	cmp.w	r3, #256	; 0x100
 80025de:	d103      	bne.n	80025e8 <I2C_MasterRequestWrite+0x84>
    {
      hi2c->ErrorCode = HAL_I2C_WRONG_START;
 80025e0:	68fb      	ldr	r3, [r7, #12]
 80025e2:	f44f 7200 	mov.w	r2, #512	; 0x200
 80025e6:	641a      	str	r2, [r3, #64]	; 0x40
    }
    return HAL_TIMEOUT;
 80025e8:	2303      	movs	r3, #3
 80025ea:	e035      	b.n	8002658 <I2C_MasterRequestWrite+0xf4>
  }

  if (hi2c->Init.AddressingMode == I2C_ADDRESSINGMODE_7BIT)
 80025ec:	68fb      	ldr	r3, [r7, #12]
 80025ee:	691b      	ldr	r3, [r3, #16]
 80025f0:	f5b3 4f80 	cmp.w	r3, #16384	; 0x4000
 80025f4:	d108      	bne.n	8002608 <I2C_MasterRequestWrite+0xa4>
  {
    /* Send slave address */
    hi2c->Instance->DR = I2C_7BIT_ADD_WRITE(DevAddress);
 80025f6:	897b      	ldrh	r3, [r7, #10]
 80025f8:	b2db      	uxtb	r3, r3
 80025fa:	461a      	mov	r2, r3
 80025fc:	68fb      	ldr	r3, [r7, #12]
 80025fe:	681b      	ldr	r3, [r3, #0]
 8002600:	f002 02fe 	and.w	r2, r2, #254	; 0xfe
 8002604:	611a      	str	r2, [r3, #16]
 8002606:	e01b      	b.n	8002640 <I2C_MasterRequestWrite+0xdc>
  }
  else
  {
    /* Send header of slave address */
    hi2c->Instance->DR = I2C_10BIT_HEADER_WRITE(DevAddress);
 8002608:	897b      	ldrh	r3, [r7, #10]
 800260a:	11db      	asrs	r3, r3, #7
 800260c:	b2db      	uxtb	r3, r3
 800260e:	f003 0306 	and.w	r3, r3, #6
 8002612:	b2db      	uxtb	r3, r3
 8002614:	f063 030f 	orn	r3, r3, #15
 8002618:	b2da      	uxtb	r2, r3
 800261a:	68fb      	ldr	r3, [r7, #12]
 800261c:	681b      	ldr	r3, [r3, #0]
 800261e:	611a      	str	r2, [r3, #16]

    /* Wait until ADD10 flag is set */
    if (I2C_WaitOnMasterAddressFlagUntilTimeout(hi2c, I2C_FLAG_ADD10, Timeout, Tickstart) != HAL_OK)
 8002620:	683b      	ldr	r3, [r7, #0]
 8002622:	687a      	ldr	r2, [r7, #4]
 8002624:	490e      	ldr	r1, [pc, #56]	; (8002660 <I2C_MasterRequestWrite+0xfc>)
 8002626:	68f8      	ldr	r0, [r7, #12]
 8002628:	f000 f943 	bl	80028b2 <I2C_WaitOnMasterAddressFlagUntilTimeout>
 800262c:	4603      	mov	r3, r0
 800262e:	2b00      	cmp	r3, #0
 8002630:	d001      	beq.n	8002636 <I2C_MasterRequestWrite+0xd2>
    {
      return HAL_ERROR;
 8002632:	2301      	movs	r3, #1
 8002634:	e010      	b.n	8002658 <I2C_MasterRequestWrite+0xf4>
    }

    /* Send slave address */
    hi2c->Instance->DR = I2C_10BIT_ADDRESS(DevAddress);
 8002636:	897b      	ldrh	r3, [r7, #10]
 8002638:	b2da      	uxtb	r2, r3
 800263a:	68fb      	ldr	r3, [r7, #12]
 800263c:	681b      	ldr	r3, [r3, #0]
 800263e:	611a      	str	r2, [r3, #16]
  }

  /* Wait until ADDR flag is set */
  if (I2C_WaitOnMasterAddressFlagUntilTimeout(hi2c, I2C_FLAG_ADDR, Timeout, Tickstart) != HAL_OK)
 8002640:	683b      	ldr	r3, [r7, #0]
 8002642:	687a      	ldr	r2, [r7, #4]
 8002644:	4907      	ldr	r1, [pc, #28]	; (8002664 <I2C_MasterRequestWrite+0x100>)
 8002646:	68f8      	ldr	r0, [r7, #12]
 8002648:	f000 f933 	bl	80028b2 <I2C_WaitOnMasterAddressFlagUntilTimeout>
 800264c:	4603      	mov	r3, r0
 800264e:	2b00      	cmp	r3, #0
 8002650:	d001      	beq.n	8002656 <I2C_MasterRequestWrite+0xf2>
  {
    return HAL_ERROR;
 8002652:	2301      	movs	r3, #1
 8002654:	e000      	b.n	8002658 <I2C_MasterRequestWrite+0xf4>
  }

  return HAL_OK;
 8002656:	2300      	movs	r3, #0
}
 8002658:	4618      	mov	r0, r3
 800265a:	3718      	adds	r7, #24
 800265c:	46bd      	mov	sp, r7
 800265e:	bd80      	pop	{r7, pc}
 8002660:	00010008 	.word	0x00010008
 8002664:	00010002 	.word	0x00010002

08002668 <I2C_MasterRequestRead>:
  * @param  Timeout Timeout duration
  * @param  Tickstart Tick start value
  * @retval HAL status
  */
static HAL_StatusTypeDef I2C_MasterRequestRead(I2C_HandleTypeDef *hi2c, uint16_t DevAddress, uint32_t Timeout, uint32_t Tickstart)
{
 8002668:	b580      	push	{r7, lr}
 800266a:	b088      	sub	sp, #32
 800266c:	af02      	add	r7, sp, #8
 800266e:	60f8      	str	r0, [r7, #12]
 8002670:	607a      	str	r2, [r7, #4]
 8002672:	603b      	str	r3, [r7, #0]
 8002674:	460b      	mov	r3, r1
 8002676:	817b      	strh	r3, [r7, #10]
  /* Declaration of temporary variable to prevent undefined behavior of volatile usage */
  uint32_t CurrentXferOptions = hi2c->XferOptions;
 8002678:	68fb      	ldr	r3, [r7, #12]
 800267a:	6adb      	ldr	r3, [r3, #44]	; 0x2c
 800267c:	617b      	str	r3, [r7, #20]

  /* Enable Acknowledge */
  SET_BIT(hi2c->Instance->CR1, I2C_CR1_ACK);
 800267e:	68fb      	ldr	r3, [r7, #12]
 8002680:	681b      	ldr	r3, [r3, #0]
 8002682:	681a      	ldr	r2, [r3, #0]
 8002684:	68fb      	ldr	r3, [r7, #12]
 8002686:	681b      	ldr	r3, [r3, #0]
 8002688:	f442 6280 	orr.w	r2, r2, #1024	; 0x400
 800268c:	601a      	str	r2, [r3, #0]

  /* Generate Start condition if first transfer */
  if ((CurrentXferOptions == I2C_FIRST_AND_LAST_FRAME) || (CurrentXferOptions == I2C_FIRST_FRAME)  || (CurrentXferOptions == I2C_NO_OPTION_FRAME))
 800268e:	697b      	ldr	r3, [r7, #20]
 8002690:	2b08      	cmp	r3, #8
 8002692:	d006      	beq.n	80026a2 <I2C_MasterRequestRead+0x3a>
 8002694:	697b      	ldr	r3, [r7, #20]
 8002696:	2b01      	cmp	r3, #1
 8002698:	d003      	beq.n	80026a2 <I2C_MasterRequestRead+0x3a>
 800269a:	697b      	ldr	r3, [r7, #20]
 800269c:	f513 3f80 	cmn.w	r3, #65536	; 0x10000
 80026a0:	d108      	bne.n	80026b4 <I2C_MasterRequestRead+0x4c>
  {
    /* Generate Start */
    SET_BIT(hi2c->Instance->CR1, I2C_CR1_START);
 80026a2:	68fb      	ldr	r3, [r7, #12]
 80026a4:	681b      	ldr	r3, [r3, #0]
 80026a6:	681a      	ldr	r2, [r3, #0]
 80026a8:	68fb      	ldr	r3, [r7, #12]
 80026aa:	681b      	ldr	r3, [r3, #0]
 80026ac:	f442 7280 	orr.w	r2, r2, #256	; 0x100
 80026b0:	601a      	str	r2, [r3, #0]
 80026b2:	e00b      	b.n	80026cc <I2C_MasterRequestRead+0x64>
  }
  else if (hi2c->PreviousState == I2C_STATE_MASTER_BUSY_TX)
 80026b4:	68fb      	ldr	r3, [r7, #12]
 80026b6:	6b1b      	ldr	r3, [r3, #48]	; 0x30
 80026b8:	2b11      	cmp	r3, #17
 80026ba:	d107      	bne.n	80026cc <I2C_MasterRequestRead+0x64>
  {
    /* Generate ReStart */
    SET_BIT(hi2c->Instance->CR1, I2C_CR1_START);
 80026bc:	68fb      	ldr	r3, [r7, #12]
 80026be:	681b      	ldr	r3, [r3, #0]
 80026c0:	681a      	ldr	r2, [r3, #0]
 80026c2:	68fb      	ldr	r3, [r7, #12]
 80026c4:	681b      	ldr	r3, [r3, #0]
 80026c6:	f442 7280 	orr.w	r2, r2, #256	; 0x100
 80026ca:	601a      	str	r2, [r3, #0]
  {
    /* Do nothing */
  }

  /* Wait until SB flag is set */
  if (I2C_WaitOnFlagUntilTimeout(hi2c, I2C_FLAG_SB, RESET, Timeout, Tickstart) != HAL_OK)
 80026cc:	683b      	ldr	r3, [r7, #0]
 80026ce:	9300      	str	r3, [sp, #0]
 80026d0:	687b      	ldr	r3, [r7, #4]
 80026d2:	2200      	movs	r2, #0
 80026d4:	f04f 1101 	mov.w	r1, #65537	; 0x10001
 80026d8:	68f8      	ldr	r0, [r7, #12]
 80026da:	f000 f893 	bl	8002804 <I2C_WaitOnFlagUntilTimeout>
 80026de:	4603      	mov	r3, r0
 80026e0:	2b00      	cmp	r3, #0
 80026e2:	d00d      	beq.n	8002700 <I2C_MasterRequestRead+0x98>
  {
    if (READ_BIT(hi2c->Instance->CR1, I2C_CR1_START) == I2C_CR1_START)
 80026e4:	68fb      	ldr	r3, [r7, #12]
 80026e6:	681b      	ldr	r3, [r3, #0]
 80026e8:	681b      	ldr	r3, [r3, #0]
 80026ea:	f403 7380 	and.w	r3, r3, #256	; 0x100
 80026ee:	f5b3 7f80 	cmp.w	r3, #256	; 0x100
 80026f2:	d103      	bne.n	80026fc <I2C_MasterRequestRead+0x94>
    {
      hi2c->ErrorCode = HAL_I2C_WRONG_START;
 80026f4:	68fb      	ldr	r3, [r7, #12]
 80026f6:	f44f 7200 	mov.w	r2, #512	; 0x200
 80026fa:	641a      	str	r2, [r3, #64]	; 0x40
    }
    return HAL_TIMEOUT;
 80026fc:	2303      	movs	r3, #3
 80026fe:	e079      	b.n	80027f4 <I2C_MasterRequestRead+0x18c>
  }

  if (hi2c->Init.AddressingMode == I2C_ADDRESSINGMODE_7BIT)
 8002700:	68fb      	ldr	r3, [r7, #12]
 8002702:	691b      	ldr	r3, [r3, #16]
 8002704:	f5b3 4f80 	cmp.w	r3, #16384	; 0x4000
 8002708:	d108      	bne.n	800271c <I2C_MasterRequestRead+0xb4>
  {
    /* Send slave address */
    hi2c->Instance->DR = I2C_7BIT_ADD_READ(DevAddress);
 800270a:	897b      	ldrh	r3, [r7, #10]
 800270c:	b2db      	uxtb	r3, r3
 800270e:	f043 0301 	orr.w	r3, r3, #1
 8002712:	b2da      	uxtb	r2, r3
 8002714:	68fb      	ldr	r3, [r7, #12]
 8002716:	681b      	ldr	r3, [r3, #0]
 8002718:	611a      	str	r2, [r3, #16]
 800271a:	e05f      	b.n	80027dc <I2C_MasterRequestRead+0x174>
  }
  else
  {
    /* Send header of slave address */
    hi2c->Instance->DR = I2C_10BIT_HEADER_WRITE(DevAddress);
 800271c:	897b      	ldrh	r3, [r7, #10]
 800271e:	11db      	asrs	r3, r3, #7
 8002720:	b2db      	uxtb	r3, r3
 8002722:	f003 0306 	and.w	r3, r3, #6
 8002726:	b2db      	uxtb	r3, r3
 8002728:	f063 030f 	orn	r3, r3, #15
 800272c:	b2da      	uxtb	r2, r3
 800272e:	68fb      	ldr	r3, [r7, #12]
 8002730:	681b      	ldr	r3, [r3, #0]
 8002732:	611a      	str	r2, [r3, #16]

    /* Wait until ADD10 flag is set */
    if (I2C_WaitOnMasterAddressFlagUntilTimeout(hi2c, I2C_FLAG_ADD10, Timeout, Tickstart) != HAL_OK)
 8002734:	683b      	ldr	r3, [r7, #0]
 8002736:	687a      	ldr	r2, [r7, #4]
 8002738:	4930      	ldr	r1, [pc, #192]	; (80027fc <I2C_MasterRequestRead+0x194>)
 800273a:	68f8      	ldr	r0, [r7, #12]
 800273c:	f000 f8b9 	bl	80028b2 <I2C_WaitOnMasterAddressFlagUntilTimeout>
 8002740:	4603      	mov	r3, r0
 8002742:	2b00      	cmp	r3, #0
 8002744:	d001      	beq.n	800274a <I2C_MasterRequestRead+0xe2>
    {
      return HAL_ERROR;
 8002746:	2301      	movs	r3, #1
 8002748:	e054      	b.n	80027f4 <I2C_MasterRequestRead+0x18c>
    }

    /* Send slave address */
    hi2c->Instance->DR = I2C_10BIT_ADDRESS(DevAddress);
 800274a:	897b      	ldrh	r3, [r7, #10]
 800274c:	b2da      	uxtb	r2, r3
 800274e:	68fb      	ldr	r3, [r7, #12]
 8002750:	681b      	ldr	r3, [r3, #0]
 8002752:	611a      	str	r2, [r3, #16]

    /* Wait until ADDR flag is set */
    if (I2C_WaitOnMasterAddressFlagUntilTimeout(hi2c, I2C_FLAG_ADDR, Timeout, Tickstart) != HAL_OK)
 8002754:	683b      	ldr	r3, [r7, #0]
 8002756:	687a      	ldr	r2, [r7, #4]
 8002758:	4929      	ldr	r1, [pc, #164]	; (8002800 <I2C_MasterRequestRead+0x198>)
 800275a:	68f8      	ldr	r0, [r7, #12]
 800275c:	f000 f8a9 	bl	80028b2 <I2C_WaitOnMasterAddressFlagUntilTimeout>
 8002760:	4603      	mov	r3, r0
 8002762:	2b00      	cmp	r3, #0
 8002764:	d001      	beq.n	800276a <I2C_MasterRequestRead+0x102>
    {
      return HAL_ERROR;
 8002766:	2301      	movs	r3, #1
 8002768:	e044      	b.n	80027f4 <I2C_MasterRequestRead+0x18c>
    }

    /* Clear ADDR flag */
    __HAL_I2C_CLEAR_ADDRFLAG(hi2c);
 800276a:	2300      	movs	r3, #0
 800276c:	613b      	str	r3, [r7, #16]
 800276e:	68fb      	ldr	r3, [r7, #12]
 8002770:	681b      	ldr	r3, [r3, #0]
 8002772:	695b      	ldr	r3, [r3, #20]
 8002774:	613b      	str	r3, [r7, #16]
 8002776:	68fb      	ldr	r3, [r7, #12]
 8002778:	681b      	ldr	r3, [r3, #0]
 800277a:	699b      	ldr	r3, [r3, #24]
 800277c:	613b      	str	r3, [r7, #16]
 800277e:	693b      	ldr	r3, [r7, #16]

    /* Generate Restart */
    SET_BIT(hi2c->Instance->CR1, I2C_CR1_START);
 8002780:	68fb      	ldr	r3, [r7, #12]
 8002782:	681b      	ldr	r3, [r3, #0]
 8002784:	681a      	ldr	r2, [r3, #0]
 8002786:	68fb      	ldr	r3, [r7, #12]
 8002788:	681b      	ldr	r3, [r3, #0]
 800278a:	f442 7280 	orr.w	r2, r2, #256	; 0x100
 800278e:	601a      	str	r2, [r3, #0]

    /* Wait until SB flag is set */
    if (I2C_WaitOnFlagUntilTimeout(hi2c, I2C_FLAG_SB, RESET, Timeout, Tickstart) != HAL_OK)
 8002790:	683b      	ldr	r3, [r7, #0]
 8002792:	9300      	str	r3, [sp, #0]
 8002794:	687b      	ldr	r3, [r7, #4]
 8002796:	2200      	movs	r2, #0
 8002798:	f04f 1101 	mov.w	r1, #65537	; 0x10001
 800279c:	68f8      	ldr	r0, [r7, #12]
 800279e:	f000 f831 	bl	8002804 <I2C_WaitOnFlagUntilTimeout>
 80027a2:	4603      	mov	r3, r0
 80027a4:	2b00      	cmp	r3, #0
 80027a6:	d00d      	beq.n	80027c4 <I2C_MasterRequestRead+0x15c>
    {
      if (READ_BIT(hi2c->Instance->CR1, I2C_CR1_START) == I2C_CR1_START)
 80027a8:	68fb      	ldr	r3, [r7, #12]
 80027aa:	681b      	ldr	r3, [r3, #0]
 80027ac:	681b      	ldr	r3, [r3, #0]
 80027ae:	f403 7380 	and.w	r3, r3, #256	; 0x100
 80027b2:	f5b3 7f80 	cmp.w	r3, #256	; 0x100
 80027b6:	d103      	bne.n	80027c0 <I2C_MasterRequestRead+0x158>
      {
        hi2c->ErrorCode = HAL_I2C_WRONG_START;
 80027b8:	68fb      	ldr	r3, [r7, #12]
 80027ba:	f44f 7200 	mov.w	r2, #512	; 0x200
 80027be:	641a      	str	r2, [r3, #64]	; 0x40
      }
      return HAL_TIMEOUT;
 80027c0:	2303      	movs	r3, #3
 80027c2:	e017      	b.n	80027f4 <I2C_MasterRequestRead+0x18c>
    }

    /* Send header of slave address */
    hi2c->Instance->DR = I2C_10BIT_HEADER_READ(DevAddress);
 80027c4:	897b      	ldrh	r3, [r7, #10]
 80027c6:	11db      	asrs	r3, r3, #7
 80027c8:	b2db      	uxtb	r3, r3
 80027ca:	f003 0306 	and.w	r3, r3, #6
 80027ce:	b2db      	uxtb	r3, r3
 80027d0:	f063 030e 	orn	r3, r3, #14
 80027d4:	b2da      	uxtb	r2, r3
 80027d6:	68fb      	ldr	r3, [r7, #12]
 80027d8:	681b      	ldr	r3, [r3, #0]
 80027da:	611a      	str	r2, [r3, #16]
  }

  /* Wait until ADDR flag is set */
  if (I2C_WaitOnMasterAddressFlagUntilTimeout(hi2c, I2C_FLAG_ADDR, Timeout, Tickstart) != HAL_OK)
 80027dc:	683b      	ldr	r3, [r7, #0]
 80027de:	687a      	ldr	r2, [r7, #4]
 80027e0:	4907      	ldr	r1, [pc, #28]	; (8002800 <I2C_MasterRequestRead+0x198>)
 80027e2:	68f8      	ldr	r0, [r7, #12]
 80027e4:	f000 f865 	bl	80028b2 <I2C_WaitOnMasterAddressFlagUntilTimeout>
 80027e8:	4603      	mov	r3, r0
 80027ea:	2b00      	cmp	r3, #0
 80027ec:	d001      	beq.n	80027f2 <I2C_MasterRequestRead+0x18a>
  {
    return HAL_ERROR;
 80027ee:	2301      	movs	r3, #1
 80027f0:	e000      	b.n	80027f4 <I2C_MasterRequestRead+0x18c>
  }

  return HAL_OK;
 80027f2:	2300      	movs	r3, #0
}
 80027f4:	4618      	mov	r0, r3
 80027f6:	3718      	adds	r7, #24
 80027f8:	46bd      	mov	sp, r7
 80027fa:	bd80      	pop	{r7, pc}
 80027fc:	00010008 	.word	0x00010008
 8002800:	00010002 	.word	0x00010002

08002804 <I2C_WaitOnFlagUntilTimeout>:
  * @param  Timeout Timeout duration
  * @param  Tickstart Tick start value
  * @retval HAL status
  */
static HAL_StatusTypeDef I2C_WaitOnFlagUntilTimeout(I2C_HandleTypeDef *hi2c, uint32_t Flag, FlagStatus Status, uint32_t Timeout, uint32_t Tickstart)
{
 8002804:	b580      	push	{r7, lr}
 8002806:	b084      	sub	sp, #16
 8002808:	af00      	add	r7, sp, #0
 800280a:	60f8      	str	r0, [r7, #12]
 800280c:	60b9      	str	r1, [r7, #8]
 800280e:	603b      	str	r3, [r7, #0]
 8002810:	4613      	mov	r3, r2
 8002812:	71fb      	strb	r3, [r7, #7]
  /* Wait until flag is set */
  while (__HAL_I2C_GET_FLAG(hi2c, Flag) == Status)
 8002814:	e025      	b.n	8002862 <I2C_WaitOnFlagUntilTimeout+0x5e>
  {
    /* Check for the Timeout */
    if (Timeout != HAL_MAX_DELAY)
 8002816:	683b      	ldr	r3, [r7, #0]
 8002818:	f1b3 3fff 	cmp.w	r3, #4294967295
 800281c:	d021      	beq.n	8002862 <I2C_WaitOnFlagUntilTimeout+0x5e>
    {
      if (((HAL_GetTick() - Tickstart) > Timeout) || (Timeout == 0U))
 800281e:	f7fe fec9 	bl	80015b4 <HAL_GetTick>
 8002822:	4602      	mov	r2, r0
 8002824:	69bb      	ldr	r3, [r7, #24]
 8002826:	1ad3      	subs	r3, r2, r3
 8002828:	683a      	ldr	r2, [r7, #0]
 800282a:	429a      	cmp	r2, r3
 800282c:	d302      	bcc.n	8002834 <I2C_WaitOnFlagUntilTimeout+0x30>
 800282e:	683b      	ldr	r3, [r7, #0]
 8002830:	2b00      	cmp	r3, #0
 8002832:	d116      	bne.n	8002862 <I2C_WaitOnFlagUntilTimeout+0x5e>
      {
        hi2c->PreviousState     = I2C_STATE_NONE;
 8002834:	68fb      	ldr	r3, [r7, #12]
 8002836:	2200      	movs	r2, #0
 8002838:	631a      	str	r2, [r3, #48]	; 0x30
        hi2c->State             = HAL_I2C_STATE_READY;
 800283a:	68fb      	ldr	r3, [r7, #12]
 800283c:	2220      	movs	r2, #32
 800283e:	f883 203d 	strb.w	r2, [r3, #61]	; 0x3d
        hi2c->Mode              = HAL_I2C_MODE_NONE;
 8002842:	68fb      	ldr	r3, [r7, #12]
 8002844:	2200      	movs	r2, #0
 8002846:	f883 203e 	strb.w	r2, [r3, #62]	; 0x3e
        hi2c->ErrorCode         |= HAL_I2C_ERROR_TIMEOUT;
 800284a:	68fb      	ldr	r3, [r7, #12]
 800284c:	6c1b      	ldr	r3, [r3, #64]	; 0x40
 800284e:	f043 0220 	orr.w	r2, r3, #32
 8002852:	68fb      	ldr	r3, [r7, #12]
 8002854:	641a      	str	r2, [r3, #64]	; 0x40

        /* Process Unlocked */
        __HAL_UNLOCK(hi2c);
 8002856:	68fb      	ldr	r3, [r7, #12]
 8002858:	2200      	movs	r2, #0
 800285a:	f883 203c 	strb.w	r2, [r3, #60]	; 0x3c

        return HAL_ERROR;
 800285e:	2301      	movs	r3, #1
 8002860:	e023      	b.n	80028aa <I2C_WaitOnFlagUntilTimeout+0xa6>
  while (__HAL_I2C_GET_FLAG(hi2c, Flag) == Status)
 8002862:	68bb      	ldr	r3, [r7, #8]
 8002864:	0c1b      	lsrs	r3, r3, #16
 8002866:	b2db      	uxtb	r3, r3
 8002868:	2b01      	cmp	r3, #1
 800286a:	d10d      	bne.n	8002888 <I2C_WaitOnFlagUntilTimeout+0x84>
 800286c:	68fb      	ldr	r3, [r7, #12]
 800286e:	681b      	ldr	r3, [r3, #0]
 8002870:	695b      	ldr	r3, [r3, #20]
 8002872:	43da      	mvns	r2, r3
 8002874:	68bb      	ldr	r3, [r7, #8]
 8002876:	4013      	ands	r3, r2
 8002878:	b29b      	uxth	r3, r3
 800287a:	2b00      	cmp	r3, #0
 800287c:	bf0c      	ite	eq
 800287e:	2301      	moveq	r3, #1
 8002880:	2300      	movne	r3, #0
 8002882:	b2db      	uxtb	r3, r3
 8002884:	461a      	mov	r2, r3
 8002886:	e00c      	b.n	80028a2 <I2C_WaitOnFlagUntilTimeout+0x9e>
 8002888:	68fb      	ldr	r3, [r7, #12]
 800288a:	681b      	ldr	r3, [r3, #0]
 800288c:	699b      	ldr	r3, [r3, #24]
 800288e:	43da      	mvns	r2, r3
 8002890:	68bb      	ldr	r3, [r7, #8]
 8002892:	4013      	ands	r3, r2
 8002894:	b29b      	uxth	r3, r3
 8002896:	2b00      	cmp	r3, #0
 8002898:	bf0c      	ite	eq
 800289a:	2301      	moveq	r3, #1
 800289c:	2300      	movne	r3, #0
 800289e:	b2db      	uxtb	r3, r3
 80028a0:	461a      	mov	r2, r3
 80028a2:	79fb      	ldrb	r3, [r7, #7]
 80028a4:	429a      	cmp	r2, r3
 80028a6:	d0b6      	beq.n	8002816 <I2C_WaitOnFlagUntilTimeout+0x12>
      }
    }
  }
  return HAL_OK;
 80028a8:	2300      	movs	r3, #0
}
 80028aa:	4618      	mov	r0, r3
 80028ac:	3710      	adds	r7, #16
 80028ae:	46bd      	mov	sp, r7
 80028b0:	bd80      	pop	{r7, pc}

080028b2 <I2C_WaitOnMasterAddressFlagUntilTimeout>:
  * @param  Timeout Timeout duration
  * @param  Tickstart Tick start value
  * @retval HAL status
  */
static HAL_StatusTypeDef I2C_WaitOnMasterAddressFlagUntilTimeout(I2C_HandleTypeDef *hi2c, uint32_t Flag, uint32_t Timeout, uint32_t Tickstart)
{
 80028b2:	b580      	push	{r7, lr}
 80028b4:	b084      	sub	sp, #16
 80028b6:	af00      	add	r7, sp, #0
 80028b8:	60f8      	str	r0, [r7, #12]
 80028ba:	60b9      	str	r1, [r7, #8]
 80028bc:	607a      	str	r2, [r7, #4]
 80028be:	603b      	str	r3, [r7, #0]
  while (__HAL_I2C_GET_FLAG(hi2c, Flag) == RESET)
 80028c0:	e051      	b.n	8002966 <I2C_WaitOnMasterAddressFlagUntilTimeout+0xb4>
  {
    if (__HAL_I2C_GET_FLAG(hi2c, I2C_FLAG_AF) == SET)
 80028c2:	68fb      	ldr	r3, [r7, #12]
 80028c4:	681b      	ldr	r3, [r3, #0]
 80028c6:	695b      	ldr	r3, [r3, #20]
 80028c8:	f403 6380 	and.w	r3, r3, #1024	; 0x400
 80028cc:	f5b3 6f80 	cmp.w	r3, #1024	; 0x400
 80028d0:	d123      	bne.n	800291a <I2C_WaitOnMasterAddressFlagUntilTimeout+0x68>
    {
      /* Generate Stop */
      SET_BIT(hi2c->Instance->CR1, I2C_CR1_STOP);
 80028d2:	68fb      	ldr	r3, [r7, #12]
 80028d4:	681b      	ldr	r3, [r3, #0]
 80028d6:	681a      	ldr	r2, [r3, #0]
 80028d8:	68fb      	ldr	r3, [r7, #12]
 80028da:	681b      	ldr	r3, [r3, #0]
 80028dc:	f442 7200 	orr.w	r2, r2, #512	; 0x200
 80028e0:	601a      	str	r2, [r3, #0]

      /* Clear AF Flag */
      __HAL_I2C_CLEAR_FLAG(hi2c, I2C_FLAG_AF);
 80028e2:	68fb      	ldr	r3, [r7, #12]
 80028e4:	681b      	ldr	r3, [r3, #0]
 80028e6:	f46f 6280 	mvn.w	r2, #1024	; 0x400
 80028ea:	615a      	str	r2, [r3, #20]

      hi2c->PreviousState       = I2C_STATE_NONE;
 80028ec:	68fb      	ldr	r3, [r7, #12]
 80028ee:	2200      	movs	r2, #0
 80028f0:	631a      	str	r2, [r3, #48]	; 0x30
      hi2c->State               = HAL_I2C_STATE_READY;
 80028f2:	68fb      	ldr	r3, [r7, #12]
 80028f4:	2220      	movs	r2, #32
 80028f6:	f883 203d 	strb.w	r2, [r3, #61]	; 0x3d
      hi2c->Mode                = HAL_I2C_MODE_NONE;
 80028fa:	68fb      	ldr	r3, [r7, #12]
 80028fc:	2200      	movs	r2, #0
 80028fe:	f883 203e 	strb.w	r2, [r3, #62]	; 0x3e
      hi2c->ErrorCode           |= HAL_I2C_ERROR_AF;
 8002902:	68fb      	ldr	r3, [r7, #12]
 8002904:	6c1b      	ldr	r3, [r3, #64]	; 0x40
 8002906:	f043 0204 	orr.w	r2, r3, #4
 800290a:	68fb      	ldr	r3, [r7, #12]
 800290c:	641a      	str	r2, [r3, #64]	; 0x40

      /* Process Unlocked */
      __HAL_UNLOCK(hi2c);
 800290e:	68fb      	ldr	r3, [r7, #12]
 8002910:	2200      	movs	r2, #0
 8002912:	f883 203c 	strb.w	r2, [r3, #60]	; 0x3c

      return HAL_ERROR;
 8002916:	2301      	movs	r3, #1
 8002918:	e046      	b.n	80029a8 <I2C_WaitOnMasterAddressFlagUntilTimeout+0xf6>
    }

    /* Check for the Timeout */
    if (Timeout != HAL_MAX_DELAY)
 800291a:	687b      	ldr	r3, [r7, #4]
 800291c:	f1b3 3fff 	cmp.w	r3, #4294967295
 8002920:	d021      	beq.n	8002966 <I2C_WaitOnMasterAddressFlagUntilTimeout+0xb4>
    {
      if (((HAL_GetTick() - Tickstart) > Timeout) || (Timeout == 0U))
 8002922:	f7fe fe47 	bl	80015b4 <HAL_GetTick>
 8002926:	4602      	mov	r2, r0
 8002928:	683b      	ldr	r3, [r7, #0]
 800292a:	1ad3      	subs	r3, r2, r3
 800292c:	687a      	ldr	r2, [r7, #4]
 800292e:	429a      	cmp	r2, r3
 8002930:	d302      	bcc.n	8002938 <I2C_WaitOnMasterAddressFlagUntilTimeout+0x86>
 8002932:	687b      	ldr	r3, [r7, #4]
 8002934:	2b00      	cmp	r3, #0
 8002936:	d116      	bne.n	8002966 <I2C_WaitOnMasterAddressFlagUntilTimeout+0xb4>
      {
        hi2c->PreviousState       = I2C_STATE_NONE;
 8002938:	68fb      	ldr	r3, [r7, #12]
 800293a:	2200      	movs	r2, #0
 800293c:	631a      	str	r2, [r3, #48]	; 0x30
        hi2c->State               = HAL_I2C_STATE_READY;
 800293e:	68fb      	ldr	r3, [r7, #12]
 8002940:	2220      	movs	r2, #32
 8002942:	f883 203d 	strb.w	r2, [r3, #61]	; 0x3d
        hi2c->Mode                = HAL_I2C_MODE_NONE;
 8002946:	68fb      	ldr	r3, [r7, #12]
 8002948:	2200      	movs	r2, #0
 800294a:	f883 203e 	strb.w	r2, [r3, #62]	; 0x3e
        hi2c->ErrorCode           |= HAL_I2C_ERROR_TIMEOUT;
 800294e:	68fb      	ldr	r3, [r7, #12]
 8002950:	6c1b      	ldr	r3, [r3, #64]	; 0x40
 8002952:	f043 0220 	orr.w	r2, r3, #32
 8002956:	68fb      	ldr	r3, [r7, #12]
 8002958:	641a      	str	r2, [r3, #64]	; 0x40

        /* Process Unlocked */
        __HAL_UNLOCK(hi2c);
 800295a:	68fb      	ldr	r3, [r7, #12]
 800295c:	2200      	movs	r2, #0
 800295e:	f883 203c 	strb.w	r2, [r3, #60]	; 0x3c

        return HAL_ERROR;
 8002962:	2301      	movs	r3, #1
 8002964:	e020      	b.n	80029a8 <I2C_WaitOnMasterAddressFlagUntilTimeout+0xf6>
  while (__HAL_I2C_GET_FLAG(hi2c, Flag) == RESET)
 8002966:	68bb      	ldr	r3, [r7, #8]
 8002968:	0c1b      	lsrs	r3, r3, #16
 800296a:	b2db      	uxtb	r3, r3
 800296c:	2b01      	cmp	r3, #1
 800296e:	d10c      	bne.n	800298a <I2C_WaitOnMasterAddressFlagUntilTimeout+0xd8>
 8002970:	68fb      	ldr	r3, [r7, #12]
 8002972:	681b      	ldr	r3, [r3, #0]
 8002974:	695b      	ldr	r3, [r3, #20]
 8002976:	43da      	mvns	r2, r3
 8002978:	68bb      	ldr	r3, [r7, #8]
 800297a:	4013      	ands	r3, r2
 800297c:	b29b      	uxth	r3, r3
 800297e:	2b00      	cmp	r3, #0
 8002980:	bf14      	ite	ne
 8002982:	2301      	movne	r3, #1
 8002984:	2300      	moveq	r3, #0
 8002986:	b2db      	uxtb	r3, r3
 8002988:	e00b      	b.n	80029a2 <I2C_WaitOnMasterAddressFlagUntilTimeout+0xf0>
 800298a:	68fb      	ldr	r3, [r7, #12]
 800298c:	681b      	ldr	r3, [r3, #0]
 800298e:	699b      	ldr	r3, [r3, #24]
 8002990:	43da      	mvns	r2, r3
 8002992:	68bb      	ldr	r3, [r7, #8]
 8002994:	4013      	ands	r3, r2
 8002996:	b29b      	uxth	r3, r3
 8002998:	2b00      	cmp	r3, #0
 800299a:	bf14      	ite	ne
 800299c:	2301      	movne	r3, #1
 800299e:	2300      	moveq	r3, #0
 80029a0:	b2db      	uxtb	r3, r3
 80029a2:	2b00      	cmp	r3, #0
 80029a4:	d18d      	bne.n	80028c2 <I2C_WaitOnMasterAddressFlagUntilTimeout+0x10>
      }
    }
  }
  return HAL_OK;
 80029a6:	2300      	movs	r3, #0
}
 80029a8:	4618      	mov	r0, r3
 80029aa:	3710      	adds	r7, #16
 80029ac:	46bd      	mov	sp, r7
 80029ae:	bd80      	pop	{r7, pc}

080029b0 <I2C_WaitOnTXEFlagUntilTimeout>:
  * @param  Timeout Timeout duration
  * @param  Tickstart Tick start value
  * @retval HAL status
  */
static HAL_StatusTypeDef I2C_WaitOnTXEFlagUntilTimeout(I2C_HandleTypeDef *hi2c, uint32_t Timeout, uint32_t Tickstart)
{
 80029b0:	b580      	push	{r7, lr}
 80029b2:	b084      	sub	sp, #16
 80029b4:	af00      	add	r7, sp, #0
 80029b6:	60f8      	str	r0, [r7, #12]
 80029b8:	60b9      	str	r1, [r7, #8]
 80029ba:	607a      	str	r2, [r7, #4]
  while (__HAL_I2C_GET_FLAG(hi2c, I2C_FLAG_TXE) == RESET)
 80029bc:	e02d      	b.n	8002a1a <I2C_WaitOnTXEFlagUntilTimeout+0x6a>
  {
    /* Check if a NACK is detected */
    if (I2C_IsAcknowledgeFailed(hi2c) != HAL_OK)
 80029be:	68f8      	ldr	r0, [r7, #12]
 80029c0:	f000 f8ce 	bl	8002b60 <I2C_IsAcknowledgeFailed>
 80029c4:	4603      	mov	r3, r0
 80029c6:	2b00      	cmp	r3, #0
 80029c8:	d001      	beq.n	80029ce <I2C_WaitOnTXEFlagUntilTimeout+0x1e>
    {
      return HAL_ERROR;
 80029ca:	2301      	movs	r3, #1
 80029cc:	e02d      	b.n	8002a2a <I2C_WaitOnTXEFlagUntilTimeout+0x7a>
    }

    /* Check for the Timeout */
    if (Timeout != HAL_MAX_DELAY)
 80029ce:	68bb      	ldr	r3, [r7, #8]
 80029d0:	f1b3 3fff 	cmp.w	r3, #4294967295
 80029d4:	d021      	beq.n	8002a1a <I2C_WaitOnTXEFlagUntilTimeout+0x6a>
    {
      if (((HAL_GetTick() - Tickstart) > Timeout) || (Timeout == 0U))
 80029d6:	f7fe fded 	bl	80015b4 <HAL_GetTick>
 80029da:	4602      	mov	r2, r0
 80029dc:	687b      	ldr	r3, [r7, #4]
 80029de:	1ad3      	subs	r3, r2, r3
 80029e0:	68ba      	ldr	r2, [r7, #8]
 80029e2:	429a      	cmp	r2, r3
 80029e4:	d302      	bcc.n	80029ec <I2C_WaitOnTXEFlagUntilTimeout+0x3c>
 80029e6:	68bb      	ldr	r3, [r7, #8]
 80029e8:	2b00      	cmp	r3, #0
 80029ea:	d116      	bne.n	8002a1a <I2C_WaitOnTXEFlagUntilTimeout+0x6a>
      {
        hi2c->PreviousState       = I2C_STATE_NONE;
 80029ec:	68fb      	ldr	r3, [r7, #12]
 80029ee:	2200      	movs	r2, #0
 80029f0:	631a      	str	r2, [r3, #48]	; 0x30
        hi2c->State               = HAL_I2C_STATE_READY;
 80029f2:	68fb      	ldr	r3, [r7, #12]
 80029f4:	2220      	movs	r2, #32
 80029f6:	f883 203d 	strb.w	r2, [r3, #61]	; 0x3d
        hi2c->Mode                = HAL_I2C_MODE_NONE;
 80029fa:	68fb      	ldr	r3, [r7, #12]
 80029fc:	2200      	movs	r2, #0
 80029fe:	f883 203e 	strb.w	r2, [r3, #62]	; 0x3e
        hi2c->ErrorCode           |= HAL_I2C_ERROR_TIMEOUT;
 8002a02:	68fb      	ldr	r3, [r7, #12]
 8002a04:	6c1b      	ldr	r3, [r3, #64]	; 0x40
 8002a06:	f043 0220 	orr.w	r2, r3, #32
 8002a0a:	68fb      	ldr	r3, [r7, #12]
 8002a0c:	641a      	str	r2, [r3, #64]	; 0x40

        /* Process Unlocked */
        __HAL_UNLOCK(hi2c);
 8002a0e:	68fb      	ldr	r3, [r7, #12]
 8002a10:	2200      	movs	r2, #0
 8002a12:	f883 203c 	strb.w	r2, [r3, #60]	; 0x3c

        return HAL_ERROR;
 8002a16:	2301      	movs	r3, #1
 8002a18:	e007      	b.n	8002a2a <I2C_WaitOnTXEFlagUntilTimeout+0x7a>
  while (__HAL_I2C_GET_FLAG(hi2c, I2C_FLAG_TXE) == RESET)
 8002a1a:	68fb      	ldr	r3, [r7, #12]
 8002a1c:	681b      	ldr	r3, [r3, #0]
 8002a1e:	695b      	ldr	r3, [r3, #20]
 8002a20:	f003 0380 	and.w	r3, r3, #128	; 0x80
 8002a24:	2b80      	cmp	r3, #128	; 0x80
 8002a26:	d1ca      	bne.n	80029be <I2C_WaitOnTXEFlagUntilTimeout+0xe>
      }
    }
  }
  return HAL_OK;
 8002a28:	2300      	movs	r3, #0
}
 8002a2a:	4618      	mov	r0, r3
 8002a2c:	3710      	adds	r7, #16
 8002a2e:	46bd      	mov	sp, r7
 8002a30:	bd80      	pop	{r7, pc}

08002a32 <I2C_WaitOnBTFFlagUntilTimeout>:
  * @param  Timeout Timeout duration
  * @param  Tickstart Tick start value
  * @retval HAL status
  */
static HAL_StatusTypeDef I2C_WaitOnBTFFlagUntilTimeout(I2C_HandleTypeDef *hi2c, uint32_t Timeout, uint32_t Tickstart)
{
 8002a32:	b580      	push	{r7, lr}
 8002a34:	b084      	sub	sp, #16
 8002a36:	af00      	add	r7, sp, #0
 8002a38:	60f8      	str	r0, [r7, #12]
 8002a3a:	60b9      	str	r1, [r7, #8]
 8002a3c:	607a      	str	r2, [r7, #4]
  while (__HAL_I2C_GET_FLAG(hi2c, I2C_FLAG_BTF) == RESET)
 8002a3e:	e02d      	b.n	8002a9c <I2C_WaitOnBTFFlagUntilTimeout+0x6a>
  {
    /* Check if a NACK is detected */
    if (I2C_IsAcknowledgeFailed(hi2c) != HAL_OK)
 8002a40:	68f8      	ldr	r0, [r7, #12]
 8002a42:	f000 f88d 	bl	8002b60 <I2C_IsAcknowledgeFailed>
 8002a46:	4603      	mov	r3, r0
 8002a48:	2b00      	cmp	r3, #0
 8002a4a:	d001      	beq.n	8002a50 <I2C_WaitOnBTFFlagUntilTimeout+0x1e>
    {
      return HAL_ERROR;
 8002a4c:	2301      	movs	r3, #1
 8002a4e:	e02d      	b.n	8002aac <I2C_WaitOnBTFFlagUntilTimeout+0x7a>
    }

    /* Check for the Timeout */
    if (Timeout != HAL_MAX_DELAY)
 8002a50:	68bb      	ldr	r3, [r7, #8]
 8002a52:	f1b3 3fff 	cmp.w	r3, #4294967295
 8002a56:	d021      	beq.n	8002a9c <I2C_WaitOnBTFFlagUntilTimeout+0x6a>
    {
      if (((HAL_GetTick() - Tickstart) > Timeout) || (Timeout == 0U))
 8002a58:	f7fe fdac 	bl	80015b4 <HAL_GetTick>
 8002a5c:	4602      	mov	r2, r0
 8002a5e:	687b      	ldr	r3, [r7, #4]
 8002a60:	1ad3      	subs	r3, r2, r3
 8002a62:	68ba      	ldr	r2, [r7, #8]
 8002a64:	429a      	cmp	r2, r3
 8002a66:	d302      	bcc.n	8002a6e <I2C_WaitOnBTFFlagUntilTimeout+0x3c>
 8002a68:	68bb      	ldr	r3, [r7, #8]
 8002a6a:	2b00      	cmp	r3, #0
 8002a6c:	d116      	bne.n	8002a9c <I2C_WaitOnBTFFlagUntilTimeout+0x6a>
      {
        hi2c->PreviousState       = I2C_STATE_NONE;
 8002a6e:	68fb      	ldr	r3, [r7, #12]
 8002a70:	2200      	movs	r2, #0
 8002a72:	631a      	str	r2, [r3, #48]	; 0x30
        hi2c->State               = HAL_I2C_STATE_READY;
 8002a74:	68fb      	ldr	r3, [r7, #12]
 8002a76:	2220      	movs	r2, #32
 8002a78:	f883 203d 	strb.w	r2, [r3, #61]	; 0x3d
        hi2c->Mode                = HAL_I2C_MODE_NONE;
 8002a7c:	68fb      	ldr	r3, [r7, #12]
 8002a7e:	2200      	movs	r2, #0
 8002a80:	f883 203e 	strb.w	r2, [r3, #62]	; 0x3e
        hi2c->ErrorCode           |= HAL_I2C_ERROR_TIMEOUT;
 8002a84:	68fb      	ldr	r3, [r7, #12]
 8002a86:	6c1b      	ldr	r3, [r3, #64]	; 0x40
 8002a88:	f043 0220 	orr.w	r2, r3, #32
 8002a8c:	68fb      	ldr	r3, [r7, #12]
 8002a8e:	641a      	str	r2, [r3, #64]	; 0x40

        /* Process Unlocked */
        __HAL_UNLOCK(hi2c);
 8002a90:	68fb      	ldr	r3, [r7, #12]
 8002a92:	2200      	movs	r2, #0
 8002a94:	f883 203c 	strb.w	r2, [r3, #60]	; 0x3c

        return HAL_ERROR;
 8002a98:	2301      	movs	r3, #1
 8002a9a:	e007      	b.n	8002aac <I2C_WaitOnBTFFlagUntilTimeout+0x7a>
  while (__HAL_I2C_GET_FLAG(hi2c, I2C_FLAG_BTF) == RESET)
 8002a9c:	68fb      	ldr	r3, [r7, #12]
 8002a9e:	681b      	ldr	r3, [r3, #0]
 8002aa0:	695b      	ldr	r3, [r3, #20]
 8002aa2:	f003 0304 	and.w	r3, r3, #4
 8002aa6:	2b04      	cmp	r3, #4
 8002aa8:	d1ca      	bne.n	8002a40 <I2C_WaitOnBTFFlagUntilTimeout+0xe>
      }
    }
  }
  return HAL_OK;
 8002aaa:	2300      	movs	r3, #0
}
 8002aac:	4618      	mov	r0, r3
 8002aae:	3710      	adds	r7, #16
 8002ab0:	46bd      	mov	sp, r7
 8002ab2:	bd80      	pop	{r7, pc}

08002ab4 <I2C_WaitOnRXNEFlagUntilTimeout>:
  * @param  Timeout Timeout duration
  * @param  Tickstart Tick start value
  * @retval HAL status
  */
static HAL_StatusTypeDef I2C_WaitOnRXNEFlagUntilTimeout(I2C_HandleTypeDef *hi2c, uint32_t Timeout, uint32_t Tickstart)
{
 8002ab4:	b580      	push	{r7, lr}
 8002ab6:	b084      	sub	sp, #16
 8002ab8:	af00      	add	r7, sp, #0
 8002aba:	60f8      	str	r0, [r7, #12]
 8002abc:	60b9      	str	r1, [r7, #8]
 8002abe:	607a      	str	r2, [r7, #4]

  while (__HAL_I2C_GET_FLAG(hi2c, I2C_FLAG_RXNE) == RESET)
 8002ac0:	e042      	b.n	8002b48 <I2C_WaitOnRXNEFlagUntilTimeout+0x94>
  {
    /* Check if a STOPF is detected */
    if (__HAL_I2C_GET_FLAG(hi2c, I2C_FLAG_STOPF) == SET)
 8002ac2:	68fb      	ldr	r3, [r7, #12]
 8002ac4:	681b      	ldr	r3, [r3, #0]
 8002ac6:	695b      	ldr	r3, [r3, #20]
 8002ac8:	f003 0310 	and.w	r3, r3, #16
 8002acc:	2b10      	cmp	r3, #16
 8002ace:	d119      	bne.n	8002b04 <I2C_WaitOnRXNEFlagUntilTimeout+0x50>
    {
      /* Clear STOP Flag */
      __HAL_I2C_CLEAR_FLAG(hi2c, I2C_FLAG_STOPF);
 8002ad0:	68fb      	ldr	r3, [r7, #12]
 8002ad2:	681b      	ldr	r3, [r3, #0]
 8002ad4:	f06f 0210 	mvn.w	r2, #16
 8002ad8:	615a      	str	r2, [r3, #20]

      hi2c->PreviousState       = I2C_STATE_NONE;
 8002ada:	68fb      	ldr	r3, [r7, #12]
 8002adc:	2200      	movs	r2, #0
 8002ade:	631a      	str	r2, [r3, #48]	; 0x30
      hi2c->State               = HAL_I2C_STATE_READY;
 8002ae0:	68fb      	ldr	r3, [r7, #12]
 8002ae2:	2220      	movs	r2, #32
 8002ae4:	f883 203d 	strb.w	r2, [r3, #61]	; 0x3d
      hi2c->Mode                = HAL_I2C_MODE_NONE;
 8002ae8:	68fb      	ldr	r3, [r7, #12]
 8002aea:	2200      	movs	r2, #0
 8002aec:	f883 203e 	strb.w	r2, [r3, #62]	; 0x3e
      hi2c->ErrorCode           |= HAL_I2C_ERROR_NONE;
 8002af0:	68fb      	ldr	r3, [r7, #12]
 8002af2:	6c1a      	ldr	r2, [r3, #64]	; 0x40
 8002af4:	68fb      	ldr	r3, [r7, #12]
 8002af6:	641a      	str	r2, [r3, #64]	; 0x40

      /* Process Unlocked */
      __HAL_UNLOCK(hi2c);
 8002af8:	68fb      	ldr	r3, [r7, #12]
 8002afa:	2200      	movs	r2, #0
 8002afc:	f883 203c 	strb.w	r2, [r3, #60]	; 0x3c

      return HAL_ERROR;
 8002b00:	2301      	movs	r3, #1
 8002b02:	e029      	b.n	8002b58 <I2C_WaitOnRXNEFlagUntilTimeout+0xa4>
    }

    /* Check for the Timeout */
    if (((HAL_GetTick() - Tickstart) > Timeout) || (Timeout == 0U))
 8002b04:	f7fe fd56 	bl	80015b4 <HAL_GetTick>
 8002b08:	4602      	mov	r2, r0
 8002b0a:	687b      	ldr	r3, [r7, #4]
 8002b0c:	1ad3      	subs	r3, r2, r3
 8002b0e:	68ba      	ldr	r2, [r7, #8]
 8002b10:	429a      	cmp	r2, r3
 8002b12:	d302      	bcc.n	8002b1a <I2C_WaitOnRXNEFlagUntilTimeout+0x66>
 8002b14:	68bb      	ldr	r3, [r7, #8]
 8002b16:	2b00      	cmp	r3, #0
 8002b18:	d116      	bne.n	8002b48 <I2C_WaitOnRXNEFlagUntilTimeout+0x94>
    {
      hi2c->PreviousState       = I2C_STATE_NONE;
 8002b1a:	68fb      	ldr	r3, [r7, #12]
 8002b1c:	2200      	movs	r2, #0
 8002b1e:	631a      	str	r2, [r3, #48]	; 0x30
      hi2c->State               = HAL_I2C_STATE_READY;
 8002b20:	68fb      	ldr	r3, [r7, #12]
 8002b22:	2220      	movs	r2, #32
 8002b24:	f883 203d 	strb.w	r2, [r3, #61]	; 0x3d
      hi2c->Mode                = HAL_I2C_MODE_NONE;
 8002b28:	68fb      	ldr	r3, [r7, #12]
 8002b2a:	2200      	movs	r2, #0
 8002b2c:	f883 203e 	strb.w	r2, [r3, #62]	; 0x3e
      hi2c->ErrorCode           |= HAL_I2C_ERROR_TIMEOUT;
 8002b30:	68fb      	ldr	r3, [r7, #12]
 8002b32:	6c1b      	ldr	r3, [r3, #64]	; 0x40
 8002b34:	f043 0220 	orr.w	r2, r3, #32
 8002b38:	68fb      	ldr	r3, [r7, #12]
 8002b3a:	641a      	str	r2, [r3, #64]	; 0x40

      /* Process Unlocked */
      __HAL_UNLOCK(hi2c);
 8002b3c:	68fb      	ldr	r3, [r7, #12]
 8002b3e:	2200      	movs	r2, #0
 8002b40:	f883 203c 	strb.w	r2, [r3, #60]	; 0x3c

      return HAL_ERROR;
 8002b44:	2301      	movs	r3, #1
 8002b46:	e007      	b.n	8002b58 <I2C_WaitOnRXNEFlagUntilTimeout+0xa4>
  while (__HAL_I2C_GET_FLAG(hi2c, I2C_FLAG_RXNE) == RESET)
 8002b48:	68fb      	ldr	r3, [r7, #12]
 8002b4a:	681b      	ldr	r3, [r3, #0]
 8002b4c:	695b      	ldr	r3, [r3, #20]
 8002b4e:	f003 0340 	and.w	r3, r3, #64	; 0x40
 8002b52:	2b40      	cmp	r3, #64	; 0x40
 8002b54:	d1b5      	bne.n	8002ac2 <I2C_WaitOnRXNEFlagUntilTimeout+0xe>
    }
  }
  return HAL_OK;
 8002b56:	2300      	movs	r3, #0
}
 8002b58:	4618      	mov	r0, r3
 8002b5a:	3710      	adds	r7, #16
 8002b5c:	46bd      	mov	sp, r7
 8002b5e:	bd80      	pop	{r7, pc}

08002b60 <I2C_IsAcknowledgeFailed>:
  * @param  hi2c Pointer to a I2C_HandleTypeDef structure that contains
  *                the configuration information for the specified I2C.
  * @retval HAL status
  */
static HAL_StatusTypeDef I2C_IsAcknowledgeFailed(I2C_HandleTypeDef *hi2c)
{
 8002b60:	b480      	push	{r7}
 8002b62:	b083      	sub	sp, #12
 8002b64:	af00      	add	r7, sp, #0
 8002b66:	6078      	str	r0, [r7, #4]
  if (__HAL_I2C_GET_FLAG(hi2c, I2C_FLAG_AF) == SET)
 8002b68:	687b      	ldr	r3, [r7, #4]
 8002b6a:	681b      	ldr	r3, [r3, #0]
 8002b6c:	695b      	ldr	r3, [r3, #20]
 8002b6e:	f403 6380 	and.w	r3, r3, #1024	; 0x400
 8002b72:	f5b3 6f80 	cmp.w	r3, #1024	; 0x400
 8002b76:	d11b      	bne.n	8002bb0 <I2C_IsAcknowledgeFailed+0x50>
  {
    /* Clear NACKF Flag */
    __HAL_I2C_CLEAR_FLAG(hi2c, I2C_FLAG_AF);
 8002b78:	687b      	ldr	r3, [r7, #4]
 8002b7a:	681b      	ldr	r3, [r3, #0]
 8002b7c:	f46f 6280 	mvn.w	r2, #1024	; 0x400
 8002b80:	615a      	str	r2, [r3, #20]

    hi2c->PreviousState       = I2C_STATE_NONE;
 8002b82:	687b      	ldr	r3, [r7, #4]
 8002b84:	2200      	movs	r2, #0
 8002b86:	631a      	str	r2, [r3, #48]	; 0x30
    hi2c->State               = HAL_I2C_STATE_READY;
 8002b88:	687b      	ldr	r3, [r7, #4]
 8002b8a:	2220      	movs	r2, #32
 8002b8c:	f883 203d 	strb.w	r2, [r3, #61]	; 0x3d
    hi2c->Mode                = HAL_I2C_MODE_NONE;
 8002b90:	687b      	ldr	r3, [r7, #4]
 8002b92:	2200      	movs	r2, #0
 8002b94:	f883 203e 	strb.w	r2, [r3, #62]	; 0x3e
    hi2c->ErrorCode           |= HAL_I2C_ERROR_AF;
 8002b98:	687b      	ldr	r3, [r7, #4]
 8002b9a:	6c1b      	ldr	r3, [r3, #64]	; 0x40
 8002b9c:	f043 0204 	orr.w	r2, r3, #4
 8002ba0:	687b      	ldr	r3, [r7, #4]
 8002ba2:	641a      	str	r2, [r3, #64]	; 0x40

    /* Process Unlocked */
    __HAL_UNLOCK(hi2c);
 8002ba4:	687b      	ldr	r3, [r7, #4]
 8002ba6:	2200      	movs	r2, #0
 8002ba8:	f883 203c 	strb.w	r2, [r3, #60]	; 0x3c

    return HAL_ERROR;
 8002bac:	2301      	movs	r3, #1
 8002bae:	e000      	b.n	8002bb2 <I2C_IsAcknowledgeFailed+0x52>
  }
  return HAL_OK;
 8002bb0:	2300      	movs	r3, #0
}
 8002bb2:	4618      	mov	r0, r3
 8002bb4:	370c      	adds	r7, #12
 8002bb6:	46bd      	mov	sp, r7
 8002bb8:	bc80      	pop	{r7}
 8002bba:	4770      	bx	lr

08002bbc <HAL_RCC_OscConfig>:
  *         supported by this macro. User should request a transition to HSE Off
  *         first and then HSE On or HSE Bypass.
  * @retval HAL status
  */
HAL_StatusTypeDef HAL_RCC_OscConfig(RCC_OscInitTypeDef  *RCC_OscInitStruct)
{
 8002bbc:	b580      	push	{r7, lr}
 8002bbe:	b086      	sub	sp, #24
 8002bc0:	af00      	add	r7, sp, #0
 8002bc2:	6078      	str	r0, [r7, #4]
  uint32_t tickstart;
  uint32_t pll_config;

  /* Check Null pointer */
  if (RCC_OscInitStruct == NULL)
 8002bc4:	687b      	ldr	r3, [r7, #4]
 8002bc6:	2b00      	cmp	r3, #0
 8002bc8:	d101      	bne.n	8002bce <HAL_RCC_OscConfig+0x12>
  {
    return HAL_ERROR;
 8002bca:	2301      	movs	r3, #1
 8002bcc:	e272      	b.n	80030b4 <HAL_RCC_OscConfig+0x4f8>

  /* Check the parameters */
  assert_param(IS_RCC_OSCILLATORTYPE(RCC_OscInitStruct->OscillatorType));

  /*------------------------------- HSE Configuration ------------------------*/
  if (((RCC_OscInitStruct->OscillatorType) & RCC_OSCILLATORTYPE_HSE) == RCC_OSCILLATORTYPE_HSE)
 8002bce:	687b      	ldr	r3, [r7, #4]
 8002bd0:	681b      	ldr	r3, [r3, #0]
 8002bd2:	f003 0301 	and.w	r3, r3, #1
 8002bd6:	2b00      	cmp	r3, #0
 8002bd8:	f000 8087 	beq.w	8002cea <HAL_RCC_OscConfig+0x12e>
  {
    /* Check the parameters */
    assert_param(IS_RCC_HSE(RCC_OscInitStruct->HSEState));

    /* When the HSE is used as system clock or clock source for PLL in these cases it is not allowed to be disabled */
    if ((__HAL_RCC_GET_SYSCLK_SOURCE() == RCC_SYSCLKSOURCE_STATUS_HSE)
 8002bdc:	4b92      	ldr	r3, [pc, #584]	; (8002e28 <HAL_RCC_OscConfig+0x26c>)
 8002bde:	685b      	ldr	r3, [r3, #4]
 8002be0:	f003 030c 	and.w	r3, r3, #12
 8002be4:	2b04      	cmp	r3, #4
 8002be6:	d00c      	beq.n	8002c02 <HAL_RCC_OscConfig+0x46>
        || ((__HAL_RCC_GET_SYSCLK_SOURCE() == RCC_SYSCLKSOURCE_STATUS_PLLCLK) && (__HAL_RCC_GET_PLL_OSCSOURCE() == RCC_PLLSOURCE_HSE)))
 8002be8:	4b8f      	ldr	r3, [pc, #572]	; (8002e28 <HAL_RCC_OscConfig+0x26c>)
 8002bea:	685b      	ldr	r3, [r3, #4]
 8002bec:	f003 030c 	and.w	r3, r3, #12
 8002bf0:	2b08      	cmp	r3, #8
 8002bf2:	d112      	bne.n	8002c1a <HAL_RCC_OscConfig+0x5e>
 8002bf4:	4b8c      	ldr	r3, [pc, #560]	; (8002e28 <HAL_RCC_OscConfig+0x26c>)
 8002bf6:	685b      	ldr	r3, [r3, #4]
 8002bf8:	f403 3380 	and.w	r3, r3, #65536	; 0x10000
 8002bfc:	f5b3 3f80 	cmp.w	r3, #65536	; 0x10000
 8002c00:	d10b      	bne.n	8002c1a <HAL_RCC_OscConfig+0x5e>
    {
      if ((__HAL_RCC_GET_FLAG(RCC_FLAG_HSERDY) != RESET) && (RCC_OscInitStruct->HSEState == RCC_HSE_OFF))
 8002c02:	4b89      	ldr	r3, [pc, #548]	; (8002e28 <HAL_RCC_OscConfig+0x26c>)
 8002c04:	681b      	ldr	r3, [r3, #0]
 8002c06:	f403 3300 	and.w	r3, r3, #131072	; 0x20000
 8002c0a:	2b00      	cmp	r3, #0
 8002c0c:	d06c      	beq.n	8002ce8 <HAL_RCC_OscConfig+0x12c>
 8002c0e:	687b      	ldr	r3, [r7, #4]
 8002c10:	685b      	ldr	r3, [r3, #4]
 8002c12:	2b00      	cmp	r3, #0
 8002c14:	d168      	bne.n	8002ce8 <HAL_RCC_OscConfig+0x12c>
      {
        return HAL_ERROR;
 8002c16:	2301      	movs	r3, #1
 8002c18:	e24c      	b.n	80030b4 <HAL_RCC_OscConfig+0x4f8>
      }
    }
    else
    {
      /* Set the new HSE configuration ---------------------------------------*/
      __HAL_RCC_HSE_CONFIG(RCC_OscInitStruct->HSEState);
 8002c1a:	687b      	ldr	r3, [r7, #4]
 8002c1c:	685b      	ldr	r3, [r3, #4]
 8002c1e:	f5b3 3f80 	cmp.w	r3, #65536	; 0x10000
 8002c22:	d106      	bne.n	8002c32 <HAL_RCC_OscConfig+0x76>
 8002c24:	4b80      	ldr	r3, [pc, #512]	; (8002e28 <HAL_RCC_OscConfig+0x26c>)
 8002c26:	681b      	ldr	r3, [r3, #0]
 8002c28:	4a7f      	ldr	r2, [pc, #508]	; (8002e28 <HAL_RCC_OscConfig+0x26c>)
 8002c2a:	f443 3380 	orr.w	r3, r3, #65536	; 0x10000
 8002c2e:	6013      	str	r3, [r2, #0]
 8002c30:	e02e      	b.n	8002c90 <HAL_RCC_OscConfig+0xd4>
 8002c32:	687b      	ldr	r3, [r7, #4]
 8002c34:	685b      	ldr	r3, [r3, #4]
 8002c36:	2b00      	cmp	r3, #0
 8002c38:	d10c      	bne.n	8002c54 <HAL_RCC_OscConfig+0x98>
 8002c3a:	4b7b      	ldr	r3, [pc, #492]	; (8002e28 <HAL_RCC_OscConfig+0x26c>)
 8002c3c:	681b      	ldr	r3, [r3, #0]
 8002c3e:	4a7a      	ldr	r2, [pc, #488]	; (8002e28 <HAL_RCC_OscConfig+0x26c>)
 8002c40:	f423 3380 	bic.w	r3, r3, #65536	; 0x10000
 8002c44:	6013      	str	r3, [r2, #0]
 8002c46:	4b78      	ldr	r3, [pc, #480]	; (8002e28 <HAL_RCC_OscConfig+0x26c>)
 8002c48:	681b      	ldr	r3, [r3, #0]
 8002c4a:	4a77      	ldr	r2, [pc, #476]	; (8002e28 <HAL_RCC_OscConfig+0x26c>)
 8002c4c:	f423 2380 	bic.w	r3, r3, #262144	; 0x40000
 8002c50:	6013      	str	r3, [r2, #0]
 8002c52:	e01d      	b.n	8002c90 <HAL_RCC_OscConfig+0xd4>
 8002c54:	687b      	ldr	r3, [r7, #4]
 8002c56:	685b      	ldr	r3, [r3, #4]
 8002c58:	f5b3 2fa0 	cmp.w	r3, #327680	; 0x50000
 8002c5c:	d10c      	bne.n	8002c78 <HAL_RCC_OscConfig+0xbc>
 8002c5e:	4b72      	ldr	r3, [pc, #456]	; (8002e28 <HAL_RCC_OscConfig+0x26c>)
 8002c60:	681b      	ldr	r3, [r3, #0]
 8002c62:	4a71      	ldr	r2, [pc, #452]	; (8002e28 <HAL_RCC_OscConfig+0x26c>)
 8002c64:	f443 2380 	orr.w	r3, r3, #262144	; 0x40000
 8002c68:	6013      	str	r3, [r2, #0]
 8002c6a:	4b6f      	ldr	r3, [pc, #444]	; (8002e28 <HAL_RCC_OscConfig+0x26c>)
 8002c6c:	681b      	ldr	r3, [r3, #0]
 8002c6e:	4a6e      	ldr	r2, [pc, #440]	; (8002e28 <HAL_RCC_OscConfig+0x26c>)
 8002c70:	f443 3380 	orr.w	r3, r3, #65536	; 0x10000
 8002c74:	6013      	str	r3, [r2, #0]
 8002c76:	e00b      	b.n	8002c90 <HAL_RCC_OscConfig+0xd4>
 8002c78:	4b6b      	ldr	r3, [pc, #428]	; (8002e28 <HAL_RCC_OscConfig+0x26c>)
 8002c7a:	681b      	ldr	r3, [r3, #0]
 8002c7c:	4a6a      	ldr	r2, [pc, #424]	; (8002e28 <HAL_RCC_OscConfig+0x26c>)
 8002c7e:	f423 3380 	bic.w	r3, r3, #65536	; 0x10000
 8002c82:	6013      	str	r3, [r2, #0]
 8002c84:	4b68      	ldr	r3, [pc, #416]	; (8002e28 <HAL_RCC_OscConfig+0x26c>)
 8002c86:	681b      	ldr	r3, [r3, #0]
 8002c88:	4a67      	ldr	r2, [pc, #412]	; (8002e28 <HAL_RCC_OscConfig+0x26c>)
 8002c8a:	f423 2380 	bic.w	r3, r3, #262144	; 0x40000
 8002c8e:	6013      	str	r3, [r2, #0]


      /* Check the HSE State */
      if (RCC_OscInitStruct->HSEState != RCC_HSE_OFF)
 8002c90:	687b      	ldr	r3, [r7, #4]
 8002c92:	685b      	ldr	r3, [r3, #4]
 8002c94:	2b00      	cmp	r3, #0
 8002c96:	d013      	beq.n	8002cc0 <HAL_RCC_OscConfig+0x104>
      {
        /* Get Start Tick */
        tickstart = HAL_GetTick();
 8002c98:	f7fe fc8c 	bl	80015b4 <HAL_GetTick>
 8002c9c:	6138      	str	r0, [r7, #16]

        /* Wait till HSE is ready */
        while (__HAL_RCC_GET_FLAG(RCC_FLAG_HSERDY) == RESET)
 8002c9e:	e008      	b.n	8002cb2 <HAL_RCC_OscConfig+0xf6>
        {
          if ((HAL_GetTick() - tickstart) > HSE_TIMEOUT_VALUE)
 8002ca0:	f7fe fc88 	bl	80015b4 <HAL_GetTick>
 8002ca4:	4602      	mov	r2, r0
 8002ca6:	693b      	ldr	r3, [r7, #16]
 8002ca8:	1ad3      	subs	r3, r2, r3
 8002caa:	2b64      	cmp	r3, #100	; 0x64
 8002cac:	d901      	bls.n	8002cb2 <HAL_RCC_OscConfig+0xf6>
          {
            return HAL_TIMEOUT;
 8002cae:	2303      	movs	r3, #3
 8002cb0:	e200      	b.n	80030b4 <HAL_RCC_OscConfig+0x4f8>
        while (__HAL_RCC_GET_FLAG(RCC_FLAG_HSERDY) == RESET)
 8002cb2:	4b5d      	ldr	r3, [pc, #372]	; (8002e28 <HAL_RCC_OscConfig+0x26c>)
 8002cb4:	681b      	ldr	r3, [r3, #0]
 8002cb6:	f403 3300 	and.w	r3, r3, #131072	; 0x20000
 8002cba:	2b00      	cmp	r3, #0
 8002cbc:	d0f0      	beq.n	8002ca0 <HAL_RCC_OscConfig+0xe4>
 8002cbe:	e014      	b.n	8002cea <HAL_RCC_OscConfig+0x12e>
        }
      }
      else
      {
        /* Get Start Tick */
        tickstart = HAL_GetTick();
 8002cc0:	f7fe fc78 	bl	80015b4 <HAL_GetTick>
 8002cc4:	6138      	str	r0, [r7, #16]

        /* Wait till HSE is disabled */
        while (__HAL_RCC_GET_FLAG(RCC_FLAG_HSERDY) != RESET)
 8002cc6:	e008      	b.n	8002cda <HAL_RCC_OscConfig+0x11e>
        {
          if ((HAL_GetTick() - tickstart) > HSE_TIMEOUT_VALUE)
 8002cc8:	f7fe fc74 	bl	80015b4 <HAL_GetTick>
 8002ccc:	4602      	mov	r2, r0
 8002cce:	693b      	ldr	r3, [r7, #16]
 8002cd0:	1ad3      	subs	r3, r2, r3
 8002cd2:	2b64      	cmp	r3, #100	; 0x64
 8002cd4:	d901      	bls.n	8002cda <HAL_RCC_OscConfig+0x11e>
          {
            return HAL_TIMEOUT;
 8002cd6:	2303      	movs	r3, #3
 8002cd8:	e1ec      	b.n	80030b4 <HAL_RCC_OscConfig+0x4f8>
        while (__HAL_RCC_GET_FLAG(RCC_FLAG_HSERDY) != RESET)
 8002cda:	4b53      	ldr	r3, [pc, #332]	; (8002e28 <HAL_RCC_OscConfig+0x26c>)
 8002cdc:	681b      	ldr	r3, [r3, #0]
 8002cde:	f403 3300 	and.w	r3, r3, #131072	; 0x20000
 8002ce2:	2b00      	cmp	r3, #0
 8002ce4:	d1f0      	bne.n	8002cc8 <HAL_RCC_OscConfig+0x10c>
 8002ce6:	e000      	b.n	8002cea <HAL_RCC_OscConfig+0x12e>
      if ((__HAL_RCC_GET_FLAG(RCC_FLAG_HSERDY) != RESET) && (RCC_OscInitStruct->HSEState == RCC_HSE_OFF))
 8002ce8:	bf00      	nop
        }
      }
    }
  }
  /*----------------------------- HSI Configuration --------------------------*/
  if (((RCC_OscInitStruct->OscillatorType) & RCC_OSCILLATORTYPE_HSI) == RCC_OSCILLATORTYPE_HSI)
 8002cea:	687b      	ldr	r3, [r7, #4]
 8002cec:	681b      	ldr	r3, [r3, #0]
 8002cee:	f003 0302 	and.w	r3, r3, #2
 8002cf2:	2b00      	cmp	r3, #0
 8002cf4:	d063      	beq.n	8002dbe <HAL_RCC_OscConfig+0x202>
    /* Check the parameters */
    assert_param(IS_RCC_HSI(RCC_OscInitStruct->HSIState));
    assert_param(IS_RCC_CALIBRATION_VALUE(RCC_OscInitStruct->HSICalibrationValue));

    /* Check if HSI is used as system clock or as PLL source when PLL is selected as system clock */
    if ((__HAL_RCC_GET_SYSCLK_SOURCE() == RCC_SYSCLKSOURCE_STATUS_HSI)
 8002cf6:	4b4c      	ldr	r3, [pc, #304]	; (8002e28 <HAL_RCC_OscConfig+0x26c>)
 8002cf8:	685b      	ldr	r3, [r3, #4]
 8002cfa:	f003 030c 	and.w	r3, r3, #12
 8002cfe:	2b00      	cmp	r3, #0
 8002d00:	d00b      	beq.n	8002d1a <HAL_RCC_OscConfig+0x15e>
        || ((__HAL_RCC_GET_SYSCLK_SOURCE() == RCC_SYSCLKSOURCE_STATUS_PLLCLK) && (__HAL_RCC_GET_PLL_OSCSOURCE() == RCC_PLLSOURCE_HSI_DIV2)))
 8002d02:	4b49      	ldr	r3, [pc, #292]	; (8002e28 <HAL_RCC_OscConfig+0x26c>)
 8002d04:	685b      	ldr	r3, [r3, #4]
 8002d06:	f003 030c 	and.w	r3, r3, #12
 8002d0a:	2b08      	cmp	r3, #8
 8002d0c:	d11c      	bne.n	8002d48 <HAL_RCC_OscConfig+0x18c>
 8002d0e:	4b46      	ldr	r3, [pc, #280]	; (8002e28 <HAL_RCC_OscConfig+0x26c>)
 8002d10:	685b      	ldr	r3, [r3, #4]
 8002d12:	f403 3380 	and.w	r3, r3, #65536	; 0x10000
 8002d16:	2b00      	cmp	r3, #0
 8002d18:	d116      	bne.n	8002d48 <HAL_RCC_OscConfig+0x18c>
    {
      /* When HSI is used as system clock it will not disabled */
      if ((__HAL_RCC_GET_FLAG(RCC_FLAG_HSIRDY) != RESET) && (RCC_OscInitStruct->HSIState != RCC_HSI_ON))
 8002d1a:	4b43      	ldr	r3, [pc, #268]	; (8002e28 <HAL_RCC_OscConfig+0x26c>)
 8002d1c:	681b      	ldr	r3, [r3, #0]
 8002d1e:	f003 0302 	and.w	r3, r3, #2
 8002d22:	2b00      	cmp	r3, #0
 8002d24:	d005      	beq.n	8002d32 <HAL_RCC_OscConfig+0x176>
 8002d26:	687b      	ldr	r3, [r7, #4]
 8002d28:	691b      	ldr	r3, [r3, #16]
 8002d2a:	2b01      	cmp	r3, #1
 8002d2c:	d001      	beq.n	8002d32 <HAL_RCC_OscConfig+0x176>
      {
        return HAL_ERROR;
 8002d2e:	2301      	movs	r3, #1
 8002d30:	e1c0      	b.n	80030b4 <HAL_RCC_OscConfig+0x4f8>
      }
      /* Otherwise, just the calibration is allowed */
      else
      {
        /* Adjusts the Internal High Speed oscillator (HSI) calibration value.*/
        __HAL_RCC_HSI_CALIBRATIONVALUE_ADJUST(RCC_OscInitStruct->HSICalibrationValue);
 8002d32:	4b3d      	ldr	r3, [pc, #244]	; (8002e28 <HAL_RCC_OscConfig+0x26c>)
 8002d34:	681b      	ldr	r3, [r3, #0]
 8002d36:	f023 02f8 	bic.w	r2, r3, #248	; 0xf8
 8002d3a:	687b      	ldr	r3, [r7, #4]
 8002d3c:	695b      	ldr	r3, [r3, #20]
 8002d3e:	00db      	lsls	r3, r3, #3
 8002d40:	4939      	ldr	r1, [pc, #228]	; (8002e28 <HAL_RCC_OscConfig+0x26c>)
 8002d42:	4313      	orrs	r3, r2
 8002d44:	600b      	str	r3, [r1, #0]
      if ((__HAL_RCC_GET_FLAG(RCC_FLAG_HSIRDY) != RESET) && (RCC_OscInitStruct->HSIState != RCC_HSI_ON))
 8002d46:	e03a      	b.n	8002dbe <HAL_RCC_OscConfig+0x202>
      }
    }
    else
    {
      /* Check the HSI State */
      if (RCC_OscInitStruct->HSIState != RCC_HSI_OFF)
 8002d48:	687b      	ldr	r3, [r7, #4]
 8002d4a:	691b      	ldr	r3, [r3, #16]
 8002d4c:	2b00      	cmp	r3, #0
 8002d4e:	d020      	beq.n	8002d92 <HAL_RCC_OscConfig+0x1d6>
      {
        /* Enable the Internal High Speed oscillator (HSI). */
        __HAL_RCC_HSI_ENABLE();
 8002d50:	4b36      	ldr	r3, [pc, #216]	; (8002e2c <HAL_RCC_OscConfig+0x270>)
 8002d52:	2201      	movs	r2, #1
 8002d54:	601a      	str	r2, [r3, #0]

        /* Get Start Tick */
        tickstart = HAL_GetTick();
 8002d56:	f7fe fc2d 	bl	80015b4 <HAL_GetTick>
 8002d5a:	6138      	str	r0, [r7, #16]

        /* Wait till HSI is ready */
        while (__HAL_RCC_GET_FLAG(RCC_FLAG_HSIRDY) == RESET)
 8002d5c:	e008      	b.n	8002d70 <HAL_RCC_OscConfig+0x1b4>
        {
          if ((HAL_GetTick() - tickstart) > HSI_TIMEOUT_VALUE)
 8002d5e:	f7fe fc29 	bl	80015b4 <HAL_GetTick>
 8002d62:	4602      	mov	r2, r0
 8002d64:	693b      	ldr	r3, [r7, #16]
 8002d66:	1ad3      	subs	r3, r2, r3
 8002d68:	2b02      	cmp	r3, #2
 8002d6a:	d901      	bls.n	8002d70 <HAL_RCC_OscConfig+0x1b4>
          {
            return HAL_TIMEOUT;
 8002d6c:	2303      	movs	r3, #3
 8002d6e:	e1a1      	b.n	80030b4 <HAL_RCC_OscConfig+0x4f8>
        while (__HAL_RCC_GET_FLAG(RCC_FLAG_HSIRDY) == RESET)
 8002d70:	4b2d      	ldr	r3, [pc, #180]	; (8002e28 <HAL_RCC_OscConfig+0x26c>)
 8002d72:	681b      	ldr	r3, [r3, #0]
 8002d74:	f003 0302 	and.w	r3, r3, #2
 8002d78:	2b00      	cmp	r3, #0
 8002d7a:	d0f0      	beq.n	8002d5e <HAL_RCC_OscConfig+0x1a2>
          }
        }

        /* Adjusts the Internal High Speed oscillator (HSI) calibration value.*/
        __HAL_RCC_HSI_CALIBRATIONVALUE_ADJUST(RCC_OscInitStruct->HSICalibrationValue);
 8002d7c:	4b2a      	ldr	r3, [pc, #168]	; (8002e28 <HAL_RCC_OscConfig+0x26c>)
 8002d7e:	681b      	ldr	r3, [r3, #0]
 8002d80:	f023 02f8 	bic.w	r2, r3, #248	; 0xf8
 8002d84:	687b      	ldr	r3, [r7, #4]
 8002d86:	695b      	ldr	r3, [r3, #20]
 8002d88:	00db      	lsls	r3, r3, #3
 8002d8a:	4927      	ldr	r1, [pc, #156]	; (8002e28 <HAL_RCC_OscConfig+0x26c>)
 8002d8c:	4313      	orrs	r3, r2
 8002d8e:	600b      	str	r3, [r1, #0]
 8002d90:	e015      	b.n	8002dbe <HAL_RCC_OscConfig+0x202>
      }
      else
      {
        /* Disable the Internal High Speed oscillator (HSI). */
        __HAL_RCC_HSI_DISABLE();
 8002d92:	4b26      	ldr	r3, [pc, #152]	; (8002e2c <HAL_RCC_OscConfig+0x270>)
 8002d94:	2200      	movs	r2, #0
 8002d96:	601a      	str	r2, [r3, #0]

        /* Get Start Tick */
        tickstart = HAL_GetTick();
 8002d98:	f7fe fc0c 	bl	80015b4 <HAL_GetTick>
 8002d9c:	6138      	str	r0, [r7, #16]

        /* Wait till HSI is disabled */
        while (__HAL_RCC_GET_FLAG(RCC_FLAG_HSIRDY) != RESET)
 8002d9e:	e008      	b.n	8002db2 <HAL_RCC_OscConfig+0x1f6>
        {
          if ((HAL_GetTick() - tickstart) > HSI_TIMEOUT_VALUE)
 8002da0:	f7fe fc08 	bl	80015b4 <HAL_GetTick>
 8002da4:	4602      	mov	r2, r0
 8002da6:	693b      	ldr	r3, [r7, #16]
 8002da8:	1ad3      	subs	r3, r2, r3
 8002daa:	2b02      	cmp	r3, #2
 8002dac:	d901      	bls.n	8002db2 <HAL_RCC_OscConfig+0x1f6>
          {
            return HAL_TIMEOUT;
 8002dae:	2303      	movs	r3, #3
 8002db0:	e180      	b.n	80030b4 <HAL_RCC_OscConfig+0x4f8>
        while (__HAL_RCC_GET_FLAG(RCC_FLAG_HSIRDY) != RESET)
 8002db2:	4b1d      	ldr	r3, [pc, #116]	; (8002e28 <HAL_RCC_OscConfig+0x26c>)
 8002db4:	681b      	ldr	r3, [r3, #0]
 8002db6:	f003 0302 	and.w	r3, r3, #2
 8002dba:	2b00      	cmp	r3, #0
 8002dbc:	d1f0      	bne.n	8002da0 <HAL_RCC_OscConfig+0x1e4>
        }
      }
    }
  }
  /*------------------------------ LSI Configuration -------------------------*/
  if (((RCC_OscInitStruct->OscillatorType) & RCC_OSCILLATORTYPE_LSI) == RCC_OSCILLATORTYPE_LSI)
 8002dbe:	687b      	ldr	r3, [r7, #4]
 8002dc0:	681b      	ldr	r3, [r3, #0]
 8002dc2:	f003 0308 	and.w	r3, r3, #8
 8002dc6:	2b00      	cmp	r3, #0
 8002dc8:	d03a      	beq.n	8002e40 <HAL_RCC_OscConfig+0x284>
  {
    /* Check the parameters */
    assert_param(IS_RCC_LSI(RCC_OscInitStruct->LSIState));

    /* Check the LSI State */
    if (RCC_OscInitStruct->LSIState != RCC_LSI_OFF)
 8002dca:	687b      	ldr	r3, [r7, #4]
 8002dcc:	699b      	ldr	r3, [r3, #24]
 8002dce:	2b00      	cmp	r3, #0
 8002dd0:	d019      	beq.n	8002e06 <HAL_RCC_OscConfig+0x24a>
    {
      /* Enable the Internal Low Speed oscillator (LSI). */
      __HAL_RCC_LSI_ENABLE();
 8002dd2:	4b17      	ldr	r3, [pc, #92]	; (8002e30 <HAL_RCC_OscConfig+0x274>)
 8002dd4:	2201      	movs	r2, #1
 8002dd6:	601a      	str	r2, [r3, #0]

      /* Get Start Tick */
      tickstart = HAL_GetTick();
 8002dd8:	f7fe fbec 	bl	80015b4 <HAL_GetTick>
 8002ddc:	6138      	str	r0, [r7, #16]

      /* Wait till LSI is ready */
      while (__HAL_RCC_GET_FLAG(RCC_FLAG_LSIRDY) == RESET)
 8002dde:	e008      	b.n	8002df2 <HAL_RCC_OscConfig+0x236>
      {
        if ((HAL_GetTick() - tickstart) > LSI_TIMEOUT_VALUE)
 8002de0:	f7fe fbe8 	bl	80015b4 <HAL_GetTick>
 8002de4:	4602      	mov	r2, r0
 8002de6:	693b      	ldr	r3, [r7, #16]
 8002de8:	1ad3      	subs	r3, r2, r3
 8002dea:	2b02      	cmp	r3, #2
 8002dec:	d901      	bls.n	8002df2 <HAL_RCC_OscConfig+0x236>
        {
          return HAL_TIMEOUT;
 8002dee:	2303      	movs	r3, #3
 8002df0:	e160      	b.n	80030b4 <HAL_RCC_OscConfig+0x4f8>
      while (__HAL_RCC_GET_FLAG(RCC_FLAG_LSIRDY) == RESET)
 8002df2:	4b0d      	ldr	r3, [pc, #52]	; (8002e28 <HAL_RCC_OscConfig+0x26c>)
 8002df4:	6a5b      	ldr	r3, [r3, #36]	; 0x24
 8002df6:	f003 0302 	and.w	r3, r3, #2
 8002dfa:	2b00      	cmp	r3, #0
 8002dfc:	d0f0      	beq.n	8002de0 <HAL_RCC_OscConfig+0x224>
        }
      }
      /*  To have a fully stabilized clock in the specified range, a software delay of 1ms
          should be added.*/
      RCC_Delay(1);
 8002dfe:	2001      	movs	r0, #1
 8002e00:	f000 fad8 	bl	80033b4 <RCC_Delay>
 8002e04:	e01c      	b.n	8002e40 <HAL_RCC_OscConfig+0x284>
    }
    else
    {
      /* Disable the Internal Low Speed oscillator (LSI). */
      __HAL_RCC_LSI_DISABLE();
 8002e06:	4b0a      	ldr	r3, [pc, #40]	; (8002e30 <HAL_RCC_OscConfig+0x274>)
 8002e08:	2200      	movs	r2, #0
 8002e0a:	601a      	str	r2, [r3, #0]

      /* Get Start Tick */
      tickstart = HAL_GetTick();
 8002e0c:	f7fe fbd2 	bl	80015b4 <HAL_GetTick>
 8002e10:	6138      	str	r0, [r7, #16]

      /* Wait till LSI is disabled */
      while (__HAL_RCC_GET_FLAG(RCC_FLAG_LSIRDY) != RESET)
 8002e12:	e00f      	b.n	8002e34 <HAL_RCC_OscConfig+0x278>
      {
        if ((HAL_GetTick() - tickstart) > LSI_TIMEOUT_VALUE)
 8002e14:	f7fe fbce 	bl	80015b4 <HAL_GetTick>
 8002e18:	4602      	mov	r2, r0
 8002e1a:	693b      	ldr	r3, [r7, #16]
 8002e1c:	1ad3      	subs	r3, r2, r3
 8002e1e:	2b02      	cmp	r3, #2
 8002e20:	d908      	bls.n	8002e34 <HAL_RCC_OscConfig+0x278>
        {
          return HAL_TIMEOUT;
 8002e22:	2303      	movs	r3, #3
 8002e24:	e146      	b.n	80030b4 <HAL_RCC_OscConfig+0x4f8>
 8002e26:	bf00      	nop
 8002e28:	40021000 	.word	0x40021000
 8002e2c:	42420000 	.word	0x42420000
 8002e30:	42420480 	.word	0x42420480
      while (__HAL_RCC_GET_FLAG(RCC_FLAG_LSIRDY) != RESET)
 8002e34:	4b92      	ldr	r3, [pc, #584]	; (8003080 <HAL_RCC_OscConfig+0x4c4>)
 8002e36:	6a5b      	ldr	r3, [r3, #36]	; 0x24
 8002e38:	f003 0302 	and.w	r3, r3, #2
 8002e3c:	2b00      	cmp	r3, #0
 8002e3e:	d1e9      	bne.n	8002e14 <HAL_RCC_OscConfig+0x258>
        }
      }
    }
  }
  /*------------------------------ LSE Configuration -------------------------*/
  if (((RCC_OscInitStruct->OscillatorType) & RCC_OSCILLATORTYPE_LSE) == RCC_OSCILLATORTYPE_LSE)
 8002e40:	687b      	ldr	r3, [r7, #4]
 8002e42:	681b      	ldr	r3, [r3, #0]
 8002e44:	f003 0304 	and.w	r3, r3, #4
 8002e48:	2b00      	cmp	r3, #0
 8002e4a:	f000 80a6 	beq.w	8002f9a <HAL_RCC_OscConfig+0x3de>
  {
    FlagStatus       pwrclkchanged = RESET;
 8002e4e:	2300      	movs	r3, #0
 8002e50:	75fb      	strb	r3, [r7, #23]
    /* Check the parameters */
    assert_param(IS_RCC_LSE(RCC_OscInitStruct->LSEState));

    /* Update LSE configuration in Backup Domain control register    */
    /* Requires to enable write access to Backup Domain of necessary */
    if (__HAL_RCC_PWR_IS_CLK_DISABLED())
 8002e52:	4b8b      	ldr	r3, [pc, #556]	; (8003080 <HAL_RCC_OscConfig+0x4c4>)
 8002e54:	69db      	ldr	r3, [r3, #28]
 8002e56:	f003 5380 	and.w	r3, r3, #268435456	; 0x10000000
 8002e5a:	2b00      	cmp	r3, #0
 8002e5c:	d10d      	bne.n	8002e7a <HAL_RCC_OscConfig+0x2be>
    {
      __HAL_RCC_PWR_CLK_ENABLE();
 8002e5e:	4b88      	ldr	r3, [pc, #544]	; (8003080 <HAL_RCC_OscConfig+0x4c4>)
 8002e60:	69db      	ldr	r3, [r3, #28]
 8002e62:	4a87      	ldr	r2, [pc, #540]	; (8003080 <HAL_RCC_OscConfig+0x4c4>)
 8002e64:	f043 5380 	orr.w	r3, r3, #268435456	; 0x10000000
 8002e68:	61d3      	str	r3, [r2, #28]
 8002e6a:	4b85      	ldr	r3, [pc, #532]	; (8003080 <HAL_RCC_OscConfig+0x4c4>)
 8002e6c:	69db      	ldr	r3, [r3, #28]
 8002e6e:	f003 5380 	and.w	r3, r3, #268435456	; 0x10000000
 8002e72:	60bb      	str	r3, [r7, #8]
 8002e74:	68bb      	ldr	r3, [r7, #8]
      pwrclkchanged = SET;
 8002e76:	2301      	movs	r3, #1
 8002e78:	75fb      	strb	r3, [r7, #23]
    }

    if (HAL_IS_BIT_CLR(PWR->CR, PWR_CR_DBP))
 8002e7a:	4b82      	ldr	r3, [pc, #520]	; (8003084 <HAL_RCC_OscConfig+0x4c8>)
 8002e7c:	681b      	ldr	r3, [r3, #0]
 8002e7e:	f403 7380 	and.w	r3, r3, #256	; 0x100
 8002e82:	2b00      	cmp	r3, #0
 8002e84:	d118      	bne.n	8002eb8 <HAL_RCC_OscConfig+0x2fc>
    {
      /* Enable write access to Backup domain */
      SET_BIT(PWR->CR, PWR_CR_DBP);
 8002e86:	4b7f      	ldr	r3, [pc, #508]	; (8003084 <HAL_RCC_OscConfig+0x4c8>)
 8002e88:	681b      	ldr	r3, [r3, #0]
 8002e8a:	4a7e      	ldr	r2, [pc, #504]	; (8003084 <HAL_RCC_OscConfig+0x4c8>)
 8002e8c:	f443 7380 	orr.w	r3, r3, #256	; 0x100
 8002e90:	6013      	str	r3, [r2, #0]

      /* Wait for Backup domain Write protection disable */
      tickstart = HAL_GetTick();
 8002e92:	f7fe fb8f 	bl	80015b4 <HAL_GetTick>
 8002e96:	6138      	str	r0, [r7, #16]

      while (HAL_IS_BIT_CLR(PWR->CR, PWR_CR_DBP))
 8002e98:	e008      	b.n	8002eac <HAL_RCC_OscConfig+0x2f0>
      {
        if ((HAL_GetTick() - tickstart) > RCC_DBP_TIMEOUT_VALUE)
 8002e9a:	f7fe fb8b 	bl	80015b4 <HAL_GetTick>
 8002e9e:	4602      	mov	r2, r0
 8002ea0:	693b      	ldr	r3, [r7, #16]
 8002ea2:	1ad3      	subs	r3, r2, r3
 8002ea4:	2b64      	cmp	r3, #100	; 0x64
 8002ea6:	d901      	bls.n	8002eac <HAL_RCC_OscConfig+0x2f0>
        {
          return HAL_TIMEOUT;
 8002ea8:	2303      	movs	r3, #3
 8002eaa:	e103      	b.n	80030b4 <HAL_RCC_OscConfig+0x4f8>
      while (HAL_IS_BIT_CLR(PWR->CR, PWR_CR_DBP))
 8002eac:	4b75      	ldr	r3, [pc, #468]	; (8003084 <HAL_RCC_OscConfig+0x4c8>)
 8002eae:	681b      	ldr	r3, [r3, #0]
 8002eb0:	f403 7380 	and.w	r3, r3, #256	; 0x100
 8002eb4:	2b00      	cmp	r3, #0
 8002eb6:	d0f0      	beq.n	8002e9a <HAL_RCC_OscConfig+0x2de>
        }
      }
    }

    /* Set the new LSE configuration -----------------------------------------*/
    __HAL_RCC_LSE_CONFIG(RCC_OscInitStruct->LSEState);
 8002eb8:	687b      	ldr	r3, [r7, #4]
 8002eba:	68db      	ldr	r3, [r3, #12]
 8002ebc:	2b01      	cmp	r3, #1
 8002ebe:	d106      	bne.n	8002ece <HAL_RCC_OscConfig+0x312>
 8002ec0:	4b6f      	ldr	r3, [pc, #444]	; (8003080 <HAL_RCC_OscConfig+0x4c4>)
 8002ec2:	6a1b      	ldr	r3, [r3, #32]
 8002ec4:	4a6e      	ldr	r2, [pc, #440]	; (8003080 <HAL_RCC_OscConfig+0x4c4>)
 8002ec6:	f043 0301 	orr.w	r3, r3, #1
 8002eca:	6213      	str	r3, [r2, #32]
 8002ecc:	e02d      	b.n	8002f2a <HAL_RCC_OscConfig+0x36e>
 8002ece:	687b      	ldr	r3, [r7, #4]
 8002ed0:	68db      	ldr	r3, [r3, #12]
 8002ed2:	2b00      	cmp	r3, #0
 8002ed4:	d10c      	bne.n	8002ef0 <HAL_RCC_OscConfig+0x334>
 8002ed6:	4b6a      	ldr	r3, [pc, #424]	; (8003080 <HAL_RCC_OscConfig+0x4c4>)
 8002ed8:	6a1b      	ldr	r3, [r3, #32]
 8002eda:	4a69      	ldr	r2, [pc, #420]	; (8003080 <HAL_RCC_OscConfig+0x4c4>)
 8002edc:	f023 0301 	bic.w	r3, r3, #1
 8002ee0:	6213      	str	r3, [r2, #32]
 8002ee2:	4b67      	ldr	r3, [pc, #412]	; (8003080 <HAL_RCC_OscConfig+0x4c4>)
 8002ee4:	6a1b      	ldr	r3, [r3, #32]
 8002ee6:	4a66      	ldr	r2, [pc, #408]	; (8003080 <HAL_RCC_OscConfig+0x4c4>)
 8002ee8:	f023 0304 	bic.w	r3, r3, #4
 8002eec:	6213      	str	r3, [r2, #32]
 8002eee:	e01c      	b.n	8002f2a <HAL_RCC_OscConfig+0x36e>
 8002ef0:	687b      	ldr	r3, [r7, #4]
 8002ef2:	68db      	ldr	r3, [r3, #12]
 8002ef4:	2b05      	cmp	r3, #5
 8002ef6:	d10c      	bne.n	8002f12 <HAL_RCC_OscConfig+0x356>
 8002ef8:	4b61      	ldr	r3, [pc, #388]	; (8003080 <HAL_RCC_OscConfig+0x4c4>)
 8002efa:	6a1b      	ldr	r3, [r3, #32]
 8002efc:	4a60      	ldr	r2, [pc, #384]	; (8003080 <HAL_RCC_OscConfig+0x4c4>)
 8002efe:	f043 0304 	orr.w	r3, r3, #4
 8002f02:	6213      	str	r3, [r2, #32]
 8002f04:	4b5e      	ldr	r3, [pc, #376]	; (8003080 <HAL_RCC_OscConfig+0x4c4>)
 8002f06:	6a1b      	ldr	r3, [r3, #32]
 8002f08:	4a5d      	ldr	r2, [pc, #372]	; (8003080 <HAL_RCC_OscConfig+0x4c4>)
 8002f0a:	f043 0301 	orr.w	r3, r3, #1
 8002f0e:	6213      	str	r3, [r2, #32]
 8002f10:	e00b      	b.n	8002f2a <HAL_RCC_OscConfig+0x36e>
 8002f12:	4b5b      	ldr	r3, [pc, #364]	; (8003080 <HAL_RCC_OscConfig+0x4c4>)
 8002f14:	6a1b      	ldr	r3, [r3, #32]
 8002f16:	4a5a      	ldr	r2, [pc, #360]	; (8003080 <HAL_RCC_OscConfig+0x4c4>)
 8002f18:	f023 0301 	bic.w	r3, r3, #1
 8002f1c:	6213      	str	r3, [r2, #32]
 8002f1e:	4b58      	ldr	r3, [pc, #352]	; (8003080 <HAL_RCC_OscConfig+0x4c4>)
 8002f20:	6a1b      	ldr	r3, [r3, #32]
 8002f22:	4a57      	ldr	r2, [pc, #348]	; (8003080 <HAL_RCC_OscConfig+0x4c4>)
 8002f24:	f023 0304 	bic.w	r3, r3, #4
 8002f28:	6213      	str	r3, [r2, #32]
    /* Check the LSE State */
    if (RCC_OscInitStruct->LSEState != RCC_LSE_OFF)
 8002f2a:	687b      	ldr	r3, [r7, #4]
 8002f2c:	68db      	ldr	r3, [r3, #12]
 8002f2e:	2b00      	cmp	r3, #0
 8002f30:	d015      	beq.n	8002f5e <HAL_RCC_OscConfig+0x3a2>
    {
      /* Get Start Tick */
      tickstart = HAL_GetTick();
 8002f32:	f7fe fb3f 	bl	80015b4 <HAL_GetTick>
 8002f36:	6138      	str	r0, [r7, #16]

      /* Wait till LSE is ready */
      while (__HAL_RCC_GET_FLAG(RCC_FLAG_LSERDY) == RESET)
 8002f38:	e00a      	b.n	8002f50 <HAL_RCC_OscConfig+0x394>
      {
        if ((HAL_GetTick() - tickstart) > RCC_LSE_TIMEOUT_VALUE)
 8002f3a:	f7fe fb3b 	bl	80015b4 <HAL_GetTick>
 8002f3e:	4602      	mov	r2, r0
 8002f40:	693b      	ldr	r3, [r7, #16]
 8002f42:	1ad3      	subs	r3, r2, r3
 8002f44:	f241 3288 	movw	r2, #5000	; 0x1388
 8002f48:	4293      	cmp	r3, r2
 8002f4a:	d901      	bls.n	8002f50 <HAL_RCC_OscConfig+0x394>
        {
          return HAL_TIMEOUT;
 8002f4c:	2303      	movs	r3, #3
 8002f4e:	e0b1      	b.n	80030b4 <HAL_RCC_OscConfig+0x4f8>
      while (__HAL_RCC_GET_FLAG(RCC_FLAG_LSERDY) == RESET)
 8002f50:	4b4b      	ldr	r3, [pc, #300]	; (8003080 <HAL_RCC_OscConfig+0x4c4>)
 8002f52:	6a1b      	ldr	r3, [r3, #32]
 8002f54:	f003 0302 	and.w	r3, r3, #2
 8002f58:	2b00      	cmp	r3, #0
 8002f5a:	d0ee      	beq.n	8002f3a <HAL_RCC_OscConfig+0x37e>
 8002f5c:	e014      	b.n	8002f88 <HAL_RCC_OscConfig+0x3cc>
      }
    }
    else
    {
      /* Get Start Tick */
      tickstart = HAL_GetTick();
 8002f5e:	f7fe fb29 	bl	80015b4 <HAL_GetTick>
 8002f62:	6138      	str	r0, [r7, #16]

      /* Wait till LSE is disabled */
      while (__HAL_RCC_GET_FLAG(RCC_FLAG_LSERDY) != RESET)
 8002f64:	e00a      	b.n	8002f7c <HAL_RCC_OscConfig+0x3c0>
      {
        if ((HAL_GetTick() - tickstart) > RCC_LSE_TIMEOUT_VALUE)
 8002f66:	f7fe fb25 	bl	80015b4 <HAL_GetTick>
 8002f6a:	4602      	mov	r2, r0
 8002f6c:	693b      	ldr	r3, [r7, #16]
 8002f6e:	1ad3      	subs	r3, r2, r3
 8002f70:	f241 3288 	movw	r2, #5000	; 0x1388
 8002f74:	4293      	cmp	r3, r2
 8002f76:	d901      	bls.n	8002f7c <HAL_RCC_OscConfig+0x3c0>
        {
          return HAL_TIMEOUT;
 8002f78:	2303      	movs	r3, #3
 8002f7a:	e09b      	b.n	80030b4 <HAL_RCC_OscConfig+0x4f8>
      while (__HAL_RCC_GET_FLAG(RCC_FLAG_LSERDY) != RESET)
 8002f7c:	4b40      	ldr	r3, [pc, #256]	; (8003080 <HAL_RCC_OscConfig+0x4c4>)
 8002f7e:	6a1b      	ldr	r3, [r3, #32]
 8002f80:	f003 0302 	and.w	r3, r3, #2
 8002f84:	2b00      	cmp	r3, #0
 8002f86:	d1ee      	bne.n	8002f66 <HAL_RCC_OscConfig+0x3aa>
        }
      }
    }

    /* Require to disable power clock if necessary */
    if (pwrclkchanged == SET)
 8002f88:	7dfb      	ldrb	r3, [r7, #23]
 8002f8a:	2b01      	cmp	r3, #1
 8002f8c:	d105      	bne.n	8002f9a <HAL_RCC_OscConfig+0x3de>
    {
      __HAL_RCC_PWR_CLK_DISABLE();
 8002f8e:	4b3c      	ldr	r3, [pc, #240]	; (8003080 <HAL_RCC_OscConfig+0x4c4>)
 8002f90:	69db      	ldr	r3, [r3, #28]
 8002f92:	4a3b      	ldr	r2, [pc, #236]	; (8003080 <HAL_RCC_OscConfig+0x4c4>)
 8002f94:	f023 5380 	bic.w	r3, r3, #268435456	; 0x10000000
 8002f98:	61d3      	str	r3, [r2, #28]

#endif /* RCC_CR_PLL2ON */
  /*-------------------------------- PLL Configuration -----------------------*/
  /* Check the parameters */
  assert_param(IS_RCC_PLL(RCC_OscInitStruct->PLL.PLLState));
  if ((RCC_OscInitStruct->PLL.PLLState) != RCC_PLL_NONE)
 8002f9a:	687b      	ldr	r3, [r7, #4]
 8002f9c:	69db      	ldr	r3, [r3, #28]
 8002f9e:	2b00      	cmp	r3, #0
 8002fa0:	f000 8087 	beq.w	80030b2 <HAL_RCC_OscConfig+0x4f6>
  {
    /* Check if the PLL is used as system clock or not */
    if (__HAL_RCC_GET_SYSCLK_SOURCE() != RCC_SYSCLKSOURCE_STATUS_PLLCLK)
 8002fa4:	4b36      	ldr	r3, [pc, #216]	; (8003080 <HAL_RCC_OscConfig+0x4c4>)
 8002fa6:	685b      	ldr	r3, [r3, #4]
 8002fa8:	f003 030c 	and.w	r3, r3, #12
 8002fac:	2b08      	cmp	r3, #8
 8002fae:	d061      	beq.n	8003074 <HAL_RCC_OscConfig+0x4b8>
    {
      if ((RCC_OscInitStruct->PLL.PLLState) == RCC_PLL_ON)
 8002fb0:	687b      	ldr	r3, [r7, #4]
 8002fb2:	69db      	ldr	r3, [r3, #28]
 8002fb4:	2b02      	cmp	r3, #2
 8002fb6:	d146      	bne.n	8003046 <HAL_RCC_OscConfig+0x48a>
        /* Check the parameters */
        assert_param(IS_RCC_PLLSOURCE(RCC_OscInitStruct->PLL.PLLSource));
        assert_param(IS_RCC_PLL_MUL(RCC_OscInitStruct->PLL.PLLMUL));

        /* Disable the main PLL. */
        __HAL_RCC_PLL_DISABLE();
 8002fb8:	4b33      	ldr	r3, [pc, #204]	; (8003088 <HAL_RCC_OscConfig+0x4cc>)
 8002fba:	2200      	movs	r2, #0
 8002fbc:	601a      	str	r2, [r3, #0]

        /* Get Start Tick */
        tickstart = HAL_GetTick();
 8002fbe:	f7fe faf9 	bl	80015b4 <HAL_GetTick>
 8002fc2:	6138      	str	r0, [r7, #16]

        /* Wait till PLL is disabled */
        while (__HAL_RCC_GET_FLAG(RCC_FLAG_PLLRDY)  != RESET)
 8002fc4:	e008      	b.n	8002fd8 <HAL_RCC_OscConfig+0x41c>
        {
          if ((HAL_GetTick() - tickstart) > PLL_TIMEOUT_VALUE)
 8002fc6:	f7fe faf5 	bl	80015b4 <HAL_GetTick>
 8002fca:	4602      	mov	r2, r0
 8002fcc:	693b      	ldr	r3, [r7, #16]
 8002fce:	1ad3      	subs	r3, r2, r3
 8002fd0:	2b02      	cmp	r3, #2
 8002fd2:	d901      	bls.n	8002fd8 <HAL_RCC_OscConfig+0x41c>
          {
            return HAL_TIMEOUT;
 8002fd4:	2303      	movs	r3, #3
 8002fd6:	e06d      	b.n	80030b4 <HAL_RCC_OscConfig+0x4f8>
        while (__HAL_RCC_GET_FLAG(RCC_FLAG_PLLRDY)  != RESET)
 8002fd8:	4b29      	ldr	r3, [pc, #164]	; (8003080 <HAL_RCC_OscConfig+0x4c4>)
 8002fda:	681b      	ldr	r3, [r3, #0]
 8002fdc:	f003 7300 	and.w	r3, r3, #33554432	; 0x2000000
 8002fe0:	2b00      	cmp	r3, #0
 8002fe2:	d1f0      	bne.n	8002fc6 <HAL_RCC_OscConfig+0x40a>
          }
        }

        /* Configure the HSE prediv factor --------------------------------*/
        /* It can be written only when the PLL is disabled. Not used in PLL source is different than HSE */
        if (RCC_OscInitStruct->PLL.PLLSource == RCC_PLLSOURCE_HSE)
 8002fe4:	687b      	ldr	r3, [r7, #4]
 8002fe6:	6a1b      	ldr	r3, [r3, #32]
 8002fe8:	f5b3 3f80 	cmp.w	r3, #65536	; 0x10000
 8002fec:	d108      	bne.n	8003000 <HAL_RCC_OscConfig+0x444>
          /* Set PREDIV1 source */
          SET_BIT(RCC->CFGR2, RCC_OscInitStruct->Prediv1Source);
#endif /* RCC_CFGR2_PREDIV1SRC */

          /* Set PREDIV1 Value */
          __HAL_RCC_HSE_PREDIV_CONFIG(RCC_OscInitStruct->HSEPredivValue);
 8002fee:	4b24      	ldr	r3, [pc, #144]	; (8003080 <HAL_RCC_OscConfig+0x4c4>)
 8002ff0:	685b      	ldr	r3, [r3, #4]
 8002ff2:	f423 3200 	bic.w	r2, r3, #131072	; 0x20000
 8002ff6:	687b      	ldr	r3, [r7, #4]
 8002ff8:	689b      	ldr	r3, [r3, #8]
 8002ffa:	4921      	ldr	r1, [pc, #132]	; (8003080 <HAL_RCC_OscConfig+0x4c4>)
 8002ffc:	4313      	orrs	r3, r2
 8002ffe:	604b      	str	r3, [r1, #4]
        }

        /* Configure the main PLL clock source and multiplication factors. */
        __HAL_RCC_PLL_CONFIG(RCC_OscInitStruct->PLL.PLLSource,
 8003000:	4b1f      	ldr	r3, [pc, #124]	; (8003080 <HAL_RCC_OscConfig+0x4c4>)
 8003002:	685b      	ldr	r3, [r3, #4]
 8003004:	f423 1274 	bic.w	r2, r3, #3997696	; 0x3d0000
 8003008:	687b      	ldr	r3, [r7, #4]
 800300a:	6a19      	ldr	r1, [r3, #32]
 800300c:	687b      	ldr	r3, [r7, #4]
 800300e:	6a5b      	ldr	r3, [r3, #36]	; 0x24
 8003010:	430b      	orrs	r3, r1
 8003012:	491b      	ldr	r1, [pc, #108]	; (8003080 <HAL_RCC_OscConfig+0x4c4>)
 8003014:	4313      	orrs	r3, r2
 8003016:	604b      	str	r3, [r1, #4]
                             RCC_OscInitStruct->PLL.PLLMUL);
        /* Enable the main PLL. */
        __HAL_RCC_PLL_ENABLE();
 8003018:	4b1b      	ldr	r3, [pc, #108]	; (8003088 <HAL_RCC_OscConfig+0x4cc>)
 800301a:	2201      	movs	r2, #1
 800301c:	601a      	str	r2, [r3, #0]

        /* Get Start Tick */
        tickstart = HAL_GetTick();
 800301e:	f7fe fac9 	bl	80015b4 <HAL_GetTick>
 8003022:	6138      	str	r0, [r7, #16]

        /* Wait till PLL is ready */
        while (__HAL_RCC_GET_FLAG(RCC_FLAG_PLLRDY)  == RESET)
 8003024:	e008      	b.n	8003038 <HAL_RCC_OscConfig+0x47c>
        {
          if ((HAL_GetTick() - tickstart) > PLL_TIMEOUT_VALUE)
 8003026:	f7fe fac5 	bl	80015b4 <HAL_GetTick>
 800302a:	4602      	mov	r2, r0
 800302c:	693b      	ldr	r3, [r7, #16]
 800302e:	1ad3      	subs	r3, r2, r3
 8003030:	2b02      	cmp	r3, #2
 8003032:	d901      	bls.n	8003038 <HAL_RCC_OscConfig+0x47c>
          {
            return HAL_TIMEOUT;
 8003034:	2303      	movs	r3, #3
 8003036:	e03d      	b.n	80030b4 <HAL_RCC_OscConfig+0x4f8>
        while (__HAL_RCC_GET_FLAG(RCC_FLAG_PLLRDY)  == RESET)
 8003038:	4b11      	ldr	r3, [pc, #68]	; (8003080 <HAL_RCC_OscConfig+0x4c4>)
 800303a:	681b      	ldr	r3, [r3, #0]
 800303c:	f003 7300 	and.w	r3, r3, #33554432	; 0x2000000
 8003040:	2b00      	cmp	r3, #0
 8003042:	d0f0      	beq.n	8003026 <HAL_RCC_OscConfig+0x46a>
 8003044:	e035      	b.n	80030b2 <HAL_RCC_OscConfig+0x4f6>
        }
      }
      else
      {
        /* Disable the main PLL. */
        __HAL_RCC_PLL_DISABLE();
 8003046:	4b10      	ldr	r3, [pc, #64]	; (8003088 <HAL_RCC_OscConfig+0x4cc>)
 8003048:	2200      	movs	r2, #0
 800304a:	601a      	str	r2, [r3, #0]

        /* Get Start Tick */
        tickstart = HAL_GetTick();
 800304c:	f7fe fab2 	bl	80015b4 <HAL_GetTick>
 8003050:	6138      	str	r0, [r7, #16]

        /* Wait till PLL is disabled */
        while (__HAL_RCC_GET_FLAG(RCC_FLAG_PLLRDY)  != RESET)
 8003052:	e008      	b.n	8003066 <HAL_RCC_OscConfig+0x4aa>
        {
          if ((HAL_GetTick() - tickstart) > PLL_TIMEOUT_VALUE)
 8003054:	f7fe faae 	bl	80015b4 <HAL_GetTick>
 8003058:	4602      	mov	r2, r0
 800305a:	693b      	ldr	r3, [r7, #16]
 800305c:	1ad3      	subs	r3, r2, r3
 800305e:	2b02      	cmp	r3, #2
 8003060:	d901      	bls.n	8003066 <HAL_RCC_OscConfig+0x4aa>
          {
            return HAL_TIMEOUT;
 8003062:	2303      	movs	r3, #3
 8003064:	e026      	b.n	80030b4 <HAL_RCC_OscConfig+0x4f8>
        while (__HAL_RCC_GET_FLAG(RCC_FLAG_PLLRDY)  != RESET)
 8003066:	4b06      	ldr	r3, [pc, #24]	; (8003080 <HAL_RCC_OscConfig+0x4c4>)
 8003068:	681b      	ldr	r3, [r3, #0]
 800306a:	f003 7300 	and.w	r3, r3, #33554432	; 0x2000000
 800306e:	2b00      	cmp	r3, #0
 8003070:	d1f0      	bne.n	8003054 <HAL_RCC_OscConfig+0x498>
 8003072:	e01e      	b.n	80030b2 <HAL_RCC_OscConfig+0x4f6>
      }
    }
    else
    {
      /* Check if there is a request to disable the PLL used as System clock source */
      if ((RCC_OscInitStruct->PLL.PLLState) == RCC_PLL_OFF)
 8003074:	687b      	ldr	r3, [r7, #4]
 8003076:	69db      	ldr	r3, [r3, #28]
 8003078:	2b01      	cmp	r3, #1
 800307a:	d107      	bne.n	800308c <HAL_RCC_OscConfig+0x4d0>
      {
        return HAL_ERROR;
 800307c:	2301      	movs	r3, #1
 800307e:	e019      	b.n	80030b4 <HAL_RCC_OscConfig+0x4f8>
 8003080:	40021000 	.word	0x40021000
 8003084:	40007000 	.word	0x40007000
 8003088:	42420060 	.word	0x42420060
      }
      else
      {
        /* Do not return HAL_ERROR if request repeats the current configuration */
        pll_config = RCC->CFGR;
 800308c:	4b0b      	ldr	r3, [pc, #44]	; (80030bc <HAL_RCC_OscConfig+0x500>)
 800308e:	685b      	ldr	r3, [r3, #4]
 8003090:	60fb      	str	r3, [r7, #12]
        if ((READ_BIT(pll_config, RCC_CFGR_PLLSRC) != RCC_OscInitStruct->PLL.PLLSource) ||
 8003092:	68fb      	ldr	r3, [r7, #12]
 8003094:	f403 3280 	and.w	r2, r3, #65536	; 0x10000
 8003098:	687b      	ldr	r3, [r7, #4]
 800309a:	6a1b      	ldr	r3, [r3, #32]
 800309c:	429a      	cmp	r2, r3
 800309e:	d106      	bne.n	80030ae <HAL_RCC_OscConfig+0x4f2>
            (READ_BIT(pll_config, RCC_CFGR_PLLMULL) != RCC_OscInitStruct->PLL.PLLMUL))
 80030a0:	68fb      	ldr	r3, [r7, #12]
 80030a2:	f403 1270 	and.w	r2, r3, #3932160	; 0x3c0000
 80030a6:	687b      	ldr	r3, [r7, #4]
 80030a8:	6a5b      	ldr	r3, [r3, #36]	; 0x24
        if ((READ_BIT(pll_config, RCC_CFGR_PLLSRC) != RCC_OscInitStruct->PLL.PLLSource) ||
 80030aa:	429a      	cmp	r2, r3
 80030ac:	d001      	beq.n	80030b2 <HAL_RCC_OscConfig+0x4f6>
        {
          return HAL_ERROR;
 80030ae:	2301      	movs	r3, #1
 80030b0:	e000      	b.n	80030b4 <HAL_RCC_OscConfig+0x4f8>
        }
      }
    }
  }

  return HAL_OK;
 80030b2:	2300      	movs	r3, #0
}
 80030b4:	4618      	mov	r0, r3
 80030b6:	3718      	adds	r7, #24
 80030b8:	46bd      	mov	sp, r7
 80030ba:	bd80      	pop	{r7, pc}
 80030bc:	40021000 	.word	0x40021000

080030c0 <HAL_RCC_ClockConfig>:
  *         You can use @ref HAL_RCC_GetClockConfig() function to know which clock is
  *         currently used as system clock source.
  * @retval HAL status
  */
HAL_StatusTypeDef HAL_RCC_ClockConfig(RCC_ClkInitTypeDef  *RCC_ClkInitStruct, uint32_t FLatency)
{
 80030c0:	b580      	push	{r7, lr}
 80030c2:	b084      	sub	sp, #16
 80030c4:	af00      	add	r7, sp, #0
 80030c6:	6078      	str	r0, [r7, #4]
 80030c8:	6039      	str	r1, [r7, #0]
  uint32_t tickstart;

  /* Check Null pointer */
  if (RCC_ClkInitStruct == NULL)
 80030ca:	687b      	ldr	r3, [r7, #4]
 80030cc:	2b00      	cmp	r3, #0
 80030ce:	d101      	bne.n	80030d4 <HAL_RCC_ClockConfig+0x14>
  {
    return HAL_ERROR;
 80030d0:	2301      	movs	r3, #1
 80030d2:	e0d0      	b.n	8003276 <HAL_RCC_ClockConfig+0x1b6>
  must be correctly programmed according to the frequency of the CPU clock
    (HCLK) of the device. */

#if defined(FLASH_ACR_LATENCY)
  /* Increasing the number of wait states because of higher CPU frequency */
  if (FLatency > __HAL_FLASH_GET_LATENCY())
 80030d4:	4b6a      	ldr	r3, [pc, #424]	; (8003280 <HAL_RCC_ClockConfig+0x1c0>)
 80030d6:	681b      	ldr	r3, [r3, #0]
 80030d8:	f003 0307 	and.w	r3, r3, #7
 80030dc:	683a      	ldr	r2, [r7, #0]
 80030de:	429a      	cmp	r2, r3
 80030e0:	d910      	bls.n	8003104 <HAL_RCC_ClockConfig+0x44>
  {
    /* Program the new number of wait states to the LATENCY bits in the FLASH_ACR register */
    __HAL_FLASH_SET_LATENCY(FLatency);
 80030e2:	4b67      	ldr	r3, [pc, #412]	; (8003280 <HAL_RCC_ClockConfig+0x1c0>)
 80030e4:	681b      	ldr	r3, [r3, #0]
 80030e6:	f023 0207 	bic.w	r2, r3, #7
 80030ea:	4965      	ldr	r1, [pc, #404]	; (8003280 <HAL_RCC_ClockConfig+0x1c0>)
 80030ec:	683b      	ldr	r3, [r7, #0]
 80030ee:	4313      	orrs	r3, r2
 80030f0:	600b      	str	r3, [r1, #0]

    /* Check that the new number of wait states is taken into account to access the Flash
    memory by reading the FLASH_ACR register */
    if (__HAL_FLASH_GET_LATENCY() != FLatency)
 80030f2:	4b63      	ldr	r3, [pc, #396]	; (8003280 <HAL_RCC_ClockConfig+0x1c0>)
 80030f4:	681b      	ldr	r3, [r3, #0]
 80030f6:	f003 0307 	and.w	r3, r3, #7
 80030fa:	683a      	ldr	r2, [r7, #0]
 80030fc:	429a      	cmp	r2, r3
 80030fe:	d001      	beq.n	8003104 <HAL_RCC_ClockConfig+0x44>
  {
    return HAL_ERROR;
 8003100:	2301      	movs	r3, #1
 8003102:	e0b8      	b.n	8003276 <HAL_RCC_ClockConfig+0x1b6>
  }
}

#endif /* FLASH_ACR_LATENCY */
/*-------------------------- HCLK Configuration --------------------------*/
if (((RCC_ClkInitStruct->ClockType) & RCC_CLOCKTYPE_HCLK) == RCC_CLOCKTYPE_HCLK)
 8003104:	687b      	ldr	r3, [r7, #4]
 8003106:	681b      	ldr	r3, [r3, #0]
 8003108:	f003 0302 	and.w	r3, r3, #2
 800310c:	2b00      	cmp	r3, #0
 800310e:	d020      	beq.n	8003152 <HAL_RCC_ClockConfig+0x92>
  {
    /* Set the highest APBx dividers in order to ensure that we do not go through
    a non-spec phase whatever we decrease or increase HCLK. */
    if (((RCC_ClkInitStruct->ClockType) & RCC_CLOCKTYPE_PCLK1) == RCC_CLOCKTYPE_PCLK1)
 8003110:	687b      	ldr	r3, [r7, #4]
 8003112:	681b      	ldr	r3, [r3, #0]
 8003114:	f003 0304 	and.w	r3, r3, #4
 8003118:	2b00      	cmp	r3, #0
 800311a:	d005      	beq.n	8003128 <HAL_RCC_ClockConfig+0x68>
    {
      MODIFY_REG(RCC->CFGR, RCC_CFGR_PPRE1, RCC_HCLK_DIV16);
 800311c:	4b59      	ldr	r3, [pc, #356]	; (8003284 <HAL_RCC_ClockConfig+0x1c4>)
 800311e:	685b      	ldr	r3, [r3, #4]
 8003120:	4a58      	ldr	r2, [pc, #352]	; (8003284 <HAL_RCC_ClockConfig+0x1c4>)
 8003122:	f443 63e0 	orr.w	r3, r3, #1792	; 0x700
 8003126:	6053      	str	r3, [r2, #4]
    }

    if (((RCC_ClkInitStruct->ClockType) & RCC_CLOCKTYPE_PCLK2) == RCC_CLOCKTYPE_PCLK2)
 8003128:	687b      	ldr	r3, [r7, #4]
 800312a:	681b      	ldr	r3, [r3, #0]
 800312c:	f003 0308 	and.w	r3, r3, #8
 8003130:	2b00      	cmp	r3, #0
 8003132:	d005      	beq.n	8003140 <HAL_RCC_ClockConfig+0x80>
    {
      MODIFY_REG(RCC->CFGR, RCC_CFGR_PPRE2, (RCC_HCLK_DIV16 << 3));
 8003134:	4b53      	ldr	r3, [pc, #332]	; (8003284 <HAL_RCC_ClockConfig+0x1c4>)
 8003136:	685b      	ldr	r3, [r3, #4]
 8003138:	4a52      	ldr	r2, [pc, #328]	; (8003284 <HAL_RCC_ClockConfig+0x1c4>)
 800313a:	f443 5360 	orr.w	r3, r3, #14336	; 0x3800
 800313e:	6053      	str	r3, [r2, #4]
    }

    /* Set the new HCLK clock divider */
    assert_param(IS_RCC_HCLK(RCC_ClkInitStruct->AHBCLKDivider));
    MODIFY_REG(RCC->CFGR, RCC_CFGR_HPRE, RCC_ClkInitStruct->AHBCLKDivider);
 8003140:	4b50      	ldr	r3, [pc, #320]	; (8003284 <HAL_RCC_ClockConfig+0x1c4>)
 8003142:	685b      	ldr	r3, [r3, #4]
 8003144:	f023 02f0 	bic.w	r2, r3, #240	; 0xf0
 8003148:	687b      	ldr	r3, [r7, #4]
 800314a:	689b      	ldr	r3, [r3, #8]
 800314c:	494d      	ldr	r1, [pc, #308]	; (8003284 <HAL_RCC_ClockConfig+0x1c4>)
 800314e:	4313      	orrs	r3, r2
 8003150:	604b      	str	r3, [r1, #4]
  }

  /*------------------------- SYSCLK Configuration ---------------------------*/
  if (((RCC_ClkInitStruct->ClockType) & RCC_CLOCKTYPE_SYSCLK) == RCC_CLOCKTYPE_SYSCLK)
 8003152:	687b      	ldr	r3, [r7, #4]
 8003154:	681b      	ldr	r3, [r3, #0]
 8003156:	f003 0301 	and.w	r3, r3, #1
 800315a:	2b00      	cmp	r3, #0
 800315c:	d040      	beq.n	80031e0 <HAL_RCC_ClockConfig+0x120>
  {
    assert_param(IS_RCC_SYSCLKSOURCE(RCC_ClkInitStruct->SYSCLKSource));

    /* HSE is selected as System Clock Source */
    if (RCC_ClkInitStruct->SYSCLKSource == RCC_SYSCLKSOURCE_HSE)
 800315e:	687b      	ldr	r3, [r7, #4]
 8003160:	685b      	ldr	r3, [r3, #4]
 8003162:	2b01      	cmp	r3, #1
 8003164:	d107      	bne.n	8003176 <HAL_RCC_ClockConfig+0xb6>
    {
      /* Check the HSE ready flag */
      if (__HAL_RCC_GET_FLAG(RCC_FLAG_HSERDY) == RESET)
 8003166:	4b47      	ldr	r3, [pc, #284]	; (8003284 <HAL_RCC_ClockConfig+0x1c4>)
 8003168:	681b      	ldr	r3, [r3, #0]
 800316a:	f403 3300 	and.w	r3, r3, #131072	; 0x20000
 800316e:	2b00      	cmp	r3, #0
 8003170:	d115      	bne.n	800319e <HAL_RCC_ClockConfig+0xde>
      {
        return HAL_ERROR;
 8003172:	2301      	movs	r3, #1
 8003174:	e07f      	b.n	8003276 <HAL_RCC_ClockConfig+0x1b6>
      }
    }
    /* PLL is selected as System Clock Source */
    else if (RCC_ClkInitStruct->SYSCLKSource == RCC_SYSCLKSOURCE_PLLCLK)
 8003176:	687b      	ldr	r3, [r7, #4]
 8003178:	685b      	ldr	r3, [r3, #4]
 800317a:	2b02      	cmp	r3, #2
 800317c:	d107      	bne.n	800318e <HAL_RCC_ClockConfig+0xce>
    {
      /* Check the PLL ready flag */
      if (__HAL_RCC_GET_FLAG(RCC_FLAG_PLLRDY) == RESET)
 800317e:	4b41      	ldr	r3, [pc, #260]	; (8003284 <HAL_RCC_ClockConfig+0x1c4>)
 8003180:	681b      	ldr	r3, [r3, #0]
 8003182:	f003 7300 	and.w	r3, r3, #33554432	; 0x2000000
 8003186:	2b00      	cmp	r3, #0
 8003188:	d109      	bne.n	800319e <HAL_RCC_ClockConfig+0xde>
      {
        return HAL_ERROR;
 800318a:	2301      	movs	r3, #1
 800318c:	e073      	b.n	8003276 <HAL_RCC_ClockConfig+0x1b6>
    }
    /* HSI is selected as System Clock Source */
    else
    {
      /* Check the HSI ready flag */
      if (__HAL_RCC_GET_FLAG(RCC_FLAG_HSIRDY) == RESET)
 800318e:	4b3d      	ldr	r3, [pc, #244]	; (8003284 <HAL_RCC_ClockConfig+0x1c4>)
 8003190:	681b      	ldr	r3, [r3, #0]
 8003192:	f003 0302 	and.w	r3, r3, #2
 8003196:	2b00      	cmp	r3, #0
 8003198:	d101      	bne.n	800319e <HAL_RCC_ClockConfig+0xde>
      {
        return HAL_ERROR;
 800319a:	2301      	movs	r3, #1
 800319c:	e06b      	b.n	8003276 <HAL_RCC_ClockConfig+0x1b6>
      }
    }
    __HAL_RCC_SYSCLK_CONFIG(RCC_ClkInitStruct->SYSCLKSource);
 800319e:	4b39      	ldr	r3, [pc, #228]	; (8003284 <HAL_RCC_ClockConfig+0x1c4>)
 80031a0:	685b      	ldr	r3, [r3, #4]
 80031a2:	f023 0203 	bic.w	r2, r3, #3
 80031a6:	687b      	ldr	r3, [r7, #4]
 80031a8:	685b      	ldr	r3, [r3, #4]
 80031aa:	4936      	ldr	r1, [pc, #216]	; (8003284 <HAL_RCC_ClockConfig+0x1c4>)
 80031ac:	4313      	orrs	r3, r2
 80031ae:	604b      	str	r3, [r1, #4]

    /* Get Start Tick */
    tickstart = HAL_GetTick();
 80031b0:	f7fe fa00 	bl	80015b4 <HAL_GetTick>
 80031b4:	60f8      	str	r0, [r7, #12]

    while (__HAL_RCC_GET_SYSCLK_SOURCE() != (RCC_ClkInitStruct->SYSCLKSource << RCC_CFGR_SWS_Pos))
 80031b6:	e00a      	b.n	80031ce <HAL_RCC_ClockConfig+0x10e>
    {
      if ((HAL_GetTick() - tickstart) > CLOCKSWITCH_TIMEOUT_VALUE)
 80031b8:	f7fe f9fc 	bl	80015b4 <HAL_GetTick>
 80031bc:	4602      	mov	r2, r0
 80031be:	68fb      	ldr	r3, [r7, #12]
 80031c0:	1ad3      	subs	r3, r2, r3
 80031c2:	f241 3288 	movw	r2, #5000	; 0x1388
 80031c6:	4293      	cmp	r3, r2
 80031c8:	d901      	bls.n	80031ce <HAL_RCC_ClockConfig+0x10e>
      {
        return HAL_TIMEOUT;
 80031ca:	2303      	movs	r3, #3
 80031cc:	e053      	b.n	8003276 <HAL_RCC_ClockConfig+0x1b6>
    while (__HAL_RCC_GET_SYSCLK_SOURCE() != (RCC_ClkInitStruct->SYSCLKSource << RCC_CFGR_SWS_Pos))
 80031ce:	4b2d      	ldr	r3, [pc, #180]	; (8003284 <HAL_RCC_ClockConfig+0x1c4>)
 80031d0:	685b      	ldr	r3, [r3, #4]
 80031d2:	f003 020c 	and.w	r2, r3, #12
 80031d6:	687b      	ldr	r3, [r7, #4]
 80031d8:	685b      	ldr	r3, [r3, #4]
 80031da:	009b      	lsls	r3, r3, #2
 80031dc:	429a      	cmp	r2, r3
 80031de:	d1eb      	bne.n	80031b8 <HAL_RCC_ClockConfig+0xf8>
    }
  }

#if defined(FLASH_ACR_LATENCY)
  /* Decreasing the number of wait states because of lower CPU frequency */
  if (FLatency < __HAL_FLASH_GET_LATENCY())
 80031e0:	4b27      	ldr	r3, [pc, #156]	; (8003280 <HAL_RCC_ClockConfig+0x1c0>)
 80031e2:	681b      	ldr	r3, [r3, #0]
 80031e4:	f003 0307 	and.w	r3, r3, #7
 80031e8:	683a      	ldr	r2, [r7, #0]
 80031ea:	429a      	cmp	r2, r3
 80031ec:	d210      	bcs.n	8003210 <HAL_RCC_ClockConfig+0x150>
  {
    /* Program the new number of wait states to the LATENCY bits in the FLASH_ACR register */
    __HAL_FLASH_SET_LATENCY(FLatency);
 80031ee:	4b24      	ldr	r3, [pc, #144]	; (8003280 <HAL_RCC_ClockConfig+0x1c0>)
 80031f0:	681b      	ldr	r3, [r3, #0]
 80031f2:	f023 0207 	bic.w	r2, r3, #7
 80031f6:	4922      	ldr	r1, [pc, #136]	; (8003280 <HAL_RCC_ClockConfig+0x1c0>)
 80031f8:	683b      	ldr	r3, [r7, #0]
 80031fa:	4313      	orrs	r3, r2
 80031fc:	600b      	str	r3, [r1, #0]

    /* Check that the new number of wait states is taken into account to access the Flash
    memory by reading the FLASH_ACR register */
    if (__HAL_FLASH_GET_LATENCY() != FLatency)
 80031fe:	4b20      	ldr	r3, [pc, #128]	; (8003280 <HAL_RCC_ClockConfig+0x1c0>)
 8003200:	681b      	ldr	r3, [r3, #0]
 8003202:	f003 0307 	and.w	r3, r3, #7
 8003206:	683a      	ldr	r2, [r7, #0]
 8003208:	429a      	cmp	r2, r3
 800320a:	d001      	beq.n	8003210 <HAL_RCC_ClockConfig+0x150>
  {
    return HAL_ERROR;
 800320c:	2301      	movs	r3, #1
 800320e:	e032      	b.n	8003276 <HAL_RCC_ClockConfig+0x1b6>
  }
}
#endif /* FLASH_ACR_LATENCY */

/*-------------------------- PCLK1 Configuration ---------------------------*/
if (((RCC_ClkInitStruct->ClockType) & RCC_CLOCKTYPE_PCLK1) == RCC_CLOCKTYPE_PCLK1)
 8003210:	687b      	ldr	r3, [r7, #4]
 8003212:	681b      	ldr	r3, [r3, #0]
 8003214:	f003 0304 	and.w	r3, r3, #4
 8003218:	2b00      	cmp	r3, #0
 800321a:	d008      	beq.n	800322e <HAL_RCC_ClockConfig+0x16e>
  {
    assert_param(IS_RCC_PCLK(RCC_ClkInitStruct->APB1CLKDivider));
    MODIFY_REG(RCC->CFGR, RCC_CFGR_PPRE1, RCC_ClkInitStruct->APB1CLKDivider);
 800321c:	4b19      	ldr	r3, [pc, #100]	; (8003284 <HAL_RCC_ClockConfig+0x1c4>)
 800321e:	685b      	ldr	r3, [r3, #4]
 8003220:	f423 62e0 	bic.w	r2, r3, #1792	; 0x700
 8003224:	687b      	ldr	r3, [r7, #4]
 8003226:	68db      	ldr	r3, [r3, #12]
 8003228:	4916      	ldr	r1, [pc, #88]	; (8003284 <HAL_RCC_ClockConfig+0x1c4>)
 800322a:	4313      	orrs	r3, r2
 800322c:	604b      	str	r3, [r1, #4]
  }

  /*-------------------------- PCLK2 Configuration ---------------------------*/
  if (((RCC_ClkInitStruct->ClockType) & RCC_CLOCKTYPE_PCLK2) == RCC_CLOCKTYPE_PCLK2)
 800322e:	687b      	ldr	r3, [r7, #4]
 8003230:	681b      	ldr	r3, [r3, #0]
 8003232:	f003 0308 	and.w	r3, r3, #8
 8003236:	2b00      	cmp	r3, #0
 8003238:	d009      	beq.n	800324e <HAL_RCC_ClockConfig+0x18e>
  {
    assert_param(IS_RCC_PCLK(RCC_ClkInitStruct->APB2CLKDivider));
    MODIFY_REG(RCC->CFGR, RCC_CFGR_PPRE2, ((RCC_ClkInitStruct->APB2CLKDivider) << 3));
 800323a:	4b12      	ldr	r3, [pc, #72]	; (8003284 <HAL_RCC_ClockConfig+0x1c4>)
 800323c:	685b      	ldr	r3, [r3, #4]
 800323e:	f423 5260 	bic.w	r2, r3, #14336	; 0x3800
 8003242:	687b      	ldr	r3, [r7, #4]
 8003244:	691b      	ldr	r3, [r3, #16]
 8003246:	00db      	lsls	r3, r3, #3
 8003248:	490e      	ldr	r1, [pc, #56]	; (8003284 <HAL_RCC_ClockConfig+0x1c4>)
 800324a:	4313      	orrs	r3, r2
 800324c:	604b      	str	r3, [r1, #4]
  }

  /* Update the SystemCoreClock global variable */
  SystemCoreClock = HAL_RCC_GetSysClockFreq() >> AHBPrescTable[(RCC->CFGR & RCC_CFGR_HPRE) >> RCC_CFGR_HPRE_Pos];
 800324e:	f000 f821 	bl	8003294 <HAL_RCC_GetSysClockFreq>
 8003252:	4602      	mov	r2, r0
 8003254:	4b0b      	ldr	r3, [pc, #44]	; (8003284 <HAL_RCC_ClockConfig+0x1c4>)
 8003256:	685b      	ldr	r3, [r3, #4]
 8003258:	091b      	lsrs	r3, r3, #4
 800325a:	f003 030f 	and.w	r3, r3, #15
 800325e:	490a      	ldr	r1, [pc, #40]	; (8003288 <HAL_RCC_ClockConfig+0x1c8>)
 8003260:	5ccb      	ldrb	r3, [r1, r3]
 8003262:	fa22 f303 	lsr.w	r3, r2, r3
 8003266:	4a09      	ldr	r2, [pc, #36]	; (800328c <HAL_RCC_ClockConfig+0x1cc>)
 8003268:	6013      	str	r3, [r2, #0]

  /* Configure the source of time base considering new system clocks settings*/
  HAL_InitTick(uwTickPrio);
 800326a:	4b09      	ldr	r3, [pc, #36]	; (8003290 <HAL_RCC_ClockConfig+0x1d0>)
 800326c:	681b      	ldr	r3, [r3, #0]
 800326e:	4618      	mov	r0, r3
 8003270:	f7fe f95e 	bl	8001530 <HAL_InitTick>

  return HAL_OK;
 8003274:	2300      	movs	r3, #0
}
 8003276:	4618      	mov	r0, r3
 8003278:	3710      	adds	r7, #16
 800327a:	46bd      	mov	sp, r7
 800327c:	bd80      	pop	{r7, pc}
 800327e:	bf00      	nop
 8003280:	40022000 	.word	0x40022000
 8003284:	40021000 	.word	0x40021000
 8003288:	08004154 	.word	0x08004154
 800328c:	20000000 	.word	0x20000000
 8003290:	20000004 	.word	0x20000004

08003294 <HAL_RCC_GetSysClockFreq>:
  *         right SYSCLK value. Otherwise, any configuration based on this function will be incorrect.
  *
  * @retval SYSCLK frequency
  */
uint32_t HAL_RCC_GetSysClockFreq(void)
{
 8003294:	b490      	push	{r4, r7}
 8003296:	b08a      	sub	sp, #40	; 0x28
 8003298:	af00      	add	r7, sp, #0
#if defined(RCC_CFGR2_PREDIV1SRC)
  const uint8_t aPLLMULFactorTable[14] = {0, 0, 4, 5, 6, 7, 8, 9, 0, 0, 0, 0, 0, 13};
  const uint8_t aPredivFactorTable[16] = {1, 2, 3, 4, 5, 6, 7, 8, 9, 10, 11, 12, 13, 14, 15, 16};
#else
  const uint8_t aPLLMULFactorTable[16] = {2, 3, 4, 5, 6, 7, 8, 9, 10, 11, 12, 13, 14, 15, 16, 16};
 800329a:	4b29      	ldr	r3, [pc, #164]	; (8003340 <HAL_RCC_GetSysClockFreq+0xac>)
 800329c:	1d3c      	adds	r4, r7, #4
 800329e:	cb0f      	ldmia	r3, {r0, r1, r2, r3}
 80032a0:	e884 000f 	stmia.w	r4, {r0, r1, r2, r3}
#if defined(RCC_CFGR2_PREDIV1)
  const uint8_t aPredivFactorTable[16] = {1, 2, 3, 4, 5, 6, 7, 8, 9, 10, 11, 12, 13, 14, 15, 16};
#else
  const uint8_t aPredivFactorTable[2] = {1, 2};
 80032a4:	f240 2301 	movw	r3, #513	; 0x201
 80032a8:	803b      	strh	r3, [r7, #0]
#endif /*RCC_CFGR2_PREDIV1*/

#endif
  uint32_t tmpreg = 0U, prediv = 0U, pllclk = 0U, pllmul = 0U;
 80032aa:	2300      	movs	r3, #0
 80032ac:	61fb      	str	r3, [r7, #28]
 80032ae:	2300      	movs	r3, #0
 80032b0:	61bb      	str	r3, [r7, #24]
 80032b2:	2300      	movs	r3, #0
 80032b4:	627b      	str	r3, [r7, #36]	; 0x24
 80032b6:	2300      	movs	r3, #0
 80032b8:	617b      	str	r3, [r7, #20]
  uint32_t sysclockfreq = 0U;
 80032ba:	2300      	movs	r3, #0
 80032bc:	623b      	str	r3, [r7, #32]
#if defined(RCC_CFGR2_PREDIV1SRC)
  uint32_t prediv2 = 0U, pll2mul = 0U;
#endif /*RCC_CFGR2_PREDIV1SRC*/

  tmpreg = RCC->CFGR;
 80032be:	4b21      	ldr	r3, [pc, #132]	; (8003344 <HAL_RCC_GetSysClockFreq+0xb0>)
 80032c0:	685b      	ldr	r3, [r3, #4]
 80032c2:	61fb      	str	r3, [r7, #28]

  /* Get SYSCLK source -------------------------------------------------------*/
  switch (tmpreg & RCC_CFGR_SWS)
 80032c4:	69fb      	ldr	r3, [r7, #28]
 80032c6:	f003 030c 	and.w	r3, r3, #12
 80032ca:	2b04      	cmp	r3, #4
 80032cc:	d002      	beq.n	80032d4 <HAL_RCC_GetSysClockFreq+0x40>
 80032ce:	2b08      	cmp	r3, #8
 80032d0:	d003      	beq.n	80032da <HAL_RCC_GetSysClockFreq+0x46>
 80032d2:	e02b      	b.n	800332c <HAL_RCC_GetSysClockFreq+0x98>
  {
    case RCC_SYSCLKSOURCE_STATUS_HSE:  /* HSE used as system clock */
    {
      sysclockfreq = HSE_VALUE;
 80032d4:	4b1c      	ldr	r3, [pc, #112]	; (8003348 <HAL_RCC_GetSysClockFreq+0xb4>)
 80032d6:	623b      	str	r3, [r7, #32]
      break;
 80032d8:	e02b      	b.n	8003332 <HAL_RCC_GetSysClockFreq+0x9e>
    }
    case RCC_SYSCLKSOURCE_STATUS_PLLCLK:  /* PLL used as system clock */
    {
      pllmul = aPLLMULFactorTable[(uint32_t)(tmpreg & RCC_CFGR_PLLMULL) >> RCC_CFGR_PLLMULL_Pos];
 80032da:	69fb      	ldr	r3, [r7, #28]
 80032dc:	0c9b      	lsrs	r3, r3, #18
 80032de:	f003 030f 	and.w	r3, r3, #15
 80032e2:	3328      	adds	r3, #40	; 0x28
 80032e4:	443b      	add	r3, r7
 80032e6:	f813 3c24 	ldrb.w	r3, [r3, #-36]
 80032ea:	617b      	str	r3, [r7, #20]
      if ((tmpreg & RCC_CFGR_PLLSRC) != RCC_PLLSOURCE_HSI_DIV2)
 80032ec:	69fb      	ldr	r3, [r7, #28]
 80032ee:	f403 3380 	and.w	r3, r3, #65536	; 0x10000
 80032f2:	2b00      	cmp	r3, #0
 80032f4:	d012      	beq.n	800331c <HAL_RCC_GetSysClockFreq+0x88>
      {
#if defined(RCC_CFGR2_PREDIV1)
        prediv = aPredivFactorTable[(uint32_t)(RCC->CFGR2 & RCC_CFGR2_PREDIV1) >> RCC_CFGR2_PREDIV1_Pos];
#else
        prediv = aPredivFactorTable[(uint32_t)(RCC->CFGR & RCC_CFGR_PLLXTPRE) >> RCC_CFGR_PLLXTPRE_Pos];
 80032f6:	4b13      	ldr	r3, [pc, #76]	; (8003344 <HAL_RCC_GetSysClockFreq+0xb0>)
 80032f8:	685b      	ldr	r3, [r3, #4]
 80032fa:	0c5b      	lsrs	r3, r3, #17
 80032fc:	f003 0301 	and.w	r3, r3, #1
 8003300:	3328      	adds	r3, #40	; 0x28
 8003302:	443b      	add	r3, r7
 8003304:	f813 3c28 	ldrb.w	r3, [r3, #-40]
 8003308:	61bb      	str	r3, [r7, #24]
        {
          pllclk = pllclk / 2;
        }
#else
        /* HSE used as PLL clock source : PLLCLK = HSE/PREDIV1 * PLLMUL */
        pllclk = (uint32_t)((HSE_VALUE  * pllmul) / prediv);
 800330a:	697b      	ldr	r3, [r7, #20]
 800330c:	4a0e      	ldr	r2, [pc, #56]	; (8003348 <HAL_RCC_GetSysClockFreq+0xb4>)
 800330e:	fb03 f202 	mul.w	r2, r3, r2
 8003312:	69bb      	ldr	r3, [r7, #24]
 8003314:	fbb2 f3f3 	udiv	r3, r2, r3
 8003318:	627b      	str	r3, [r7, #36]	; 0x24
 800331a:	e004      	b.n	8003326 <HAL_RCC_GetSysClockFreq+0x92>
#endif /*RCC_CFGR2_PREDIV1SRC*/
      }
      else
      {
        /* HSI used as PLL clock source : PLLCLK = HSI/2 * PLLMUL */
        pllclk = (uint32_t)((HSI_VALUE >> 1) * pllmul);
 800331c:	697b      	ldr	r3, [r7, #20]
 800331e:	4a0b      	ldr	r2, [pc, #44]	; (800334c <HAL_RCC_GetSysClockFreq+0xb8>)
 8003320:	fb02 f303 	mul.w	r3, r2, r3
 8003324:	627b      	str	r3, [r7, #36]	; 0x24
      }
      sysclockfreq = pllclk;
 8003326:	6a7b      	ldr	r3, [r7, #36]	; 0x24
 8003328:	623b      	str	r3, [r7, #32]
      break;
 800332a:	e002      	b.n	8003332 <HAL_RCC_GetSysClockFreq+0x9e>
    }
    case RCC_SYSCLKSOURCE_STATUS_HSI:  /* HSI used as system clock source */
    default: /* HSI used as system clock */
    {
      sysclockfreq = HSI_VALUE;
 800332c:	4b06      	ldr	r3, [pc, #24]	; (8003348 <HAL_RCC_GetSysClockFreq+0xb4>)
 800332e:	623b      	str	r3, [r7, #32]
      break;
 8003330:	bf00      	nop
    }
  }
  return sysclockfreq;
 8003332:	6a3b      	ldr	r3, [r7, #32]
}
 8003334:	4618      	mov	r0, r3
 8003336:	3728      	adds	r7, #40	; 0x28
 8003338:	46bd      	mov	sp, r7
 800333a:	bc90      	pop	{r4, r7}
 800333c:	4770      	bx	lr
 800333e:	bf00      	nop
 8003340:	08004044 	.word	0x08004044
 8003344:	40021000 	.word	0x40021000
 8003348:	007a1200 	.word	0x007a1200
 800334c:	003d0900 	.word	0x003d0900

08003350 <HAL_RCC_GetHCLKFreq>:
  * @note   The SystemCoreClock CMSIS variable is used to store System Clock Frequency
  *         and updated within this function
  * @retval HCLK frequency
  */
uint32_t HAL_RCC_GetHCLKFreq(void)
{
 8003350:	b480      	push	{r7}
 8003352:	af00      	add	r7, sp, #0
  return SystemCoreClock;
 8003354:	4b02      	ldr	r3, [pc, #8]	; (8003360 <HAL_RCC_GetHCLKFreq+0x10>)
 8003356:	681b      	ldr	r3, [r3, #0]
}
 8003358:	4618      	mov	r0, r3
 800335a:	46bd      	mov	sp, r7
 800335c:	bc80      	pop	{r7}
 800335e:	4770      	bx	lr
 8003360:	20000000 	.word	0x20000000

08003364 <HAL_RCC_GetPCLK1Freq>:
  * @note   Each time PCLK1 changes, this function must be called to update the
  *         right PCLK1 value. Otherwise, any configuration based on this function will be incorrect.
  * @retval PCLK1 frequency
  */
uint32_t HAL_RCC_GetPCLK1Freq(void)
{
 8003364:	b580      	push	{r7, lr}
 8003366:	af00      	add	r7, sp, #0
  /* Get HCLK source and Compute PCLK1 frequency ---------------------------*/
  return (HAL_RCC_GetHCLKFreq() >> APBPrescTable[(RCC->CFGR & RCC_CFGR_PPRE1) >> RCC_CFGR_PPRE1_Pos]);
 8003368:	f7ff fff2 	bl	8003350 <HAL_RCC_GetHCLKFreq>
 800336c:	4602      	mov	r2, r0
 800336e:	4b05      	ldr	r3, [pc, #20]	; (8003384 <HAL_RCC_GetPCLK1Freq+0x20>)
 8003370:	685b      	ldr	r3, [r3, #4]
 8003372:	0a1b      	lsrs	r3, r3, #8
 8003374:	f003 0307 	and.w	r3, r3, #7
 8003378:	4903      	ldr	r1, [pc, #12]	; (8003388 <HAL_RCC_GetPCLK1Freq+0x24>)
 800337a:	5ccb      	ldrb	r3, [r1, r3]
 800337c:	fa22 f303 	lsr.w	r3, r2, r3
}
 8003380:	4618      	mov	r0, r3
 8003382:	bd80      	pop	{r7, pc}
 8003384:	40021000 	.word	0x40021000
 8003388:	08004164 	.word	0x08004164

0800338c <HAL_RCC_GetPCLK2Freq>:
  * @note   Each time PCLK2 changes, this function must be called to update the
  *         right PCLK2 value. Otherwise, any configuration based on this function will be incorrect.
  * @retval PCLK2 frequency
  */
uint32_t HAL_RCC_GetPCLK2Freq(void)
{
 800338c:	b580      	push	{r7, lr}
 800338e:	af00      	add	r7, sp, #0
  /* Get HCLK source and Compute PCLK2 frequency ---------------------------*/
  return (HAL_RCC_GetHCLKFreq() >> APBPrescTable[(RCC->CFGR & RCC_CFGR_PPRE2) >> RCC_CFGR_PPRE2_Pos]);
 8003390:	f7ff ffde 	bl	8003350 <HAL_RCC_GetHCLKFreq>
 8003394:	4602      	mov	r2, r0
 8003396:	4b05      	ldr	r3, [pc, #20]	; (80033ac <HAL_RCC_GetPCLK2Freq+0x20>)
 8003398:	685b      	ldr	r3, [r3, #4]
 800339a:	0adb      	lsrs	r3, r3, #11
 800339c:	f003 0307 	and.w	r3, r3, #7
 80033a0:	4903      	ldr	r1, [pc, #12]	; (80033b0 <HAL_RCC_GetPCLK2Freq+0x24>)
 80033a2:	5ccb      	ldrb	r3, [r1, r3]
 80033a4:	fa22 f303 	lsr.w	r3, r2, r3
}
 80033a8:	4618      	mov	r0, r3
 80033aa:	bd80      	pop	{r7, pc}
 80033ac:	40021000 	.word	0x40021000
 80033b0:	08004164 	.word	0x08004164

080033b4 <RCC_Delay>:
  * @brief  This function provides delay (in milliseconds) based on CPU cycles method.
  * @param  mdelay: specifies the delay time length, in milliseconds.
  * @retval None
  */
static void RCC_Delay(uint32_t mdelay)
{
 80033b4:	b480      	push	{r7}
 80033b6:	b085      	sub	sp, #20
 80033b8:	af00      	add	r7, sp, #0
 80033ba:	6078      	str	r0, [r7, #4]
  __IO uint32_t Delay = mdelay * (SystemCoreClock / 8U / 1000U);
 80033bc:	4b0a      	ldr	r3, [pc, #40]	; (80033e8 <RCC_Delay+0x34>)
 80033be:	681b      	ldr	r3, [r3, #0]
 80033c0:	4a0a      	ldr	r2, [pc, #40]	; (80033ec <RCC_Delay+0x38>)
 80033c2:	fba2 2303 	umull	r2, r3, r2, r3
 80033c6:	0a5b      	lsrs	r3, r3, #9
 80033c8:	687a      	ldr	r2, [r7, #4]
 80033ca:	fb02 f303 	mul.w	r3, r2, r3
 80033ce:	60fb      	str	r3, [r7, #12]
  do
  {
    __NOP();
 80033d0:	bf00      	nop
  }
  while (Delay --);
 80033d2:	68fb      	ldr	r3, [r7, #12]
 80033d4:	1e5a      	subs	r2, r3, #1
 80033d6:	60fa      	str	r2, [r7, #12]
 80033d8:	2b00      	cmp	r3, #0
 80033da:	d1f9      	bne.n	80033d0 <RCC_Delay+0x1c>
}
 80033dc:	bf00      	nop
 80033de:	bf00      	nop
 80033e0:	3714      	adds	r7, #20
 80033e2:	46bd      	mov	sp, r7
 80033e4:	bc80      	pop	{r7}
 80033e6:	4770      	bx	lr
 80033e8:	20000000 	.word	0x20000000
 80033ec:	10624dd3 	.word	0x10624dd3

080033f0 <HAL_USART_Init>:
  * @param  husart Pointer to a USART_HandleTypeDef structure that contains
  *                the configuration information for the specified USART module.
  * @retval HAL status
  */
HAL_StatusTypeDef HAL_USART_Init(USART_HandleTypeDef *husart)
{
 80033f0:	b580      	push	{r7, lr}
 80033f2:	b082      	sub	sp, #8
 80033f4:	af00      	add	r7, sp, #0
 80033f6:	6078      	str	r0, [r7, #4]
  /* Check the USART handle allocation */
  if (husart == NULL)
 80033f8:	687b      	ldr	r3, [r7, #4]
 80033fa:	2b00      	cmp	r3, #0
 80033fc:	d101      	bne.n	8003402 <HAL_USART_Init+0x12>
  {
    return HAL_ERROR;
 80033fe:	2301      	movs	r3, #1
 8003400:	e033      	b.n	800346a <HAL_USART_Init+0x7a>
  }

  /* Check the parameters */
  assert_param(IS_USART_INSTANCE(husart->Instance));

  if (husart->State == HAL_USART_STATE_RESET)
 8003402:	687b      	ldr	r3, [r7, #4]
 8003404:	f893 303d 	ldrb.w	r3, [r3, #61]	; 0x3d
 8003408:	b2db      	uxtb	r3, r3
 800340a:	2b00      	cmp	r3, #0
 800340c:	d106      	bne.n	800341c <HAL_USART_Init+0x2c>
  {
    /* Allocate lock resource and initialize it */
    husart->Lock = HAL_UNLOCKED;
 800340e:	687b      	ldr	r3, [r7, #4]
 8003410:	2200      	movs	r2, #0
 8003412:	f883 203c 	strb.w	r2, [r3, #60]	; 0x3c

    /* Init the low level hardware */
    husart->MspInitCallback(husart);
#else
    /* Init the low level hardware : GPIO, CLOCK */
    HAL_USART_MspInit(husart);
 8003416:	6878      	ldr	r0, [r7, #4]
 8003418:	f7fd ff8c 	bl	8001334 <HAL_USART_MspInit>
#endif /* USE_HAL_USART_REGISTER_CALLBACKS */
  }

  husart->State = HAL_USART_STATE_BUSY;
 800341c:	687b      	ldr	r3, [r7, #4]
 800341e:	2202      	movs	r2, #2
 8003420:	f883 203d 	strb.w	r2, [r3, #61]	; 0x3d

  /* Set the USART Communication parameters */
  USART_SetConfig(husart);
 8003424:	6878      	ldr	r0, [r7, #4]
 8003426:	f000 fb61 	bl	8003aec <USART_SetConfig>

  /* In USART mode, the following bits must be kept cleared:
     - LINEN bit in the USART_CR2 register
     - HDSEL, SCEN and IREN bits in the USART_CR3 register */
  CLEAR_BIT(husart->Instance->CR2, USART_CR2_LINEN);
 800342a:	687b      	ldr	r3, [r7, #4]
 800342c:	681b      	ldr	r3, [r3, #0]
 800342e:	691a      	ldr	r2, [r3, #16]
 8003430:	687b      	ldr	r3, [r7, #4]
 8003432:	681b      	ldr	r3, [r3, #0]
 8003434:	f422 4280 	bic.w	r2, r2, #16384	; 0x4000
 8003438:	611a      	str	r2, [r3, #16]
  CLEAR_BIT(husart->Instance->CR3, (USART_CR3_SCEN | USART_CR3_HDSEL | USART_CR3_IREN));
 800343a:	687b      	ldr	r3, [r7, #4]
 800343c:	681b      	ldr	r3, [r3, #0]
 800343e:	695a      	ldr	r2, [r3, #20]
 8003440:	687b      	ldr	r3, [r7, #4]
 8003442:	681b      	ldr	r3, [r3, #0]
 8003444:	f022 022a 	bic.w	r2, r2, #42	; 0x2a
 8003448:	615a      	str	r2, [r3, #20]

  /* Enable the Peripheral */
  __HAL_USART_ENABLE(husart);
 800344a:	687b      	ldr	r3, [r7, #4]
 800344c:	681b      	ldr	r3, [r3, #0]
 800344e:	68da      	ldr	r2, [r3, #12]
 8003450:	687b      	ldr	r3, [r7, #4]
 8003452:	681b      	ldr	r3, [r3, #0]
 8003454:	f442 5200 	orr.w	r2, r2, #8192	; 0x2000
 8003458:	60da      	str	r2, [r3, #12]

  /* Initialize the USART state */
  husart->ErrorCode = HAL_USART_ERROR_NONE;
 800345a:	687b      	ldr	r3, [r7, #4]
 800345c:	2200      	movs	r2, #0
 800345e:	641a      	str	r2, [r3, #64]	; 0x40
  husart->State = HAL_USART_STATE_READY;
 8003460:	687b      	ldr	r3, [r7, #4]
 8003462:	2201      	movs	r2, #1
 8003464:	f883 203d 	strb.w	r2, [r3, #61]	; 0x3d

  return HAL_OK;
 8003468:	2300      	movs	r3, #0
}
 800346a:	4618      	mov	r0, r3
 800346c:	3708      	adds	r7, #8
 800346e:	46bd      	mov	sp, r7
 8003470:	bd80      	pop	{r7, pc}
	...

08003474 <HAL_USART_IRQHandler>:
  * @param  husart Pointer to a USART_HandleTypeDef structure that contains
  *                the configuration information for the specified USART module.
  * @retval None
  */
void HAL_USART_IRQHandler(USART_HandleTypeDef *husart)
{
 8003474:	b580      	push	{r7, lr}
 8003476:	b088      	sub	sp, #32
 8003478:	af00      	add	r7, sp, #0
 800347a:	6078      	str	r0, [r7, #4]
  uint32_t isrflags = READ_REG(husart->Instance->SR);
 800347c:	687b      	ldr	r3, [r7, #4]
 800347e:	681b      	ldr	r3, [r3, #0]
 8003480:	681b      	ldr	r3, [r3, #0]
 8003482:	61fb      	str	r3, [r7, #28]
  uint32_t cr1its   = READ_REG(husart->Instance->CR1);
 8003484:	687b      	ldr	r3, [r7, #4]
 8003486:	681b      	ldr	r3, [r3, #0]
 8003488:	68db      	ldr	r3, [r3, #12]
 800348a:	61bb      	str	r3, [r7, #24]
  uint32_t cr3its   = READ_REG(husart->Instance->CR3);
 800348c:	687b      	ldr	r3, [r7, #4]
 800348e:	681b      	ldr	r3, [r3, #0]
 8003490:	695b      	ldr	r3, [r3, #20]
 8003492:	617b      	str	r3, [r7, #20]
  uint32_t errorflags = 0x00U;
 8003494:	2300      	movs	r3, #0
 8003496:	613b      	str	r3, [r7, #16]
  uint32_t dmarequest = 0x00U;
 8003498:	2300      	movs	r3, #0
 800349a:	60fb      	str	r3, [r7, #12]

  /* If no error occurs */
  errorflags = (isrflags & (uint32_t)(USART_SR_PE | USART_SR_FE | USART_SR_ORE | USART_SR_NE));
 800349c:	69fb      	ldr	r3, [r7, #28]
 800349e:	f003 030f 	and.w	r3, r3, #15
 80034a2:	613b      	str	r3, [r7, #16]
  if (errorflags == RESET)
 80034a4:	693b      	ldr	r3, [r7, #16]
 80034a6:	2b00      	cmp	r3, #0
 80034a8:	d117      	bne.n	80034da <HAL_USART_IRQHandler+0x66>
  {
    /* USART in mode Receiver -------------------------------------------------*/
    if (((isrflags & USART_SR_RXNE) != RESET) && ((cr1its & USART_CR1_RXNEIE) != RESET))
 80034aa:	69fb      	ldr	r3, [r7, #28]
 80034ac:	f003 0320 	and.w	r3, r3, #32
 80034b0:	2b00      	cmp	r3, #0
 80034b2:	d012      	beq.n	80034da <HAL_USART_IRQHandler+0x66>
 80034b4:	69bb      	ldr	r3, [r7, #24]
 80034b6:	f003 0320 	and.w	r3, r3, #32
 80034ba:	2b00      	cmp	r3, #0
 80034bc:	d00d      	beq.n	80034da <HAL_USART_IRQHandler+0x66>
    {
      if (husart->State == HAL_USART_STATE_BUSY_RX)
 80034be:	687b      	ldr	r3, [r7, #4]
 80034c0:	f893 303d 	ldrb.w	r3, [r3, #61]	; 0x3d
 80034c4:	b2db      	uxtb	r3, r3
 80034c6:	2b22      	cmp	r3, #34	; 0x22
 80034c8:	d103      	bne.n	80034d2 <HAL_USART_IRQHandler+0x5e>
      {
        USART_Receive_IT(husart);
 80034ca:	6878      	ldr	r0, [r7, #4]
 80034cc:	f000 f9b4 	bl	8003838 <USART_Receive_IT>
      }
      else
      {
        USART_TransmitReceive_IT(husart);
      }
      return;
 80034d0:	e0e9      	b.n	80036a6 <HAL_USART_IRQHandler+0x232>
        USART_TransmitReceive_IT(husart);
 80034d2:	6878      	ldr	r0, [r7, #4]
 80034d4:	f000 fa36 	bl	8003944 <USART_TransmitReceive_IT>
      return;
 80034d8:	e0e5      	b.n	80036a6 <HAL_USART_IRQHandler+0x232>
    }
  }
  /* If some errors occur */
  if ((errorflags != RESET) && (((cr3its & USART_CR3_EIE) != RESET) || ((cr1its & (USART_CR1_RXNEIE | USART_CR1_PEIE)) != RESET)))
 80034da:	693b      	ldr	r3, [r7, #16]
 80034dc:	2b00      	cmp	r3, #0
 80034de:	f000 80bb 	beq.w	8003658 <HAL_USART_IRQHandler+0x1e4>
 80034e2:	697b      	ldr	r3, [r7, #20]
 80034e4:	f003 0301 	and.w	r3, r3, #1
 80034e8:	2b00      	cmp	r3, #0
 80034ea:	d105      	bne.n	80034f8 <HAL_USART_IRQHandler+0x84>
 80034ec:	69bb      	ldr	r3, [r7, #24]
 80034ee:	f403 7390 	and.w	r3, r3, #288	; 0x120
 80034f2:	2b00      	cmp	r3, #0
 80034f4:	f000 80b0 	beq.w	8003658 <HAL_USART_IRQHandler+0x1e4>
  {
    /* USART parity error interrupt occurred ----------------------------------*/
    if (((isrflags & USART_SR_PE) != RESET) && ((cr1its & USART_CR1_PEIE) != RESET))
 80034f8:	69fb      	ldr	r3, [r7, #28]
 80034fa:	f003 0301 	and.w	r3, r3, #1
 80034fe:	2b00      	cmp	r3, #0
 8003500:	d00a      	beq.n	8003518 <HAL_USART_IRQHandler+0xa4>
 8003502:	69bb      	ldr	r3, [r7, #24]
 8003504:	f403 7380 	and.w	r3, r3, #256	; 0x100
 8003508:	2b00      	cmp	r3, #0
 800350a:	d005      	beq.n	8003518 <HAL_USART_IRQHandler+0xa4>
    {
      husart->ErrorCode |= HAL_USART_ERROR_PE;
 800350c:	687b      	ldr	r3, [r7, #4]
 800350e:	6c1b      	ldr	r3, [r3, #64]	; 0x40
 8003510:	f043 0201 	orr.w	r2, r3, #1
 8003514:	687b      	ldr	r3, [r7, #4]
 8003516:	641a      	str	r2, [r3, #64]	; 0x40
    }

    /* USART noise error interrupt occurred --------------------------------*/
    if (((isrflags & USART_SR_NE) != RESET) && ((cr3its & USART_CR3_EIE) != RESET))
 8003518:	69fb      	ldr	r3, [r7, #28]
 800351a:	f003 0304 	and.w	r3, r3, #4
 800351e:	2b00      	cmp	r3, #0
 8003520:	d00a      	beq.n	8003538 <HAL_USART_IRQHandler+0xc4>
 8003522:	697b      	ldr	r3, [r7, #20]
 8003524:	f003 0301 	and.w	r3, r3, #1
 8003528:	2b00      	cmp	r3, #0
 800352a:	d005      	beq.n	8003538 <HAL_USART_IRQHandler+0xc4>
    {
      husart->ErrorCode |= HAL_USART_ERROR_NE;
 800352c:	687b      	ldr	r3, [r7, #4]
 800352e:	6c1b      	ldr	r3, [r3, #64]	; 0x40
 8003530:	f043 0202 	orr.w	r2, r3, #2
 8003534:	687b      	ldr	r3, [r7, #4]
 8003536:	641a      	str	r2, [r3, #64]	; 0x40
    }

    /* USART frame error interrupt occurred --------------------------------*/
    if (((isrflags & USART_SR_FE) != RESET) && ((cr3its & USART_CR3_EIE) != RESET))
 8003538:	69fb      	ldr	r3, [r7, #28]
 800353a:	f003 0302 	and.w	r3, r3, #2
 800353e:	2b00      	cmp	r3, #0
 8003540:	d00a      	beq.n	8003558 <HAL_USART_IRQHandler+0xe4>
 8003542:	697b      	ldr	r3, [r7, #20]
 8003544:	f003 0301 	and.w	r3, r3, #1
 8003548:	2b00      	cmp	r3, #0
 800354a:	d005      	beq.n	8003558 <HAL_USART_IRQHandler+0xe4>
    {
      husart->ErrorCode |= HAL_USART_ERROR_FE;
 800354c:	687b      	ldr	r3, [r7, #4]
 800354e:	6c1b      	ldr	r3, [r3, #64]	; 0x40
 8003550:	f043 0204 	orr.w	r2, r3, #4
 8003554:	687b      	ldr	r3, [r7, #4]
 8003556:	641a      	str	r2, [r3, #64]	; 0x40
    }

    /* USART Over-Run interrupt occurred -----------------------------------*/
    if (((isrflags & USART_SR_ORE) != RESET) && (((cr1its & USART_CR1_RXNEIE) != RESET) || ((cr3its & USART_CR3_EIE) != RESET)))
 8003558:	69fb      	ldr	r3, [r7, #28]
 800355a:	f003 0308 	and.w	r3, r3, #8
 800355e:	2b00      	cmp	r3, #0
 8003560:	d00f      	beq.n	8003582 <HAL_USART_IRQHandler+0x10e>
 8003562:	69bb      	ldr	r3, [r7, #24]
 8003564:	f003 0320 	and.w	r3, r3, #32
 8003568:	2b00      	cmp	r3, #0
 800356a:	d104      	bne.n	8003576 <HAL_USART_IRQHandler+0x102>
 800356c:	697b      	ldr	r3, [r7, #20]
 800356e:	f003 0301 	and.w	r3, r3, #1
 8003572:	2b00      	cmp	r3, #0
 8003574:	d005      	beq.n	8003582 <HAL_USART_IRQHandler+0x10e>
    {
      husart->ErrorCode |= HAL_USART_ERROR_ORE;
 8003576:	687b      	ldr	r3, [r7, #4]
 8003578:	6c1b      	ldr	r3, [r3, #64]	; 0x40
 800357a:	f043 0208 	orr.w	r2, r3, #8
 800357e:	687b      	ldr	r3, [r7, #4]
 8003580:	641a      	str	r2, [r3, #64]	; 0x40
    }

    if (husart->ErrorCode != HAL_USART_ERROR_NONE)
 8003582:	687b      	ldr	r3, [r7, #4]
 8003584:	6c1b      	ldr	r3, [r3, #64]	; 0x40
 8003586:	2b00      	cmp	r3, #0
 8003588:	f000 808c 	beq.w	80036a4 <HAL_USART_IRQHandler+0x230>
    {
      /* USART in mode Receiver -----------------------------------------------*/
      if (((isrflags & USART_SR_RXNE) != RESET) && ((cr1its & USART_CR1_RXNEIE) != RESET))
 800358c:	69fb      	ldr	r3, [r7, #28]
 800358e:	f003 0320 	and.w	r3, r3, #32
 8003592:	2b00      	cmp	r3, #0
 8003594:	d011      	beq.n	80035ba <HAL_USART_IRQHandler+0x146>
 8003596:	69bb      	ldr	r3, [r7, #24]
 8003598:	f003 0320 	and.w	r3, r3, #32
 800359c:	2b00      	cmp	r3, #0
 800359e:	d00c      	beq.n	80035ba <HAL_USART_IRQHandler+0x146>
      {
        if (husart->State == HAL_USART_STATE_BUSY_RX)
 80035a0:	687b      	ldr	r3, [r7, #4]
 80035a2:	f893 303d 	ldrb.w	r3, [r3, #61]	; 0x3d
 80035a6:	b2db      	uxtb	r3, r3
 80035a8:	2b22      	cmp	r3, #34	; 0x22
 80035aa:	d103      	bne.n	80035b4 <HAL_USART_IRQHandler+0x140>
        {
          USART_Receive_IT(husart);
 80035ac:	6878      	ldr	r0, [r7, #4]
 80035ae:	f000 f943 	bl	8003838 <USART_Receive_IT>
 80035b2:	e002      	b.n	80035ba <HAL_USART_IRQHandler+0x146>
        }
        else
        {
          USART_TransmitReceive_IT(husart);
 80035b4:	6878      	ldr	r0, [r7, #4]
 80035b6:	f000 f9c5 	bl	8003944 <USART_TransmitReceive_IT>
        }
      }
      /* If Overrun error occurs, or if any error occurs in DMA mode reception,
      consider error as blocking */
      dmarequest = HAL_IS_BIT_SET(husart->Instance->CR3, USART_CR3_DMAR);
 80035ba:	687b      	ldr	r3, [r7, #4]
 80035bc:	681b      	ldr	r3, [r3, #0]
 80035be:	695b      	ldr	r3, [r3, #20]
 80035c0:	f003 0340 	and.w	r3, r3, #64	; 0x40
 80035c4:	2b00      	cmp	r3, #0
 80035c6:	bf14      	ite	ne
 80035c8:	2301      	movne	r3, #1
 80035ca:	2300      	moveq	r3, #0
 80035cc:	b2db      	uxtb	r3, r3
 80035ce:	60fb      	str	r3, [r7, #12]
      if (((husart->ErrorCode & HAL_USART_ERROR_ORE) != RESET) || dmarequest)
 80035d0:	687b      	ldr	r3, [r7, #4]
 80035d2:	6c1b      	ldr	r3, [r3, #64]	; 0x40
 80035d4:	f003 0308 	and.w	r3, r3, #8
 80035d8:	2b00      	cmp	r3, #0
 80035da:	d102      	bne.n	80035e2 <HAL_USART_IRQHandler+0x16e>
 80035dc:	68fb      	ldr	r3, [r7, #12]
 80035de:	2b00      	cmp	r3, #0
 80035e0:	d031      	beq.n	8003646 <HAL_USART_IRQHandler+0x1d2>
      {
        /* Set the USART state ready to be able to start again the process,
        Disable Rx Interrupts, and disable Rx DMA request, if ongoing */
        USART_EndRxTransfer(husart);
 80035e2:	6878      	ldr	r0, [r7, #4]
 80035e4:	f000 f888 	bl	80036f8 <USART_EndRxTransfer>

        /* Disable the USART DMA Rx request if enabled */
        if (HAL_IS_BIT_SET(husart->Instance->CR3, USART_CR3_DMAR))
 80035e8:	687b      	ldr	r3, [r7, #4]
 80035ea:	681b      	ldr	r3, [r3, #0]
 80035ec:	695b      	ldr	r3, [r3, #20]
 80035ee:	f003 0340 	and.w	r3, r3, #64	; 0x40
 80035f2:	2b00      	cmp	r3, #0
 80035f4:	d023      	beq.n	800363e <HAL_USART_IRQHandler+0x1ca>
        {
          CLEAR_BIT(husart->Instance->CR3, USART_CR3_DMAR);
 80035f6:	687b      	ldr	r3, [r7, #4]
 80035f8:	681b      	ldr	r3, [r3, #0]
 80035fa:	695a      	ldr	r2, [r3, #20]
 80035fc:	687b      	ldr	r3, [r7, #4]
 80035fe:	681b      	ldr	r3, [r3, #0]
 8003600:	f022 0240 	bic.w	r2, r2, #64	; 0x40
 8003604:	615a      	str	r2, [r3, #20]

          /* Abort the USART DMA Rx channel */
          if (husart->hdmarx != NULL)
 8003606:	687b      	ldr	r3, [r7, #4]
 8003608:	6b9b      	ldr	r3, [r3, #56]	; 0x38
 800360a:	2b00      	cmp	r3, #0
 800360c:	d013      	beq.n	8003636 <HAL_USART_IRQHandler+0x1c2>
          {
            /* Set the USART DMA Abort callback :
            will lead to call HAL_USART_ErrorCallback() at end of DMA abort procedure */
            husart->hdmarx->XferAbortCallback = USART_DMAAbortOnError;
 800360e:	687b      	ldr	r3, [r7, #4]
 8003610:	6b9b      	ldr	r3, [r3, #56]	; 0x38
 8003612:	4a26      	ldr	r2, [pc, #152]	; (80036ac <HAL_USART_IRQHandler+0x238>)
 8003614:	635a      	str	r2, [r3, #52]	; 0x34

            if (HAL_DMA_Abort_IT(husart->hdmarx) != HAL_OK)
 8003616:	687b      	ldr	r3, [r7, #4]
 8003618:	6b9b      	ldr	r3, [r3, #56]	; 0x38
 800361a:	4618      	mov	r0, r3
 800361c:	f7fe f906 	bl	800182c <HAL_DMA_Abort_IT>
 8003620:	4603      	mov	r3, r0
 8003622:	2b00      	cmp	r3, #0
 8003624:	d016      	beq.n	8003654 <HAL_USART_IRQHandler+0x1e0>
            {
              /* Call Directly XferAbortCallback function in case of error */
              husart->hdmarx->XferAbortCallback(husart->hdmarx);
 8003626:	687b      	ldr	r3, [r7, #4]
 8003628:	6b9b      	ldr	r3, [r3, #56]	; 0x38
 800362a:	6b5b      	ldr	r3, [r3, #52]	; 0x34
 800362c:	687a      	ldr	r2, [r7, #4]
 800362e:	6b92      	ldr	r2, [r2, #56]	; 0x38
 8003630:	4610      	mov	r0, r2
 8003632:	4798      	blx	r3
        if (HAL_IS_BIT_SET(husart->Instance->CR3, USART_CR3_DMAR))
 8003634:	e00e      	b.n	8003654 <HAL_USART_IRQHandler+0x1e0>
#if (USE_HAL_USART_REGISTER_CALLBACKS == 1)
            /* Call registered Error Callback */
            husart->ErrorCallback(husart);
#else
            /* Call legacy weak Error Callback */
            HAL_USART_ErrorCallback(husart);
 8003636:	6878      	ldr	r0, [r7, #4]
 8003638:	f000 f855 	bl	80036e6 <HAL_USART_ErrorCallback>
        if (HAL_IS_BIT_SET(husart->Instance->CR3, USART_CR3_DMAR))
 800363c:	e00a      	b.n	8003654 <HAL_USART_IRQHandler+0x1e0>
#if (USE_HAL_USART_REGISTER_CALLBACKS == 1)
          /* Call registered Error Callback */
          husart->ErrorCallback(husart);
#else
          /* Call legacy weak Error Callback */
          HAL_USART_ErrorCallback(husart);
 800363e:	6878      	ldr	r0, [r7, #4]
 8003640:	f000 f851 	bl	80036e6 <HAL_USART_ErrorCallback>
        if (HAL_IS_BIT_SET(husart->Instance->CR3, USART_CR3_DMAR))
 8003644:	e006      	b.n	8003654 <HAL_USART_IRQHandler+0x1e0>
#if (USE_HAL_USART_REGISTER_CALLBACKS == 1)
        /* Call registered Error Callback */
        husart->ErrorCallback(husart);
#else
        /* Call legacy weak Error Callback */
        HAL_USART_ErrorCallback(husart);
 8003646:	6878      	ldr	r0, [r7, #4]
 8003648:	f000 f84d 	bl	80036e6 <HAL_USART_ErrorCallback>
#endif /* USE_HAL_USART_REGISTER_CALLBACKS */
        husart->ErrorCode = HAL_USART_ERROR_NONE;
 800364c:	687b      	ldr	r3, [r7, #4]
 800364e:	2200      	movs	r2, #0
 8003650:	641a      	str	r2, [r3, #64]	; 0x40
      }
    }
    return;
 8003652:	e027      	b.n	80036a4 <HAL_USART_IRQHandler+0x230>
        if (HAL_IS_BIT_SET(husart->Instance->CR3, USART_CR3_DMAR))
 8003654:	bf00      	nop
    return;
 8003656:	e025      	b.n	80036a4 <HAL_USART_IRQHandler+0x230>
  }

  /* USART in mode Transmitter -----------------------------------------------*/
  if (((isrflags & USART_SR_TXE) != RESET) && ((cr1its & USART_CR1_TXEIE) != RESET))
 8003658:	69fb      	ldr	r3, [r7, #28]
 800365a:	f003 0380 	and.w	r3, r3, #128	; 0x80
 800365e:	2b00      	cmp	r3, #0
 8003660:	d012      	beq.n	8003688 <HAL_USART_IRQHandler+0x214>
 8003662:	69bb      	ldr	r3, [r7, #24]
 8003664:	f003 0380 	and.w	r3, r3, #128	; 0x80
 8003668:	2b00      	cmp	r3, #0
 800366a:	d00d      	beq.n	8003688 <HAL_USART_IRQHandler+0x214>
  {
    if (husart->State == HAL_USART_STATE_BUSY_TX)
 800366c:	687b      	ldr	r3, [r7, #4]
 800366e:	f893 303d 	ldrb.w	r3, [r3, #61]	; 0x3d
 8003672:	b2db      	uxtb	r3, r3
 8003674:	2b12      	cmp	r3, #18
 8003676:	d103      	bne.n	8003680 <HAL_USART_IRQHandler+0x20c>
    {
      USART_Transmit_IT(husart);
 8003678:	6878      	ldr	r0, [r7, #4]
 800367a:	f000 f86e 	bl	800375a <USART_Transmit_IT>
    }
    else
    {
      USART_TransmitReceive_IT(husart);
    }
    return;
 800367e:	e012      	b.n	80036a6 <HAL_USART_IRQHandler+0x232>
      USART_TransmitReceive_IT(husart);
 8003680:	6878      	ldr	r0, [r7, #4]
 8003682:	f000 f95f 	bl	8003944 <USART_TransmitReceive_IT>
    return;
 8003686:	e00e      	b.n	80036a6 <HAL_USART_IRQHandler+0x232>
  }

  /* USART in mode Transmitter (transmission end) ----------------------------*/
  if (((isrflags & USART_SR_TC) != RESET) && ((cr1its & USART_CR1_TCIE) != RESET))
 8003688:	69fb      	ldr	r3, [r7, #28]
 800368a:	f003 0340 	and.w	r3, r3, #64	; 0x40
 800368e:	2b00      	cmp	r3, #0
 8003690:	d009      	beq.n	80036a6 <HAL_USART_IRQHandler+0x232>
 8003692:	69bb      	ldr	r3, [r7, #24]
 8003694:	f003 0340 	and.w	r3, r3, #64	; 0x40
 8003698:	2b00      	cmp	r3, #0
 800369a:	d004      	beq.n	80036a6 <HAL_USART_IRQHandler+0x232>
  {
    USART_EndTransmit_IT(husart);
 800369c:	6878      	ldr	r0, [r7, #4]
 800369e:	f000 f8ab 	bl	80037f8 <USART_EndTransmit_IT>
    return;
 80036a2:	e000      	b.n	80036a6 <HAL_USART_IRQHandler+0x232>
    return;
 80036a4:	bf00      	nop
  }
}
 80036a6:	3720      	adds	r7, #32
 80036a8:	46bd      	mov	sp, r7
 80036aa:	bd80      	pop	{r7, pc}
 80036ac:	08003733 	.word	0x08003733

080036b0 <HAL_USART_TxCpltCallback>:
  * @param  husart Pointer to a USART_HandleTypeDef structure that contains
  *                the configuration information for the specified USART module.
  * @retval None
  */
__weak void HAL_USART_TxCpltCallback(USART_HandleTypeDef *husart)
{
 80036b0:	b480      	push	{r7}
 80036b2:	b083      	sub	sp, #12
 80036b4:	af00      	add	r7, sp, #0
 80036b6:	6078      	str	r0, [r7, #4]
  /* Prevent unused argument(s) compilation warning */
  UNUSED(husart);
  /* NOTE: This function should not be modified, when the callback is needed,
           the HAL_USART_TxCpltCallback could be implemented in the user file
   */
}
 80036b8:	bf00      	nop
 80036ba:	370c      	adds	r7, #12
 80036bc:	46bd      	mov	sp, r7
 80036be:	bc80      	pop	{r7}
 80036c0:	4770      	bx	lr

080036c2 <HAL_USART_RxCpltCallback>:
  * @param  husart Pointer to a USART_HandleTypeDef structure that contains
  *                the configuration information for the specified USART module.
  * @retval None
  */
__weak void HAL_USART_RxCpltCallback(USART_HandleTypeDef *husart)
{
 80036c2:	b480      	push	{r7}
 80036c4:	b083      	sub	sp, #12
 80036c6:	af00      	add	r7, sp, #0
 80036c8:	6078      	str	r0, [r7, #4]
  /* Prevent unused argument(s) compilation warning */
  UNUSED(husart);
  /* NOTE: This function should not be modified, when the callback is needed,
           the HAL_USART_RxCpltCallback could be implemented in the user file
   */
}
 80036ca:	bf00      	nop
 80036cc:	370c      	adds	r7, #12
 80036ce:	46bd      	mov	sp, r7
 80036d0:	bc80      	pop	{r7}
 80036d2:	4770      	bx	lr

080036d4 <HAL_USART_TxRxCpltCallback>:
  * @param  husart Pointer to a USART_HandleTypeDef structure that contains
  *                the configuration information for the specified USART module.
  * @retval None
  */
__weak void HAL_USART_TxRxCpltCallback(USART_HandleTypeDef *husart)
{
 80036d4:	b480      	push	{r7}
 80036d6:	b083      	sub	sp, #12
 80036d8:	af00      	add	r7, sp, #0
 80036da:	6078      	str	r0, [r7, #4]
  /* Prevent unused argument(s) compilation warning */
  UNUSED(husart);
  /* NOTE: This function should not be modified, when the callback is needed,
           the HAL_USART_TxRxCpltCallback could be implemented in the user file
   */
}
 80036dc:	bf00      	nop
 80036de:	370c      	adds	r7, #12
 80036e0:	46bd      	mov	sp, r7
 80036e2:	bc80      	pop	{r7}
 80036e4:	4770      	bx	lr

080036e6 <HAL_USART_ErrorCallback>:
  * @param  husart Pointer to a USART_HandleTypeDef structure that contains
  *                the configuration information for the specified USART module.
  * @retval None
  */
__weak void HAL_USART_ErrorCallback(USART_HandleTypeDef *husart)
{
 80036e6:	b480      	push	{r7}
 80036e8:	b083      	sub	sp, #12
 80036ea:	af00      	add	r7, sp, #0
 80036ec:	6078      	str	r0, [r7, #4]
  /* Prevent unused argument(s) compilation warning */
  UNUSED(husart);
  /* NOTE: This function should not be modified, when the callback is needed,
           the HAL_USART_ErrorCallback could be implemented in the user file
   */
}
 80036ee:	bf00      	nop
 80036f0:	370c      	adds	r7, #12
 80036f2:	46bd      	mov	sp, r7
 80036f4:	bc80      	pop	{r7}
 80036f6:	4770      	bx	lr

080036f8 <USART_EndRxTransfer>:
  * @brief  End ongoing Rx transfer on USART peripheral (following error detection or Reception completion).
  * @param  husart USART handle.
  * @retval None
  */
static void USART_EndRxTransfer(USART_HandleTypeDef *husart)
{
 80036f8:	b480      	push	{r7}
 80036fa:	b083      	sub	sp, #12
 80036fc:	af00      	add	r7, sp, #0
 80036fe:	6078      	str	r0, [r7, #4]
  /* Disable RXNE, PE and ERR interrupts */
  CLEAR_BIT(husart->Instance->CR1, (USART_CR1_RXNEIE | USART_CR1_PEIE));
 8003700:	687b      	ldr	r3, [r7, #4]
 8003702:	681b      	ldr	r3, [r3, #0]
 8003704:	68da      	ldr	r2, [r3, #12]
 8003706:	687b      	ldr	r3, [r7, #4]
 8003708:	681b      	ldr	r3, [r3, #0]
 800370a:	f422 7290 	bic.w	r2, r2, #288	; 0x120
 800370e:	60da      	str	r2, [r3, #12]
  CLEAR_BIT(husart->Instance->CR3, USART_CR3_EIE);
 8003710:	687b      	ldr	r3, [r7, #4]
 8003712:	681b      	ldr	r3, [r3, #0]
 8003714:	695a      	ldr	r2, [r3, #20]
 8003716:	687b      	ldr	r3, [r7, #4]
 8003718:	681b      	ldr	r3, [r3, #0]
 800371a:	f022 0201 	bic.w	r2, r2, #1
 800371e:	615a      	str	r2, [r3, #20]

  /* At end of Rx process, restore husart->State to Ready */
  husart->State = HAL_USART_STATE_READY;
 8003720:	687b      	ldr	r3, [r7, #4]
 8003722:	2201      	movs	r2, #1
 8003724:	f883 203d 	strb.w	r2, [r3, #61]	; 0x3d
}
 8003728:	bf00      	nop
 800372a:	370c      	adds	r7, #12
 800372c:	46bd      	mov	sp, r7
 800372e:	bc80      	pop	{r7}
 8003730:	4770      	bx	lr

08003732 <USART_DMAAbortOnError>:
  *         (To be called at end of DMA Abort procedure following error occurrence).
  * @param  hdma DMA handle.
  * @retval None
  */
static void USART_DMAAbortOnError(DMA_HandleTypeDef *hdma)
{
 8003732:	b580      	push	{r7, lr}
 8003734:	b084      	sub	sp, #16
 8003736:	af00      	add	r7, sp, #0
 8003738:	6078      	str	r0, [r7, #4]
  USART_HandleTypeDef *husart = (USART_HandleTypeDef *)((DMA_HandleTypeDef *)hdma)->Parent;
 800373a:	687b      	ldr	r3, [r7, #4]
 800373c:	6a5b      	ldr	r3, [r3, #36]	; 0x24
 800373e:	60fb      	str	r3, [r7, #12]
  husart->RxXferCount = 0x00U;
 8003740:	68fb      	ldr	r3, [r7, #12]
 8003742:	2200      	movs	r2, #0
 8003744:	865a      	strh	r2, [r3, #50]	; 0x32
  husart->TxXferCount = 0x00U;
 8003746:	68fb      	ldr	r3, [r7, #12]
 8003748:	2200      	movs	r2, #0
 800374a:	855a      	strh	r2, [r3, #42]	; 0x2a
#if (USE_HAL_USART_REGISTER_CALLBACKS == 1)
  /* Call registered Error Callback */
  husart->ErrorCallback(husart);
#else
  /* Call legacy weak Error Callback */
  HAL_USART_ErrorCallback(husart);
 800374c:	68f8      	ldr	r0, [r7, #12]
 800374e:	f7ff ffca 	bl	80036e6 <HAL_USART_ErrorCallback>
#endif /* USE_HAL_USART_REGISTER_CALLBACKS */
}
 8003752:	bf00      	nop
 8003754:	3710      	adds	r7, #16
 8003756:	46bd      	mov	sp, r7
 8003758:	bd80      	pop	{r7, pc}

0800375a <USART_Transmit_IT>:
  *                the configuration information for the specified USART module.
  * @retval HAL status
  * @note   The USART errors are not managed to avoid the overrun error.
  */
static HAL_StatusTypeDef USART_Transmit_IT(USART_HandleTypeDef *husart)
{
 800375a:	b480      	push	{r7}
 800375c:	b085      	sub	sp, #20
 800375e:	af00      	add	r7, sp, #0
 8003760:	6078      	str	r0, [r7, #4]
  uint16_t *tmp;

  if (husart->State == HAL_USART_STATE_BUSY_TX)
 8003762:	687b      	ldr	r3, [r7, #4]
 8003764:	f893 303d 	ldrb.w	r3, [r3, #61]	; 0x3d
 8003768:	b2db      	uxtb	r3, r3
 800376a:	2b12      	cmp	r3, #18
 800376c:	d13e      	bne.n	80037ec <USART_Transmit_IT+0x92>
  {
    if ((husart->Init.WordLength == USART_WORDLENGTH_9B) && (husart->Init.Parity == USART_PARITY_NONE))
 800376e:	687b      	ldr	r3, [r7, #4]
 8003770:	689b      	ldr	r3, [r3, #8]
 8003772:	f5b3 5f80 	cmp.w	r3, #4096	; 0x1000
 8003776:	d114      	bne.n	80037a2 <USART_Transmit_IT+0x48>
 8003778:	687b      	ldr	r3, [r7, #4]
 800377a:	691b      	ldr	r3, [r3, #16]
 800377c:	2b00      	cmp	r3, #0
 800377e:	d110      	bne.n	80037a2 <USART_Transmit_IT+0x48>
    {
      tmp = (uint16_t *) husart->pTxBuffPtr;
 8003780:	687b      	ldr	r3, [r7, #4]
 8003782:	6a5b      	ldr	r3, [r3, #36]	; 0x24
 8003784:	60fb      	str	r3, [r7, #12]
      husart->Instance->DR = (uint16_t)(*tmp & (uint16_t)0x01FF);
 8003786:	68fb      	ldr	r3, [r7, #12]
 8003788:	881b      	ldrh	r3, [r3, #0]
 800378a:	461a      	mov	r2, r3
 800378c:	687b      	ldr	r3, [r7, #4]
 800378e:	681b      	ldr	r3, [r3, #0]
 8003790:	f3c2 0208 	ubfx	r2, r2, #0, #9
 8003794:	605a      	str	r2, [r3, #4]
      husart->pTxBuffPtr += 2U;
 8003796:	687b      	ldr	r3, [r7, #4]
 8003798:	6a5b      	ldr	r3, [r3, #36]	; 0x24
 800379a:	1c9a      	adds	r2, r3, #2
 800379c:	687b      	ldr	r3, [r7, #4]
 800379e:	625a      	str	r2, [r3, #36]	; 0x24
 80037a0:	e008      	b.n	80037b4 <USART_Transmit_IT+0x5a>
    }
    else
    {
      husart->Instance->DR = (uint8_t)(*husart->pTxBuffPtr++ & (uint8_t)0x00FF);
 80037a2:	687b      	ldr	r3, [r7, #4]
 80037a4:	6a5b      	ldr	r3, [r3, #36]	; 0x24
 80037a6:	1c59      	adds	r1, r3, #1
 80037a8:	687a      	ldr	r2, [r7, #4]
 80037aa:	6251      	str	r1, [r2, #36]	; 0x24
 80037ac:	781a      	ldrb	r2, [r3, #0]
 80037ae:	687b      	ldr	r3, [r7, #4]
 80037b0:	681b      	ldr	r3, [r3, #0]
 80037b2:	605a      	str	r2, [r3, #4]
    }

    if (--husart->TxXferCount == 0U)
 80037b4:	687b      	ldr	r3, [r7, #4]
 80037b6:	8d5b      	ldrh	r3, [r3, #42]	; 0x2a
 80037b8:	b29b      	uxth	r3, r3
 80037ba:	3b01      	subs	r3, #1
 80037bc:	b29b      	uxth	r3, r3
 80037be:	687a      	ldr	r2, [r7, #4]
 80037c0:	4619      	mov	r1, r3
 80037c2:	8551      	strh	r1, [r2, #42]	; 0x2a
 80037c4:	2b00      	cmp	r3, #0
 80037c6:	d10f      	bne.n	80037e8 <USART_Transmit_IT+0x8e>
    {
      /* Disable the USART Transmit data register empty Interrupt */
      CLEAR_BIT(husart->Instance->CR1, USART_CR1_TXEIE);
 80037c8:	687b      	ldr	r3, [r7, #4]
 80037ca:	681b      	ldr	r3, [r3, #0]
 80037cc:	68da      	ldr	r2, [r3, #12]
 80037ce:	687b      	ldr	r3, [r7, #4]
 80037d0:	681b      	ldr	r3, [r3, #0]
 80037d2:	f022 0280 	bic.w	r2, r2, #128	; 0x80
 80037d6:	60da      	str	r2, [r3, #12]

      /* Enable the USART Transmit Complete Interrupt */
      SET_BIT(husart->Instance->CR1, USART_CR1_TCIE);
 80037d8:	687b      	ldr	r3, [r7, #4]
 80037da:	681b      	ldr	r3, [r3, #0]
 80037dc:	68da      	ldr	r2, [r3, #12]
 80037de:	687b      	ldr	r3, [r7, #4]
 80037e0:	681b      	ldr	r3, [r3, #0]
 80037e2:	f042 0240 	orr.w	r2, r2, #64	; 0x40
 80037e6:	60da      	str	r2, [r3, #12]
    }
    return HAL_OK;
 80037e8:	2300      	movs	r3, #0
 80037ea:	e000      	b.n	80037ee <USART_Transmit_IT+0x94>
  }
  else
  {
    return HAL_BUSY;
 80037ec:	2302      	movs	r3, #2
  }
}
 80037ee:	4618      	mov	r0, r3
 80037f0:	3714      	adds	r7, #20
 80037f2:	46bd      	mov	sp, r7
 80037f4:	bc80      	pop	{r7}
 80037f6:	4770      	bx	lr

080037f8 <USART_EndTransmit_IT>:
  * @param  husart Pointer to a USART_HandleTypeDef structure that contains
  *                the configuration information for the specified USART module.
  * @retval HAL status
  */
static HAL_StatusTypeDef USART_EndTransmit_IT(USART_HandleTypeDef *husart)
{
 80037f8:	b580      	push	{r7, lr}
 80037fa:	b082      	sub	sp, #8
 80037fc:	af00      	add	r7, sp, #0
 80037fe:	6078      	str	r0, [r7, #4]
  /* Disable the USART Transmit Complete Interrupt */
  CLEAR_BIT(husart->Instance->CR1, USART_CR1_TCIE);
 8003800:	687b      	ldr	r3, [r7, #4]
 8003802:	681b      	ldr	r3, [r3, #0]
 8003804:	68da      	ldr	r2, [r3, #12]
 8003806:	687b      	ldr	r3, [r7, #4]
 8003808:	681b      	ldr	r3, [r3, #0]
 800380a:	f022 0240 	bic.w	r2, r2, #64	; 0x40
 800380e:	60da      	str	r2, [r3, #12]

  /* Disable the USART Error Interrupt: (Frame error, noise error, overrun error) */
  CLEAR_BIT(husart->Instance->CR3, USART_CR3_EIE);
 8003810:	687b      	ldr	r3, [r7, #4]
 8003812:	681b      	ldr	r3, [r3, #0]
 8003814:	695a      	ldr	r2, [r3, #20]
 8003816:	687b      	ldr	r3, [r7, #4]
 8003818:	681b      	ldr	r3, [r3, #0]
 800381a:	f022 0201 	bic.w	r2, r2, #1
 800381e:	615a      	str	r2, [r3, #20]

  husart->State = HAL_USART_STATE_READY;
 8003820:	687b      	ldr	r3, [r7, #4]
 8003822:	2201      	movs	r2, #1
 8003824:	f883 203d 	strb.w	r2, [r3, #61]	; 0x3d
#if (USE_HAL_USART_REGISTER_CALLBACKS == 1)
  /* Call registered Tx Complete Callback */
  husart->TxCpltCallback(husart);
#else
  /* Call legacy weak Tx Complete Callback */
  HAL_USART_TxCpltCallback(husart);
 8003828:	6878      	ldr	r0, [r7, #4]
 800382a:	f7ff ff41 	bl	80036b0 <HAL_USART_TxCpltCallback>
#endif /* USE_HAL_USART_REGISTER_CALLBACKS */

  return HAL_OK;
 800382e:	2300      	movs	r3, #0
}
 8003830:	4618      	mov	r0, r3
 8003832:	3708      	adds	r7, #8
 8003834:	46bd      	mov	sp, r7
 8003836:	bd80      	pop	{r7, pc}

08003838 <USART_Receive_IT>:
  * @param  husart Pointer to a USART_HandleTypeDef structure that contains
  *                the configuration information for the specified USART module.
  * @retval HAL status
  */
static HAL_StatusTypeDef USART_Receive_IT(USART_HandleTypeDef *husart)
{
 8003838:	b580      	push	{r7, lr}
 800383a:	b084      	sub	sp, #16
 800383c:	af00      	add	r7, sp, #0
 800383e:	6078      	str	r0, [r7, #4]
  uint8_t  *pdata8bits;
  uint16_t *pdata16bits;

  if (husart->State == HAL_USART_STATE_BUSY_RX)
 8003840:	687b      	ldr	r3, [r7, #4]
 8003842:	f893 303d 	ldrb.w	r3, [r3, #61]	; 0x3d
 8003846:	b2db      	uxtb	r3, r3
 8003848:	2b22      	cmp	r3, #34	; 0x22
 800384a:	d176      	bne.n	800393a <USART_Receive_IT+0x102>
  {
    if ((husart->Init.WordLength == USART_WORDLENGTH_9B) && (husart->Init.Parity == USART_PARITY_NONE))
 800384c:	687b      	ldr	r3, [r7, #4]
 800384e:	689b      	ldr	r3, [r3, #8]
 8003850:	f5b3 5f80 	cmp.w	r3, #4096	; 0x1000
 8003854:	d117      	bne.n	8003886 <USART_Receive_IT+0x4e>
 8003856:	687b      	ldr	r3, [r7, #4]
 8003858:	691b      	ldr	r3, [r3, #16]
 800385a:	2b00      	cmp	r3, #0
 800385c:	d113      	bne.n	8003886 <USART_Receive_IT+0x4e>
    {
      pdata8bits  = NULL;
 800385e:	2300      	movs	r3, #0
 8003860:	60fb      	str	r3, [r7, #12]
      pdata16bits = (uint16_t *) husart->pRxBuffPtr;
 8003862:	687b      	ldr	r3, [r7, #4]
 8003864:	6adb      	ldr	r3, [r3, #44]	; 0x2c
 8003866:	60bb      	str	r3, [r7, #8]
      *pdata16bits = (uint16_t)(husart->Instance->DR & (uint16_t)0x01FF);
 8003868:	687b      	ldr	r3, [r7, #4]
 800386a:	681b      	ldr	r3, [r3, #0]
 800386c:	685b      	ldr	r3, [r3, #4]
 800386e:	b29b      	uxth	r3, r3
 8003870:	f3c3 0308 	ubfx	r3, r3, #0, #9
 8003874:	b29a      	uxth	r2, r3
 8003876:	68bb      	ldr	r3, [r7, #8]
 8003878:	801a      	strh	r2, [r3, #0]
      husart->pRxBuffPtr += 2U;
 800387a:	687b      	ldr	r3, [r7, #4]
 800387c:	6adb      	ldr	r3, [r3, #44]	; 0x2c
 800387e:	1c9a      	adds	r2, r3, #2
 8003880:	687b      	ldr	r3, [r7, #4]
 8003882:	62da      	str	r2, [r3, #44]	; 0x2c
 8003884:	e026      	b.n	80038d4 <USART_Receive_IT+0x9c>
    }
    else
    {
      pdata8bits = (uint8_t *) husart->pRxBuffPtr;
 8003886:	687b      	ldr	r3, [r7, #4]
 8003888:	6adb      	ldr	r3, [r3, #44]	; 0x2c
 800388a:	60fb      	str	r3, [r7, #12]
      pdata16bits  = NULL;
 800388c:	2300      	movs	r3, #0
 800388e:	60bb      	str	r3, [r7, #8]

      if ((husart->Init.WordLength == USART_WORDLENGTH_9B) || ((husart->Init.WordLength == USART_WORDLENGTH_8B) && (husart->Init.Parity == USART_PARITY_NONE)))
 8003890:	687b      	ldr	r3, [r7, #4]
 8003892:	689b      	ldr	r3, [r3, #8]
 8003894:	f5b3 5f80 	cmp.w	r3, #4096	; 0x1000
 8003898:	d007      	beq.n	80038aa <USART_Receive_IT+0x72>
 800389a:	687b      	ldr	r3, [r7, #4]
 800389c:	689b      	ldr	r3, [r3, #8]
 800389e:	2b00      	cmp	r3, #0
 80038a0:	d10a      	bne.n	80038b8 <USART_Receive_IT+0x80>
 80038a2:	687b      	ldr	r3, [r7, #4]
 80038a4:	691b      	ldr	r3, [r3, #16]
 80038a6:	2b00      	cmp	r3, #0
 80038a8:	d106      	bne.n	80038b8 <USART_Receive_IT+0x80>
      {
        *pdata8bits = (uint8_t)(husart->Instance->DR & (uint8_t)0x00FF);
 80038aa:	687b      	ldr	r3, [r7, #4]
 80038ac:	681b      	ldr	r3, [r3, #0]
 80038ae:	685b      	ldr	r3, [r3, #4]
 80038b0:	b2da      	uxtb	r2, r3
 80038b2:	68fb      	ldr	r3, [r7, #12]
 80038b4:	701a      	strb	r2, [r3, #0]
 80038b6:	e008      	b.n	80038ca <USART_Receive_IT+0x92>
      }
      else
      {
        *pdata8bits = (uint8_t)(husart->Instance->DR & (uint8_t)0x007F);
 80038b8:	687b      	ldr	r3, [r7, #4]
 80038ba:	681b      	ldr	r3, [r3, #0]
 80038bc:	685b      	ldr	r3, [r3, #4]
 80038be:	b2db      	uxtb	r3, r3
 80038c0:	f003 037f 	and.w	r3, r3, #127	; 0x7f
 80038c4:	b2da      	uxtb	r2, r3
 80038c6:	68fb      	ldr	r3, [r7, #12]
 80038c8:	701a      	strb	r2, [r3, #0]
      }

      husart->pRxBuffPtr += 1U;
 80038ca:	687b      	ldr	r3, [r7, #4]
 80038cc:	6adb      	ldr	r3, [r3, #44]	; 0x2c
 80038ce:	1c5a      	adds	r2, r3, #1
 80038d0:	687b      	ldr	r3, [r7, #4]
 80038d2:	62da      	str	r2, [r3, #44]	; 0x2c
    }

    husart->RxXferCount--;
 80038d4:	687b      	ldr	r3, [r7, #4]
 80038d6:	8e5b      	ldrh	r3, [r3, #50]	; 0x32
 80038d8:	b29b      	uxth	r3, r3
 80038da:	3b01      	subs	r3, #1
 80038dc:	b29a      	uxth	r2, r3
 80038de:	687b      	ldr	r3, [r7, #4]
 80038e0:	865a      	strh	r2, [r3, #50]	; 0x32

    if (husart->RxXferCount == 0U)
 80038e2:	687b      	ldr	r3, [r7, #4]
 80038e4:	8e5b      	ldrh	r3, [r3, #50]	; 0x32
 80038e6:	b29b      	uxth	r3, r3
 80038e8:	2b00      	cmp	r3, #0
 80038ea:	d120      	bne.n	800392e <USART_Receive_IT+0xf6>
    {
      /* Disable the USART RXNE Interrupt */
      CLEAR_BIT(husart->Instance->CR1, USART_CR1_RXNEIE);
 80038ec:	687b      	ldr	r3, [r7, #4]
 80038ee:	681b      	ldr	r3, [r3, #0]
 80038f0:	68da      	ldr	r2, [r3, #12]
 80038f2:	687b      	ldr	r3, [r7, #4]
 80038f4:	681b      	ldr	r3, [r3, #0]
 80038f6:	f022 0220 	bic.w	r2, r2, #32
 80038fa:	60da      	str	r2, [r3, #12]

      /* Disable the USART Parity Error Interrupt */
      CLEAR_BIT(husart->Instance->CR1, USART_CR1_PEIE);
 80038fc:	687b      	ldr	r3, [r7, #4]
 80038fe:	681b      	ldr	r3, [r3, #0]
 8003900:	68da      	ldr	r2, [r3, #12]
 8003902:	687b      	ldr	r3, [r7, #4]
 8003904:	681b      	ldr	r3, [r3, #0]
 8003906:	f422 7280 	bic.w	r2, r2, #256	; 0x100
 800390a:	60da      	str	r2, [r3, #12]

      /* Disable the USART Error Interrupt: (Frame error, noise error, overrun error) */
      CLEAR_BIT(husart->Instance->CR3, USART_CR3_EIE);
 800390c:	687b      	ldr	r3, [r7, #4]
 800390e:	681b      	ldr	r3, [r3, #0]
 8003910:	695a      	ldr	r2, [r3, #20]
 8003912:	687b      	ldr	r3, [r7, #4]
 8003914:	681b      	ldr	r3, [r3, #0]
 8003916:	f022 0201 	bic.w	r2, r2, #1
 800391a:	615a      	str	r2, [r3, #20]

      husart->State = HAL_USART_STATE_READY;
 800391c:	687b      	ldr	r3, [r7, #4]
 800391e:	2201      	movs	r2, #1
 8003920:	f883 203d 	strb.w	r2, [r3, #61]	; 0x3d
#if (USE_HAL_USART_REGISTER_CALLBACKS == 1)
      /* Call registered Rx Complete Callback */
      husart->RxCpltCallback(husart);
#else
      /* Call legacy weak Rx Complete Callback */
      HAL_USART_RxCpltCallback(husart);
 8003924:	6878      	ldr	r0, [r7, #4]
 8003926:	f7ff fecc 	bl	80036c2 <HAL_USART_RxCpltCallback>
#endif /* USE_HAL_USART_REGISTER_CALLBACKS */

      return HAL_OK;
 800392a:	2300      	movs	r3, #0
 800392c:	e006      	b.n	800393c <USART_Receive_IT+0x104>
    else
    {
      /* Send dummy byte in order to generate the clock for the slave to send the next data.
      * Whatever the frame length (7, 8 or 9-bit long), the same dummy value
      * can be written for all the cases. */
      husart->Instance->DR = (DUMMY_DATA & (uint16_t)0x0FF);
 800392e:	687b      	ldr	r3, [r7, #4]
 8003930:	681b      	ldr	r3, [r3, #0]
 8003932:	22ff      	movs	r2, #255	; 0xff
 8003934:	605a      	str	r2, [r3, #4]
    }
    return HAL_OK;
 8003936:	2300      	movs	r3, #0
 8003938:	e000      	b.n	800393c <USART_Receive_IT+0x104>
  }
  else
  {
    return HAL_BUSY;
 800393a:	2302      	movs	r3, #2
  }
}
 800393c:	4618      	mov	r0, r3
 800393e:	3710      	adds	r7, #16
 8003940:	46bd      	mov	sp, r7
 8003942:	bd80      	pop	{r7, pc}

08003944 <USART_TransmitReceive_IT>:
  * @param  husart Pointer to a USART_HandleTypeDef structure that contains
  *                the configuration information for the specified USART module.
  * @retval HAL status
  */
static HAL_StatusTypeDef USART_TransmitReceive_IT(USART_HandleTypeDef *husart)
{
 8003944:	b580      	push	{r7, lr}
 8003946:	b084      	sub	sp, #16
 8003948:	af00      	add	r7, sp, #0
 800394a:	6078      	str	r0, [r7, #4]
  uint8_t  *pdata8bits;
  uint16_t *pdata16bits;

  if (husart->State == HAL_USART_STATE_BUSY_TX_RX)
 800394c:	687b      	ldr	r3, [r7, #4]
 800394e:	f893 303d 	ldrb.w	r3, [r3, #61]	; 0x3d
 8003952:	b2db      	uxtb	r3, r3
 8003954:	2b32      	cmp	r3, #50	; 0x32
 8003956:	f040 80c4 	bne.w	8003ae2 <USART_TransmitReceive_IT+0x19e>
  {
    if (husart->TxXferCount != 0x00U)
 800395a:	687b      	ldr	r3, [r7, #4]
 800395c:	8d5b      	ldrh	r3, [r3, #42]	; 0x2a
 800395e:	b29b      	uxth	r3, r3
 8003960:	2b00      	cmp	r3, #0
 8003962:	d03f      	beq.n	80039e4 <USART_TransmitReceive_IT+0xa0>
    {
      if (__HAL_USART_GET_FLAG(husart, USART_FLAG_TXE) != RESET)
 8003964:	687b      	ldr	r3, [r7, #4]
 8003966:	681b      	ldr	r3, [r3, #0]
 8003968:	681b      	ldr	r3, [r3, #0]
 800396a:	f003 0380 	and.w	r3, r3, #128	; 0x80
 800396e:	2b80      	cmp	r3, #128	; 0x80
 8003970:	d138      	bne.n	80039e4 <USART_TransmitReceive_IT+0xa0>
      {
        if ((husart->Init.WordLength == USART_WORDLENGTH_9B) && (husart->Init.Parity == USART_PARITY_NONE))
 8003972:	687b      	ldr	r3, [r7, #4]
 8003974:	689b      	ldr	r3, [r3, #8]
 8003976:	f5b3 5f80 	cmp.w	r3, #4096	; 0x1000
 800397a:	d116      	bne.n	80039aa <USART_TransmitReceive_IT+0x66>
 800397c:	687b      	ldr	r3, [r7, #4]
 800397e:	691b      	ldr	r3, [r3, #16]
 8003980:	2b00      	cmp	r3, #0
 8003982:	d112      	bne.n	80039aa <USART_TransmitReceive_IT+0x66>
        {
          pdata8bits  = NULL;
 8003984:	2300      	movs	r3, #0
 8003986:	60fb      	str	r3, [r7, #12]
          pdata16bits = (uint16_t *) husart->pTxBuffPtr;
 8003988:	687b      	ldr	r3, [r7, #4]
 800398a:	6a5b      	ldr	r3, [r3, #36]	; 0x24
 800398c:	60bb      	str	r3, [r7, #8]
          husart->Instance->DR = (uint16_t)(*pdata16bits & (uint16_t)0x01FF);
 800398e:	68bb      	ldr	r3, [r7, #8]
 8003990:	881b      	ldrh	r3, [r3, #0]
 8003992:	461a      	mov	r2, r3
 8003994:	687b      	ldr	r3, [r7, #4]
 8003996:	681b      	ldr	r3, [r3, #0]
 8003998:	f3c2 0208 	ubfx	r2, r2, #0, #9
 800399c:	605a      	str	r2, [r3, #4]
          husart->pTxBuffPtr += 2U;
 800399e:	687b      	ldr	r3, [r7, #4]
 80039a0:	6a5b      	ldr	r3, [r3, #36]	; 0x24
 80039a2:	1c9a      	adds	r2, r3, #2
 80039a4:	687b      	ldr	r3, [r7, #4]
 80039a6:	625a      	str	r2, [r3, #36]	; 0x24
 80039a8:	e008      	b.n	80039bc <USART_TransmitReceive_IT+0x78>
        }
        else
        {
          husart->Instance->DR = (uint8_t)(*husart->pTxBuffPtr++ & (uint8_t)0x00FF);
 80039aa:	687b      	ldr	r3, [r7, #4]
 80039ac:	6a5b      	ldr	r3, [r3, #36]	; 0x24
 80039ae:	1c59      	adds	r1, r3, #1
 80039b0:	687a      	ldr	r2, [r7, #4]
 80039b2:	6251      	str	r1, [r2, #36]	; 0x24
 80039b4:	781a      	ldrb	r2, [r3, #0]
 80039b6:	687b      	ldr	r3, [r7, #4]
 80039b8:	681b      	ldr	r3, [r3, #0]
 80039ba:	605a      	str	r2, [r3, #4]
        }

        husart->TxXferCount--;
 80039bc:	687b      	ldr	r3, [r7, #4]
 80039be:	8d5b      	ldrh	r3, [r3, #42]	; 0x2a
 80039c0:	b29b      	uxth	r3, r3
 80039c2:	3b01      	subs	r3, #1
 80039c4:	b29a      	uxth	r2, r3
 80039c6:	687b      	ldr	r3, [r7, #4]
 80039c8:	855a      	strh	r2, [r3, #42]	; 0x2a

        /* Check the latest data transmitted */
        if (husart->TxXferCount == 0U)
 80039ca:	687b      	ldr	r3, [r7, #4]
 80039cc:	8d5b      	ldrh	r3, [r3, #42]	; 0x2a
 80039ce:	b29b      	uxth	r3, r3
 80039d0:	2b00      	cmp	r3, #0
 80039d2:	d107      	bne.n	80039e4 <USART_TransmitReceive_IT+0xa0>
        {
          CLEAR_BIT(husart->Instance->CR1, USART_CR1_TXEIE);
 80039d4:	687b      	ldr	r3, [r7, #4]
 80039d6:	681b      	ldr	r3, [r3, #0]
 80039d8:	68da      	ldr	r2, [r3, #12]
 80039da:	687b      	ldr	r3, [r7, #4]
 80039dc:	681b      	ldr	r3, [r3, #0]
 80039de:	f022 0280 	bic.w	r2, r2, #128	; 0x80
 80039e2:	60da      	str	r2, [r3, #12]
        }
      }
    }

    if (husart->RxXferCount != 0x00U)
 80039e4:	687b      	ldr	r3, [r7, #4]
 80039e6:	8e5b      	ldrh	r3, [r3, #50]	; 0x32
 80039e8:	b29b      	uxth	r3, r3
 80039ea:	2b00      	cmp	r3, #0
 80039ec:	d051      	beq.n	8003a92 <USART_TransmitReceive_IT+0x14e>
    {
      if (__HAL_USART_GET_FLAG(husart, USART_FLAG_RXNE) != RESET)
 80039ee:	687b      	ldr	r3, [r7, #4]
 80039f0:	681b      	ldr	r3, [r3, #0]
 80039f2:	681b      	ldr	r3, [r3, #0]
 80039f4:	f003 0320 	and.w	r3, r3, #32
 80039f8:	2b20      	cmp	r3, #32
 80039fa:	d14a      	bne.n	8003a92 <USART_TransmitReceive_IT+0x14e>
      {
        if ((husart->Init.WordLength == USART_WORDLENGTH_9B) && (husart->Init.Parity == USART_PARITY_NONE))
 80039fc:	687b      	ldr	r3, [r7, #4]
 80039fe:	689b      	ldr	r3, [r3, #8]
 8003a00:	f5b3 5f80 	cmp.w	r3, #4096	; 0x1000
 8003a04:	d117      	bne.n	8003a36 <USART_TransmitReceive_IT+0xf2>
 8003a06:	687b      	ldr	r3, [r7, #4]
 8003a08:	691b      	ldr	r3, [r3, #16]
 8003a0a:	2b00      	cmp	r3, #0
 8003a0c:	d113      	bne.n	8003a36 <USART_TransmitReceive_IT+0xf2>
        {
           pdata8bits  = NULL;
 8003a0e:	2300      	movs	r3, #0
 8003a10:	60fb      	str	r3, [r7, #12]
           pdata16bits = (uint16_t *) husart->pRxBuffPtr;
 8003a12:	687b      	ldr	r3, [r7, #4]
 8003a14:	6adb      	ldr	r3, [r3, #44]	; 0x2c
 8003a16:	60bb      	str	r3, [r7, #8]
           *pdata16bits = (uint16_t)(husart->Instance->DR & (uint16_t)0x01FF);
 8003a18:	687b      	ldr	r3, [r7, #4]
 8003a1a:	681b      	ldr	r3, [r3, #0]
 8003a1c:	685b      	ldr	r3, [r3, #4]
 8003a1e:	b29b      	uxth	r3, r3
 8003a20:	f3c3 0308 	ubfx	r3, r3, #0, #9
 8003a24:	b29a      	uxth	r2, r3
 8003a26:	68bb      	ldr	r3, [r7, #8]
 8003a28:	801a      	strh	r2, [r3, #0]
           husart->pRxBuffPtr += 2U;
 8003a2a:	687b      	ldr	r3, [r7, #4]
 8003a2c:	6adb      	ldr	r3, [r3, #44]	; 0x2c
 8003a2e:	1c9a      	adds	r2, r3, #2
 8003a30:	687b      	ldr	r3, [r7, #4]
 8003a32:	62da      	str	r2, [r3, #44]	; 0x2c
 8003a34:	e026      	b.n	8003a84 <USART_TransmitReceive_IT+0x140>
        }
        else
        {
          pdata8bits = (uint8_t *) husart->pRxBuffPtr;
 8003a36:	687b      	ldr	r3, [r7, #4]
 8003a38:	6adb      	ldr	r3, [r3, #44]	; 0x2c
 8003a3a:	60fb      	str	r3, [r7, #12]
          pdata16bits  = NULL;
 8003a3c:	2300      	movs	r3, #0
 8003a3e:	60bb      	str	r3, [r7, #8]
          if ((husart->Init.WordLength == USART_WORDLENGTH_9B) || ((husart->Init.WordLength == USART_WORDLENGTH_8B) && (husart->Init.Parity == USART_PARITY_NONE)))
 8003a40:	687b      	ldr	r3, [r7, #4]
 8003a42:	689b      	ldr	r3, [r3, #8]
 8003a44:	f5b3 5f80 	cmp.w	r3, #4096	; 0x1000
 8003a48:	d007      	beq.n	8003a5a <USART_TransmitReceive_IT+0x116>
 8003a4a:	687b      	ldr	r3, [r7, #4]
 8003a4c:	689b      	ldr	r3, [r3, #8]
 8003a4e:	2b00      	cmp	r3, #0
 8003a50:	d10a      	bne.n	8003a68 <USART_TransmitReceive_IT+0x124>
 8003a52:	687b      	ldr	r3, [r7, #4]
 8003a54:	691b      	ldr	r3, [r3, #16]
 8003a56:	2b00      	cmp	r3, #0
 8003a58:	d106      	bne.n	8003a68 <USART_TransmitReceive_IT+0x124>
          {
            *pdata8bits = (uint8_t)(husart->Instance->DR & (uint8_t)0x00FF);
 8003a5a:	687b      	ldr	r3, [r7, #4]
 8003a5c:	681b      	ldr	r3, [r3, #0]
 8003a5e:	685b      	ldr	r3, [r3, #4]
 8003a60:	b2da      	uxtb	r2, r3
 8003a62:	68fb      	ldr	r3, [r7, #12]
 8003a64:	701a      	strb	r2, [r3, #0]
 8003a66:	e008      	b.n	8003a7a <USART_TransmitReceive_IT+0x136>
          }
          else
          {
            *pdata8bits = (uint8_t)(husart->Instance->DR & (uint8_t)0x007F);
 8003a68:	687b      	ldr	r3, [r7, #4]
 8003a6a:	681b      	ldr	r3, [r3, #0]
 8003a6c:	685b      	ldr	r3, [r3, #4]
 8003a6e:	b2db      	uxtb	r3, r3
 8003a70:	f003 037f 	and.w	r3, r3, #127	; 0x7f
 8003a74:	b2da      	uxtb	r2, r3
 8003a76:	68fb      	ldr	r3, [r7, #12]
 8003a78:	701a      	strb	r2, [r3, #0]
          }
          husart->pRxBuffPtr += 1U;
 8003a7a:	687b      	ldr	r3, [r7, #4]
 8003a7c:	6adb      	ldr	r3, [r3, #44]	; 0x2c
 8003a7e:	1c5a      	adds	r2, r3, #1
 8003a80:	687b      	ldr	r3, [r7, #4]
 8003a82:	62da      	str	r2, [r3, #44]	; 0x2c
        }

        husart->RxXferCount--;
 8003a84:	687b      	ldr	r3, [r7, #4]
 8003a86:	8e5b      	ldrh	r3, [r3, #50]	; 0x32
 8003a88:	b29b      	uxth	r3, r3
 8003a8a:	3b01      	subs	r3, #1
 8003a8c:	b29a      	uxth	r2, r3
 8003a8e:	687b      	ldr	r3, [r7, #4]
 8003a90:	865a      	strh	r2, [r3, #50]	; 0x32
      }
    }

    /* Check the latest data received */
    if (husart->RxXferCount == 0U)
 8003a92:	687b      	ldr	r3, [r7, #4]
 8003a94:	8e5b      	ldrh	r3, [r3, #50]	; 0x32
 8003a96:	b29b      	uxth	r3, r3
 8003a98:	2b00      	cmp	r3, #0
 8003a9a:	d120      	bne.n	8003ade <USART_TransmitReceive_IT+0x19a>
    {
      /* Disable the USART RXNE Interrupt */
      CLEAR_BIT(husart->Instance->CR1, USART_CR1_RXNEIE);
 8003a9c:	687b      	ldr	r3, [r7, #4]
 8003a9e:	681b      	ldr	r3, [r3, #0]
 8003aa0:	68da      	ldr	r2, [r3, #12]
 8003aa2:	687b      	ldr	r3, [r7, #4]
 8003aa4:	681b      	ldr	r3, [r3, #0]
 8003aa6:	f022 0220 	bic.w	r2, r2, #32
 8003aaa:	60da      	str	r2, [r3, #12]

      /* Disable the USART Parity Error Interrupt */
      CLEAR_BIT(husart->Instance->CR1, USART_CR1_PEIE);
 8003aac:	687b      	ldr	r3, [r7, #4]
 8003aae:	681b      	ldr	r3, [r3, #0]
 8003ab0:	68da      	ldr	r2, [r3, #12]
 8003ab2:	687b      	ldr	r3, [r7, #4]
 8003ab4:	681b      	ldr	r3, [r3, #0]
 8003ab6:	f422 7280 	bic.w	r2, r2, #256	; 0x100
 8003aba:	60da      	str	r2, [r3, #12]

      /* Disable the USART Error Interrupt: (Frame error, noise error, overrun error) */
      CLEAR_BIT(husart->Instance->CR3, USART_CR3_EIE);
 8003abc:	687b      	ldr	r3, [r7, #4]
 8003abe:	681b      	ldr	r3, [r3, #0]
 8003ac0:	695a      	ldr	r2, [r3, #20]
 8003ac2:	687b      	ldr	r3, [r7, #4]
 8003ac4:	681b      	ldr	r3, [r3, #0]
 8003ac6:	f022 0201 	bic.w	r2, r2, #1
 8003aca:	615a      	str	r2, [r3, #20]

      husart->State = HAL_USART_STATE_READY;
 8003acc:	687b      	ldr	r3, [r7, #4]
 8003ace:	2201      	movs	r2, #1
 8003ad0:	f883 203d 	strb.w	r2, [r3, #61]	; 0x3d
#if (USE_HAL_USART_REGISTER_CALLBACKS == 1)
      /* Call registered Tx Rx Complete Callback */
      husart->TxRxCpltCallback(husart);
#else
      /* Call legacy weak Tx Rx Complete Callback */
      HAL_USART_TxRxCpltCallback(husart);
 8003ad4:	6878      	ldr	r0, [r7, #4]
 8003ad6:	f7ff fdfd 	bl	80036d4 <HAL_USART_TxRxCpltCallback>
#endif /* USE_HAL_USART_REGISTER_CALLBACKS */

      return HAL_OK;
 8003ada:	2300      	movs	r3, #0
 8003adc:	e002      	b.n	8003ae4 <USART_TransmitReceive_IT+0x1a0>
    }

    return HAL_OK;
 8003ade:	2300      	movs	r3, #0
 8003ae0:	e000      	b.n	8003ae4 <USART_TransmitReceive_IT+0x1a0>
  }
  else
  {
    return HAL_BUSY;
 8003ae2:	2302      	movs	r3, #2
  }
}
 8003ae4:	4618      	mov	r0, r3
 8003ae6:	3710      	adds	r7, #16
 8003ae8:	46bd      	mov	sp, r7
 8003aea:	bd80      	pop	{r7, pc}

08003aec <USART_SetConfig>:
  * @param  husart Pointer to a USART_HandleTypeDef structure that contains
  *                the configuration information for the specified USART module.
  * @retval None
  */
static void USART_SetConfig(USART_HandleTypeDef *husart)
{
 8003aec:	b580      	push	{r7, lr}
 8003aee:	b084      	sub	sp, #16
 8003af0:	af00      	add	r7, sp, #0
 8003af2:	6078      	str	r0, [r7, #4]
  uint32_t tmpreg = 0x00U;
 8003af4:	2300      	movs	r3, #0
 8003af6:	60fb      	str	r3, [r7, #12]
  assert_param(IS_USART_PARITY(husart->Init.Parity));
  assert_param(IS_USART_MODE(husart->Init.Mode));

  /* The LBCL, CPOL and CPHA bits have to be selected when both the transmitter and the
     receiver are disabled (TE=RE=0) to ensure that the clock pulses function correctly. */
  CLEAR_BIT(husart->Instance->CR1, (USART_CR1_TE | USART_CR1_RE));
 8003af8:	687b      	ldr	r3, [r7, #4]
 8003afa:	681b      	ldr	r3, [r3, #0]
 8003afc:	68da      	ldr	r2, [r3, #12]
 8003afe:	687b      	ldr	r3, [r7, #4]
 8003b00:	681b      	ldr	r3, [r3, #0]
 8003b02:	f022 020c 	bic.w	r2, r2, #12
 8003b06:	60da      	str	r2, [r3, #12]

  /*---------------------------- USART CR2 Configuration ---------------------*/
  tmpreg = husart->Instance->CR2;
 8003b08:	687b      	ldr	r3, [r7, #4]
 8003b0a:	681b      	ldr	r3, [r3, #0]
 8003b0c:	691b      	ldr	r3, [r3, #16]
 8003b0e:	60fb      	str	r3, [r7, #12]
  /* Clear CLKEN, CPOL, CPHA and LBCL bits */
  tmpreg &= (uint32_t)~((uint32_t)(USART_CR2_CPHA | USART_CR2_CPOL | USART_CR2_CLKEN | USART_CR2_LBCL | USART_CR2_STOP));
 8003b10:	68fb      	ldr	r3, [r7, #12]
 8003b12:	f423 537c 	bic.w	r3, r3, #16128	; 0x3f00
 8003b16:	60fb      	str	r3, [r7, #12]
  /* Configure the USART Clock, CPOL, CPHA and LastBit -----------------------*/
  /* Set CPOL bit according to husart->Init.CLKPolarity value */
  /* Set CPHA bit according to husart->Init.CLKPhase value */
  /* Set LBCL bit according to husart->Init.CLKLastBit value */
  /* Set Stop Bits: Set STOP[13:12] bits according to husart->Init.StopBits value */
  tmpreg |= (uint32_t)(USART_CLOCK_ENABLE | husart->Init.CLKPolarity |
 8003b18:	687b      	ldr	r3, [r7, #4]
 8003b1a:	699a      	ldr	r2, [r3, #24]
                       husart->Init.CLKPhase | husart->Init.CLKLastBit | husart->Init.StopBits);
 8003b1c:	687b      	ldr	r3, [r7, #4]
 8003b1e:	69db      	ldr	r3, [r3, #28]
  tmpreg |= (uint32_t)(USART_CLOCK_ENABLE | husart->Init.CLKPolarity |
 8003b20:	431a      	orrs	r2, r3
                       husart->Init.CLKPhase | husart->Init.CLKLastBit | husart->Init.StopBits);
 8003b22:	687b      	ldr	r3, [r7, #4]
 8003b24:	6a1b      	ldr	r3, [r3, #32]
 8003b26:	431a      	orrs	r2, r3
 8003b28:	687b      	ldr	r3, [r7, #4]
 8003b2a:	68db      	ldr	r3, [r3, #12]
  tmpreg |= (uint32_t)(USART_CLOCK_ENABLE | husart->Init.CLKPolarity |
 8003b2c:	431a      	orrs	r2, r3
 8003b2e:	68fb      	ldr	r3, [r7, #12]
 8003b30:	4313      	orrs	r3, r2
 8003b32:	f443 6300 	orr.w	r3, r3, #2048	; 0x800
 8003b36:	60fb      	str	r3, [r7, #12]
  /* Write to USART CR2 */
  WRITE_REG(husart->Instance->CR2, (uint32_t)tmpreg);
 8003b38:	687b      	ldr	r3, [r7, #4]
 8003b3a:	681b      	ldr	r3, [r3, #0]
 8003b3c:	68fa      	ldr	r2, [r7, #12]
 8003b3e:	611a      	str	r2, [r3, #16]

  /*-------------------------- USART CR1 Configuration -----------------------*/
  tmpreg = husart->Instance->CR1;
 8003b40:	687b      	ldr	r3, [r7, #4]
 8003b42:	681b      	ldr	r3, [r3, #0]
 8003b44:	68db      	ldr	r3, [r3, #12]
 8003b46:	60fb      	str	r3, [r7, #12]

  /* Clear M, PCE, PS, TE and RE bits */
  tmpreg &= (uint32_t)~((uint32_t)(USART_CR1_M | USART_CR1_PCE | USART_CR1_PS | USART_CR1_TE | USART_CR1_RE));
 8003b48:	68fb      	ldr	r3, [r7, #12]
 8003b4a:	f423 53b0 	bic.w	r3, r3, #5632	; 0x1600
 8003b4e:	f023 030c 	bic.w	r3, r3, #12
 8003b52:	60fb      	str	r3, [r7, #12]
  /* Configure the USART Word Length, Parity and mode:
     Set the M bits according to husart->Init.WordLength value
     Set PCE and PS bits according to husart->Init.Parity value
     Set TE and RE bits according to husart->Init.Mode value
   */
  tmpreg |= (uint32_t)husart->Init.WordLength | husart->Init.Parity | husart->Init.Mode;
 8003b54:	687b      	ldr	r3, [r7, #4]
 8003b56:	689a      	ldr	r2, [r3, #8]
 8003b58:	687b      	ldr	r3, [r7, #4]
 8003b5a:	691b      	ldr	r3, [r3, #16]
 8003b5c:	431a      	orrs	r2, r3
 8003b5e:	687b      	ldr	r3, [r7, #4]
 8003b60:	695b      	ldr	r3, [r3, #20]
 8003b62:	4313      	orrs	r3, r2
 8003b64:	68fa      	ldr	r2, [r7, #12]
 8003b66:	4313      	orrs	r3, r2
 8003b68:	60fb      	str	r3, [r7, #12]

  /* Write to USART CR1 */
  WRITE_REG(husart->Instance->CR1, (uint32_t)tmpreg);
 8003b6a:	687b      	ldr	r3, [r7, #4]
 8003b6c:	681b      	ldr	r3, [r3, #0]
 8003b6e:	68fa      	ldr	r2, [r7, #12]
 8003b70:	60da      	str	r2, [r3, #12]

  /*-------------------------- USART CR3 Configuration -----------------------*/
  /* Clear CTSE and RTSE bits */
  CLEAR_BIT(husart->Instance->CR3, (USART_CR3_RTSE | USART_CR3_CTSE));
 8003b72:	687b      	ldr	r3, [r7, #4]
 8003b74:	681b      	ldr	r3, [r3, #0]
 8003b76:	695a      	ldr	r2, [r3, #20]
 8003b78:	687b      	ldr	r3, [r7, #4]
 8003b7a:	681b      	ldr	r3, [r3, #0]
 8003b7c:	f422 7240 	bic.w	r2, r2, #768	; 0x300
 8003b80:	615a      	str	r2, [r3, #20]

  /*-------------------------- USART BRR Configuration -----------------------*/
  if((husart->Instance == USART1))
 8003b82:	687b      	ldr	r3, [r7, #4]
 8003b84:	681b      	ldr	r3, [r3, #0]
 8003b86:	4a53      	ldr	r2, [pc, #332]	; (8003cd4 <USART_SetConfig+0x1e8>)
 8003b88:	4293      	cmp	r3, r2
 8003b8a:	d14f      	bne.n	8003c2c <USART_SetConfig+0x140>
  {
    pclk = HAL_RCC_GetPCLK2Freq();
 8003b8c:	f7ff fbfe 	bl	800338c <HAL_RCC_GetPCLK2Freq>
 8003b90:	60b8      	str	r0, [r7, #8]
    husart->Instance->BRR = USART_BRR(pclk, husart->Init.BaudRate);
 8003b92:	68ba      	ldr	r2, [r7, #8]
 8003b94:	4613      	mov	r3, r2
 8003b96:	009b      	lsls	r3, r3, #2
 8003b98:	4413      	add	r3, r2
 8003b9a:	009a      	lsls	r2, r3, #2
 8003b9c:	441a      	add	r2, r3
 8003b9e:	687b      	ldr	r3, [r7, #4]
 8003ba0:	685b      	ldr	r3, [r3, #4]
 8003ba2:	009b      	lsls	r3, r3, #2
 8003ba4:	fbb2 f3f3 	udiv	r3, r2, r3
 8003ba8:	4a4b      	ldr	r2, [pc, #300]	; (8003cd8 <USART_SetConfig+0x1ec>)
 8003baa:	fba2 2303 	umull	r2, r3, r2, r3
 8003bae:	095b      	lsrs	r3, r3, #5
 8003bb0:	0119      	lsls	r1, r3, #4
 8003bb2:	68ba      	ldr	r2, [r7, #8]
 8003bb4:	4613      	mov	r3, r2
 8003bb6:	009b      	lsls	r3, r3, #2
 8003bb8:	4413      	add	r3, r2
 8003bba:	009a      	lsls	r2, r3, #2
 8003bbc:	441a      	add	r2, r3
 8003bbe:	687b      	ldr	r3, [r7, #4]
 8003bc0:	685b      	ldr	r3, [r3, #4]
 8003bc2:	009b      	lsls	r3, r3, #2
 8003bc4:	fbb2 f2f3 	udiv	r2, r2, r3
 8003bc8:	4b43      	ldr	r3, [pc, #268]	; (8003cd8 <USART_SetConfig+0x1ec>)
 8003bca:	fba3 0302 	umull	r0, r3, r3, r2
 8003bce:	095b      	lsrs	r3, r3, #5
 8003bd0:	2064      	movs	r0, #100	; 0x64
 8003bd2:	fb00 f303 	mul.w	r3, r0, r3
 8003bd6:	1ad3      	subs	r3, r2, r3
 8003bd8:	011b      	lsls	r3, r3, #4
 8003bda:	3332      	adds	r3, #50	; 0x32
 8003bdc:	4a3e      	ldr	r2, [pc, #248]	; (8003cd8 <USART_SetConfig+0x1ec>)
 8003bde:	fba2 2303 	umull	r2, r3, r2, r3
 8003be2:	095b      	lsrs	r3, r3, #5
 8003be4:	005b      	lsls	r3, r3, #1
 8003be6:	f403 73f0 	and.w	r3, r3, #480	; 0x1e0
 8003bea:	4419      	add	r1, r3
 8003bec:	68ba      	ldr	r2, [r7, #8]
 8003bee:	4613      	mov	r3, r2
 8003bf0:	009b      	lsls	r3, r3, #2
 8003bf2:	4413      	add	r3, r2
 8003bf4:	009a      	lsls	r2, r3, #2
 8003bf6:	441a      	add	r2, r3
 8003bf8:	687b      	ldr	r3, [r7, #4]
 8003bfa:	685b      	ldr	r3, [r3, #4]
 8003bfc:	009b      	lsls	r3, r3, #2
 8003bfe:	fbb2 f2f3 	udiv	r2, r2, r3
 8003c02:	4b35      	ldr	r3, [pc, #212]	; (8003cd8 <USART_SetConfig+0x1ec>)
 8003c04:	fba3 0302 	umull	r0, r3, r3, r2
 8003c08:	095b      	lsrs	r3, r3, #5
 8003c0a:	2064      	movs	r0, #100	; 0x64
 8003c0c:	fb00 f303 	mul.w	r3, r0, r3
 8003c10:	1ad3      	subs	r3, r2, r3
 8003c12:	011b      	lsls	r3, r3, #4
 8003c14:	3332      	adds	r3, #50	; 0x32
 8003c16:	4a30      	ldr	r2, [pc, #192]	; (8003cd8 <USART_SetConfig+0x1ec>)
 8003c18:	fba2 2303 	umull	r2, r3, r2, r3
 8003c1c:	095b      	lsrs	r3, r3, #5
 8003c1e:	f003 020f 	and.w	r2, r3, #15
 8003c22:	687b      	ldr	r3, [r7, #4]
 8003c24:	681b      	ldr	r3, [r3, #0]
 8003c26:	440a      	add	r2, r1
 8003c28:	609a      	str	r2, [r3, #8]
  else
  {
    pclk = HAL_RCC_GetPCLK1Freq();
    husart->Instance->BRR = USART_BRR(pclk, husart->Init.BaudRate);
  }
}
 8003c2a:	e04e      	b.n	8003cca <USART_SetConfig+0x1de>
    pclk = HAL_RCC_GetPCLK1Freq();
 8003c2c:	f7ff fb9a 	bl	8003364 <HAL_RCC_GetPCLK1Freq>
 8003c30:	60b8      	str	r0, [r7, #8]
    husart->Instance->BRR = USART_BRR(pclk, husart->Init.BaudRate);
 8003c32:	68ba      	ldr	r2, [r7, #8]
 8003c34:	4613      	mov	r3, r2
 8003c36:	009b      	lsls	r3, r3, #2
 8003c38:	4413      	add	r3, r2
 8003c3a:	009a      	lsls	r2, r3, #2
 8003c3c:	441a      	add	r2, r3
 8003c3e:	687b      	ldr	r3, [r7, #4]
 8003c40:	685b      	ldr	r3, [r3, #4]
 8003c42:	009b      	lsls	r3, r3, #2
 8003c44:	fbb2 f3f3 	udiv	r3, r2, r3
 8003c48:	4a23      	ldr	r2, [pc, #140]	; (8003cd8 <USART_SetConfig+0x1ec>)
 8003c4a:	fba2 2303 	umull	r2, r3, r2, r3
 8003c4e:	095b      	lsrs	r3, r3, #5
 8003c50:	0119      	lsls	r1, r3, #4
 8003c52:	68ba      	ldr	r2, [r7, #8]
 8003c54:	4613      	mov	r3, r2
 8003c56:	009b      	lsls	r3, r3, #2
 8003c58:	4413      	add	r3, r2
 8003c5a:	009a      	lsls	r2, r3, #2
 8003c5c:	441a      	add	r2, r3
 8003c5e:	687b      	ldr	r3, [r7, #4]
 8003c60:	685b      	ldr	r3, [r3, #4]
 8003c62:	009b      	lsls	r3, r3, #2
 8003c64:	fbb2 f2f3 	udiv	r2, r2, r3
 8003c68:	4b1b      	ldr	r3, [pc, #108]	; (8003cd8 <USART_SetConfig+0x1ec>)
 8003c6a:	fba3 0302 	umull	r0, r3, r3, r2
 8003c6e:	095b      	lsrs	r3, r3, #5
 8003c70:	2064      	movs	r0, #100	; 0x64
 8003c72:	fb00 f303 	mul.w	r3, r0, r3
 8003c76:	1ad3      	subs	r3, r2, r3
 8003c78:	011b      	lsls	r3, r3, #4
 8003c7a:	3332      	adds	r3, #50	; 0x32
 8003c7c:	4a16      	ldr	r2, [pc, #88]	; (8003cd8 <USART_SetConfig+0x1ec>)
 8003c7e:	fba2 2303 	umull	r2, r3, r2, r3
 8003c82:	095b      	lsrs	r3, r3, #5
 8003c84:	005b      	lsls	r3, r3, #1
 8003c86:	f403 73f0 	and.w	r3, r3, #480	; 0x1e0
 8003c8a:	4419      	add	r1, r3
 8003c8c:	68ba      	ldr	r2, [r7, #8]
 8003c8e:	4613      	mov	r3, r2
 8003c90:	009b      	lsls	r3, r3, #2
 8003c92:	4413      	add	r3, r2
 8003c94:	009a      	lsls	r2, r3, #2
 8003c96:	441a      	add	r2, r3
 8003c98:	687b      	ldr	r3, [r7, #4]
 8003c9a:	685b      	ldr	r3, [r3, #4]
 8003c9c:	009b      	lsls	r3, r3, #2
 8003c9e:	fbb2 f2f3 	udiv	r2, r2, r3
 8003ca2:	4b0d      	ldr	r3, [pc, #52]	; (8003cd8 <USART_SetConfig+0x1ec>)
 8003ca4:	fba3 0302 	umull	r0, r3, r3, r2
 8003ca8:	095b      	lsrs	r3, r3, #5
 8003caa:	2064      	movs	r0, #100	; 0x64
 8003cac:	fb00 f303 	mul.w	r3, r0, r3
 8003cb0:	1ad3      	subs	r3, r2, r3
 8003cb2:	011b      	lsls	r3, r3, #4
 8003cb4:	3332      	adds	r3, #50	; 0x32
 8003cb6:	4a08      	ldr	r2, [pc, #32]	; (8003cd8 <USART_SetConfig+0x1ec>)
 8003cb8:	fba2 2303 	umull	r2, r3, r2, r3
 8003cbc:	095b      	lsrs	r3, r3, #5
 8003cbe:	f003 020f 	and.w	r2, r3, #15
 8003cc2:	687b      	ldr	r3, [r7, #4]
 8003cc4:	681b      	ldr	r3, [r3, #0]
 8003cc6:	440a      	add	r2, r1
 8003cc8:	609a      	str	r2, [r3, #8]
}
 8003cca:	bf00      	nop
 8003ccc:	3710      	adds	r7, #16
 8003cce:	46bd      	mov	sp, r7
 8003cd0:	bd80      	pop	{r7, pc}
 8003cd2:	bf00      	nop
 8003cd4:	40013800 	.word	0x40013800
 8003cd8:	51eb851f 	.word	0x51eb851f

08003cdc <malloc>:
 8003cdc:	4b02      	ldr	r3, [pc, #8]	; (8003ce8 <malloc+0xc>)
 8003cde:	4601      	mov	r1, r0
 8003ce0:	6818      	ldr	r0, [r3, #0]
 8003ce2:	f000 b82b 	b.w	8003d3c <_malloc_r>
 8003ce6:	bf00      	nop
 8003ce8:	20000058 	.word	0x20000058

08003cec <free>:
 8003cec:	4b02      	ldr	r3, [pc, #8]	; (8003cf8 <free+0xc>)
 8003cee:	4601      	mov	r1, r0
 8003cf0:	6818      	ldr	r0, [r3, #0]
 8003cf2:	f000 b8f3 	b.w	8003edc <_free_r>
 8003cf6:	bf00      	nop
 8003cf8:	20000058 	.word	0x20000058

08003cfc <sbrk_aligned>:
 8003cfc:	b570      	push	{r4, r5, r6, lr}
 8003cfe:	4e0e      	ldr	r6, [pc, #56]	; (8003d38 <sbrk_aligned+0x3c>)
 8003d00:	460c      	mov	r4, r1
 8003d02:	6831      	ldr	r1, [r6, #0]
 8003d04:	4605      	mov	r5, r0
 8003d06:	b911      	cbnz	r1, 8003d0e <sbrk_aligned+0x12>
 8003d08:	f000 f8ac 	bl	8003e64 <_sbrk_r>
 8003d0c:	6030      	str	r0, [r6, #0]
 8003d0e:	4621      	mov	r1, r4
 8003d10:	4628      	mov	r0, r5
 8003d12:	f000 f8a7 	bl	8003e64 <_sbrk_r>
 8003d16:	1c43      	adds	r3, r0, #1
 8003d18:	d00a      	beq.n	8003d30 <sbrk_aligned+0x34>
 8003d1a:	1cc4      	adds	r4, r0, #3
 8003d1c:	f024 0403 	bic.w	r4, r4, #3
 8003d20:	42a0      	cmp	r0, r4
 8003d22:	d007      	beq.n	8003d34 <sbrk_aligned+0x38>
 8003d24:	1a21      	subs	r1, r4, r0
 8003d26:	4628      	mov	r0, r5
 8003d28:	f000 f89c 	bl	8003e64 <_sbrk_r>
 8003d2c:	3001      	adds	r0, #1
 8003d2e:	d101      	bne.n	8003d34 <sbrk_aligned+0x38>
 8003d30:	f04f 34ff 	mov.w	r4, #4294967295
 8003d34:	4620      	mov	r0, r4
 8003d36:	bd70      	pop	{r4, r5, r6, pc}
 8003d38:	2000011c 	.word	0x2000011c

08003d3c <_malloc_r>:
 8003d3c:	e92d 43f8 	stmdb	sp!, {r3, r4, r5, r6, r7, r8, r9, lr}
 8003d40:	1ccd      	adds	r5, r1, #3
 8003d42:	f025 0503 	bic.w	r5, r5, #3
 8003d46:	3508      	adds	r5, #8
 8003d48:	2d0c      	cmp	r5, #12
 8003d4a:	bf38      	it	cc
 8003d4c:	250c      	movcc	r5, #12
 8003d4e:	2d00      	cmp	r5, #0
 8003d50:	4607      	mov	r7, r0
 8003d52:	db01      	blt.n	8003d58 <_malloc_r+0x1c>
 8003d54:	42a9      	cmp	r1, r5
 8003d56:	d905      	bls.n	8003d64 <_malloc_r+0x28>
 8003d58:	230c      	movs	r3, #12
 8003d5a:	2600      	movs	r6, #0
 8003d5c:	603b      	str	r3, [r7, #0]
 8003d5e:	4630      	mov	r0, r6
 8003d60:	e8bd 83f8 	ldmia.w	sp!, {r3, r4, r5, r6, r7, r8, r9, pc}
 8003d64:	f8df 80d0 	ldr.w	r8, [pc, #208]	; 8003e38 <_malloc_r+0xfc>
 8003d68:	f000 f868 	bl	8003e3c <__malloc_lock>
 8003d6c:	f8d8 3000 	ldr.w	r3, [r8]
 8003d70:	461c      	mov	r4, r3
 8003d72:	bb5c      	cbnz	r4, 8003dcc <_malloc_r+0x90>
 8003d74:	4629      	mov	r1, r5
 8003d76:	4638      	mov	r0, r7
 8003d78:	f7ff ffc0 	bl	8003cfc <sbrk_aligned>
 8003d7c:	1c43      	adds	r3, r0, #1
 8003d7e:	4604      	mov	r4, r0
 8003d80:	d155      	bne.n	8003e2e <_malloc_r+0xf2>
 8003d82:	f8d8 4000 	ldr.w	r4, [r8]
 8003d86:	4626      	mov	r6, r4
 8003d88:	2e00      	cmp	r6, #0
 8003d8a:	d145      	bne.n	8003e18 <_malloc_r+0xdc>
 8003d8c:	2c00      	cmp	r4, #0
 8003d8e:	d048      	beq.n	8003e22 <_malloc_r+0xe6>
 8003d90:	6823      	ldr	r3, [r4, #0]
 8003d92:	4631      	mov	r1, r6
 8003d94:	4638      	mov	r0, r7
 8003d96:	eb04 0903 	add.w	r9, r4, r3
 8003d9a:	f000 f863 	bl	8003e64 <_sbrk_r>
 8003d9e:	4581      	cmp	r9, r0
 8003da0:	d13f      	bne.n	8003e22 <_malloc_r+0xe6>
 8003da2:	6821      	ldr	r1, [r4, #0]
 8003da4:	4638      	mov	r0, r7
 8003da6:	1a6d      	subs	r5, r5, r1
 8003da8:	4629      	mov	r1, r5
 8003daa:	f7ff ffa7 	bl	8003cfc <sbrk_aligned>
 8003dae:	3001      	adds	r0, #1
 8003db0:	d037      	beq.n	8003e22 <_malloc_r+0xe6>
 8003db2:	6823      	ldr	r3, [r4, #0]
 8003db4:	442b      	add	r3, r5
 8003db6:	6023      	str	r3, [r4, #0]
 8003db8:	f8d8 3000 	ldr.w	r3, [r8]
 8003dbc:	2b00      	cmp	r3, #0
 8003dbe:	d038      	beq.n	8003e32 <_malloc_r+0xf6>
 8003dc0:	685a      	ldr	r2, [r3, #4]
 8003dc2:	42a2      	cmp	r2, r4
 8003dc4:	d12b      	bne.n	8003e1e <_malloc_r+0xe2>
 8003dc6:	2200      	movs	r2, #0
 8003dc8:	605a      	str	r2, [r3, #4]
 8003dca:	e00f      	b.n	8003dec <_malloc_r+0xb0>
 8003dcc:	6822      	ldr	r2, [r4, #0]
 8003dce:	1b52      	subs	r2, r2, r5
 8003dd0:	d41f      	bmi.n	8003e12 <_malloc_r+0xd6>
 8003dd2:	2a0b      	cmp	r2, #11
 8003dd4:	d917      	bls.n	8003e06 <_malloc_r+0xca>
 8003dd6:	1961      	adds	r1, r4, r5
 8003dd8:	42a3      	cmp	r3, r4
 8003dda:	6025      	str	r5, [r4, #0]
 8003ddc:	bf18      	it	ne
 8003dde:	6059      	strne	r1, [r3, #4]
 8003de0:	6863      	ldr	r3, [r4, #4]
 8003de2:	bf08      	it	eq
 8003de4:	f8c8 1000 	streq.w	r1, [r8]
 8003de8:	5162      	str	r2, [r4, r5]
 8003dea:	604b      	str	r3, [r1, #4]
 8003dec:	4638      	mov	r0, r7
 8003dee:	f104 060b 	add.w	r6, r4, #11
 8003df2:	f000 f829 	bl	8003e48 <__malloc_unlock>
 8003df6:	f026 0607 	bic.w	r6, r6, #7
 8003dfa:	1d23      	adds	r3, r4, #4
 8003dfc:	1af2      	subs	r2, r6, r3
 8003dfe:	d0ae      	beq.n	8003d5e <_malloc_r+0x22>
 8003e00:	1b9b      	subs	r3, r3, r6
 8003e02:	50a3      	str	r3, [r4, r2]
 8003e04:	e7ab      	b.n	8003d5e <_malloc_r+0x22>
 8003e06:	42a3      	cmp	r3, r4
 8003e08:	6862      	ldr	r2, [r4, #4]
 8003e0a:	d1dd      	bne.n	8003dc8 <_malloc_r+0x8c>
 8003e0c:	f8c8 2000 	str.w	r2, [r8]
 8003e10:	e7ec      	b.n	8003dec <_malloc_r+0xb0>
 8003e12:	4623      	mov	r3, r4
 8003e14:	6864      	ldr	r4, [r4, #4]
 8003e16:	e7ac      	b.n	8003d72 <_malloc_r+0x36>
 8003e18:	4634      	mov	r4, r6
 8003e1a:	6876      	ldr	r6, [r6, #4]
 8003e1c:	e7b4      	b.n	8003d88 <_malloc_r+0x4c>
 8003e1e:	4613      	mov	r3, r2
 8003e20:	e7cc      	b.n	8003dbc <_malloc_r+0x80>
 8003e22:	230c      	movs	r3, #12
 8003e24:	4638      	mov	r0, r7
 8003e26:	603b      	str	r3, [r7, #0]
 8003e28:	f000 f80e 	bl	8003e48 <__malloc_unlock>
 8003e2c:	e797      	b.n	8003d5e <_malloc_r+0x22>
 8003e2e:	6025      	str	r5, [r4, #0]
 8003e30:	e7dc      	b.n	8003dec <_malloc_r+0xb0>
 8003e32:	605b      	str	r3, [r3, #4]
 8003e34:	deff      	udf	#255	; 0xff
 8003e36:	bf00      	nop
 8003e38:	20000118 	.word	0x20000118

08003e3c <__malloc_lock>:
 8003e3c:	4801      	ldr	r0, [pc, #4]	; (8003e44 <__malloc_lock+0x8>)
 8003e3e:	f000 b84b 	b.w	8003ed8 <__retarget_lock_acquire_recursive>
 8003e42:	bf00      	nop
 8003e44:	2000025c 	.word	0x2000025c

08003e48 <__malloc_unlock>:
 8003e48:	4801      	ldr	r0, [pc, #4]	; (8003e50 <__malloc_unlock+0x8>)
 8003e4a:	f000 b846 	b.w	8003eda <__retarget_lock_release_recursive>
 8003e4e:	bf00      	nop
 8003e50:	2000025c 	.word	0x2000025c

08003e54 <memset>:
 8003e54:	4603      	mov	r3, r0
 8003e56:	4402      	add	r2, r0
 8003e58:	4293      	cmp	r3, r2
 8003e5a:	d100      	bne.n	8003e5e <memset+0xa>
 8003e5c:	4770      	bx	lr
 8003e5e:	f803 1b01 	strb.w	r1, [r3], #1
 8003e62:	e7f9      	b.n	8003e58 <memset+0x4>

08003e64 <_sbrk_r>:
 8003e64:	b538      	push	{r3, r4, r5, lr}
 8003e66:	2300      	movs	r3, #0
 8003e68:	4d05      	ldr	r5, [pc, #20]	; (8003e80 <_sbrk_r+0x1c>)
 8003e6a:	4604      	mov	r4, r0
 8003e6c:	4608      	mov	r0, r1
 8003e6e:	602b      	str	r3, [r5, #0]
 8003e70:	f7fd fae6 	bl	8001440 <_sbrk>
 8003e74:	1c43      	adds	r3, r0, #1
 8003e76:	d102      	bne.n	8003e7e <_sbrk_r+0x1a>
 8003e78:	682b      	ldr	r3, [r5, #0]
 8003e7a:	b103      	cbz	r3, 8003e7e <_sbrk_r+0x1a>
 8003e7c:	6023      	str	r3, [r4, #0]
 8003e7e:	bd38      	pop	{r3, r4, r5, pc}
 8003e80:	20000258 	.word	0x20000258

08003e84 <__errno>:
 8003e84:	4b01      	ldr	r3, [pc, #4]	; (8003e8c <__errno+0x8>)
 8003e86:	6818      	ldr	r0, [r3, #0]
 8003e88:	4770      	bx	lr
 8003e8a:	bf00      	nop
 8003e8c:	20000058 	.word	0x20000058

08003e90 <__libc_init_array>:
 8003e90:	b570      	push	{r4, r5, r6, lr}
 8003e92:	2600      	movs	r6, #0
 8003e94:	4d0c      	ldr	r5, [pc, #48]	; (8003ec8 <__libc_init_array+0x38>)
 8003e96:	4c0d      	ldr	r4, [pc, #52]	; (8003ecc <__libc_init_array+0x3c>)
 8003e98:	1b64      	subs	r4, r4, r5
 8003e9a:	10a4      	asrs	r4, r4, #2
 8003e9c:	42a6      	cmp	r6, r4
 8003e9e:	d109      	bne.n	8003eb4 <__libc_init_array+0x24>
 8003ea0:	f000 f864 	bl	8003f6c <_init>
 8003ea4:	2600      	movs	r6, #0
 8003ea6:	4d0a      	ldr	r5, [pc, #40]	; (8003ed0 <__libc_init_array+0x40>)
 8003ea8:	4c0a      	ldr	r4, [pc, #40]	; (8003ed4 <__libc_init_array+0x44>)
 8003eaa:	1b64      	subs	r4, r4, r5
 8003eac:	10a4      	asrs	r4, r4, #2
 8003eae:	42a6      	cmp	r6, r4
 8003eb0:	d105      	bne.n	8003ebe <__libc_init_array+0x2e>
 8003eb2:	bd70      	pop	{r4, r5, r6, pc}
 8003eb4:	f855 3b04 	ldr.w	r3, [r5], #4
 8003eb8:	4798      	blx	r3
 8003eba:	3601      	adds	r6, #1
 8003ebc:	e7ee      	b.n	8003e9c <__libc_init_array+0xc>
 8003ebe:	f855 3b04 	ldr.w	r3, [r5], #4
 8003ec2:	4798      	blx	r3
 8003ec4:	3601      	adds	r6, #1
 8003ec6:	e7f2      	b.n	8003eae <__libc_init_array+0x1e>
 8003ec8:	0800416c 	.word	0x0800416c
 8003ecc:	0800416c 	.word	0x0800416c
 8003ed0:	0800416c 	.word	0x0800416c
 8003ed4:	08004170 	.word	0x08004170

08003ed8 <__retarget_lock_acquire_recursive>:
 8003ed8:	4770      	bx	lr

08003eda <__retarget_lock_release_recursive>:
 8003eda:	4770      	bx	lr

08003edc <_free_r>:
 8003edc:	b538      	push	{r3, r4, r5, lr}
 8003ede:	4605      	mov	r5, r0
 8003ee0:	2900      	cmp	r1, #0
 8003ee2:	d040      	beq.n	8003f66 <_free_r+0x8a>
 8003ee4:	f851 3c04 	ldr.w	r3, [r1, #-4]
 8003ee8:	1f0c      	subs	r4, r1, #4
 8003eea:	2b00      	cmp	r3, #0
 8003eec:	bfb8      	it	lt
 8003eee:	18e4      	addlt	r4, r4, r3
 8003ef0:	f7ff ffa4 	bl	8003e3c <__malloc_lock>
 8003ef4:	4a1c      	ldr	r2, [pc, #112]	; (8003f68 <_free_r+0x8c>)
 8003ef6:	6813      	ldr	r3, [r2, #0]
 8003ef8:	b933      	cbnz	r3, 8003f08 <_free_r+0x2c>
 8003efa:	6063      	str	r3, [r4, #4]
 8003efc:	6014      	str	r4, [r2, #0]
 8003efe:	4628      	mov	r0, r5
 8003f00:	e8bd 4038 	ldmia.w	sp!, {r3, r4, r5, lr}
 8003f04:	f7ff bfa0 	b.w	8003e48 <__malloc_unlock>
 8003f08:	42a3      	cmp	r3, r4
 8003f0a:	d908      	bls.n	8003f1e <_free_r+0x42>
 8003f0c:	6820      	ldr	r0, [r4, #0]
 8003f0e:	1821      	adds	r1, r4, r0
 8003f10:	428b      	cmp	r3, r1
 8003f12:	bf01      	itttt	eq
 8003f14:	6819      	ldreq	r1, [r3, #0]
 8003f16:	685b      	ldreq	r3, [r3, #4]
 8003f18:	1809      	addeq	r1, r1, r0
 8003f1a:	6021      	streq	r1, [r4, #0]
 8003f1c:	e7ed      	b.n	8003efa <_free_r+0x1e>
 8003f1e:	461a      	mov	r2, r3
 8003f20:	685b      	ldr	r3, [r3, #4]
 8003f22:	b10b      	cbz	r3, 8003f28 <_free_r+0x4c>
 8003f24:	42a3      	cmp	r3, r4
 8003f26:	d9fa      	bls.n	8003f1e <_free_r+0x42>
 8003f28:	6811      	ldr	r1, [r2, #0]
 8003f2a:	1850      	adds	r0, r2, r1
 8003f2c:	42a0      	cmp	r0, r4
 8003f2e:	d10b      	bne.n	8003f48 <_free_r+0x6c>
 8003f30:	6820      	ldr	r0, [r4, #0]
 8003f32:	4401      	add	r1, r0
 8003f34:	1850      	adds	r0, r2, r1
 8003f36:	4283      	cmp	r3, r0
 8003f38:	6011      	str	r1, [r2, #0]
 8003f3a:	d1e0      	bne.n	8003efe <_free_r+0x22>
 8003f3c:	6818      	ldr	r0, [r3, #0]
 8003f3e:	685b      	ldr	r3, [r3, #4]
 8003f40:	4408      	add	r0, r1
 8003f42:	6010      	str	r0, [r2, #0]
 8003f44:	6053      	str	r3, [r2, #4]
 8003f46:	e7da      	b.n	8003efe <_free_r+0x22>
 8003f48:	d902      	bls.n	8003f50 <_free_r+0x74>
 8003f4a:	230c      	movs	r3, #12
 8003f4c:	602b      	str	r3, [r5, #0]
 8003f4e:	e7d6      	b.n	8003efe <_free_r+0x22>
 8003f50:	6820      	ldr	r0, [r4, #0]
 8003f52:	1821      	adds	r1, r4, r0
 8003f54:	428b      	cmp	r3, r1
 8003f56:	bf01      	itttt	eq
 8003f58:	6819      	ldreq	r1, [r3, #0]
 8003f5a:	685b      	ldreq	r3, [r3, #4]
 8003f5c:	1809      	addeq	r1, r1, r0
 8003f5e:	6021      	streq	r1, [r4, #0]
 8003f60:	6063      	str	r3, [r4, #4]
 8003f62:	6054      	str	r4, [r2, #4]
 8003f64:	e7cb      	b.n	8003efe <_free_r+0x22>
 8003f66:	bd38      	pop	{r3, r4, r5, pc}
 8003f68:	20000118 	.word	0x20000118

08003f6c <_init>:
 8003f6c:	b5f8      	push	{r3, r4, r5, r6, r7, lr}
 8003f6e:	bf00      	nop
 8003f70:	bcf8      	pop	{r3, r4, r5, r6, r7}
 8003f72:	bc08      	pop	{r3}
 8003f74:	469e      	mov	lr, r3
 8003f76:	4770      	bx	lr

08003f78 <_fini>:
 8003f78:	b5f8      	push	{r3, r4, r5, r6, r7, lr}
 8003f7a:	bf00      	nop
 8003f7c:	bcf8      	pop	{r3, r4, r5, r6, r7}
 8003f7e:	bc08      	pop	{r3}
 8003f80:	469e      	mov	lr, r3
 8003f82:	4770      	bx	lr
