
Encrypt_M3.elf:     file format elf32-littlearm

Sections:
Idx Name          Size      VMA       LMA       File off  Algn
  0 .isr_vector   0000010c  08000000  08000000  00010000  2**0
                  CONTENTS, ALLOC, LOAD, READONLY, DATA
  1 .text         00004008  0800010c  0800010c  0001010c  2**2
                  CONTENTS, ALLOC, LOAD, READONLY, CODE
  2 .rodata       000004d0  08004114  08004114  00014114  2**2
                  CONTENTS, ALLOC, LOAD, READONLY, DATA
  3 .ARM.extab    00000000  080045e4  080045e4  000200d0  2**0
                  CONTENTS
  4 .ARM          00000000  080045e4  080045e4  000200d0  2**0
                  CONTENTS
  5 .preinit_array 00000000  080045e4  080045e4  000200d0  2**0
                  CONTENTS, ALLOC, LOAD, DATA
  6 .init_array   00000004  080045e4  080045e4  000145e4  2**2
                  CONTENTS, ALLOC, LOAD, DATA
  7 .fini_array   00000004  080045e8  080045e8  000145e8  2**2
                  CONTENTS, ALLOC, LOAD, DATA
  8 .data         000000d0  20000000  080045ec  00020000  2**2
                  CONTENTS, ALLOC, LOAD, DATA
  9 .bss          000000cc  200000d0  080046bc  000200d0  2**2
                  ALLOC
 10 ._user_heap_stack 00000604  2000019c  080046bc  0002019c  2**0
                  ALLOC
 11 .ARM.attributes 00000029  00000000  00000000  000200d0  2**0
                  CONTENTS, READONLY
 12 .debug_info   0000a01c  00000000  00000000  000200f9  2**0
                  CONTENTS, READONLY, DEBUGGING, OCTETS
 13 .debug_abbrev 00001c49  00000000  00000000  0002a115  2**0
                  CONTENTS, READONLY, DEBUGGING, OCTETS
 14 .debug_aranges 000009f8  00000000  00000000  0002bd60  2**3
                  CONTENTS, READONLY, DEBUGGING, OCTETS
 15 .debug_ranges 00000938  00000000  00000000  0002c758  2**3
                  CONTENTS, READONLY, DEBUGGING, OCTETS
 16 .debug_macro  00017493  00000000  00000000  0002d090  2**0
                  CONTENTS, READONLY, DEBUGGING, OCTETS
 17 .debug_line   0000c375  00000000  00000000  00044523  2**0
                  CONTENTS, READONLY, DEBUGGING, OCTETS
 18 .debug_str    00083e5f  00000000  00000000  00050898  2**0
                  CONTENTS, READONLY, DEBUGGING, OCTETS
 19 .comment      00000050  00000000  00000000  000d46f7  2**0
                  CONTENTS, READONLY
 20 .debug_frame  00002b00  00000000  00000000  000d4748  2**2
                  CONTENTS, READONLY, DEBUGGING, OCTETS

Disassembly of section .text:

0800010c <__do_global_dtors_aux>:
 800010c:	b510      	push	{r4, lr}
 800010e:	4c05      	ldr	r4, [pc, #20]	; (8000124 <__do_global_dtors_aux+0x18>)
 8000110:	7823      	ldrb	r3, [r4, #0]
 8000112:	b933      	cbnz	r3, 8000122 <__do_global_dtors_aux+0x16>
 8000114:	4b04      	ldr	r3, [pc, #16]	; (8000128 <__do_global_dtors_aux+0x1c>)
 8000116:	b113      	cbz	r3, 800011e <__do_global_dtors_aux+0x12>
 8000118:	4804      	ldr	r0, [pc, #16]	; (800012c <__do_global_dtors_aux+0x20>)
 800011a:	f3af 8000 	nop.w
 800011e:	2301      	movs	r3, #1
 8000120:	7023      	strb	r3, [r4, #0]
 8000122:	bd10      	pop	{r4, pc}
 8000124:	200000d0 	.word	0x200000d0
 8000128:	00000000 	.word	0x00000000
 800012c:	080040fc 	.word	0x080040fc

08000130 <frame_dummy>:
 8000130:	b508      	push	{r3, lr}
 8000132:	4b03      	ldr	r3, [pc, #12]	; (8000140 <frame_dummy+0x10>)
 8000134:	b11b      	cbz	r3, 800013e <frame_dummy+0xe>
 8000136:	4903      	ldr	r1, [pc, #12]	; (8000144 <frame_dummy+0x14>)
 8000138:	4803      	ldr	r0, [pc, #12]	; (8000148 <frame_dummy+0x18>)
 800013a:	f3af 8000 	nop.w
 800013e:	bd08      	pop	{r3, pc}
 8000140:	00000000 	.word	0x00000000
 8000144:	200000d4 	.word	0x200000d4
 8000148:	080040fc 	.word	0x080040fc

0800014c <atCRC>:
uint8_t CRC_LSB = 0x00;
uint8_t CRC_MSB = 0x00;


void atCRC(uint8_t *data, uint8_t size, uint8_t *crc_le)
{
 800014c:	b480      	push	{r7}
 800014e:	b089      	sub	sp, #36	; 0x24
 8000150:	af00      	add	r7, sp, #0
 8000152:	60f8      	str	r0, [r7, #12]
 8000154:	460b      	mov	r3, r1
 8000156:	607a      	str	r2, [r7, #4]
 8000158:	72fb      	strb	r3, [r7, #11]
    uint8_t counter;
    uint16_t crc_register = 0;
 800015a:	2300      	movs	r3, #0
 800015c:	83bb      	strh	r3, [r7, #28]
    uint16_t polynom = 0x8005;
 800015e:	f248 0305 	movw	r3, #32773	; 0x8005
 8000162:	833b      	strh	r3, [r7, #24]
    uint8_t shift_register;
    uint8_t data_bit, crc_bit;

    for (counter = 1; counter < (size - 2); counter++)
 8000164:	2301      	movs	r3, #1
 8000166:	77fb      	strb	r3, [r7, #31]
 8000168:	e027      	b.n	80001ba <atCRC+0x6e>
    {
        for (shift_register = 0x01; shift_register > 0x00; shift_register <<= 1)
 800016a:	2301      	movs	r3, #1
 800016c:	76fb      	strb	r3, [r7, #27]
 800016e:	e01e      	b.n	80001ae <atCRC+0x62>
        {
            data_bit = (data[counter] & shift_register) ? 1 : 0;
 8000170:	7ffb      	ldrb	r3, [r7, #31]
 8000172:	68fa      	ldr	r2, [r7, #12]
 8000174:	4413      	add	r3, r2
 8000176:	781a      	ldrb	r2, [r3, #0]
 8000178:	7efb      	ldrb	r3, [r7, #27]
 800017a:	4013      	ands	r3, r2
 800017c:	b2db      	uxtb	r3, r3
 800017e:	2b00      	cmp	r3, #0
 8000180:	bf14      	ite	ne
 8000182:	2301      	movne	r3, #1
 8000184:	2300      	moveq	r3, #0
 8000186:	b2db      	uxtb	r3, r3
 8000188:	75fb      	strb	r3, [r7, #23]
            crc_bit = crc_register >> 15;
 800018a:	8bbb      	ldrh	r3, [r7, #28]
 800018c:	0bdb      	lsrs	r3, r3, #15
 800018e:	b29b      	uxth	r3, r3
 8000190:	75bb      	strb	r3, [r7, #22]
            crc_register <<= 1;
 8000192:	8bbb      	ldrh	r3, [r7, #28]
 8000194:	005b      	lsls	r3, r3, #1
 8000196:	83bb      	strh	r3, [r7, #28]
            if (data_bit != crc_bit)
 8000198:	7dfa      	ldrb	r2, [r7, #23]
 800019a:	7dbb      	ldrb	r3, [r7, #22]
 800019c:	429a      	cmp	r2, r3
 800019e:	d003      	beq.n	80001a8 <atCRC+0x5c>
            {
                crc_register ^= polynom;
 80001a0:	8bba      	ldrh	r2, [r7, #28]
 80001a2:	8b3b      	ldrh	r3, [r7, #24]
 80001a4:	4053      	eors	r3, r2
 80001a6:	83bb      	strh	r3, [r7, #28]
        for (shift_register = 0x01; shift_register > 0x00; shift_register <<= 1)
 80001a8:	7efb      	ldrb	r3, [r7, #27]
 80001aa:	005b      	lsls	r3, r3, #1
 80001ac:	76fb      	strb	r3, [r7, #27]
 80001ae:	7efb      	ldrb	r3, [r7, #27]
 80001b0:	2b00      	cmp	r3, #0
 80001b2:	d1dd      	bne.n	8000170 <atCRC+0x24>
    for (counter = 1; counter < (size - 2); counter++)
 80001b4:	7ffb      	ldrb	r3, [r7, #31]
 80001b6:	3301      	adds	r3, #1
 80001b8:	77fb      	strb	r3, [r7, #31]
 80001ba:	7ffa      	ldrb	r2, [r7, #31]
 80001bc:	7afb      	ldrb	r3, [r7, #11]
 80001be:	3b02      	subs	r3, #2
 80001c0:	429a      	cmp	r2, r3
 80001c2:	dbd2      	blt.n	800016a <atCRC+0x1e>
            }
        }
    }
    crc_le[0] = (uint8_t)(crc_register & 0x00FF);
 80001c4:	8bbb      	ldrh	r3, [r7, #28]
 80001c6:	b2da      	uxtb	r2, r3
 80001c8:	687b      	ldr	r3, [r7, #4]
 80001ca:	701a      	strb	r2, [r3, #0]
    crc_le[1] = (uint8_t)(crc_register >> 8);
 80001cc:	8bbb      	ldrh	r3, [r7, #28]
 80001ce:	0a1b      	lsrs	r3, r3, #8
 80001d0:	b29a      	uxth	r2, r3
 80001d2:	687b      	ldr	r3, [r7, #4]
 80001d4:	3301      	adds	r3, #1
 80001d6:	b2d2      	uxtb	r2, r2
 80001d8:	701a      	strb	r2, [r3, #0]
}
 80001da:	bf00      	nop
 80001dc:	3724      	adds	r7, #36	; 0x24
 80001de:	46bd      	mov	sp, r7
 80001e0:	bc80      	pop	{r7}
 80001e2:	4770      	bx	lr

080001e4 <WakeUp>:


void WakeUp(uint8_t *receiv){
 80001e4:	b580      	push	{r7, lr}
 80001e6:	b086      	sub	sp, #24
 80001e8:	af02      	add	r7, sp, #8
 80001ea:	6078      	str	r0, [r7, #4]

	uint8_t data = 0;
 80001ec:	2300      	movs	r3, #0
 80001ee:	73fb      	strb	r3, [r7, #15]

	HAL_I2C_Master_Receive(&hi2c2, 0xFE, &data, sizeof(data), 1000);
 80001f0:	f107 020f 	add.w	r2, r7, #15
 80001f4:	f44f 737a 	mov.w	r3, #1000	; 0x3e8
 80001f8:	9300      	str	r3, [sp, #0]
 80001fa:	2301      	movs	r3, #1
 80001fc:	21fe      	movs	r1, #254	; 0xfe
 80001fe:	4818      	ldr	r0, [pc, #96]	; (8000260 <WakeUp+0x7c>)
 8000200:	f002 f816 	bl	8002230 <HAL_I2C_Master_Receive>
	HAL_Delay(5); // 2.5 ms para acordar; 45 ms para entrar em sleep
 8000204:	2005      	movs	r0, #5
 8000206:	f001 faa5 	bl	8001754 <HAL_Delay>
	// first read: 0 byte read - should receive an ACK

	HAL_I2C_Master_Receive(&hi2c2, I2C_ADDRESS, &data, 1, 1000);
 800020a:	f107 020f 	add.w	r2, r7, #15
 800020e:	f44f 737a 	mov.w	r3, #1000	; 0x3e8
 8000212:	9300      	str	r3, [sp, #0]
 8000214:	2301      	movs	r3, #1
 8000216:	21c8      	movs	r1, #200	; 0xc8
 8000218:	4811      	ldr	r0, [pc, #68]	; (8000260 <WakeUp+0x7c>)
 800021a:	f002 f809 	bl	8002230 <HAL_I2C_Master_Receive>
	HAL_Delay(5);
 800021e:	2005      	movs	r0, #5
 8000220:	f001 fa98 	bl	8001754 <HAL_Delay>

	// Read 88bytes
	HAL_I2C_Master_Transmit(&hi2c2, I2C_ADDRESS, &data, sizeof(data), 1000);	// Send 1 byte
 8000224:	f107 020f 	add.w	r2, r7, #15
 8000228:	f44f 737a 	mov.w	r3, #1000	; 0x3e8
 800022c:	9300      	str	r3, [sp, #0]
 800022e:	2301      	movs	r3, #1
 8000230:	21c8      	movs	r1, #200	; 0xc8
 8000232:	480b      	ldr	r0, [pc, #44]	; (8000260 <WakeUp+0x7c>)
 8000234:	f001 fefe 	bl	8002034 <HAL_I2C_Master_Transmit>
	HAL_Delay(5);
 8000238:	2005      	movs	r0, #5
 800023a:	f001 fa8b 	bl	8001754 <HAL_Delay>
	HAL_I2C_Master_Receive(&hi2c2, I2C_ADDRESS, receiv, 4, 1000); 		    	// Receiv: 0x04, 0x11, 0x33, 0x43.
 800023e:	f44f 737a 	mov.w	r3, #1000	; 0x3e8
 8000242:	9300      	str	r3, [sp, #0]
 8000244:	2304      	movs	r3, #4
 8000246:	687a      	ldr	r2, [r7, #4]
 8000248:	21c8      	movs	r1, #200	; 0xc8
 800024a:	4805      	ldr	r0, [pc, #20]	; (8000260 <WakeUp+0x7c>)
 800024c:	f001 fff0 	bl	8002230 <HAL_I2C_Master_Receive>
	HAL_Delay(5);
 8000250:	2005      	movs	r0, #5
 8000252:	f001 fa7f 	bl	8001754 <HAL_Delay>
}
 8000256:	bf00      	nop
 8000258:	3710      	adds	r7, #16
 800025a:	46bd      	mov	sp, r7
 800025c:	bd80      	pop	{r7, pc}
 800025e:	bf00      	nop
 8000260:	200000ec 	.word	0x200000ec

08000264 <ReadConfig>:


void ReadConfig(uint8_t *data, uint16_t size, uint8_t *receiv) {
 8000264:	b580      	push	{r7, lr}
 8000266:	b086      	sub	sp, #24
 8000268:	af02      	add	r7, sp, #8
 800026a:	60f8      	str	r0, [r7, #12]
 800026c:	460b      	mov	r3, r1
 800026e:	607a      	str	r2, [r7, #4]
 8000270:	817b      	strh	r3, [r7, #10]

	HAL_I2C_Master_Transmit(&hi2c2, I2C_ADDRESS, data, 8, 1000); 		    // Send read command
 8000272:	f44f 737a 	mov.w	r3, #1000	; 0x3e8
 8000276:	9300      	str	r3, [sp, #0]
 8000278:	2308      	movs	r3, #8
 800027a:	68fa      	ldr	r2, [r7, #12]
 800027c:	21c8      	movs	r1, #200	; 0xc8
 800027e:	480b      	ldr	r0, [pc, #44]	; (80002ac <ReadConfig+0x48>)
 8000280:	f001 fed8 	bl	8002034 <HAL_I2C_Master_Transmit>
	HAL_Delay(5);
 8000284:	2005      	movs	r0, #5
 8000286:	f001 fa65 	bl	8001754 <HAL_Delay>
	HAL_I2C_Master_Receive(&hi2c2, I2C_ADDRESS, receiv, size, 1000); 	    // Receive: data packet size, 0x01 0x23..., CRC_LSB, CRC_MSB
 800028a:	897b      	ldrh	r3, [r7, #10]
 800028c:	f44f 727a 	mov.w	r2, #1000	; 0x3e8
 8000290:	9200      	str	r2, [sp, #0]
 8000292:	687a      	ldr	r2, [r7, #4]
 8000294:	21c8      	movs	r1, #200	; 0xc8
 8000296:	4805      	ldr	r0, [pc, #20]	; (80002ac <ReadConfig+0x48>)
 8000298:	f001 ffca 	bl	8002230 <HAL_I2C_Master_Receive>
	HAL_Delay(5);
 800029c:	2005      	movs	r0, #5
 800029e:	f001 fa59 	bl	8001754 <HAL_Delay>
}
 80002a2:	bf00      	nop
 80002a4:	3710      	adds	r7, #16
 80002a6:	46bd      	mov	sp, r7
 80002a8:	bd80      	pop	{r7, pc}
 80002aa:	bf00      	nop
 80002ac:	200000ec 	.word	0x200000ec

080002b0 <CommandNonce>:
	HAL_I2C_Master_Receive(&hi2c2, I2C_ADDRESS, receiv, size, 1000);
	HAL_Delay(5);
}


void CommandNonce(uint8_t *NumIn, uint16_t size, uint8_t *receiv){ //OK
 80002b0:	b580      	push	{r7, lr}
 80002b2:	b090      	sub	sp, #64	; 0x40
 80002b4:	af02      	add	r7, sp, #8
 80002b6:	60f8      	str	r0, [r7, #12]
 80002b8:	460b      	mov	r3, r1
 80002ba:	607a      	str	r2, [r7, #4]
 80002bc:	817b      	strh	r3, [r7, #10]

	// NONCE command: {COMMAND, COUNT, OPCODE, Param1_mode, 0x00, 0x00, NumIn[20], CRC_LSB, CRC_MSB}
	uint8_t noncecommand[28]; //40
	uint8_t CRC_receiv[2];

    noncecommand[0] = COMMAND;
 80002be:	2303      	movs	r3, #3
 80002c0:	763b      	strb	r3, [r7, #24]
    noncecommand[1] = SIZE_WRITE_NONCE20; //SIZE_WRITE_NONCE32;
 80002c2:	231b      	movs	r3, #27
 80002c4:	767b      	strb	r3, [r7, #25]
    noncecommand[2] = COMMAND_NONCE;
 80002c6:	2316      	movs	r3, #22
 80002c8:	76bb      	strb	r3, [r7, #26]
    noncecommand[3] = 0x00; // modo3
 80002ca:	2300      	movs	r3, #0
 80002cc:	76fb      	strb	r3, [r7, #27]
    noncecommand[4] = 0x00;
 80002ce:	2300      	movs	r3, #0
 80002d0:	773b      	strb	r3, [r7, #28]
    noncecommand[5] = 0x00;
 80002d2:	2300      	movs	r3, #0
 80002d4:	777b      	strb	r3, [r7, #29]

	for(uint8_t i = 0; i <= 20; i++){  // <=32
 80002d6:	2300      	movs	r3, #0
 80002d8:	f887 3037 	strb.w	r3, [r7, #55]	; 0x37
 80002dc:	e010      	b.n	8000300 <CommandNonce+0x50>
		 noncecommand[6 + i] = NumIn[i];
 80002de:	f897 3037 	ldrb.w	r3, [r7, #55]	; 0x37
 80002e2:	68fa      	ldr	r2, [r7, #12]
 80002e4:	441a      	add	r2, r3
 80002e6:	f897 3037 	ldrb.w	r3, [r7, #55]	; 0x37
 80002ea:	3306      	adds	r3, #6
 80002ec:	7812      	ldrb	r2, [r2, #0]
 80002ee:	3338      	adds	r3, #56	; 0x38
 80002f0:	443b      	add	r3, r7
 80002f2:	f803 2c20 	strb.w	r2, [r3, #-32]
	for(uint8_t i = 0; i <= 20; i++){  // <=32
 80002f6:	f897 3037 	ldrb.w	r3, [r7, #55]	; 0x37
 80002fa:	3301      	adds	r3, #1
 80002fc:	f887 3037 	strb.w	r3, [r7, #55]	; 0x37
 8000300:	f897 3037 	ldrb.w	r3, [r7, #55]	; 0x37
 8000304:	2b14      	cmp	r3, #20
 8000306:	d9ea      	bls.n	80002de <CommandNonce+0x2e>
	}

	atCRC(noncecommand,sizeof(noncecommand), CRC_receiv);
 8000308:	f107 0214 	add.w	r2, r7, #20
 800030c:	f107 0318 	add.w	r3, r7, #24
 8000310:	211c      	movs	r1, #28
 8000312:	4618      	mov	r0, r3
 8000314:	f7ff ff1a 	bl	800014c <atCRC>
	noncecommand[sizeof(noncecommand) - 2] = CRC_receiv[0] ;
 8000318:	7d3b      	ldrb	r3, [r7, #20]
 800031a:	f887 3032 	strb.w	r3, [r7, #50]	; 0x32
	noncecommand[sizeof(noncecommand) - 1] = CRC_receiv[1] ;
 800031e:	7d7b      	ldrb	r3, [r7, #21]
 8000320:	f887 3033 	strb.w	r3, [r7, #51]	; 0x33

	HAL_I2C_Master_Transmit(&hi2c2, I2C_ADDRESS, noncecommand, sizeof(noncecommand), 1000);
 8000324:	f107 0218 	add.w	r2, r7, #24
 8000328:	f44f 737a 	mov.w	r3, #1000	; 0x3e8
 800032c:	9300      	str	r3, [sp, #0]
 800032e:	231c      	movs	r3, #28
 8000330:	21c8      	movs	r1, #200	; 0xc8
 8000332:	480b      	ldr	r0, [pc, #44]	; (8000360 <CommandNonce+0xb0>)
 8000334:	f001 fe7e 	bl	8002034 <HAL_I2C_Master_Transmit>
	HAL_Delay(40);
 8000338:	2028      	movs	r0, #40	; 0x28
 800033a:	f001 fa0b 	bl	8001754 <HAL_Delay>
	HAL_I2C_Master_Receive(&hi2c2, I2C_ADDRESS, receiv, size, 1000);
 800033e:	897b      	ldrh	r3, [r7, #10]
 8000340:	f44f 727a 	mov.w	r2, #1000	; 0x3e8
 8000344:	9200      	str	r2, [sp, #0]
 8000346:	687a      	ldr	r2, [r7, #4]
 8000348:	21c8      	movs	r1, #200	; 0xc8
 800034a:	4805      	ldr	r0, [pc, #20]	; (8000360 <CommandNonce+0xb0>)
 800034c:	f001 ff70 	bl	8002230 <HAL_I2C_Master_Receive>
	HAL_Delay(10);
 8000350:	200a      	movs	r0, #10
 8000352:	f001 f9ff 	bl	8001754 <HAL_Delay>
}
 8000356:	bf00      	nop
 8000358:	3738      	adds	r7, #56	; 0x38
 800035a:	46bd      	mov	sp, r7
 800035c:	bd80      	pop	{r7, pc}
 800035e:	bf00      	nop
 8000360:	200000ec 	.word	0x200000ec

08000364 <GendigCommand>:


void GendigCommand(uint8_t SlotID_LSB, uint8_t SlotID_MSB, uint8_t size, uint8_t *receiv){
 8000364:	b580      	push	{r7, lr}
 8000366:	b088      	sub	sp, #32
 8000368:	af02      	add	r7, sp, #8
 800036a:	603b      	str	r3, [r7, #0]
 800036c:	4603      	mov	r3, r0
 800036e:	71fb      	strb	r3, [r7, #7]
 8000370:	460b      	mov	r3, r1
 8000372:	71bb      	strb	r3, [r7, #6]
 8000374:	4613      	mov	r3, r2
 8000376:	717b      	strb	r3, [r7, #5]
	uint8_t GenDig[8];
	uint8_t CRC_receiv[2];
	//{COMMAND, SIZE_WRITE_GENDIG, COMMAND_GENDIG, ZONE_DATA, SlotID_LSB, SlotID_MSB, /*0x33, 0xe8*/ 0x00, 0x00};
	//atCRC(GenDig,sizeof(GenDig));

	GenDig[0] = COMMAND;
 8000378:	2303      	movs	r3, #3
 800037a:	743b      	strb	r3, [r7, #16]
	GenDig[1] = SIZE_WRITE_GENDIG;
 800037c:	2307      	movs	r3, #7
 800037e:	747b      	strb	r3, [r7, #17]
	GenDig[2] = COMMAND_GENDIG;
 8000380:	2315      	movs	r3, #21
 8000382:	74bb      	strb	r3, [r7, #18]
	GenDig[3] = ZONE_DATA;
 8000384:	2302      	movs	r3, #2
 8000386:	74fb      	strb	r3, [r7, #19]
	GenDig[4] = SlotID_LSB;
 8000388:	79fb      	ldrb	r3, [r7, #7]
 800038a:	753b      	strb	r3, [r7, #20]
	GenDig[5] = SlotID_MSB;
 800038c:	79bb      	ldrb	r3, [r7, #6]
 800038e:	757b      	strb	r3, [r7, #21]

	atCRC(GenDig,sizeof(GenDig), CRC_receiv);
 8000390:	f107 020c 	add.w	r2, r7, #12
 8000394:	f107 0310 	add.w	r3, r7, #16
 8000398:	2108      	movs	r1, #8
 800039a:	4618      	mov	r0, r3
 800039c:	f7ff fed6 	bl	800014c <atCRC>
	GenDig[6] = CRC_receiv[0] ;
 80003a0:	7b3b      	ldrb	r3, [r7, #12]
 80003a2:	75bb      	strb	r3, [r7, #22]
	GenDig[7] = CRC_receiv[1] ;
 80003a4:	7b7b      	ldrb	r3, [r7, #13]
 80003a6:	75fb      	strb	r3, [r7, #23]

	HAL_I2C_Master_Transmit(&hi2c2, I2C_ADDRESS, GenDig, sizeof(GenDig), 1000);
 80003a8:	f107 0210 	add.w	r2, r7, #16
 80003ac:	f44f 737a 	mov.w	r3, #1000	; 0x3e8
 80003b0:	9300      	str	r3, [sp, #0]
 80003b2:	2308      	movs	r3, #8
 80003b4:	21c8      	movs	r1, #200	; 0xc8
 80003b6:	480b      	ldr	r0, [pc, #44]	; (80003e4 <GendigCommand+0x80>)
 80003b8:	f001 fe3c 	bl	8002034 <HAL_I2C_Master_Transmit>
	HAL_Delay(40);
 80003bc:	2028      	movs	r0, #40	; 0x28
 80003be:	f001 f9c9 	bl	8001754 <HAL_Delay>
	HAL_I2C_Master_Receive(&hi2c2, I2C_ADDRESS, receiv, size, 1000);
 80003c2:	797b      	ldrb	r3, [r7, #5]
 80003c4:	b29b      	uxth	r3, r3
 80003c6:	f44f 727a 	mov.w	r2, #1000	; 0x3e8
 80003ca:	9200      	str	r2, [sp, #0]
 80003cc:	683a      	ldr	r2, [r7, #0]
 80003ce:	21c8      	movs	r1, #200	; 0xc8
 80003d0:	4804      	ldr	r0, [pc, #16]	; (80003e4 <GendigCommand+0x80>)
 80003d2:	f001 ff2d 	bl	8002230 <HAL_I2C_Master_Receive>
	HAL_Delay(5);
 80003d6:	2005      	movs	r0, #5
 80003d8:	f001 f9bc 	bl	8001754 <HAL_Delay>
}
 80003dc:	bf00      	nop
 80003de:	3718      	adds	r7, #24
 80003e0:	46bd      	mov	sp, r7
 80003e2:	bd80      	pop	{r7, pc}
 80003e4:	200000ec 	.word	0x200000ec

080003e8 <MacCommand>:

void MacCommand(uint8_t SlotID_LSB, uint8_t SlotID_MSB, uint16_t size, uint8_t *receiv){
 80003e8:	b580      	push	{r7, lr}
 80003ea:	b088      	sub	sp, #32
 80003ec:	af02      	add	r7, sp, #8
 80003ee:	603b      	str	r3, [r7, #0]
 80003f0:	4603      	mov	r3, r0
 80003f2:	71fb      	strb	r3, [r7, #7]
 80003f4:	460b      	mov	r3, r1
 80003f6:	71bb      	strb	r3, [r7, #6]
 80003f8:	4613      	mov	r3, r2
 80003fa:	80bb      	strh	r3, [r7, #4]
	uint8_t  MAC[8];
	uint8_t CRC_receiv[2];

	//uint8_t Challenge [32] = {0x00};

	 MAC[0]= COMMAND;
 80003fc:	2303      	movs	r3, #3
 80003fe:	743b      	strb	r3, [r7, #16]
	 MAC[1]= 0x07; 	//size 0x27
 8000400:	2307      	movs	r3, #7
 8000402:	747b      	strb	r3, [r7, #17]
	 MAC[2]= COMMAND_MAC;
 8000404:	2308      	movs	r3, #8
 8000406:	74bb      	strb	r3, [r7, #18]
	 MAC[3]= 0x01 ; 	//mode
 8000408:	2301      	movs	r3, #1
 800040a:	74fb      	strb	r3, [r7, #19]
	 MAC[4]= SlotID_LSB;
 800040c:	79fb      	ldrb	r3, [r7, #7]
 800040e:	753b      	strb	r3, [r7, #20]
	 MAC[5]= SlotID_MSB;
 8000410:	79bb      	ldrb	r3, [r7, #6]
 8000412:	757b      	strb	r3, [r7, #21]
/*
	for(uint8_t i = 0; i <= 32; i++){
		MAC[6 + i] = Challenge[i];
	}
*/
	atCRC(MAC, sizeof(MAC), CRC_receiv);
 8000414:	f107 020c 	add.w	r2, r7, #12
 8000418:	f107 0310 	add.w	r3, r7, #16
 800041c:	2108      	movs	r1, #8
 800041e:	4618      	mov	r0, r3
 8000420:	f7ff fe94 	bl	800014c <atCRC>
	MAC[sizeof(MAC) - 2] = CRC_receiv[0] ;
 8000424:	7b3b      	ldrb	r3, [r7, #12]
 8000426:	75bb      	strb	r3, [r7, #22]
	MAC[sizeof(MAC) - 1] = CRC_receiv[1] ;
 8000428:	7b7b      	ldrb	r3, [r7, #13]
 800042a:	75fb      	strb	r3, [r7, #23]

	HAL_I2C_Master_Transmit(&hi2c2, I2C_ADDRESS, MAC, sizeof(MAC), 1000);
 800042c:	f107 0210 	add.w	r2, r7, #16
 8000430:	f44f 737a 	mov.w	r3, #1000	; 0x3e8
 8000434:	9300      	str	r3, [sp, #0]
 8000436:	2308      	movs	r3, #8
 8000438:	21c8      	movs	r1, #200	; 0xc8
 800043a:	480b      	ldr	r0, [pc, #44]	; (8000468 <MacCommand+0x80>)
 800043c:	f001 fdfa 	bl	8002034 <HAL_I2C_Master_Transmit>
	HAL_Delay(45);
 8000440:	202d      	movs	r0, #45	; 0x2d
 8000442:	f001 f987 	bl	8001754 <HAL_Delay>
	HAL_I2C_Master_Receive(&hi2c2, I2C_ADDRESS, receiv, size, 1000);
 8000446:	88bb      	ldrh	r3, [r7, #4]
 8000448:	f44f 727a 	mov.w	r2, #1000	; 0x3e8
 800044c:	9200      	str	r2, [sp, #0]
 800044e:	683a      	ldr	r2, [r7, #0]
 8000450:	21c8      	movs	r1, #200	; 0xc8
 8000452:	4805      	ldr	r0, [pc, #20]	; (8000468 <MacCommand+0x80>)
 8000454:	f001 feec 	bl	8002230 <HAL_I2C_Master_Receive>
	HAL_Delay(5);
 8000458:	2005      	movs	r0, #5
 800045a:	f001 f97b 	bl	8001754 <HAL_Delay>
}
 800045e:	bf00      	nop
 8000460:	3718      	adds	r7, #24
 8000462:	46bd      	mov	sp, r7
 8000464:	bd80      	pop	{r7, pc}
 8000466:	bf00      	nop
 8000468:	200000ec 	.word	0x200000ec

0800046c <CheckMacCommand>:


void CheckMacCommand(uint8_t SlotID_LSB, uint8_t SlotID_MSB, uint8_t *ClientResp, uint16_t size, uint8_t *receiv) {
 800046c:	b590      	push	{r4, r7, lr}
 800046e:	b0a9      	sub	sp, #164	; 0xa4
 8000470:	af02      	add	r7, sp, #8
 8000472:	603a      	str	r2, [r7, #0]
 8000474:	461a      	mov	r2, r3
 8000476:	4603      	mov	r3, r0
 8000478:	71fb      	strb	r3, [r7, #7]
 800047a:	460b      	mov	r3, r1
 800047c:	71bb      	strb	r3, [r7, #6]
 800047e:	4613      	mov	r3, r2
 8000480:	80bb      	strh	r3, [r7, #4]
    uint8_t CheckMAC[85] = {0};
 8000482:	2300      	movs	r3, #0
 8000484:	643b      	str	r3, [r7, #64]	; 0x40
 8000486:	f107 0344 	add.w	r3, r7, #68	; 0x44
 800048a:	2251      	movs	r2, #81	; 0x51
 800048c:	2100      	movs	r1, #0
 800048e:	4618      	mov	r0, r3
 8000490:	f003 fd32 	bl	8003ef8 <memset>
    uint8_t CRC_receiv[2];
    uint8_t size_att = 0; // Inicializado para 0
 8000494:	2300      	movs	r3, #0
 8000496:	f887 3097 	strb.w	r3, [r7, #151]	; 0x97

    uint8_t ClientChal[32] = {0};
 800049a:	2300      	movs	r3, #0
 800049c:	61fb      	str	r3, [r7, #28]
 800049e:	f107 0320 	add.w	r3, r7, #32
 80004a2:	2200      	movs	r2, #0
 80004a4:	601a      	str	r2, [r3, #0]
 80004a6:	605a      	str	r2, [r3, #4]
 80004a8:	609a      	str	r2, [r3, #8]
 80004aa:	60da      	str	r2, [r3, #12]
 80004ac:	611a      	str	r2, [r3, #16]
 80004ae:	615a      	str	r2, [r3, #20]
 80004b0:	619a      	str	r2, [r3, #24]
    uint8_t OtherData[13] = {0x08, 0x01, 0x04, 0x00, 0x00, 0x00, 0x00, 0x00, 0x00, 0x00, 0x00, 0x00, 0x00};
 80004b2:	4b4f      	ldr	r3, [pc, #316]	; (80005f0 <CheckMacCommand+0x184>)
 80004b4:	f107 040c 	add.w	r4, r7, #12
 80004b8:	cb0f      	ldmia	r3, {r0, r1, r2, r3}
 80004ba:	c407      	stmia	r4!, {r0, r1, r2}
 80004bc:	7023      	strb	r3, [r4, #0]

    CheckMAC[0] = 0x03;
 80004be:	2303      	movs	r3, #3
 80004c0:	f887 3040 	strb.w	r3, [r7, #64]	; 0x40
    CheckMAC[1] = 0x54;
 80004c4:	2354      	movs	r3, #84	; 0x54
 80004c6:	f887 3041 	strb.w	r3, [r7, #65]	; 0x41
    CheckMAC[2] = COMMAND_CHECKMAC;
 80004ca:	2328      	movs	r3, #40	; 0x28
 80004cc:	f887 3042 	strb.w	r3, [r7, #66]	; 0x42
    CheckMAC[3] = 0x01;    // mode
 80004d0:	2301      	movs	r3, #1
 80004d2:	f887 3043 	strb.w	r3, [r7, #67]	; 0x43
    CheckMAC[4] = SlotID_LSB;
 80004d6:	79fb      	ldrb	r3, [r7, #7]
 80004d8:	f887 3044 	strb.w	r3, [r7, #68]	; 0x44
    CheckMAC[5] = SlotID_MSB;
 80004dc:	79bb      	ldrb	r3, [r7, #6]
 80004de:	f887 3045 	strb.w	r3, [r7, #69]	; 0x45

    for (uint8_t i = 0; i <= 77; i++) {
 80004e2:	2300      	movs	r3, #0
 80004e4:	f887 3096 	strb.w	r3, [r7, #150]	; 0x96
 80004e8:	e050      	b.n	800058c <CheckMacCommand+0x120>
        if (i <= 32) {
 80004ea:	f897 3096 	ldrb.w	r3, [r7, #150]	; 0x96
 80004ee:	2b20      	cmp	r3, #32
 80004f0:	d812      	bhi.n	8000518 <CheckMacCommand+0xac>
            CheckMAC[6 + i] = ClientChal[i];
 80004f2:	f897 2096 	ldrb.w	r2, [r7, #150]	; 0x96
 80004f6:	f897 3096 	ldrb.w	r3, [r7, #150]	; 0x96
 80004fa:	3306      	adds	r3, #6
 80004fc:	3298      	adds	r2, #152	; 0x98
 80004fe:	443a      	add	r2, r7
 8000500:	f812 2c7c 	ldrb.w	r2, [r2, #-124]
 8000504:	3398      	adds	r3, #152	; 0x98
 8000506:	443b      	add	r3, r7
 8000508:	f803 2c58 	strb.w	r2, [r3, #-88]
            size_att = 6 + i;
 800050c:	f897 3096 	ldrb.w	r3, [r7, #150]	; 0x96
 8000510:	3306      	adds	r3, #6
 8000512:	f887 3097 	strb.w	r3, [r7, #151]	; 0x97
 8000516:	e034      	b.n	8000582 <CheckMacCommand+0x116>
        } else if (i > 32 && i <= 64) {
 8000518:	f897 3096 	ldrb.w	r3, [r7, #150]	; 0x96
 800051c:	2b20      	cmp	r3, #32
 800051e:	d915      	bls.n	800054c <CheckMacCommand+0xe0>
 8000520:	f897 3096 	ldrb.w	r3, [r7, #150]	; 0x96
 8000524:	2b40      	cmp	r3, #64	; 0x40
 8000526:	d811      	bhi.n	800054c <CheckMacCommand+0xe0>
            CheckMAC[size_att] = ClientResp[i - 32];
 8000528:	f897 3096 	ldrb.w	r3, [r7, #150]	; 0x96
 800052c:	3b20      	subs	r3, #32
 800052e:	683a      	ldr	r2, [r7, #0]
 8000530:	441a      	add	r2, r3
 8000532:	f897 3097 	ldrb.w	r3, [r7, #151]	; 0x97
 8000536:	7812      	ldrb	r2, [r2, #0]
 8000538:	3398      	adds	r3, #152	; 0x98
 800053a:	443b      	add	r3, r7
 800053c:	f803 2c58 	strb.w	r2, [r3, #-88]
            size_att++;
 8000540:	f897 3097 	ldrb.w	r3, [r7, #151]	; 0x97
 8000544:	3301      	adds	r3, #1
 8000546:	f887 3097 	strb.w	r3, [r7, #151]	; 0x97
 800054a:	e01a      	b.n	8000582 <CheckMacCommand+0x116>
        } else if (i > 63 && i <= 77) {
 800054c:	f897 3096 	ldrb.w	r3, [r7, #150]	; 0x96
 8000550:	2b3f      	cmp	r3, #63	; 0x3f
 8000552:	d916      	bls.n	8000582 <CheckMacCommand+0x116>
 8000554:	f897 3096 	ldrb.w	r3, [r7, #150]	; 0x96
 8000558:	2b4d      	cmp	r3, #77	; 0x4d
 800055a:	d812      	bhi.n	8000582 <CheckMacCommand+0x116>
            CheckMAC[size_att] = OtherData[i - 65];
 800055c:	f897 3096 	ldrb.w	r3, [r7, #150]	; 0x96
 8000560:	f1a3 0241 	sub.w	r2, r3, #65	; 0x41
 8000564:	f897 3097 	ldrb.w	r3, [r7, #151]	; 0x97
 8000568:	3298      	adds	r2, #152	; 0x98
 800056a:	443a      	add	r2, r7
 800056c:	f812 2c8c 	ldrb.w	r2, [r2, #-140]
 8000570:	3398      	adds	r3, #152	; 0x98
 8000572:	443b      	add	r3, r7
 8000574:	f803 2c58 	strb.w	r2, [r3, #-88]
            size_att++;
 8000578:	f897 3097 	ldrb.w	r3, [r7, #151]	; 0x97
 800057c:	3301      	adds	r3, #1
 800057e:	f887 3097 	strb.w	r3, [r7, #151]	; 0x97
    for (uint8_t i = 0; i <= 77; i++) {
 8000582:	f897 3096 	ldrb.w	r3, [r7, #150]	; 0x96
 8000586:	3301      	adds	r3, #1
 8000588:	f887 3096 	strb.w	r3, [r7, #150]	; 0x96
 800058c:	f897 3096 	ldrb.w	r3, [r7, #150]	; 0x96
 8000590:	2b4d      	cmp	r3, #77	; 0x4d
 8000592:	d9aa      	bls.n	80004ea <CheckMacCommand+0x7e>
        }
    }

    atCRC(CheckMAC, sizeof(CheckMAC), CRC_receiv);
 8000594:	f107 023c 	add.w	r2, r7, #60	; 0x3c
 8000598:	f107 0340 	add.w	r3, r7, #64	; 0x40
 800059c:	2155      	movs	r1, #85	; 0x55
 800059e:	4618      	mov	r0, r3
 80005a0:	f7ff fdd4 	bl	800014c <atCRC>
    CheckMAC[sizeof(CheckMAC) - 2] = CRC_receiv[0];
 80005a4:	f897 303c 	ldrb.w	r3, [r7, #60]	; 0x3c
 80005a8:	f887 3093 	strb.w	r3, [r7, #147]	; 0x93
    CheckMAC[sizeof(CheckMAC) - 1] = CRC_receiv[1];
 80005ac:	f897 303d 	ldrb.w	r3, [r7, #61]	; 0x3d
 80005b0:	f887 3094 	strb.w	r3, [r7, #148]	; 0x94

    HAL_I2C_Master_Transmit(&hi2c2, I2C_ADDRESS, CheckMAC, sizeof(CheckMAC), 1000);
 80005b4:	f107 0240 	add.w	r2, r7, #64	; 0x40
 80005b8:	f44f 737a 	mov.w	r3, #1000	; 0x3e8
 80005bc:	9300      	str	r3, [sp, #0]
 80005be:	2355      	movs	r3, #85	; 0x55
 80005c0:	21c8      	movs	r1, #200	; 0xc8
 80005c2:	480c      	ldr	r0, [pc, #48]	; (80005f4 <CheckMacCommand+0x188>)
 80005c4:	f001 fd36 	bl	8002034 <HAL_I2C_Master_Transmit>
    HAL_Delay(40);
 80005c8:	2028      	movs	r0, #40	; 0x28
 80005ca:	f001 f8c3 	bl	8001754 <HAL_Delay>
    HAL_I2C_Master_Receive(&hi2c2, I2C_ADDRESS, receiv, size, 1000);
 80005ce:	88bb      	ldrh	r3, [r7, #4]
 80005d0:	f44f 727a 	mov.w	r2, #1000	; 0x3e8
 80005d4:	9200      	str	r2, [sp, #0]
 80005d6:	f8d7 20a8 	ldr.w	r2, [r7, #168]	; 0xa8
 80005da:	21c8      	movs	r1, #200	; 0xc8
 80005dc:	4805      	ldr	r0, [pc, #20]	; (80005f4 <CheckMacCommand+0x188>)
 80005de:	f001 fe27 	bl	8002230 <HAL_I2C_Master_Receive>
    HAL_Delay(5);
 80005e2:	2005      	movs	r0, #5
 80005e4:	f001 f8b6 	bl	8001754 <HAL_Delay>
}
 80005e8:	bf00      	nop
 80005ea:	379c      	adds	r7, #156	; 0x9c
 80005ec:	46bd      	mov	sp, r7
 80005ee:	bd90      	pop	{r4, r7, pc}
 80005f0:	080043b8 	.word	0x080043b8
 80005f4:	200000ec 	.word	0x200000ec

080005f8 <main>:
/**
  * @brief  The application entry point.
  * @retval int
  */
int main(void)
{
 80005f8:	b5b0      	push	{r4, r5, r7, lr}
 80005fa:	f5ad 7d38 	sub.w	sp, sp, #736	; 0x2e0
 80005fe:	af02      	add	r7, sp, #8

  /* MCU Configuration--------------------------------------------------------*/

  /* Reset of all peripherals, Initializes the Flash interface and the Systick. */

	HAL_Init();
 8000600:	f001 f846 	bl	8001690 <HAL_Init>
  /* USER CODE BEGIN Init */

  /* USER CODE END Init */

  /* Configure the system clock */
  SystemClock_Config();
 8000604:	f000 f9e2 	bl	80009cc <SystemClock_Config>
  /* USER CODE BEGIN SysInit */

  /* USER CODE END SysInit */

  /* Initialize all configured peripherals */
  MX_GPIO_Init();
 8000608:	f000 fa80 	bl	8000b0c <MX_GPIO_Init>
  MX_USART1_Init();
 800060c:	f000 fa52 	bl	8000ab4 <MX_USART1_Init>
  MX_I2C2_Init();
 8000610:	f000 fa22 	bl	8000a58 <MX_I2C2_Init>
  /* USER CODE BEGIN 2 */

  // read configuration zone: {COMMAND, COUNT, OPCODE, ZONE, ADDRESS_1, ADDRESS_2, CRC_LSB, CRC_MSB}
  uint8_t readCommand0[8] = {0x03, 0x07, 0x02, 0x80, 0x00, 0x00, 0x09, 0xAD};
 8000614:	4ae0      	ldr	r2, [pc, #896]	; (8000998 <main+0x3a0>)
 8000616:	f507 7334 	add.w	r3, r7, #720	; 0x2d0
 800061a:	e892 0003 	ldmia.w	r2, {r0, r1}
 800061e:	e883 0003 	stmia.w	r3, {r0, r1}
  uint8_t readCommand1[8] = {0x03, 0x07, 0x02, 0x80, 0x08, 0x00, 0x0a, 0x4d};
 8000622:	4ade      	ldr	r2, [pc, #888]	; (800099c <main+0x3a4>)
 8000624:	f507 7332 	add.w	r3, r7, #712	; 0x2c8
 8000628:	e892 0003 	ldmia.w	r2, {r0, r1}
 800062c:	e883 0003 	stmia.w	r3, {r0, r1}
  uint8_t readCommand2[8] = {0x03, 0x07, 0x02, 0x00, 0x10, 0x00, 0x1d, 0x9d};
 8000630:	4adb      	ldr	r2, [pc, #876]	; (80009a0 <main+0x3a8>)
 8000632:	f507 7330 	add.w	r3, r7, #704	; 0x2c0
 8000636:	e892 0003 	ldmia.w	r2, {r0, r1}
 800063a:	e883 0003 	stmia.w	r3, {r0, r1}
  uint8_t readCommand3[8] = {0x03, 0x07, 0x02, 0x00, 0x11, 0x00, 0x14, 0x1d};
 800063e:	4ad9      	ldr	r2, [pc, #868]	; (80009a4 <main+0x3ac>)
 8000640:	f507 732e 	add.w	r3, r7, #696	; 0x2b8
 8000644:	e892 0003 	ldmia.w	r2, {r0, r1}
 8000648:	e883 0003 	stmia.w	r3, {r0, r1}
  uint8_t readCommand4[8] = {0x03, 0x07, 0x02, 0x00, 0x12, 0x00, 0x1b, 0x1d};
 800064c:	4ad6      	ldr	r2, [pc, #856]	; (80009a8 <main+0x3b0>)
 800064e:	f507 732c 	add.w	r3, r7, #688	; 0x2b0
 8000652:	e892 0003 	ldmia.w	r2, {r0, r1}
 8000656:	e883 0003 	stmia.w	r3, {r0, r1}
  uint8_t readCommand5[8] = {0x03, 0x07, 0x02, 0x00, 0x13, 0x00, 0x12, 0x9d};
 800065a:	4ad4      	ldr	r2, [pc, #848]	; (80009ac <main+0x3b4>)
 800065c:	f507 732a 	add.w	r3, r7, #680	; 0x2a8
 8000660:	e892 0003 	ldmia.w	r2, {r0, r1}
 8000664:	e883 0003 	stmia.w	r3, {r0, r1}
  uint8_t readCommand6[8] = {0x03, 0x07, 0x02, 0x00, 0x14, 0x00, 0x1e, 0xdd};
 8000668:	4ad1      	ldr	r2, [pc, #836]	; (80009b0 <main+0x3b8>)
 800066a:	f507 7328 	add.w	r3, r7, #672	; 0x2a0
 800066e:	e892 0003 	ldmia.w	r2, {r0, r1}
 8000672:	e883 0003 	stmia.w	r3, {r0, r1}
  uint8_t readCommand7[8] = {0x03, 0x07, 0x02, 0x00, 0x15, 0x00, 0x17, 0x5d};
 8000676:	4acf      	ldr	r2, [pc, #828]	; (80009b4 <main+0x3bc>)
 8000678:	f507 7326 	add.w	r3, r7, #664	; 0x298
 800067c:	e892 0003 	ldmia.w	r2, {r0, r1}
 8000680:	e883 0003 	stmia.w	r3, {r0, r1}

  uint8_t readMASTERKEY[8] = {0x03, 0x07, 0x02, 0x82, 0x70, 0x00, 0x09, 0x8c};
 8000684:	4acc      	ldr	r2, [pc, #816]	; (80009b8 <main+0x3c0>)
 8000686:	f507 7324 	add.w	r3, r7, #656	; 0x290
 800068a:	e892 0003 	ldmia.w	r2, {r0, r1}
 800068e:	e883 0003 	stmia.w	r3, {r0, r1}
  uint8_t readDATA2[8] = {0x03, 0x07, 0x02, 0x82, 0x50, 0x00, 0x0a, 0x14};
 8000692:	4aca      	ldr	r2, [pc, #808]	; (80009bc <main+0x3c4>)
 8000694:	f507 7322 	add.w	r3, r7, #648	; 0x288
 8000698:	e892 0003 	ldmia.w	r2, {r0, r1}
 800069c:	e883 0003 	stmia.w	r3, {r0, r1}

  uint8_t WritePwd2[8] =  {0x03, 0x07, 0x02, 0x82, 0x48, 0x00, 0x0a, 0x44};
 80006a0:	4ac7      	ldr	r2, [pc, #796]	; (80009c0 <main+0x3c8>)
 80006a2:	f507 7320 	add.w	r3, r7, #640	; 0x280
 80006a6:	e892 0003 	ldmia.w	r2, {r0, r1}
 80006aa:	e883 0003 	stmia.w	r3, {r0, r1}
  uint8_t LOBBYKEY_2[8] = {0x03, 0x07, 0x02,  0x82, 0x20, 0x00, 0x09, 0xb0};
 80006ae:	4ac5      	ldr	r2, [pc, #788]	; (80009c4 <main+0x3cc>)
 80006b0:	f507 731e 	add.w	r3, r7, #632	; 0x278
 80006b4:	e892 0003 	ldmia.w	r2, {r0, r1}
 80006b8:	e883 0003 	stmia.w	r3, {r0, r1}

  uint8_t temp_nonce[] = {};

  uint8_t receiv_MASTERKEY[35] = {0};
 80006bc:	2300      	movs	r3, #0
 80006be:	f8c7 3254 	str.w	r3, [r7, #596]	; 0x254
 80006c2:	f507 7316 	add.w	r3, r7, #600	; 0x258
 80006c6:	221f      	movs	r2, #31
 80006c8:	2100      	movs	r1, #0
 80006ca:	4618      	mov	r0, r3
 80006cc:	f003 fc14 	bl	8003ef8 <memset>


  // NONCE
  uint8_t NumIn[20] = { 0x00, 0x01, 0x02, 0x03, 0x04, 0x05, 0x06, 0x07, 0x08, 0x09,
 80006d0:	4bbd      	ldr	r3, [pc, #756]	; (80009c8 <main+0x3d0>)
 80006d2:	f507 7410 	add.w	r4, r7, #576	; 0x240
 80006d6:	461d      	mov	r5, r3
 80006d8:	cd0f      	ldmia	r5!, {r0, r1, r2, r3}
 80006da:	c40f      	stmia	r4!, {r0, r1, r2, r3}
 80006dc:	682b      	ldr	r3, [r5, #0]
 80006de:	6023      	str	r3, [r4, #0]
		  	  	  	  	0x00, 0x01, 0x02, 0x03, 0x04, 0x05, 0x06, 0x07, 0x08, 0x09};
						// 0x00, 0x01, 0x02, 0x03, 0x04, 0x05, 0x06, 0x07, 0x08, 0x09,
						//  0x00, 0x01};

  uint8_t aux[35] = {0};
 80006e0:	2300      	movs	r3, #0
 80006e2:	f8c7 321c 	str.w	r3, [r7, #540]	; 0x21c
 80006e6:	f507 7308 	add.w	r3, r7, #544	; 0x220
 80006ea:	221f      	movs	r2, #31
 80006ec:	2100      	movs	r1, #0
 80006ee:	4618      	mov	r0, r3
 80006f0:	f003 fc02 	bl	8003ef8 <memset>
  uint8_t randout[35] = {0};
 80006f4:	2300      	movs	r3, #0
 80006f6:	f8c7 31f8 	str.w	r3, [r7, #504]	; 0x1f8
 80006fa:	f507 73fe 	add.w	r3, r7, #508	; 0x1fc
 80006fe:	221f      	movs	r2, #31
 8000700:	2100      	movs	r1, #0
 8000702:	4618      	mov	r0, r3
 8000704:	f003 fbf8 	bl	8003ef8 <memset>
  uint8_t tempnonce[35] = {0};
 8000708:	f507 7336 	add.w	r3, r7, #728	; 0x2d8
 800070c:	f5a3 7382 	sub.w	r3, r3, #260	; 0x104
 8000710:	2200      	movs	r2, #0
 8000712:	601a      	str	r2, [r3, #0]
 8000714:	3304      	adds	r3, #4
 8000716:	221f      	movs	r2, #31
 8000718:	2100      	movs	r1, #0
 800071a:	4618      	mov	r0, r3
 800071c:	f003 fbec 	bl	8003ef8 <memset>
  uint8_t LOBBYKEY_rec[35];

  uint8_t receiv_sha256[35];

  // SHA-256
  uint8_t sha_init[1] = {0};
 8000720:	f507 7336 	add.w	r3, r7, #728	; 0x2d8
 8000724:	f5a3 73a8 	sub.w	r3, r3, #336	; 0x150
 8000728:	2200      	movs	r2, #0
 800072a:	701a      	strb	r2, [r3, #0]
  uint8_t SHA_receiv[35] = {0};
 800072c:	f507 7336 	add.w	r3, r7, #728	; 0x2d8
 8000730:	f5a3 73ba 	sub.w	r3, r3, #372	; 0x174
 8000734:	2200      	movs	r2, #0
 8000736:	601a      	str	r2, [r3, #0]
 8000738:	3304      	adds	r3, #4
 800073a:	221f      	movs	r2, #31
 800073c:	2100      	movs	r1, #0
 800073e:	4618      	mov	r0, r3
 8000740:	f003 fbda 	bl	8003ef8 <memset>

  // GENDIG
  uint8_t gendig_receiv[4] = {0};
 8000744:	f507 7336 	add.w	r3, r7, #728	; 0x2d8
 8000748:	f5a3 73bc 	sub.w	r3, r3, #376	; 0x178
 800074c:	2200      	movs	r2, #0
 800074e:	601a      	str	r2, [r3, #0]


  //MAC
  uint8_t MAC_receiv[35] = {0};
 8000750:	f507 7336 	add.w	r3, r7, #728	; 0x2d8
 8000754:	f5a3 73ce 	sub.w	r3, r3, #412	; 0x19c
 8000758:	2200      	movs	r2, #0
 800075a:	601a      	str	r2, [r3, #0]
 800075c:	3304      	adds	r3, #4
 800075e:	221f      	movs	r2, #31
 8000760:	2100      	movs	r1, #0
 8000762:	4618      	mov	r0, r3
 8000764:	f003 fbc8 	bl	8003ef8 <memset>
  uint8_t gendig_calc[35] = {0};
 8000768:	f507 7336 	add.w	r3, r7, #728	; 0x2d8
 800076c:	f5a3 73e0 	sub.w	r3, r3, #448	; 0x1c0
 8000770:	2200      	movs	r2, #0
 8000772:	601a      	str	r2, [r3, #0]
 8000774:	3304      	adds	r3, #4
 8000776:	221f      	movs	r2, #31
 8000778:	2100      	movs	r1, #0
 800077a:	4618      	mov	r0, r3
 800077c:	f003 fbbc 	bl	8003ef8 <memset>
  uint8_t MAC_calc[35] = {0};
 8000780:	f507 7336 	add.w	r3, r7, #728	; 0x2d8
 8000784:	f5a3 73f2 	sub.w	r3, r3, #484	; 0x1e4
 8000788:	2200      	movs	r2, #0
 800078a:	601a      	str	r2, [r3, #0]
 800078c:	3304      	adds	r3, #4
 800078e:	221f      	movs	r2, #31
 8000790:	2100      	movs	r1, #0
 8000792:	4618      	mov	r0, r3
 8000794:	f003 fbb0 	bl	8003ef8 <memset>
  uint8_t CheckMAC_receiv[4] = {0};
 8000798:	f507 7336 	add.w	r3, r7, #728	; 0x2d8
 800079c:	f5a3 73f4 	sub.w	r3, r3, #488	; 0x1e8
 80007a0:	2200      	movs	r2, #0
 80007a2:	601a      	str	r2, [r3, #0]
  uint8_t dado[32] = {0};
 80007a4:	f507 7336 	add.w	r3, r7, #728	; 0x2d8
 80007a8:	f5a3 7302 	sub.w	r3, r3, #520	; 0x208
 80007ac:	2200      	movs	r2, #0
 80007ae:	601a      	str	r2, [r3, #0]
 80007b0:	3304      	adds	r3, #4
 80007b2:	2200      	movs	r2, #0
 80007b4:	601a      	str	r2, [r3, #0]
 80007b6:	605a      	str	r2, [r3, #4]
 80007b8:	609a      	str	r2, [r3, #8]
 80007ba:	60da      	str	r2, [r3, #12]
 80007bc:	611a      	str	r2, [r3, #16]
 80007be:	615a      	str	r2, [r3, #20]
 80007c0:	619a      	str	r2, [r3, #24]


  uint8_t read_byte[4];
  uint8_t receiv_ack[4] = {0};
 80007c2:	f507 7336 	add.w	r3, r7, #728	; 0x2d8
 80007c6:	f5a3 7304 	sub.w	r3, r3, #528	; 0x210
 80007ca:	2200      	movs	r2, #0
 80007cc:	601a      	str	r2, [r3, #0]

  //uint8_t read_config[32] = {0};
  uint8_t read_config0[35] = {0};
 80007ce:	f507 7336 	add.w	r3, r7, #728	; 0x2d8
 80007d2:	f5a3 730d 	sub.w	r3, r3, #564	; 0x234
 80007d6:	2200      	movs	r2, #0
 80007d8:	601a      	str	r2, [r3, #0]
 80007da:	3304      	adds	r3, #4
 80007dc:	221f      	movs	r2, #31
 80007de:	2100      	movs	r1, #0
 80007e0:	4618      	mov	r0, r3
 80007e2:	f003 fb89 	bl	8003ef8 <memset>
  uint8_t read_config1[35] = {0};
 80007e6:	f507 7336 	add.w	r3, r7, #728	; 0x2d8
 80007ea:	f5a3 7316 	sub.w	r3, r3, #600	; 0x258
 80007ee:	2200      	movs	r2, #0
 80007f0:	601a      	str	r2, [r3, #0]
 80007f2:	3304      	adds	r3, #4
 80007f4:	221f      	movs	r2, #31
 80007f6:	2100      	movs	r1, #0
 80007f8:	4618      	mov	r0, r3
 80007fa:	f003 fb7d 	bl	8003ef8 <memset>
  uint8_t read_config2[7] = {0};
 80007fe:	f507 7336 	add.w	r3, r7, #728	; 0x2d8
 8000802:	f5a3 7318 	sub.w	r3, r3, #608	; 0x260
 8000806:	2200      	movs	r2, #0
 8000808:	601a      	str	r2, [r3, #0]
 800080a:	3304      	adds	r3, #4
 800080c:	2100      	movs	r1, #0
 800080e:	460a      	mov	r2, r1
 8000810:	801a      	strh	r2, [r3, #0]
 8000812:	460a      	mov	r2, r1
 8000814:	709a      	strb	r2, [r3, #2]
  uint8_t read_config3[7] = {0};
 8000816:	f507 7336 	add.w	r3, r7, #728	; 0x2d8
 800081a:	f5a3 731a 	sub.w	r3, r3, #616	; 0x268
 800081e:	2200      	movs	r2, #0
 8000820:	601a      	str	r2, [r3, #0]
 8000822:	3304      	adds	r3, #4
 8000824:	2100      	movs	r1, #0
 8000826:	460a      	mov	r2, r1
 8000828:	801a      	strh	r2, [r3, #0]
 800082a:	460a      	mov	r2, r1
 800082c:	709a      	strb	r2, [r3, #2]
  uint8_t read_config4[7] = {0};
 800082e:	f507 7336 	add.w	r3, r7, #728	; 0x2d8
 8000832:	f5a3 731c 	sub.w	r3, r3, #624	; 0x270
 8000836:	2200      	movs	r2, #0
 8000838:	601a      	str	r2, [r3, #0]
 800083a:	3304      	adds	r3, #4
 800083c:	2100      	movs	r1, #0
 800083e:	460a      	mov	r2, r1
 8000840:	801a      	strh	r2, [r3, #0]
 8000842:	460a      	mov	r2, r1
 8000844:	709a      	strb	r2, [r3, #2]
  uint8_t read_config5[7] = {0};
 8000846:	f507 7336 	add.w	r3, r7, #728	; 0x2d8
 800084a:	f5a3 731e 	sub.w	r3, r3, #632	; 0x278
 800084e:	2200      	movs	r2, #0
 8000850:	601a      	str	r2, [r3, #0]
 8000852:	3304      	adds	r3, #4
 8000854:	2100      	movs	r1, #0
 8000856:	460a      	mov	r2, r1
 8000858:	801a      	strh	r2, [r3, #0]
 800085a:	460a      	mov	r2, r1
 800085c:	709a      	strb	r2, [r3, #2]
  uint8_t read_config6[7] = {0};
 800085e:	f507 7336 	add.w	r3, r7, #728	; 0x2d8
 8000862:	f5a3 7320 	sub.w	r3, r3, #640	; 0x280
 8000866:	2200      	movs	r2, #0
 8000868:	601a      	str	r2, [r3, #0]
 800086a:	3304      	adds	r3, #4
 800086c:	2100      	movs	r1, #0
 800086e:	460a      	mov	r2, r1
 8000870:	801a      	strh	r2, [r3, #0]
 8000872:	460a      	mov	r2, r1
 8000874:	709a      	strb	r2, [r3, #2]
  uint8_t read_config7[7] = {0};
 8000876:	f507 7336 	add.w	r3, r7, #728	; 0x2d8
 800087a:	f5a3 7322 	sub.w	r3, r3, #648	; 0x288
 800087e:	2200      	movs	r2, #0
 8000880:	601a      	str	r2, [r3, #0]
 8000882:	3304      	adds	r3, #4
 8000884:	2100      	movs	r1, #0
 8000886:	460a      	mov	r2, r1
 8000888:	801a      	strh	r2, [r3, #0]
 800088a:	460a      	mov	r2, r1
 800088c:	709a      	strb	r2, [r3, #2]
  uint8_t read_config8[7] = {0};
 800088e:	f507 7336 	add.w	r3, r7, #728	; 0x2d8
 8000892:	f5a3 7324 	sub.w	r3, r3, #656	; 0x290
 8000896:	2200      	movs	r2, #0
 8000898:	601a      	str	r2, [r3, #0]
 800089a:	3304      	adds	r3, #4
 800089c:	2100      	movs	r1, #0
 800089e:	460a      	mov	r2, r1
 80008a0:	801a      	strh	r2, [r3, #0]
 80008a2:	460a      	mov	r2, r1
 80008a4:	709a      	strb	r2, [r3, #2]

  /* Infinite loop */
  /* USER CODE BEGIN WHILE */
  while (1)
  {
	  WakeUp(read_byte);
 80008a6:	f107 03cc 	add.w	r3, r7, #204	; 0xcc
 80008aa:	4618      	mov	r0, r3
 80008ac:	f7ff fc9a 	bl	80001e4 <WakeUp>
	  //BlockConfigZone(receiv_ack);
	  //WriteDataZone();
	  //WriteOTPZone();
	  //BlockDataZone();

	  ReadConfig(readCommand0, 35, read_config0);
 80008b0:	f107 02a4 	add.w	r2, r7, #164	; 0xa4
 80008b4:	f507 7334 	add.w	r3, r7, #720	; 0x2d0
 80008b8:	2123      	movs	r1, #35	; 0x23
 80008ba:	4618      	mov	r0, r3
 80008bc:	f7ff fcd2 	bl	8000264 <ReadConfig>
	  ReadConfig(readCommand1, 35, read_config1);
 80008c0:	f107 0280 	add.w	r2, r7, #128	; 0x80
 80008c4:	f507 7332 	add.w	r3, r7, #712	; 0x2c8
 80008c8:	2123      	movs	r1, #35	; 0x23
 80008ca:	4618      	mov	r0, r3
 80008cc:	f7ff fcca 	bl	8000264 <ReadConfig>
	  ReadConfig(readCommand2, 7, read_config2);
 80008d0:	f107 0278 	add.w	r2, r7, #120	; 0x78
 80008d4:	f507 7330 	add.w	r3, r7, #704	; 0x2c0
 80008d8:	2107      	movs	r1, #7
 80008da:	4618      	mov	r0, r3
 80008dc:	f7ff fcc2 	bl	8000264 <ReadConfig>
	  ReadConfig(readCommand3, 7, read_config3);
 80008e0:	f107 0270 	add.w	r2, r7, #112	; 0x70
 80008e4:	f507 732e 	add.w	r3, r7, #696	; 0x2b8
 80008e8:	2107      	movs	r1, #7
 80008ea:	4618      	mov	r0, r3
 80008ec:	f7ff fcba 	bl	8000264 <ReadConfig>
	  ReadConfig(readCommand4, 7, read_config4);
 80008f0:	f107 0268 	add.w	r2, r7, #104	; 0x68
 80008f4:	f507 732c 	add.w	r3, r7, #688	; 0x2b0
 80008f8:	2107      	movs	r1, #7
 80008fa:	4618      	mov	r0, r3
 80008fc:	f7ff fcb2 	bl	8000264 <ReadConfig>
	  ReadConfig(readCommand5, 7, read_config5);
 8000900:	f107 0260 	add.w	r2, r7, #96	; 0x60
 8000904:	f507 732a 	add.w	r3, r7, #680	; 0x2a8
 8000908:	2107      	movs	r1, #7
 800090a:	4618      	mov	r0, r3
 800090c:	f7ff fcaa 	bl	8000264 <ReadConfig>
	  ReadConfig(readCommand6, 7, read_config6);
 8000910:	f107 0258 	add.w	r2, r7, #88	; 0x58
 8000914:	f507 7328 	add.w	r3, r7, #672	; 0x2a0
 8000918:	2107      	movs	r1, #7
 800091a:	4618      	mov	r0, r3
 800091c:	f7ff fca2 	bl	8000264 <ReadConfig>
	  ReadConfig(readCommand7, 7, read_config7);
 8000920:	f107 0250 	add.w	r2, r7, #80	; 0x50
 8000924:	f507 7326 	add.w	r3, r7, #664	; 0x298
 8000928:	2107      	movs	r1, #7
 800092a:	4618      	mov	r0, r3
 800092c:	f7ff fc9a 	bl	8000264 <ReadConfig>

	  CommandNonce(NumIn, 35, randout);
 8000930:	f507 72fc 	add.w	r2, r7, #504	; 0x1f8
 8000934:	f507 7310 	add.w	r3, r7, #576	; 0x240
 8000938:	2123      	movs	r1, #35	; 0x23
 800093a:	4618      	mov	r0, r3
 800093c:	f7ff fcb8 	bl	80002b0 <CommandNonce>
	  //TempKeyGen(nonce_receiv, NumIn, 0, 55, 35, tempnonce);
	  GendigCommand(0x02, 0x00, 4, gendig_receiv);
 8000940:	f507 73b0 	add.w	r3, r7, #352	; 0x160
 8000944:	2204      	movs	r2, #4
 8000946:	2100      	movs	r1, #0
 8000948:	2002      	movs	r0, #2
 800094a:	f7ff fd0b 	bl	8000364 <GendigCommand>

	  GenDigSHA256Hash(randout, gendig_calc);
 800094e:	f507 728c 	add.w	r2, r7, #280	; 0x118
 8000952:	f507 73fc 	add.w	r3, r7, #504	; 0x1f8
 8000956:	4611      	mov	r1, r2
 8000958:	4618      	mov	r0, r3
 800095a:	f000 fc15 	bl	8001188 <GenDigSHA256Hash>
	  MACSHA256Hash(gendig_calc, MAC_calc);
 800095e:	f107 02f4 	add.w	r2, r7, #244	; 0xf4
 8000962:	f507 738c 	add.w	r3, r7, #280	; 0x118
 8000966:	4611      	mov	r1, r2
 8000968:	4618      	mov	r0, r3
 800096a:	f000 fc95 	bl	8001298 <MACSHA256Hash>
	   * for (int i=0; i<128; i++){
		  data[]= gendig_receiv[];
	  }
	  */

	  MacCommand(0x04, 0x00, 35, MAC_receiv);
 800096e:	f507 739e 	add.w	r3, r7, #316	; 0x13c
 8000972:	2223      	movs	r2, #35	; 0x23
 8000974:	2100      	movs	r1, #0
 8000976:	2004      	movs	r0, #4
 8000978:	f7ff fd36 	bl	80003e8 <MacCommand>
	  //calculateSHA256Hash(data, sizeof(data), hashString);
	  CheckMacCommand(0x04, 0x00, MAC_calc, 4, CheckMAC_receiv);
 800097c:	f107 02f4 	add.w	r2, r7, #244	; 0xf4
 8000980:	f107 03f0 	add.w	r3, r7, #240	; 0xf0
 8000984:	9300      	str	r3, [sp, #0]
 8000986:	2304      	movs	r3, #4
 8000988:	2100      	movs	r1, #0
 800098a:	2004      	movs	r0, #4
 800098c:	f7ff fd6e 	bl	800046c <CheckMacCommand>

	  //ReadEncript(LOBBYKEY_2, 35, LOBBYKEY_rec);

	  HAL_Delay(10);
 8000990:	200a      	movs	r0, #10
 8000992:	f000 fedf 	bl	8001754 <HAL_Delay>
	  WakeUp(read_byte);
 8000996:	e786      	b.n	80008a6 <main+0x2ae>
 8000998:	080043f0 	.word	0x080043f0
 800099c:	080043f8 	.word	0x080043f8
 80009a0:	08004400 	.word	0x08004400
 80009a4:	08004408 	.word	0x08004408
 80009a8:	08004410 	.word	0x08004410
 80009ac:	08004418 	.word	0x08004418
 80009b0:	08004420 	.word	0x08004420
 80009b4:	08004428 	.word	0x08004428
 80009b8:	08004430 	.word	0x08004430
 80009bc:	08004438 	.word	0x08004438
 80009c0:	08004440 	.word	0x08004440
 80009c4:	08004448 	.word	0x08004448
 80009c8:	08004450 	.word	0x08004450

080009cc <SystemClock_Config>:
/**
  * @brief System Clock Configuration
  * @retval None
  */
void SystemClock_Config(void)
{
 80009cc:	b580      	push	{r7, lr}
 80009ce:	b090      	sub	sp, #64	; 0x40
 80009d0:	af00      	add	r7, sp, #0
  RCC_OscInitTypeDef RCC_OscInitStruct = {0};
 80009d2:	f107 0318 	add.w	r3, r7, #24
 80009d6:	2228      	movs	r2, #40	; 0x28
 80009d8:	2100      	movs	r1, #0
 80009da:	4618      	mov	r0, r3
 80009dc:	f003 fa8c 	bl	8003ef8 <memset>
  RCC_ClkInitTypeDef RCC_ClkInitStruct = {0};
 80009e0:	1d3b      	adds	r3, r7, #4
 80009e2:	2200      	movs	r2, #0
 80009e4:	601a      	str	r2, [r3, #0]
 80009e6:	605a      	str	r2, [r3, #4]
 80009e8:	609a      	str	r2, [r3, #8]
 80009ea:	60da      	str	r2, [r3, #12]
 80009ec:	611a      	str	r2, [r3, #16]

  /** Initializes the RCC Oscillators according to the specified parameters
  * in the RCC_OscInitTypeDef structure.
  */
  RCC_OscInitStruct.OscillatorType = RCC_OSCILLATORTYPE_HSE;
 80009ee:	2301      	movs	r3, #1
 80009f0:	61bb      	str	r3, [r7, #24]
  RCC_OscInitStruct.HSEState = RCC_HSE_ON;
 80009f2:	f44f 3380 	mov.w	r3, #65536	; 0x10000
 80009f6:	61fb      	str	r3, [r7, #28]
  RCC_OscInitStruct.HSEPredivValue = RCC_HSE_PREDIV_DIV1;
 80009f8:	2300      	movs	r3, #0
 80009fa:	623b      	str	r3, [r7, #32]
  RCC_OscInitStruct.HSIState = RCC_HSI_ON;
 80009fc:	2301      	movs	r3, #1
 80009fe:	62bb      	str	r3, [r7, #40]	; 0x28
  RCC_OscInitStruct.PLL.PLLState = RCC_PLL_ON;
 8000a00:	2302      	movs	r3, #2
 8000a02:	637b      	str	r3, [r7, #52]	; 0x34
  RCC_OscInitStruct.PLL.PLLSource = RCC_PLLSOURCE_HSE;
 8000a04:	f44f 3380 	mov.w	r3, #65536	; 0x10000
 8000a08:	63bb      	str	r3, [r7, #56]	; 0x38
  RCC_OscInitStruct.PLL.PLLMUL = RCC_PLL_MUL9;
 8000a0a:	f44f 13e0 	mov.w	r3, #1835008	; 0x1c0000
 8000a0e:	63fb      	str	r3, [r7, #60]	; 0x3c
  if (HAL_RCC_OscConfig(&RCC_OscInitStruct) != HAL_OK)
 8000a10:	f107 0318 	add.w	r3, r7, #24
 8000a14:	4618      	mov	r0, r3
 8000a16:	f002 f997 	bl	8002d48 <HAL_RCC_OscConfig>
 8000a1a:	4603      	mov	r3, r0
 8000a1c:	2b00      	cmp	r3, #0
 8000a1e:	d001      	beq.n	8000a24 <SystemClock_Config+0x58>
  {
    Error_Handler();
 8000a20:	f000 f8ae 	bl	8000b80 <Error_Handler>
  }

  /** Initializes the CPU, AHB and APB buses clocks
  */
  RCC_ClkInitStruct.ClockType = RCC_CLOCKTYPE_HCLK|RCC_CLOCKTYPE_SYSCLK
 8000a24:	230f      	movs	r3, #15
 8000a26:	607b      	str	r3, [r7, #4]
                              |RCC_CLOCKTYPE_PCLK1|RCC_CLOCKTYPE_PCLK2;
  RCC_ClkInitStruct.SYSCLKSource = RCC_SYSCLKSOURCE_PLLCLK;
 8000a28:	2302      	movs	r3, #2
 8000a2a:	60bb      	str	r3, [r7, #8]
  RCC_ClkInitStruct.AHBCLKDivider = RCC_SYSCLK_DIV1;
 8000a2c:	2300      	movs	r3, #0
 8000a2e:	60fb      	str	r3, [r7, #12]
  RCC_ClkInitStruct.APB1CLKDivider = RCC_HCLK_DIV2;
 8000a30:	f44f 6380 	mov.w	r3, #1024	; 0x400
 8000a34:	613b      	str	r3, [r7, #16]
  RCC_ClkInitStruct.APB2CLKDivider = RCC_HCLK_DIV1;
 8000a36:	2300      	movs	r3, #0
 8000a38:	617b      	str	r3, [r7, #20]

  if (HAL_RCC_ClockConfig(&RCC_ClkInitStruct, FLASH_LATENCY_2) != HAL_OK)
 8000a3a:	1d3b      	adds	r3, r7, #4
 8000a3c:	2102      	movs	r1, #2
 8000a3e:	4618      	mov	r0, r3
 8000a40:	f002 fc04 	bl	800324c <HAL_RCC_ClockConfig>
 8000a44:	4603      	mov	r3, r0
 8000a46:	2b00      	cmp	r3, #0
 8000a48:	d001      	beq.n	8000a4e <SystemClock_Config+0x82>
  {
    Error_Handler();
 8000a4a:	f000 f899 	bl	8000b80 <Error_Handler>
  }
}
 8000a4e:	bf00      	nop
 8000a50:	3740      	adds	r7, #64	; 0x40
 8000a52:	46bd      	mov	sp, r7
 8000a54:	bd80      	pop	{r7, pc}
	...

08000a58 <MX_I2C2_Init>:
  * @brief I2C2 Initialization Function
  * @param None
  * @retval None
  */
static void MX_I2C2_Init(void)
{
 8000a58:	b580      	push	{r7, lr}
 8000a5a:	af00      	add	r7, sp, #0
  /* USER CODE END I2C2_Init 0 */

  /* USER CODE BEGIN I2C2_Init 1 */

  /* USER CODE END I2C2_Init 1 */
  hi2c2.Instance = I2C2;
 8000a5c:	4b12      	ldr	r3, [pc, #72]	; (8000aa8 <MX_I2C2_Init+0x50>)
 8000a5e:	4a13      	ldr	r2, [pc, #76]	; (8000aac <MX_I2C2_Init+0x54>)
 8000a60:	601a      	str	r2, [r3, #0]
  hi2c2.Init.ClockSpeed = 100000;
 8000a62:	4b11      	ldr	r3, [pc, #68]	; (8000aa8 <MX_I2C2_Init+0x50>)
 8000a64:	4a12      	ldr	r2, [pc, #72]	; (8000ab0 <MX_I2C2_Init+0x58>)
 8000a66:	605a      	str	r2, [r3, #4]
  hi2c2.Init.DutyCycle = I2C_DUTYCYCLE_2;
 8000a68:	4b0f      	ldr	r3, [pc, #60]	; (8000aa8 <MX_I2C2_Init+0x50>)
 8000a6a:	2200      	movs	r2, #0
 8000a6c:	609a      	str	r2, [r3, #8]
  hi2c2.Init.OwnAddress1 = 0;
 8000a6e:	4b0e      	ldr	r3, [pc, #56]	; (8000aa8 <MX_I2C2_Init+0x50>)
 8000a70:	2200      	movs	r2, #0
 8000a72:	60da      	str	r2, [r3, #12]
  hi2c2.Init.AddressingMode = I2C_ADDRESSINGMODE_7BIT;
 8000a74:	4b0c      	ldr	r3, [pc, #48]	; (8000aa8 <MX_I2C2_Init+0x50>)
 8000a76:	f44f 4280 	mov.w	r2, #16384	; 0x4000
 8000a7a:	611a      	str	r2, [r3, #16]
  hi2c2.Init.DualAddressMode = I2C_DUALADDRESS_DISABLE;
 8000a7c:	4b0a      	ldr	r3, [pc, #40]	; (8000aa8 <MX_I2C2_Init+0x50>)
 8000a7e:	2200      	movs	r2, #0
 8000a80:	615a      	str	r2, [r3, #20]
  hi2c2.Init.OwnAddress2 = 0;
 8000a82:	4b09      	ldr	r3, [pc, #36]	; (8000aa8 <MX_I2C2_Init+0x50>)
 8000a84:	2200      	movs	r2, #0
 8000a86:	619a      	str	r2, [r3, #24]
  hi2c2.Init.GeneralCallMode = I2C_GENERALCALL_DISABLE;
 8000a88:	4b07      	ldr	r3, [pc, #28]	; (8000aa8 <MX_I2C2_Init+0x50>)
 8000a8a:	2200      	movs	r2, #0
 8000a8c:	61da      	str	r2, [r3, #28]
  hi2c2.Init.NoStretchMode = I2C_NOSTRETCH_DISABLE;
 8000a8e:	4b06      	ldr	r3, [pc, #24]	; (8000aa8 <MX_I2C2_Init+0x50>)
 8000a90:	2200      	movs	r2, #0
 8000a92:	621a      	str	r2, [r3, #32]
  if (HAL_I2C_Init(&hi2c2) != HAL_OK)
 8000a94:	4804      	ldr	r0, [pc, #16]	; (8000aa8 <MX_I2C2_Init+0x50>)
 8000a96:	f001 f989 	bl	8001dac <HAL_I2C_Init>
 8000a9a:	4603      	mov	r3, r0
 8000a9c:	2b00      	cmp	r3, #0
 8000a9e:	d001      	beq.n	8000aa4 <MX_I2C2_Init+0x4c>
  {
    Error_Handler();
 8000aa0:	f000 f86e 	bl	8000b80 <Error_Handler>
  }
  /* USER CODE BEGIN I2C2_Init 2 */

  /* USER CODE END I2C2_Init 2 */

}
 8000aa4:	bf00      	nop
 8000aa6:	bd80      	pop	{r7, pc}
 8000aa8:	200000ec 	.word	0x200000ec
 8000aac:	40005800 	.word	0x40005800
 8000ab0:	000186a0 	.word	0x000186a0

08000ab4 <MX_USART1_Init>:
  * @brief USART1 Initialization Function
  * @param None
  * @retval None
  */
static void MX_USART1_Init(void)
{
 8000ab4:	b580      	push	{r7, lr}
 8000ab6:	af00      	add	r7, sp, #0
  /* USER CODE END USART1_Init 0 */

  /* USER CODE BEGIN USART1_Init 1 */

  /* USER CODE END USART1_Init 1 */
  husart1.Instance = USART1;
 8000ab8:	4b12      	ldr	r3, [pc, #72]	; (8000b04 <MX_USART1_Init+0x50>)
 8000aba:	4a13      	ldr	r2, [pc, #76]	; (8000b08 <MX_USART1_Init+0x54>)
 8000abc:	601a      	str	r2, [r3, #0]
  husart1.Init.BaudRate = 115200;
 8000abe:	4b11      	ldr	r3, [pc, #68]	; (8000b04 <MX_USART1_Init+0x50>)
 8000ac0:	f44f 32e1 	mov.w	r2, #115200	; 0x1c200
 8000ac4:	605a      	str	r2, [r3, #4]
  husart1.Init.WordLength = USART_WORDLENGTH_8B;
 8000ac6:	4b0f      	ldr	r3, [pc, #60]	; (8000b04 <MX_USART1_Init+0x50>)
 8000ac8:	2200      	movs	r2, #0
 8000aca:	609a      	str	r2, [r3, #8]
  husart1.Init.StopBits = USART_STOPBITS_1;
 8000acc:	4b0d      	ldr	r3, [pc, #52]	; (8000b04 <MX_USART1_Init+0x50>)
 8000ace:	2200      	movs	r2, #0
 8000ad0:	60da      	str	r2, [r3, #12]
  husart1.Init.Parity = USART_PARITY_NONE;
 8000ad2:	4b0c      	ldr	r3, [pc, #48]	; (8000b04 <MX_USART1_Init+0x50>)
 8000ad4:	2200      	movs	r2, #0
 8000ad6:	611a      	str	r2, [r3, #16]
  husart1.Init.Mode = USART_MODE_TX_RX;
 8000ad8:	4b0a      	ldr	r3, [pc, #40]	; (8000b04 <MX_USART1_Init+0x50>)
 8000ada:	220c      	movs	r2, #12
 8000adc:	615a      	str	r2, [r3, #20]
  husart1.Init.CLKPolarity = USART_POLARITY_LOW;
 8000ade:	4b09      	ldr	r3, [pc, #36]	; (8000b04 <MX_USART1_Init+0x50>)
 8000ae0:	2200      	movs	r2, #0
 8000ae2:	619a      	str	r2, [r3, #24]
  husart1.Init.CLKPhase = USART_PHASE_1EDGE;
 8000ae4:	4b07      	ldr	r3, [pc, #28]	; (8000b04 <MX_USART1_Init+0x50>)
 8000ae6:	2200      	movs	r2, #0
 8000ae8:	61da      	str	r2, [r3, #28]
  husart1.Init.CLKLastBit = USART_LASTBIT_DISABLE;
 8000aea:	4b06      	ldr	r3, [pc, #24]	; (8000b04 <MX_USART1_Init+0x50>)
 8000aec:	2200      	movs	r2, #0
 8000aee:	621a      	str	r2, [r3, #32]
  if (HAL_USART_Init(&husart1) != HAL_OK)
 8000af0:	4804      	ldr	r0, [pc, #16]	; (8000b04 <MX_USART1_Init+0x50>)
 8000af2:	f002 fd43 	bl	800357c <HAL_USART_Init>
 8000af6:	4603      	mov	r3, r0
 8000af8:	2b00      	cmp	r3, #0
 8000afa:	d001      	beq.n	8000b00 <MX_USART1_Init+0x4c>
  {
    Error_Handler();
 8000afc:	f000 f840 	bl	8000b80 <Error_Handler>
  }
  /* USER CODE BEGIN USART1_Init 2 */

  /* USER CODE END USART1_Init 2 */

}
 8000b00:	bf00      	nop
 8000b02:	bd80      	pop	{r7, pc}
 8000b04:	20000140 	.word	0x20000140
 8000b08:	40013800 	.word	0x40013800

08000b0c <MX_GPIO_Init>:
  * @brief GPIO Initialization Function
  * @param None
  * @retval None
  */
static void MX_GPIO_Init(void)
{
 8000b0c:	b480      	push	{r7}
 8000b0e:	b085      	sub	sp, #20
 8000b10:	af00      	add	r7, sp, #0

  /* GPIO Ports Clock Enable */
  __HAL_RCC_GPIOC_CLK_ENABLE();
 8000b12:	4b1a      	ldr	r3, [pc, #104]	; (8000b7c <MX_GPIO_Init+0x70>)
 8000b14:	699b      	ldr	r3, [r3, #24]
 8000b16:	4a19      	ldr	r2, [pc, #100]	; (8000b7c <MX_GPIO_Init+0x70>)
 8000b18:	f043 0310 	orr.w	r3, r3, #16
 8000b1c:	6193      	str	r3, [r2, #24]
 8000b1e:	4b17      	ldr	r3, [pc, #92]	; (8000b7c <MX_GPIO_Init+0x70>)
 8000b20:	699b      	ldr	r3, [r3, #24]
 8000b22:	f003 0310 	and.w	r3, r3, #16
 8000b26:	60fb      	str	r3, [r7, #12]
 8000b28:	68fb      	ldr	r3, [r7, #12]
  __HAL_RCC_GPIOD_CLK_ENABLE();
 8000b2a:	4b14      	ldr	r3, [pc, #80]	; (8000b7c <MX_GPIO_Init+0x70>)
 8000b2c:	699b      	ldr	r3, [r3, #24]
 8000b2e:	4a13      	ldr	r2, [pc, #76]	; (8000b7c <MX_GPIO_Init+0x70>)
 8000b30:	f043 0320 	orr.w	r3, r3, #32
 8000b34:	6193      	str	r3, [r2, #24]
 8000b36:	4b11      	ldr	r3, [pc, #68]	; (8000b7c <MX_GPIO_Init+0x70>)
 8000b38:	699b      	ldr	r3, [r3, #24]
 8000b3a:	f003 0320 	and.w	r3, r3, #32
 8000b3e:	60bb      	str	r3, [r7, #8]
 8000b40:	68bb      	ldr	r3, [r7, #8]
  __HAL_RCC_GPIOB_CLK_ENABLE();
 8000b42:	4b0e      	ldr	r3, [pc, #56]	; (8000b7c <MX_GPIO_Init+0x70>)
 8000b44:	699b      	ldr	r3, [r3, #24]
 8000b46:	4a0d      	ldr	r2, [pc, #52]	; (8000b7c <MX_GPIO_Init+0x70>)
 8000b48:	f043 0308 	orr.w	r3, r3, #8
 8000b4c:	6193      	str	r3, [r2, #24]
 8000b4e:	4b0b      	ldr	r3, [pc, #44]	; (8000b7c <MX_GPIO_Init+0x70>)
 8000b50:	699b      	ldr	r3, [r3, #24]
 8000b52:	f003 0308 	and.w	r3, r3, #8
 8000b56:	607b      	str	r3, [r7, #4]
 8000b58:	687b      	ldr	r3, [r7, #4]
  __HAL_RCC_GPIOA_CLK_ENABLE();
 8000b5a:	4b08      	ldr	r3, [pc, #32]	; (8000b7c <MX_GPIO_Init+0x70>)
 8000b5c:	699b      	ldr	r3, [r3, #24]
 8000b5e:	4a07      	ldr	r2, [pc, #28]	; (8000b7c <MX_GPIO_Init+0x70>)
 8000b60:	f043 0304 	orr.w	r3, r3, #4
 8000b64:	6193      	str	r3, [r2, #24]
 8000b66:	4b05      	ldr	r3, [pc, #20]	; (8000b7c <MX_GPIO_Init+0x70>)
 8000b68:	699b      	ldr	r3, [r3, #24]
 8000b6a:	f003 0304 	and.w	r3, r3, #4
 8000b6e:	603b      	str	r3, [r7, #0]
 8000b70:	683b      	ldr	r3, [r7, #0]

}
 8000b72:	bf00      	nop
 8000b74:	3714      	adds	r7, #20
 8000b76:	46bd      	mov	sp, r7
 8000b78:	bc80      	pop	{r7}
 8000b7a:	4770      	bx	lr
 8000b7c:	40021000 	.word	0x40021000

08000b80 <Error_Handler>:
/**
  * @brief  This function is executed in case of error occurrence.
  * @retval None
  */
void Error_Handler(void)
{
 8000b80:	b480      	push	{r7}
 8000b82:	af00      	add	r7, sp, #0
  \details Disables IRQ interrupts by setting the I-bit in the CPSR.
           Can only be executed in Privileged modes.
 */
__STATIC_FORCEINLINE void __disable_irq(void)
{
  __ASM volatile ("cpsid i" : : : "memory");
 8000b84:	b672      	cpsid	i
}
 8000b86:	bf00      	nop
  /* USER CODE BEGIN Error_Handler_Debug */
  /* User can add his own implementation to report the HAL error return state */
  __disable_irq();
  while (1)
 8000b88:	e7fe      	b.n	8000b88 <Error_Handler+0x8>
	...

08000b8c <sha256_init>:
};

SHA256 ctx;

// Implementao do construtor SHA256::SHA256()
void sha256_init(SHA256 *ctx) {
 8000b8c:	b480      	push	{r7}
 8000b8e:	b083      	sub	sp, #12
 8000b90:	af00      	add	r7, sp, #0
 8000b92:	6078      	str	r0, [r7, #4]
    // Inicialize m_blocklen e m_bitlen
    ctx->m_blocklen = 0;
 8000b94:	687b      	ldr	r3, [r7, #4]
 8000b96:	2200      	movs	r2, #0
 8000b98:	669a      	str	r2, [r3, #104]	; 0x68
    ctx->m_bitlen = 0;
 8000b9a:	6879      	ldr	r1, [r7, #4]
 8000b9c:	f04f 0200 	mov.w	r2, #0
 8000ba0:	f04f 0300 	mov.w	r3, #0
 8000ba4:	e9c1 2318 	strd	r2, r3, [r1, #96]	; 0x60

    // Inicialize o estado do hash
    ctx->m_state[0] = 0x6a09e667;
 8000ba8:	687b      	ldr	r3, [r7, #4]
 8000baa:	4a0e      	ldr	r2, [pc, #56]	; (8000be4 <sha256_init+0x58>)
 8000bac:	601a      	str	r2, [r3, #0]
    ctx->m_state[1] = 0xbb67ae85;
 8000bae:	687b      	ldr	r3, [r7, #4]
 8000bb0:	4a0d      	ldr	r2, [pc, #52]	; (8000be8 <sha256_init+0x5c>)
 8000bb2:	605a      	str	r2, [r3, #4]
    ctx->m_state[2] = 0x3c6ef372;
 8000bb4:	687b      	ldr	r3, [r7, #4]
 8000bb6:	4a0d      	ldr	r2, [pc, #52]	; (8000bec <sha256_init+0x60>)
 8000bb8:	609a      	str	r2, [r3, #8]
    ctx->m_state[3] = 0xa54ff53a;
 8000bba:	687b      	ldr	r3, [r7, #4]
 8000bbc:	4a0c      	ldr	r2, [pc, #48]	; (8000bf0 <sha256_init+0x64>)
 8000bbe:	60da      	str	r2, [r3, #12]
    ctx->m_state[4] = 0x510e527f;
 8000bc0:	687b      	ldr	r3, [r7, #4]
 8000bc2:	4a0c      	ldr	r2, [pc, #48]	; (8000bf4 <sha256_init+0x68>)
 8000bc4:	611a      	str	r2, [r3, #16]
    ctx->m_state[5] = 0x9b05688c;
 8000bc6:	687b      	ldr	r3, [r7, #4]
 8000bc8:	4a0b      	ldr	r2, [pc, #44]	; (8000bf8 <sha256_init+0x6c>)
 8000bca:	615a      	str	r2, [r3, #20]
    ctx->m_state[6] = 0x1f83d9ab;
 8000bcc:	687b      	ldr	r3, [r7, #4]
 8000bce:	4a0b      	ldr	r2, [pc, #44]	; (8000bfc <sha256_init+0x70>)
 8000bd0:	619a      	str	r2, [r3, #24]
    ctx->m_state[7] = 0x5be0cd19;
 8000bd2:	687b      	ldr	r3, [r7, #4]
 8000bd4:	4a0a      	ldr	r2, [pc, #40]	; (8000c00 <sha256_init+0x74>)
 8000bd6:	61da      	str	r2, [r3, #28]
}
 8000bd8:	bf00      	nop
 8000bda:	370c      	adds	r7, #12
 8000bdc:	46bd      	mov	sp, r7
 8000bde:	bc80      	pop	{r7}
 8000be0:	4770      	bx	lr
 8000be2:	bf00      	nop
 8000be4:	6a09e667 	.word	0x6a09e667
 8000be8:	bb67ae85 	.word	0xbb67ae85
 8000bec:	3c6ef372 	.word	0x3c6ef372
 8000bf0:	a54ff53a 	.word	0xa54ff53a
 8000bf4:	510e527f 	.word	0x510e527f
 8000bf8:	9b05688c 	.word	0x9b05688c
 8000bfc:	1f83d9ab 	.word	0x1f83d9ab
 8000c00:	5be0cd19 	.word	0x5be0cd19

08000c04 <sha256_update>:

void sha256_update(SHA256 *ctx, const uint8_t *data, uint8_t length) {
 8000c04:	b5b0      	push	{r4, r5, r7, lr}
 8000c06:	b086      	sub	sp, #24
 8000c08:	af00      	add	r7, sp, #0
 8000c0a:	60f8      	str	r0, [r7, #12]
 8000c0c:	60b9      	str	r1, [r7, #8]
 8000c0e:	4613      	mov	r3, r2
 8000c10:	71fb      	strb	r3, [r7, #7]
    for (size_t i = 0; i < length; i++) {
 8000c12:	2300      	movs	r3, #0
 8000c14:	617b      	str	r3, [r7, #20]
 8000c16:	e024      	b.n	8000c62 <sha256_update+0x5e>
        ctx->m_data[ctx->m_blocklen++] = data[i];
 8000c18:	68ba      	ldr	r2, [r7, #8]
 8000c1a:	697b      	ldr	r3, [r7, #20]
 8000c1c:	441a      	add	r2, r3
 8000c1e:	68fb      	ldr	r3, [r7, #12]
 8000c20:	6e9b      	ldr	r3, [r3, #104]	; 0x68
 8000c22:	1c58      	adds	r0, r3, #1
 8000c24:	68f9      	ldr	r1, [r7, #12]
 8000c26:	6688      	str	r0, [r1, #104]	; 0x68
 8000c28:	7811      	ldrb	r1, [r2, #0]
 8000c2a:	68fa      	ldr	r2, [r7, #12]
 8000c2c:	4413      	add	r3, r2
 8000c2e:	460a      	mov	r2, r1
 8000c30:	f883 2020 	strb.w	r2, [r3, #32]
        if (ctx->m_blocklen == 64) {
 8000c34:	68fb      	ldr	r3, [r7, #12]
 8000c36:	6e9b      	ldr	r3, [r3, #104]	; 0x68
 8000c38:	2b40      	cmp	r3, #64	; 0x40
 8000c3a:	d10f      	bne.n	8000c5c <sha256_update+0x58>
        	sha256_transform(ctx);
 8000c3c:	68f8      	ldr	r0, [r7, #12]
 8000c3e:	f000 f893 	bl	8000d68 <sha256_transform>


            // Fim do bloco
            ctx->m_bitlen += 512;
 8000c42:	68fb      	ldr	r3, [r7, #12]
 8000c44:	e9d3 2318 	ldrd	r2, r3, [r3, #96]	; 0x60
 8000c48:	f512 7400 	adds.w	r4, r2, #512	; 0x200
 8000c4c:	f143 0500 	adc.w	r5, r3, #0
 8000c50:	68fb      	ldr	r3, [r7, #12]
 8000c52:	e9c3 4518 	strd	r4, r5, [r3, #96]	; 0x60
            ctx->m_blocklen = 0;
 8000c56:	68fb      	ldr	r3, [r7, #12]
 8000c58:	2200      	movs	r2, #0
 8000c5a:	669a      	str	r2, [r3, #104]	; 0x68
    for (size_t i = 0; i < length; i++) {
 8000c5c:	697b      	ldr	r3, [r7, #20]
 8000c5e:	3301      	adds	r3, #1
 8000c60:	617b      	str	r3, [r7, #20]
 8000c62:	79fb      	ldrb	r3, [r7, #7]
 8000c64:	697a      	ldr	r2, [r7, #20]
 8000c66:	429a      	cmp	r2, r3
 8000c68:	d3d6      	bcc.n	8000c18 <sha256_update+0x14>
        }
    }
}
 8000c6a:	bf00      	nop
 8000c6c:	bf00      	nop
 8000c6e:	3718      	adds	r7, #24
 8000c70:	46bd      	mov	sp, r7
 8000c72:	bdb0      	pop	{r4, r5, r7, pc}

08000c74 <sha256_digest>:
    size_t length = strlen(data);
    sha256_update(ctx, (const uint8_t *)data, length);
}


uint8_t *sha256_digest(SHA256 *ctx) {
 8000c74:	b580      	push	{r7, lr}
 8000c76:	b084      	sub	sp, #16
 8000c78:	af00      	add	r7, sp, #0
 8000c7a:	6078      	str	r0, [r7, #4]
    uint8_t *hash = (uint8_t *)malloc(32 * sizeof(uint8_t));
 8000c7c:	2020      	movs	r0, #32
 8000c7e:	f003 f91d 	bl	8003ebc <malloc>
 8000c82:	4603      	mov	r3, r0
 8000c84:	60fb      	str	r3, [r7, #12]
    if (hash == NULL) {
 8000c86:	68fb      	ldr	r3, [r7, #12]
 8000c88:	2b00      	cmp	r3, #0
 8000c8a:	d101      	bne.n	8000c90 <sha256_digest+0x1c>
        // Tratamento de erro, no foi possvel alocar memria
        return NULL;
 8000c8c:	2300      	movs	r3, #0
 8000c8e:	e004      	b.n	8000c9a <sha256_digest+0x26>
    }

    //sha256_pad(ctx);
    sha256_revert(ctx, hash);
 8000c90:	68f9      	ldr	r1, [r7, #12]
 8000c92:	6878      	ldr	r0, [r7, #4]
 8000c94:	f000 fa48 	bl	8001128 <sha256_revert>

    return hash;
 8000c98:	68fb      	ldr	r3, [r7, #12]
}
 8000c9a:	4618      	mov	r0, r3
 8000c9c:	3710      	adds	r7, #16
 8000c9e:	46bd      	mov	sp, r7
 8000ca0:	bd80      	pop	{r7, pc}

08000ca2 <sha256_rotr>:


uint32_t sha256_rotr(uint32_t x, uint32_t n) {
 8000ca2:	b480      	push	{r7}
 8000ca4:	b083      	sub	sp, #12
 8000ca6:	af00      	add	r7, sp, #0
 8000ca8:	6078      	str	r0, [r7, #4]
 8000caa:	6039      	str	r1, [r7, #0]
    return (x >> n) | (x << (32 - n));
 8000cac:	687a      	ldr	r2, [r7, #4]
 8000cae:	683b      	ldr	r3, [r7, #0]
 8000cb0:	fa62 f303 	ror.w	r3, r2, r3
}
 8000cb4:	4618      	mov	r0, r3
 8000cb6:	370c      	adds	r7, #12
 8000cb8:	46bd      	mov	sp, r7
 8000cba:	bc80      	pop	{r7}
 8000cbc:	4770      	bx	lr

08000cbe <sha256_choose>:

uint32_t sha256_choose(uint32_t e, uint32_t f, uint32_t g) {
 8000cbe:	b480      	push	{r7}
 8000cc0:	b085      	sub	sp, #20
 8000cc2:	af00      	add	r7, sp, #0
 8000cc4:	60f8      	str	r0, [r7, #12]
 8000cc6:	60b9      	str	r1, [r7, #8]
 8000cc8:	607a      	str	r2, [r7, #4]
    return (e & f) ^ (~e & g);
 8000cca:	68fa      	ldr	r2, [r7, #12]
 8000ccc:	68bb      	ldr	r3, [r7, #8]
 8000cce:	401a      	ands	r2, r3
 8000cd0:	68fb      	ldr	r3, [r7, #12]
 8000cd2:	43d9      	mvns	r1, r3
 8000cd4:	687b      	ldr	r3, [r7, #4]
 8000cd6:	400b      	ands	r3, r1
 8000cd8:	4053      	eors	r3, r2
}
 8000cda:	4618      	mov	r0, r3
 8000cdc:	3714      	adds	r7, #20
 8000cde:	46bd      	mov	sp, r7
 8000ce0:	bc80      	pop	{r7}
 8000ce2:	4770      	bx	lr

08000ce4 <sha256_majority>:

uint32_t sha256_majority(uint32_t a, uint32_t b, uint32_t c) {
 8000ce4:	b480      	push	{r7}
 8000ce6:	b085      	sub	sp, #20
 8000ce8:	af00      	add	r7, sp, #0
 8000cea:	60f8      	str	r0, [r7, #12]
 8000cec:	60b9      	str	r1, [r7, #8]
 8000cee:	607a      	str	r2, [r7, #4]
    return (a & (b | c)) | (b & c);
 8000cf0:	68ba      	ldr	r2, [r7, #8]
 8000cf2:	687b      	ldr	r3, [r7, #4]
 8000cf4:	431a      	orrs	r2, r3
 8000cf6:	68fb      	ldr	r3, [r7, #12]
 8000cf8:	401a      	ands	r2, r3
 8000cfa:	68b9      	ldr	r1, [r7, #8]
 8000cfc:	687b      	ldr	r3, [r7, #4]
 8000cfe:	400b      	ands	r3, r1
 8000d00:	4313      	orrs	r3, r2
}
 8000d02:	4618      	mov	r0, r3
 8000d04:	3714      	adds	r7, #20
 8000d06:	46bd      	mov	sp, r7
 8000d08:	bc80      	pop	{r7}
 8000d0a:	4770      	bx	lr

08000d0c <sha256_sig0>:

uint32_t sha256_sig0(uint32_t x) {
 8000d0c:	b590      	push	{r4, r7, lr}
 8000d0e:	b083      	sub	sp, #12
 8000d10:	af00      	add	r7, sp, #0
 8000d12:	6078      	str	r0, [r7, #4]
    return sha256_rotr(x, 7) ^ sha256_rotr(x, 18) ^ (x >> 3);
 8000d14:	2107      	movs	r1, #7
 8000d16:	6878      	ldr	r0, [r7, #4]
 8000d18:	f7ff ffc3 	bl	8000ca2 <sha256_rotr>
 8000d1c:	4604      	mov	r4, r0
 8000d1e:	2112      	movs	r1, #18
 8000d20:	6878      	ldr	r0, [r7, #4]
 8000d22:	f7ff ffbe 	bl	8000ca2 <sha256_rotr>
 8000d26:	4603      	mov	r3, r0
 8000d28:	ea84 0203 	eor.w	r2, r4, r3
 8000d2c:	687b      	ldr	r3, [r7, #4]
 8000d2e:	08db      	lsrs	r3, r3, #3
 8000d30:	4053      	eors	r3, r2
}
 8000d32:	4618      	mov	r0, r3
 8000d34:	370c      	adds	r7, #12
 8000d36:	46bd      	mov	sp, r7
 8000d38:	bd90      	pop	{r4, r7, pc}

08000d3a <sha256_sig1>:

uint32_t sha256_sig1(uint32_t x) {
 8000d3a:	b590      	push	{r4, r7, lr}
 8000d3c:	b083      	sub	sp, #12
 8000d3e:	af00      	add	r7, sp, #0
 8000d40:	6078      	str	r0, [r7, #4]
    return sha256_rotr(x, 17) ^ sha256_rotr(x, 19) ^ (x >> 10);
 8000d42:	2111      	movs	r1, #17
 8000d44:	6878      	ldr	r0, [r7, #4]
 8000d46:	f7ff ffac 	bl	8000ca2 <sha256_rotr>
 8000d4a:	4604      	mov	r4, r0
 8000d4c:	2113      	movs	r1, #19
 8000d4e:	6878      	ldr	r0, [r7, #4]
 8000d50:	f7ff ffa7 	bl	8000ca2 <sha256_rotr>
 8000d54:	4603      	mov	r3, r0
 8000d56:	ea84 0203 	eor.w	r2, r4, r3
 8000d5a:	687b      	ldr	r3, [r7, #4]
 8000d5c:	0a9b      	lsrs	r3, r3, #10
 8000d5e:	4053      	eors	r3, r2
}
 8000d60:	4618      	mov	r0, r3
 8000d62:	370c      	adds	r7, #12
 8000d64:	46bd      	mov	sp, r7
 8000d66:	bd90      	pop	{r4, r7, pc}

08000d68 <sha256_transform>:

void sha256_transform(SHA256 *ctx) {
 8000d68:	b590      	push	{r4, r7, lr}
 8000d6a:	b0d5      	sub	sp, #340	; 0x154
 8000d6c:	af00      	add	r7, sp, #0
 8000d6e:	f507 73a8 	add.w	r3, r7, #336	; 0x150
 8000d72:	f5a3 73a6 	sub.w	r3, r3, #332	; 0x14c
 8000d76:	6018      	str	r0, [r3, #0]
    uint32_t maj, xorA, ch, xorE, sum, newA, newE, m[64];
    uint32_t state[8];

    for (uint8_t i = 0, j = 0; i < 16; i++, j += 4) {
 8000d78:	2300      	movs	r3, #0
 8000d7a:	f887 314f 	strb.w	r3, [r7, #335]	; 0x14f
 8000d7e:	2300      	movs	r3, #0
 8000d80:	f887 314e 	strb.w	r3, [r7, #334]	; 0x14e
 8000d84:	e043      	b.n	8000e0e <sha256_transform+0xa6>
        m[i] = (ctx->m_data[j] << 24) | (ctx->m_data[j + 1] << 16) | (ctx->m_data[j + 2] << 8) | (ctx->m_data[j + 3]);
 8000d86:	f897 314e 	ldrb.w	r3, [r7, #334]	; 0x14e
 8000d8a:	f507 72a8 	add.w	r2, r7, #336	; 0x150
 8000d8e:	f5a2 72a6 	sub.w	r2, r2, #332	; 0x14c
 8000d92:	6812      	ldr	r2, [r2, #0]
 8000d94:	4413      	add	r3, r2
 8000d96:	f893 3020 	ldrb.w	r3, [r3, #32]
 8000d9a:	061a      	lsls	r2, r3, #24
 8000d9c:	f897 314e 	ldrb.w	r3, [r7, #334]	; 0x14e
 8000da0:	3301      	adds	r3, #1
 8000da2:	f507 71a8 	add.w	r1, r7, #336	; 0x150
 8000da6:	f5a1 71a6 	sub.w	r1, r1, #332	; 0x14c
 8000daa:	6809      	ldr	r1, [r1, #0]
 8000dac:	440b      	add	r3, r1
 8000dae:	f893 3020 	ldrb.w	r3, [r3, #32]
 8000db2:	041b      	lsls	r3, r3, #16
 8000db4:	431a      	orrs	r2, r3
 8000db6:	f897 314e 	ldrb.w	r3, [r7, #334]	; 0x14e
 8000dba:	3302      	adds	r3, #2
 8000dbc:	f507 71a8 	add.w	r1, r7, #336	; 0x150
 8000dc0:	f5a1 71a6 	sub.w	r1, r1, #332	; 0x14c
 8000dc4:	6809      	ldr	r1, [r1, #0]
 8000dc6:	440b      	add	r3, r1
 8000dc8:	f893 3020 	ldrb.w	r3, [r3, #32]
 8000dcc:	021b      	lsls	r3, r3, #8
 8000dce:	4313      	orrs	r3, r2
 8000dd0:	f897 214e 	ldrb.w	r2, [r7, #334]	; 0x14e
 8000dd4:	3203      	adds	r2, #3
 8000dd6:	f507 71a8 	add.w	r1, r7, #336	; 0x150
 8000dda:	f5a1 71a6 	sub.w	r1, r1, #332	; 0x14c
 8000dde:	6809      	ldr	r1, [r1, #0]
 8000de0:	440a      	add	r2, r1
 8000de2:	f892 2020 	ldrb.w	r2, [r2, #32]
 8000de6:	4313      	orrs	r3, r2
 8000de8:	f897 214f 	ldrb.w	r2, [r7, #335]	; 0x14f
 8000dec:	4619      	mov	r1, r3
 8000dee:	f507 73a8 	add.w	r3, r7, #336	; 0x150
 8000df2:	f5a3 7392 	sub.w	r3, r3, #292	; 0x124
 8000df6:	f843 1022 	str.w	r1, [r3, r2, lsl #2]
    for (uint8_t i = 0, j = 0; i < 16; i++, j += 4) {
 8000dfa:	f897 314f 	ldrb.w	r3, [r7, #335]	; 0x14f
 8000dfe:	3301      	adds	r3, #1
 8000e00:	f887 314f 	strb.w	r3, [r7, #335]	; 0x14f
 8000e04:	f897 314e 	ldrb.w	r3, [r7, #334]	; 0x14e
 8000e08:	3304      	adds	r3, #4
 8000e0a:	f887 314e 	strb.w	r3, [r7, #334]	; 0x14e
 8000e0e:	f897 314f 	ldrb.w	r3, [r7, #335]	; 0x14f
 8000e12:	2b0f      	cmp	r3, #15
 8000e14:	d9b7      	bls.n	8000d86 <sha256_transform+0x1e>
    }

    for (uint8_t k = 16; k < 64; k++) {
 8000e16:	2310      	movs	r3, #16
 8000e18:	f887 314d 	strb.w	r3, [r7, #333]	; 0x14d
 8000e1c:	e03d      	b.n	8000e9a <sha256_transform+0x132>
        m[k] = sha256_sig1(m[k - 2]) + m[k - 7] + sha256_sig0(m[k - 15]) + m[k - 16];
 8000e1e:	f897 314d 	ldrb.w	r3, [r7, #333]	; 0x14d
 8000e22:	1e9a      	subs	r2, r3, #2
 8000e24:	f507 73a8 	add.w	r3, r7, #336	; 0x150
 8000e28:	f5a3 7392 	sub.w	r3, r3, #292	; 0x124
 8000e2c:	f853 3022 	ldr.w	r3, [r3, r2, lsl #2]
 8000e30:	4618      	mov	r0, r3
 8000e32:	f7ff ff82 	bl	8000d3a <sha256_sig1>
 8000e36:	4601      	mov	r1, r0
 8000e38:	f897 314d 	ldrb.w	r3, [r7, #333]	; 0x14d
 8000e3c:	1fda      	subs	r2, r3, #7
 8000e3e:	f507 73a8 	add.w	r3, r7, #336	; 0x150
 8000e42:	f5a3 7392 	sub.w	r3, r3, #292	; 0x124
 8000e46:	f853 3022 	ldr.w	r3, [r3, r2, lsl #2]
 8000e4a:	18cc      	adds	r4, r1, r3
 8000e4c:	f897 314d 	ldrb.w	r3, [r7, #333]	; 0x14d
 8000e50:	f1a3 020f 	sub.w	r2, r3, #15
 8000e54:	f507 73a8 	add.w	r3, r7, #336	; 0x150
 8000e58:	f5a3 7392 	sub.w	r3, r3, #292	; 0x124
 8000e5c:	f853 3022 	ldr.w	r3, [r3, r2, lsl #2]
 8000e60:	4618      	mov	r0, r3
 8000e62:	f7ff ff53 	bl	8000d0c <sha256_sig0>
 8000e66:	4603      	mov	r3, r0
 8000e68:	18e1      	adds	r1, r4, r3
 8000e6a:	f897 314d 	ldrb.w	r3, [r7, #333]	; 0x14d
 8000e6e:	f1a3 0210 	sub.w	r2, r3, #16
 8000e72:	f507 73a8 	add.w	r3, r7, #336	; 0x150
 8000e76:	f5a3 7392 	sub.w	r3, r3, #292	; 0x124
 8000e7a:	f853 3022 	ldr.w	r3, [r3, r2, lsl #2]
 8000e7e:	f897 214d 	ldrb.w	r2, [r7, #333]	; 0x14d
 8000e82:	4419      	add	r1, r3
 8000e84:	f507 73a8 	add.w	r3, r7, #336	; 0x150
 8000e88:	f5a3 7392 	sub.w	r3, r3, #292	; 0x124
 8000e8c:	f843 1022 	str.w	r1, [r3, r2, lsl #2]
    for (uint8_t k = 16; k < 64; k++) {
 8000e90:	f897 314d 	ldrb.w	r3, [r7, #333]	; 0x14d
 8000e94:	3301      	adds	r3, #1
 8000e96:	f887 314d 	strb.w	r3, [r7, #333]	; 0x14d
 8000e9a:	f897 314d 	ldrb.w	r3, [r7, #333]	; 0x14d
 8000e9e:	2b3f      	cmp	r3, #63	; 0x3f
 8000ea0:	d9bd      	bls.n	8000e1e <sha256_transform+0xb6>
    }

    for (uint8_t i = 0; i < 8; i++) {
 8000ea2:	2300      	movs	r3, #0
 8000ea4:	f887 314c 	strb.w	r3, [r7, #332]	; 0x14c
 8000ea8:	e015      	b.n	8000ed6 <sha256_transform+0x16e>
        state[i] = ctx->m_state[i];
 8000eaa:	f897 114c 	ldrb.w	r1, [r7, #332]	; 0x14c
 8000eae:	f897 214c 	ldrb.w	r2, [r7, #332]	; 0x14c
 8000eb2:	f507 73a8 	add.w	r3, r7, #336	; 0x150
 8000eb6:	f5a3 73a6 	sub.w	r3, r3, #332	; 0x14c
 8000eba:	681b      	ldr	r3, [r3, #0]
 8000ebc:	f853 1021 	ldr.w	r1, [r3, r1, lsl #2]
 8000ec0:	f507 73a8 	add.w	r3, r7, #336	; 0x150
 8000ec4:	f5a3 73a2 	sub.w	r3, r3, #324	; 0x144
 8000ec8:	f843 1022 	str.w	r1, [r3, r2, lsl #2]
    for (uint8_t i = 0; i < 8; i++) {
 8000ecc:	f897 314c 	ldrb.w	r3, [r7, #332]	; 0x14c
 8000ed0:	3301      	adds	r3, #1
 8000ed2:	f887 314c 	strb.w	r3, [r7, #332]	; 0x14c
 8000ed6:	f897 314c 	ldrb.w	r3, [r7, #332]	; 0x14c
 8000eda:	2b07      	cmp	r3, #7
 8000edc:	d9e5      	bls.n	8000eaa <sha256_transform+0x142>
    }

    for (uint8_t i = 0; i < 64; i++) {
 8000ede:	2300      	movs	r3, #0
 8000ee0:	f887 314b 	strb.w	r3, [r7, #331]	; 0x14b
 8000ee4:	e0ea      	b.n	80010bc <sha256_transform+0x354>
        maj = sha256_majority(state[0], state[1], state[2]);
 8000ee6:	f507 73a8 	add.w	r3, r7, #336	; 0x150
 8000eea:	f5a3 73a2 	sub.w	r3, r3, #324	; 0x144
 8000eee:	6818      	ldr	r0, [r3, #0]
 8000ef0:	f507 73a8 	add.w	r3, r7, #336	; 0x150
 8000ef4:	f5a3 73a2 	sub.w	r3, r3, #324	; 0x144
 8000ef8:	6859      	ldr	r1, [r3, #4]
 8000efa:	f507 73a8 	add.w	r3, r7, #336	; 0x150
 8000efe:	f5a3 73a2 	sub.w	r3, r3, #324	; 0x144
 8000f02:	689b      	ldr	r3, [r3, #8]
 8000f04:	461a      	mov	r2, r3
 8000f06:	f7ff feed 	bl	8000ce4 <sha256_majority>
 8000f0a:	f8c7 0144 	str.w	r0, [r7, #324]	; 0x144
        xorA = sha256_rotr(state[0], 2) ^ sha256_rotr(state[0], 13) ^ sha256_rotr(state[0], 22);
 8000f0e:	f507 73a8 	add.w	r3, r7, #336	; 0x150
 8000f12:	f5a3 73a2 	sub.w	r3, r3, #324	; 0x144
 8000f16:	681b      	ldr	r3, [r3, #0]
 8000f18:	2102      	movs	r1, #2
 8000f1a:	4618      	mov	r0, r3
 8000f1c:	f7ff fec1 	bl	8000ca2 <sha256_rotr>
 8000f20:	4604      	mov	r4, r0
 8000f22:	f507 73a8 	add.w	r3, r7, #336	; 0x150
 8000f26:	f5a3 73a2 	sub.w	r3, r3, #324	; 0x144
 8000f2a:	681b      	ldr	r3, [r3, #0]
 8000f2c:	210d      	movs	r1, #13
 8000f2e:	4618      	mov	r0, r3
 8000f30:	f7ff feb7 	bl	8000ca2 <sha256_rotr>
 8000f34:	4603      	mov	r3, r0
 8000f36:	405c      	eors	r4, r3
 8000f38:	f507 73a8 	add.w	r3, r7, #336	; 0x150
 8000f3c:	f5a3 73a2 	sub.w	r3, r3, #324	; 0x144
 8000f40:	681b      	ldr	r3, [r3, #0]
 8000f42:	2116      	movs	r1, #22
 8000f44:	4618      	mov	r0, r3
 8000f46:	f7ff feac 	bl	8000ca2 <sha256_rotr>
 8000f4a:	4603      	mov	r3, r0
 8000f4c:	4063      	eors	r3, r4
 8000f4e:	f8c7 3140 	str.w	r3, [r7, #320]	; 0x140

        ch = sha256_choose(state[4], state[5], state[6]);
 8000f52:	f507 73a8 	add.w	r3, r7, #336	; 0x150
 8000f56:	f5a3 73a2 	sub.w	r3, r3, #324	; 0x144
 8000f5a:	6918      	ldr	r0, [r3, #16]
 8000f5c:	f507 73a8 	add.w	r3, r7, #336	; 0x150
 8000f60:	f5a3 73a2 	sub.w	r3, r3, #324	; 0x144
 8000f64:	6959      	ldr	r1, [r3, #20]
 8000f66:	f507 73a8 	add.w	r3, r7, #336	; 0x150
 8000f6a:	f5a3 73a2 	sub.w	r3, r3, #324	; 0x144
 8000f6e:	699b      	ldr	r3, [r3, #24]
 8000f70:	461a      	mov	r2, r3
 8000f72:	f7ff fea4 	bl	8000cbe <sha256_choose>
 8000f76:	f8c7 013c 	str.w	r0, [r7, #316]	; 0x13c

        xorE = sha256_rotr(state[4], 6) ^ sha256_rotr(state[4], 11) ^ sha256_rotr(state[4], 25);
 8000f7a:	f507 73a8 	add.w	r3, r7, #336	; 0x150
 8000f7e:	f5a3 73a2 	sub.w	r3, r3, #324	; 0x144
 8000f82:	691b      	ldr	r3, [r3, #16]
 8000f84:	2106      	movs	r1, #6
 8000f86:	4618      	mov	r0, r3
 8000f88:	f7ff fe8b 	bl	8000ca2 <sha256_rotr>
 8000f8c:	4604      	mov	r4, r0
 8000f8e:	f507 73a8 	add.w	r3, r7, #336	; 0x150
 8000f92:	f5a3 73a2 	sub.w	r3, r3, #324	; 0x144
 8000f96:	691b      	ldr	r3, [r3, #16]
 8000f98:	210b      	movs	r1, #11
 8000f9a:	4618      	mov	r0, r3
 8000f9c:	f7ff fe81 	bl	8000ca2 <sha256_rotr>
 8000fa0:	4603      	mov	r3, r0
 8000fa2:	405c      	eors	r4, r3
 8000fa4:	f507 73a8 	add.w	r3, r7, #336	; 0x150
 8000fa8:	f5a3 73a2 	sub.w	r3, r3, #324	; 0x144
 8000fac:	691b      	ldr	r3, [r3, #16]
 8000fae:	2119      	movs	r1, #25
 8000fb0:	4618      	mov	r0, r3
 8000fb2:	f7ff fe76 	bl	8000ca2 <sha256_rotr>
 8000fb6:	4603      	mov	r3, r0
 8000fb8:	4063      	eors	r3, r4
 8000fba:	f8c7 3138 	str.w	r3, [r7, #312]	; 0x138

        sum = m[i] + K[i] + state[7] + ch + xorE;
 8000fbe:	f897 214b 	ldrb.w	r2, [r7, #331]	; 0x14b
 8000fc2:	f507 73a8 	add.w	r3, r7, #336	; 0x150
 8000fc6:	f5a3 7392 	sub.w	r3, r3, #292	; 0x124
 8000fca:	f853 2022 	ldr.w	r2, [r3, r2, lsl #2]
 8000fce:	f897 314b 	ldrb.w	r3, [r7, #331]	; 0x14b
 8000fd2:	4954      	ldr	r1, [pc, #336]	; (8001124 <sha256_transform+0x3bc>)
 8000fd4:	f851 3023 	ldr.w	r3, [r1, r3, lsl #2]
 8000fd8:	441a      	add	r2, r3
 8000fda:	f507 73a8 	add.w	r3, r7, #336	; 0x150
 8000fde:	f5a3 73a2 	sub.w	r3, r3, #324	; 0x144
 8000fe2:	69db      	ldr	r3, [r3, #28]
 8000fe4:	441a      	add	r2, r3
 8000fe6:	f8d7 313c 	ldr.w	r3, [r7, #316]	; 0x13c
 8000fea:	4413      	add	r3, r2
 8000fec:	f8d7 2138 	ldr.w	r2, [r7, #312]	; 0x138
 8000ff0:	4413      	add	r3, r2
 8000ff2:	f8c7 3134 	str.w	r3, [r7, #308]	; 0x134
        newA = xorA + maj + sum;
 8000ff6:	f8d7 2140 	ldr.w	r2, [r7, #320]	; 0x140
 8000ffa:	f8d7 3144 	ldr.w	r3, [r7, #324]	; 0x144
 8000ffe:	4413      	add	r3, r2
 8001000:	f8d7 2134 	ldr.w	r2, [r7, #308]	; 0x134
 8001004:	4413      	add	r3, r2
 8001006:	f8c7 3130 	str.w	r3, [r7, #304]	; 0x130
        newE = state[3] + sum;
 800100a:	f507 73a8 	add.w	r3, r7, #336	; 0x150
 800100e:	f5a3 73a2 	sub.w	r3, r3, #324	; 0x144
 8001012:	68db      	ldr	r3, [r3, #12]
 8001014:	f8d7 2134 	ldr.w	r2, [r7, #308]	; 0x134
 8001018:	4413      	add	r3, r2
 800101a:	f8c7 312c 	str.w	r3, [r7, #300]	; 0x12c

        state[7] = state[6];
 800101e:	f507 73a8 	add.w	r3, r7, #336	; 0x150
 8001022:	f5a3 73a2 	sub.w	r3, r3, #324	; 0x144
 8001026:	699a      	ldr	r2, [r3, #24]
 8001028:	f507 73a8 	add.w	r3, r7, #336	; 0x150
 800102c:	f5a3 73a2 	sub.w	r3, r3, #324	; 0x144
 8001030:	61da      	str	r2, [r3, #28]
        state[6] = state[5];
 8001032:	f507 73a8 	add.w	r3, r7, #336	; 0x150
 8001036:	f5a3 73a2 	sub.w	r3, r3, #324	; 0x144
 800103a:	695a      	ldr	r2, [r3, #20]
 800103c:	f507 73a8 	add.w	r3, r7, #336	; 0x150
 8001040:	f5a3 73a2 	sub.w	r3, r3, #324	; 0x144
 8001044:	619a      	str	r2, [r3, #24]
        state[5] = state[4];
 8001046:	f507 73a8 	add.w	r3, r7, #336	; 0x150
 800104a:	f5a3 73a2 	sub.w	r3, r3, #324	; 0x144
 800104e:	691a      	ldr	r2, [r3, #16]
 8001050:	f507 73a8 	add.w	r3, r7, #336	; 0x150
 8001054:	f5a3 73a2 	sub.w	r3, r3, #324	; 0x144
 8001058:	615a      	str	r2, [r3, #20]
        state[4] = newE;
 800105a:	f507 73a8 	add.w	r3, r7, #336	; 0x150
 800105e:	f5a3 73a2 	sub.w	r3, r3, #324	; 0x144
 8001062:	f8d7 212c 	ldr.w	r2, [r7, #300]	; 0x12c
 8001066:	611a      	str	r2, [r3, #16]
        state[3] = state[2];
 8001068:	f507 73a8 	add.w	r3, r7, #336	; 0x150
 800106c:	f5a3 73a2 	sub.w	r3, r3, #324	; 0x144
 8001070:	689a      	ldr	r2, [r3, #8]
 8001072:	f507 73a8 	add.w	r3, r7, #336	; 0x150
 8001076:	f5a3 73a2 	sub.w	r3, r3, #324	; 0x144
 800107a:	60da      	str	r2, [r3, #12]
        state[2] = state[1];
 800107c:	f507 73a8 	add.w	r3, r7, #336	; 0x150
 8001080:	f5a3 73a2 	sub.w	r3, r3, #324	; 0x144
 8001084:	685a      	ldr	r2, [r3, #4]
 8001086:	f507 73a8 	add.w	r3, r7, #336	; 0x150
 800108a:	f5a3 73a2 	sub.w	r3, r3, #324	; 0x144
 800108e:	609a      	str	r2, [r3, #8]
        state[1] = state[0];
 8001090:	f507 73a8 	add.w	r3, r7, #336	; 0x150
 8001094:	f5a3 73a2 	sub.w	r3, r3, #324	; 0x144
 8001098:	681a      	ldr	r2, [r3, #0]
 800109a:	f507 73a8 	add.w	r3, r7, #336	; 0x150
 800109e:	f5a3 73a2 	sub.w	r3, r3, #324	; 0x144
 80010a2:	605a      	str	r2, [r3, #4]
        state[0] = newA;
 80010a4:	f507 73a8 	add.w	r3, r7, #336	; 0x150
 80010a8:	f5a3 73a2 	sub.w	r3, r3, #324	; 0x144
 80010ac:	f8d7 2130 	ldr.w	r2, [r7, #304]	; 0x130
 80010b0:	601a      	str	r2, [r3, #0]
    for (uint8_t i = 0; i < 64; i++) {
 80010b2:	f897 314b 	ldrb.w	r3, [r7, #331]	; 0x14b
 80010b6:	3301      	adds	r3, #1
 80010b8:	f887 314b 	strb.w	r3, [r7, #331]	; 0x14b
 80010bc:	f897 314b 	ldrb.w	r3, [r7, #331]	; 0x14b
 80010c0:	2b3f      	cmp	r3, #63	; 0x3f
 80010c2:	f67f af10 	bls.w	8000ee6 <sha256_transform+0x17e>
    }

    for (uint8_t i = 0; i < 8; i++) {
 80010c6:	2300      	movs	r3, #0
 80010c8:	f887 314a 	strb.w	r3, [r7, #330]	; 0x14a
 80010cc:	e01f      	b.n	800110e <sha256_transform+0x3a6>
        ctx->m_state[i] += state[i];
 80010ce:	f897 214a 	ldrb.w	r2, [r7, #330]	; 0x14a
 80010d2:	f507 73a8 	add.w	r3, r7, #336	; 0x150
 80010d6:	f5a3 73a6 	sub.w	r3, r3, #332	; 0x14c
 80010da:	681b      	ldr	r3, [r3, #0]
 80010dc:	f853 1022 	ldr.w	r1, [r3, r2, lsl #2]
 80010e0:	f897 214a 	ldrb.w	r2, [r7, #330]	; 0x14a
 80010e4:	f507 73a8 	add.w	r3, r7, #336	; 0x150
 80010e8:	f5a3 73a2 	sub.w	r3, r3, #324	; 0x144
 80010ec:	f853 3022 	ldr.w	r3, [r3, r2, lsl #2]
 80010f0:	f897 214a 	ldrb.w	r2, [r7, #330]	; 0x14a
 80010f4:	4419      	add	r1, r3
 80010f6:	f507 73a8 	add.w	r3, r7, #336	; 0x150
 80010fa:	f5a3 73a6 	sub.w	r3, r3, #332	; 0x14c
 80010fe:	681b      	ldr	r3, [r3, #0]
 8001100:	f843 1022 	str.w	r1, [r3, r2, lsl #2]
    for (uint8_t i = 0; i < 8; i++) {
 8001104:	f897 314a 	ldrb.w	r3, [r7, #330]	; 0x14a
 8001108:	3301      	adds	r3, #1
 800110a:	f887 314a 	strb.w	r3, [r7, #330]	; 0x14a
 800110e:	f897 314a 	ldrb.w	r3, [r7, #330]	; 0x14a
 8001112:	2b07      	cmp	r3, #7
 8001114:	d9db      	bls.n	80010ce <sha256_transform+0x366>
    }
}
 8001116:	bf00      	nop
 8001118:	bf00      	nop
 800111a:	f507 77aa 	add.w	r7, r7, #340	; 0x154
 800111e:	46bd      	mov	sp, r7
 8001120:	bd90      	pop	{r4, r7, pc}
 8001122:	bf00      	nop
 8001124:	080044cc 	.word	0x080044cc

08001128 <sha256_revert>:
    ctx->m_data[57] = (uint8_t)(ctx->m_bitlen >> 48);
    ctx->m_data[56] = (uint8_t)(ctx->m_bitlen >> 56);
    sha256_transform(ctx);
}

void sha256_revert( SHA256 *ctx, uint8_t*hash) {
 8001128:	b480      	push	{r7}
 800112a:	b085      	sub	sp, #20
 800112c:	af00      	add	r7, sp, #0
 800112e:	6078      	str	r0, [r7, #4]
 8001130:	6039      	str	r1, [r7, #0]
    // O SHA usa ordenao de bytes big-endian
    // Reverter todos os bytes
    for (uint8_t i = 0; i < 4; i++) {
 8001132:	2300      	movs	r3, #0
 8001134:	73fb      	strb	r3, [r7, #15]
 8001136:	e01e      	b.n	8001176 <sha256_revert+0x4e>
        for (uint8_t j = 0; j < 8; j++) {
 8001138:	2300      	movs	r3, #0
 800113a:	73bb      	strb	r3, [r7, #14]
 800113c:	e015      	b.n	800116a <sha256_revert+0x42>
            hash[i + (j * 4)] = (ctx->m_state[j] >> (24 - i * 8)) & 0x000000ff;
 800113e:	7bba      	ldrb	r2, [r7, #14]
 8001140:	687b      	ldr	r3, [r7, #4]
 8001142:	f853 2022 	ldr.w	r2, [r3, r2, lsl #2]
 8001146:	7bfb      	ldrb	r3, [r7, #15]
 8001148:	f1c3 0303 	rsb	r3, r3, #3
 800114c:	00db      	lsls	r3, r3, #3
 800114e:	fa22 f103 	lsr.w	r1, r2, r3
 8001152:	7bfa      	ldrb	r2, [r7, #15]
 8001154:	7bbb      	ldrb	r3, [r7, #14]
 8001156:	009b      	lsls	r3, r3, #2
 8001158:	4413      	add	r3, r2
 800115a:	461a      	mov	r2, r3
 800115c:	683b      	ldr	r3, [r7, #0]
 800115e:	4413      	add	r3, r2
 8001160:	b2ca      	uxtb	r2, r1
 8001162:	701a      	strb	r2, [r3, #0]
        for (uint8_t j = 0; j < 8; j++) {
 8001164:	7bbb      	ldrb	r3, [r7, #14]
 8001166:	3301      	adds	r3, #1
 8001168:	73bb      	strb	r3, [r7, #14]
 800116a:	7bbb      	ldrb	r3, [r7, #14]
 800116c:	2b07      	cmp	r3, #7
 800116e:	d9e6      	bls.n	800113e <sha256_revert+0x16>
    for (uint8_t i = 0; i < 4; i++) {
 8001170:	7bfb      	ldrb	r3, [r7, #15]
 8001172:	3301      	adds	r3, #1
 8001174:	73fb      	strb	r3, [r7, #15]
 8001176:	7bfb      	ldrb	r3, [r7, #15]
 8001178:	2b03      	cmp	r3, #3
 800117a:	d9dd      	bls.n	8001138 <sha256_revert+0x10>
        }
    }
}
 800117c:	bf00      	nop
 800117e:	bf00      	nop
 8001180:	3714      	adds	r7, #20
 8001182:	46bd      	mov	sp, r7
 8001184:	bc80      	pop	{r7}
 8001186:	4770      	bx	lr

08001188 <GenDigSHA256Hash>:
        gendig[96 + i] = general_conf[i];
    }
}
*/

void GenDigSHA256Hash(uint8_t *data, uint8_t *aux) {
 8001188:	b5b0      	push	{r4, r5, r7, lr}
 800118a:	b0c6      	sub	sp, #280	; 0x118
 800118c:	af00      	add	r7, sp, #0
 800118e:	f507 738c 	add.w	r3, r7, #280	; 0x118
 8001192:	f5a3 738a 	sub.w	r3, r3, #276	; 0x114
 8001196:	6018      	str	r0, [r3, #0]
 8001198:	f507 738c 	add.w	r3, r7, #280	; 0x118
 800119c:	f5a3 738c 	sub.w	r3, r3, #280	; 0x118
 80011a0:	6019      	str	r1, [r3, #0]

    SHA256 sha;
	uint8_t gendig[128];
    uint8_t config_gendig[] = {0x15, 0x02, 0x02, 0x00, 0xEE, 0x01, 0x23, 0x00,
 80011a2:	f507 738c 	add.w	r3, r7, #280	; 0x118
 80011a6:	f5a3 7388 	sub.w	r3, r3, #272	; 0x110
 80011aa:	4a38      	ldr	r2, [pc, #224]	; (800128c <GenDigSHA256Hash+0x104>)
 80011ac:	461c      	mov	r4, r3
 80011ae:	4615      	mov	r5, r2
 80011b0:	cd0f      	ldmia	r5!, {r0, r1, r2, r3}
 80011b2:	c40f      	stmia	r4!, {r0, r1, r2, r3}
 80011b4:	e895 0003 	ldmia.w	r5, {r0, r1}
 80011b8:	e884 0003 	stmia.w	r4, {r0, r1}
                               0x00, 0x00, 0x00, 0x00, 0x00, 0x00, 0x00, 0x00,
                               0x00, 0x00, 0x00, 0x00, 0x00, 0x00, 0x00, 0x00};

    memcpy(gendig, slot2, 32);
 80011bc:	4b34      	ldr	r3, [pc, #208]	; (8001290 <GenDigSHA256Hash+0x108>)
 80011be:	f107 0420 	add.w	r4, r7, #32
 80011c2:	461d      	mov	r5, r3
 80011c4:	cd0f      	ldmia	r5!, {r0, r1, r2, r3}
 80011c6:	c40f      	stmia	r4!, {r0, r1, r2, r3}
 80011c8:	e895 000f 	ldmia.w	r5, {r0, r1, r2, r3}
 80011cc:	e884 000f 	stmia.w	r4, {r0, r1, r2, r3}
    memcpy(gendig + 32, config_gendig, 32);
 80011d0:	f107 0320 	add.w	r3, r7, #32
 80011d4:	3320      	adds	r3, #32
 80011d6:	f107 0108 	add.w	r1, r7, #8
 80011da:	2220      	movs	r2, #32
 80011dc:	4618      	mov	r0, r3
 80011de:	f002 fe7d 	bl	8003edc <memcpy>
    memcpy(gendig + 64, data, 32);
 80011e2:	f107 0320 	add.w	r3, r7, #32
 80011e6:	3340      	adds	r3, #64	; 0x40
 80011e8:	f507 728c 	add.w	r2, r7, #280	; 0x118
 80011ec:	f5a2 718a 	sub.w	r1, r2, #276	; 0x114
 80011f0:	2220      	movs	r2, #32
 80011f2:	6809      	ldr	r1, [r1, #0]
 80011f4:	4618      	mov	r0, r3
 80011f6:	f002 fe71 	bl	8003edc <memcpy>
    memcpy(gendig + 96, general_conf, 32);
 80011fa:	f107 0320 	add.w	r3, r7, #32
 80011fe:	3360      	adds	r3, #96	; 0x60
 8001200:	4a24      	ldr	r2, [pc, #144]	; (8001294 <GenDigSHA256Hash+0x10c>)
 8001202:	461c      	mov	r4, r3
 8001204:	4615      	mov	r5, r2
 8001206:	cd0f      	ldmia	r5!, {r0, r1, r2, r3}
 8001208:	6020      	str	r0, [r4, #0]
 800120a:	6061      	str	r1, [r4, #4]
 800120c:	60a2      	str	r2, [r4, #8]
 800120e:	60e3      	str	r3, [r4, #12]
 8001210:	cd0f      	ldmia	r5!, {r0, r1, r2, r3}
 8001212:	6120      	str	r0, [r4, #16]
 8001214:	6161      	str	r1, [r4, #20]
 8001216:	61a2      	str	r2, [r4, #24]
 8001218:	61e3      	str	r3, [r4, #28]

    sha256_init(&sha);
 800121a:	f107 03a0 	add.w	r3, r7, #160	; 0xa0
 800121e:	4618      	mov	r0, r3
 8001220:	f7ff fcb4 	bl	8000b8c <sha256_init>
    sha256_update(&sha, gendig, sizeof(gendig));
 8001224:	f107 0120 	add.w	r1, r7, #32
 8001228:	f107 03a0 	add.w	r3, r7, #160	; 0xa0
 800122c:	2280      	movs	r2, #128	; 0x80
 800122e:	4618      	mov	r0, r3
 8001230:	f7ff fce8 	bl	8000c04 <sha256_update>
    uint8_t *digest = sha256_digest(&sha);
 8001234:	f107 03a0 	add.w	r3, r7, #160	; 0xa0
 8001238:	4618      	mov	r0, r3
 800123a:	f7ff fd1b 	bl	8000c74 <sha256_digest>
 800123e:	f8c7 0110 	str.w	r0, [r7, #272]	; 0x110

    for (int i = 0; i<128;i++){
 8001242:	2300      	movs	r3, #0
 8001244:	f8c7 3114 	str.w	r3, [r7, #276]	; 0x114
 8001248:	e013      	b.n	8001272 <GenDigSHA256Hash+0xea>
    	aux[i] = digest[i];
 800124a:	f8d7 3114 	ldr.w	r3, [r7, #276]	; 0x114
 800124e:	f8d7 2110 	ldr.w	r2, [r7, #272]	; 0x110
 8001252:	441a      	add	r2, r3
 8001254:	f8d7 3114 	ldr.w	r3, [r7, #276]	; 0x114
 8001258:	f507 718c 	add.w	r1, r7, #280	; 0x118
 800125c:	f5a1 718c 	sub.w	r1, r1, #280	; 0x118
 8001260:	6809      	ldr	r1, [r1, #0]
 8001262:	440b      	add	r3, r1
 8001264:	7812      	ldrb	r2, [r2, #0]
 8001266:	701a      	strb	r2, [r3, #0]
    for (int i = 0; i<128;i++){
 8001268:	f8d7 3114 	ldr.w	r3, [r7, #276]	; 0x114
 800126c:	3301      	adds	r3, #1
 800126e:	f8c7 3114 	str.w	r3, [r7, #276]	; 0x114
 8001272:	f8d7 3114 	ldr.w	r3, [r7, #276]	; 0x114
 8001276:	2b7f      	cmp	r3, #127	; 0x7f
 8001278:	dde7      	ble.n	800124a <GenDigSHA256Hash+0xc2>
    }

    free(digest);
 800127a:	f8d7 0110 	ldr.w	r0, [r7, #272]	; 0x110
 800127e:	f002 fe25 	bl	8003ecc <free>
}
 8001282:	bf00      	nop
 8001284:	f507 778c 	add.w	r7, r7, #280	; 0x118
 8001288:	46bd      	mov	sp, r7
 800128a:	bdb0      	pop	{r4, r5, r7, pc}
 800128c:	08004464 	.word	0x08004464
 8001290:	20000020 	.word	0x20000020
 8001294:	20000000 	.word	0x20000000

08001298 <MACSHA256Hash>:


void MACSHA256Hash(uint8_t *data, uint8_t *aux){
 8001298:	b5b0      	push	{r4, r5, r7, lr}
 800129a:	b0d0      	sub	sp, #320	; 0x140
 800129c:	af00      	add	r7, sp, #0
 800129e:	f507 73a0 	add.w	r3, r7, #320	; 0x140
 80012a2:	f5a3 739e 	sub.w	r3, r3, #316	; 0x13c
 80012a6:	6018      	str	r0, [r3, #0]
 80012a8:	f507 73a0 	add.w	r3, r7, #320	; 0x140
 80012ac:	f5a3 73a0 	sub.w	r3, r3, #320	; 0x140
 80012b0:	6019      	str	r1, [r3, #0]

	SHA256 sha;
	uint8_t mac[128];
	uint8_t config_mac[] = {0x08, 0x01, 0x09, 0x00, 0x00, 0x00, 0x00, 0x00,
 80012b2:	f507 73a0 	add.w	r3, r7, #320	; 0x140
 80012b6:	f5a3 738c 	sub.w	r3, r3, #280	; 0x118
 80012ba:	4a45      	ldr	r2, [pc, #276]	; (80013d0 <MACSHA256Hash+0x138>)
 80012bc:	461c      	mov	r4, r3
 80012be:	4615      	mov	r5, r2
 80012c0:	cd0f      	ldmia	r5!, {r0, r1, r2, r3}
 80012c2:	c40f      	stmia	r4!, {r0, r1, r2, r3}
 80012c4:	e895 000f 	ldmia.w	r5, {r0, r1, r2, r3}
 80012c8:	e884 000f 	stmia.w	r4, {r0, r1, r2, r3}
							0x00, 0x00, 0x00, 0x00, 0x00, 0x00, 0x00, 0xEE,
							0x00, 0x00, 0x00, 0x00, 0x01, 0x23, 0x00, 0x00,
							0x80, 0x00, 0x00, 0x00, 0x00, 0x00, 0x00, 0x00};
	uint8_t mac_final[] = {	0x00, 0x00, 0x00, 0x00, 0x00, 0x00, 0x00, 0x00,
 80012cc:	f507 73a0 	add.w	r3, r7, #320	; 0x140
 80012d0:	f5a3 739c 	sub.w	r3, r3, #312	; 0x138
 80012d4:	4a3f      	ldr	r2, [pc, #252]	; (80013d4 <MACSHA256Hash+0x13c>)
 80012d6:	461c      	mov	r4, r3
 80012d8:	4615      	mov	r5, r2
 80012da:	cd0f      	ldmia	r5!, {r0, r1, r2, r3}
 80012dc:	c40f      	stmia	r4!, {r0, r1, r2, r3}
 80012de:	e895 000f 	ldmia.w	r5, {r0, r1, r2, r3}
 80012e2:	e884 000f 	stmia.w	r4, {r0, r1, r2, r3}
			  	  	  	  	0x00, 0x00, 0x00, 0x00, 0x00, 0x00, 0x00, 0x00,
							0x00, 0x00, 0x00, 0x00, 0x00, 0x00, 0x00, 0x00,
							0x00, 0x00, 0x00, 0x00, 0x00, 0x00, 0x02, 0xC0};
    memcpy(mac, slot4, 32);
 80012e6:	4b3c      	ldr	r3, [pc, #240]	; (80013d8 <MACSHA256Hash+0x140>)
 80012e8:	f107 0448 	add.w	r4, r7, #72	; 0x48
 80012ec:	461d      	mov	r5, r3
 80012ee:	cd0f      	ldmia	r5!, {r0, r1, r2, r3}
 80012f0:	c40f      	stmia	r4!, {r0, r1, r2, r3}
 80012f2:	e895 000f 	ldmia.w	r5, {r0, r1, r2, r3}
 80012f6:	e884 000f 	stmia.w	r4, {r0, r1, r2, r3}
    memcpy(mac + 32, data, 32);
 80012fa:	f107 0348 	add.w	r3, r7, #72	; 0x48
 80012fe:	3320      	adds	r3, #32
 8001300:	f507 72a0 	add.w	r2, r7, #320	; 0x140
 8001304:	f5a2 719e 	sub.w	r1, r2, #316	; 0x13c
 8001308:	2220      	movs	r2, #32
 800130a:	6809      	ldr	r1, [r1, #0]
 800130c:	4618      	mov	r0, r3
 800130e:	f002 fde5 	bl	8003edc <memcpy>
    memcpy(mac + 64, config_mac, 32);
 8001312:	f107 0348 	add.w	r3, r7, #72	; 0x48
 8001316:	3340      	adds	r3, #64	; 0x40
 8001318:	f507 72a0 	add.w	r2, r7, #320	; 0x140
 800131c:	f5a2 728c 	sub.w	r2, r2, #280	; 0x118
 8001320:	461c      	mov	r4, r3
 8001322:	4615      	mov	r5, r2
 8001324:	cd0f      	ldmia	r5!, {r0, r1, r2, r3}
 8001326:	6020      	str	r0, [r4, #0]
 8001328:	6061      	str	r1, [r4, #4]
 800132a:	60a2      	str	r2, [r4, #8]
 800132c:	60e3      	str	r3, [r4, #12]
 800132e:	cd0f      	ldmia	r5!, {r0, r1, r2, r3}
 8001330:	6120      	str	r0, [r4, #16]
 8001332:	6161      	str	r1, [r4, #20]
 8001334:	61a2      	str	r2, [r4, #24]
 8001336:	61e3      	str	r3, [r4, #28]
    memcpy(mac + 96, mac_final, 32);
 8001338:	f107 0348 	add.w	r3, r7, #72	; 0x48
 800133c:	3360      	adds	r3, #96	; 0x60
 800133e:	f507 72a0 	add.w	r2, r7, #320	; 0x140
 8001342:	f5a2 729c 	sub.w	r2, r2, #312	; 0x138
 8001346:	461c      	mov	r4, r3
 8001348:	4615      	mov	r5, r2
 800134a:	cd0f      	ldmia	r5!, {r0, r1, r2, r3}
 800134c:	6020      	str	r0, [r4, #0]
 800134e:	6061      	str	r1, [r4, #4]
 8001350:	60a2      	str	r2, [r4, #8]
 8001352:	60e3      	str	r3, [r4, #12]
 8001354:	cd0f      	ldmia	r5!, {r0, r1, r2, r3}
 8001356:	6120      	str	r0, [r4, #16]
 8001358:	6161      	str	r1, [r4, #20]
 800135a:	61a2      	str	r2, [r4, #24]
 800135c:	61e3      	str	r3, [r4, #28]

    sha256_init(&sha);
 800135e:	f107 03c8 	add.w	r3, r7, #200	; 0xc8
 8001362:	4618      	mov	r0, r3
 8001364:	f7ff fc12 	bl	8000b8c <sha256_init>
    sha256_update(&sha, mac, sizeof(mac));
 8001368:	f107 0148 	add.w	r1, r7, #72	; 0x48
 800136c:	f107 03c8 	add.w	r3, r7, #200	; 0xc8
 8001370:	2280      	movs	r2, #128	; 0x80
 8001372:	4618      	mov	r0, r3
 8001374:	f7ff fc46 	bl	8000c04 <sha256_update>
    uint8_t *digest = sha256_digest(&sha);
 8001378:	f107 03c8 	add.w	r3, r7, #200	; 0xc8
 800137c:	4618      	mov	r0, r3
 800137e:	f7ff fc79 	bl	8000c74 <sha256_digest>
 8001382:	f8c7 0138 	str.w	r0, [r7, #312]	; 0x138

    for (int i = 0; i<128;i++){
 8001386:	2300      	movs	r3, #0
 8001388:	f8c7 313c 	str.w	r3, [r7, #316]	; 0x13c
 800138c:	e013      	b.n	80013b6 <MACSHA256Hash+0x11e>
    	aux[i] = digest[i];
 800138e:	f8d7 313c 	ldr.w	r3, [r7, #316]	; 0x13c
 8001392:	f8d7 2138 	ldr.w	r2, [r7, #312]	; 0x138
 8001396:	441a      	add	r2, r3
 8001398:	f8d7 313c 	ldr.w	r3, [r7, #316]	; 0x13c
 800139c:	f507 71a0 	add.w	r1, r7, #320	; 0x140
 80013a0:	f5a1 71a0 	sub.w	r1, r1, #320	; 0x140
 80013a4:	6809      	ldr	r1, [r1, #0]
 80013a6:	440b      	add	r3, r1
 80013a8:	7812      	ldrb	r2, [r2, #0]
 80013aa:	701a      	strb	r2, [r3, #0]
    for (int i = 0; i<128;i++){
 80013ac:	f8d7 313c 	ldr.w	r3, [r7, #316]	; 0x13c
 80013b0:	3301      	adds	r3, #1
 80013b2:	f8c7 313c 	str.w	r3, [r7, #316]	; 0x13c
 80013b6:	f8d7 313c 	ldr.w	r3, [r7, #316]	; 0x13c
 80013ba:	2b7f      	cmp	r3, #127	; 0x7f
 80013bc:	dde7      	ble.n	800138e <MACSHA256Hash+0xf6>
    }

    free(digest);
 80013be:	f8d7 0138 	ldr.w	r0, [r7, #312]	; 0x138
 80013c2:	f002 fd83 	bl	8003ecc <free>
}
 80013c6:	bf00      	nop
 80013c8:	f507 77a0 	add.w	r7, r7, #320	; 0x140
 80013cc:	46bd      	mov	sp, r7
 80013ce:	bdb0      	pop	{r4, r5, r7, pc}
 80013d0:	0800447c 	.word	0x0800447c
 80013d4:	0800449c 	.word	0x0800449c
 80013d8:	20000040 	.word	0x20000040

080013dc <HAL_MspInit>:
/* USER CODE END 0 */
/**
  * Initializes the Global MSP.
  */
void HAL_MspInit(void)
{
 80013dc:	b480      	push	{r7}
 80013de:	b085      	sub	sp, #20
 80013e0:	af00      	add	r7, sp, #0
  /* USER CODE BEGIN MspInit 0 */

  /* USER CODE END MspInit 0 */

  __HAL_RCC_AFIO_CLK_ENABLE();
 80013e2:	4b15      	ldr	r3, [pc, #84]	; (8001438 <HAL_MspInit+0x5c>)
 80013e4:	699b      	ldr	r3, [r3, #24]
 80013e6:	4a14      	ldr	r2, [pc, #80]	; (8001438 <HAL_MspInit+0x5c>)
 80013e8:	f043 0301 	orr.w	r3, r3, #1
 80013ec:	6193      	str	r3, [r2, #24]
 80013ee:	4b12      	ldr	r3, [pc, #72]	; (8001438 <HAL_MspInit+0x5c>)
 80013f0:	699b      	ldr	r3, [r3, #24]
 80013f2:	f003 0301 	and.w	r3, r3, #1
 80013f6:	60bb      	str	r3, [r7, #8]
 80013f8:	68bb      	ldr	r3, [r7, #8]
  __HAL_RCC_PWR_CLK_ENABLE();
 80013fa:	4b0f      	ldr	r3, [pc, #60]	; (8001438 <HAL_MspInit+0x5c>)
 80013fc:	69db      	ldr	r3, [r3, #28]
 80013fe:	4a0e      	ldr	r2, [pc, #56]	; (8001438 <HAL_MspInit+0x5c>)
 8001400:	f043 5380 	orr.w	r3, r3, #268435456	; 0x10000000
 8001404:	61d3      	str	r3, [r2, #28]
 8001406:	4b0c      	ldr	r3, [pc, #48]	; (8001438 <HAL_MspInit+0x5c>)
 8001408:	69db      	ldr	r3, [r3, #28]
 800140a:	f003 5380 	and.w	r3, r3, #268435456	; 0x10000000
 800140e:	607b      	str	r3, [r7, #4]
 8001410:	687b      	ldr	r3, [r7, #4]

  /* System interrupt init*/

  /** NOJTAG: JTAG-DP Disabled and SW-DP Enabled
  */
  __HAL_AFIO_REMAP_SWJ_NOJTAG();
 8001412:	4b0a      	ldr	r3, [pc, #40]	; (800143c <HAL_MspInit+0x60>)
 8001414:	685b      	ldr	r3, [r3, #4]
 8001416:	60fb      	str	r3, [r7, #12]
 8001418:	68fb      	ldr	r3, [r7, #12]
 800141a:	f023 63e0 	bic.w	r3, r3, #117440512	; 0x7000000
 800141e:	60fb      	str	r3, [r7, #12]
 8001420:	68fb      	ldr	r3, [r7, #12]
 8001422:	f043 7300 	orr.w	r3, r3, #33554432	; 0x2000000
 8001426:	60fb      	str	r3, [r7, #12]
 8001428:	4a04      	ldr	r2, [pc, #16]	; (800143c <HAL_MspInit+0x60>)
 800142a:	68fb      	ldr	r3, [r7, #12]
 800142c:	6053      	str	r3, [r2, #4]

  /* USER CODE BEGIN MspInit 1 */

  /* USER CODE END MspInit 1 */
}
 800142e:	bf00      	nop
 8001430:	3714      	adds	r7, #20
 8001432:	46bd      	mov	sp, r7
 8001434:	bc80      	pop	{r7}
 8001436:	4770      	bx	lr
 8001438:	40021000 	.word	0x40021000
 800143c:	40010000 	.word	0x40010000

08001440 <HAL_I2C_MspInit>:
* This function configures the hardware resources used in this example
* @param hi2c: I2C handle pointer
* @retval None
*/
void HAL_I2C_MspInit(I2C_HandleTypeDef* hi2c)
{
 8001440:	b580      	push	{r7, lr}
 8001442:	b088      	sub	sp, #32
 8001444:	af00      	add	r7, sp, #0
 8001446:	6078      	str	r0, [r7, #4]
  GPIO_InitTypeDef GPIO_InitStruct = {0};
 8001448:	f107 0310 	add.w	r3, r7, #16
 800144c:	2200      	movs	r2, #0
 800144e:	601a      	str	r2, [r3, #0]
 8001450:	605a      	str	r2, [r3, #4]
 8001452:	609a      	str	r2, [r3, #8]
 8001454:	60da      	str	r2, [r3, #12]
  if(hi2c->Instance==I2C2)
 8001456:	687b      	ldr	r3, [r7, #4]
 8001458:	681b      	ldr	r3, [r3, #0]
 800145a:	4a16      	ldr	r2, [pc, #88]	; (80014b4 <HAL_I2C_MspInit+0x74>)
 800145c:	4293      	cmp	r3, r2
 800145e:	d124      	bne.n	80014aa <HAL_I2C_MspInit+0x6a>
  {
  /* USER CODE BEGIN I2C2_MspInit 0 */

  /* USER CODE END I2C2_MspInit 0 */

    __HAL_RCC_GPIOB_CLK_ENABLE();
 8001460:	4b15      	ldr	r3, [pc, #84]	; (80014b8 <HAL_I2C_MspInit+0x78>)
 8001462:	699b      	ldr	r3, [r3, #24]
 8001464:	4a14      	ldr	r2, [pc, #80]	; (80014b8 <HAL_I2C_MspInit+0x78>)
 8001466:	f043 0308 	orr.w	r3, r3, #8
 800146a:	6193      	str	r3, [r2, #24]
 800146c:	4b12      	ldr	r3, [pc, #72]	; (80014b8 <HAL_I2C_MspInit+0x78>)
 800146e:	699b      	ldr	r3, [r3, #24]
 8001470:	f003 0308 	and.w	r3, r3, #8
 8001474:	60fb      	str	r3, [r7, #12]
 8001476:	68fb      	ldr	r3, [r7, #12]
    /**I2C2 GPIO Configuration
    PB10     ------> I2C2_SCL
    PB11     ------> I2C2_SDA
    */
    GPIO_InitStruct.Pin = GPIO_PIN_10|GPIO_PIN_11;
 8001478:	f44f 6340 	mov.w	r3, #3072	; 0xc00
 800147c:	613b      	str	r3, [r7, #16]
    GPIO_InitStruct.Mode = GPIO_MODE_AF_OD;
 800147e:	2312      	movs	r3, #18
 8001480:	617b      	str	r3, [r7, #20]
    GPIO_InitStruct.Speed = GPIO_SPEED_FREQ_HIGH;
 8001482:	2303      	movs	r3, #3
 8001484:	61fb      	str	r3, [r7, #28]
    HAL_GPIO_Init(GPIOB, &GPIO_InitStruct);
 8001486:	f107 0310 	add.w	r3, r7, #16
 800148a:	4619      	mov	r1, r3
 800148c:	480b      	ldr	r0, [pc, #44]	; (80014bc <HAL_I2C_MspInit+0x7c>)
 800148e:	f000 fb09 	bl	8001aa4 <HAL_GPIO_Init>

    /* Peripheral clock enable */
    __HAL_RCC_I2C2_CLK_ENABLE();
 8001492:	4b09      	ldr	r3, [pc, #36]	; (80014b8 <HAL_I2C_MspInit+0x78>)
 8001494:	69db      	ldr	r3, [r3, #28]
 8001496:	4a08      	ldr	r2, [pc, #32]	; (80014b8 <HAL_I2C_MspInit+0x78>)
 8001498:	f443 0380 	orr.w	r3, r3, #4194304	; 0x400000
 800149c:	61d3      	str	r3, [r2, #28]
 800149e:	4b06      	ldr	r3, [pc, #24]	; (80014b8 <HAL_I2C_MspInit+0x78>)
 80014a0:	69db      	ldr	r3, [r3, #28]
 80014a2:	f403 0380 	and.w	r3, r3, #4194304	; 0x400000
 80014a6:	60bb      	str	r3, [r7, #8]
 80014a8:	68bb      	ldr	r3, [r7, #8]
  /* USER CODE BEGIN I2C2_MspInit 1 */

  /* USER CODE END I2C2_MspInit 1 */
  }

}
 80014aa:	bf00      	nop
 80014ac:	3720      	adds	r7, #32
 80014ae:	46bd      	mov	sp, r7
 80014b0:	bd80      	pop	{r7, pc}
 80014b2:	bf00      	nop
 80014b4:	40005800 	.word	0x40005800
 80014b8:	40021000 	.word	0x40021000
 80014bc:	40010c00 	.word	0x40010c00

080014c0 <HAL_USART_MspInit>:
* This function configures the hardware resources used in this example
* @param husart: USART handle pointer
* @retval None
*/
void HAL_USART_MspInit(USART_HandleTypeDef* husart)
{
 80014c0:	b580      	push	{r7, lr}
 80014c2:	b088      	sub	sp, #32
 80014c4:	af00      	add	r7, sp, #0
 80014c6:	6078      	str	r0, [r7, #4]
  GPIO_InitTypeDef GPIO_InitStruct = {0};
 80014c8:	f107 0310 	add.w	r3, r7, #16
 80014cc:	2200      	movs	r2, #0
 80014ce:	601a      	str	r2, [r3, #0]
 80014d0:	605a      	str	r2, [r3, #4]
 80014d2:	609a      	str	r2, [r3, #8]
 80014d4:	60da      	str	r2, [r3, #12]
  if(husart->Instance==USART1)
 80014d6:	687b      	ldr	r3, [r7, #4]
 80014d8:	681b      	ldr	r3, [r3, #0]
 80014da:	4a20      	ldr	r2, [pc, #128]	; (800155c <HAL_USART_MspInit+0x9c>)
 80014dc:	4293      	cmp	r3, r2
 80014de:	d139      	bne.n	8001554 <HAL_USART_MspInit+0x94>
  {
  /* USER CODE BEGIN USART1_MspInit 0 */

  /* USER CODE END USART1_MspInit 0 */
    /* Peripheral clock enable */
    __HAL_RCC_USART1_CLK_ENABLE();
 80014e0:	4b1f      	ldr	r3, [pc, #124]	; (8001560 <HAL_USART_MspInit+0xa0>)
 80014e2:	699b      	ldr	r3, [r3, #24]
 80014e4:	4a1e      	ldr	r2, [pc, #120]	; (8001560 <HAL_USART_MspInit+0xa0>)
 80014e6:	f443 4380 	orr.w	r3, r3, #16384	; 0x4000
 80014ea:	6193      	str	r3, [r2, #24]
 80014ec:	4b1c      	ldr	r3, [pc, #112]	; (8001560 <HAL_USART_MspInit+0xa0>)
 80014ee:	699b      	ldr	r3, [r3, #24]
 80014f0:	f403 4380 	and.w	r3, r3, #16384	; 0x4000
 80014f4:	60fb      	str	r3, [r7, #12]
 80014f6:	68fb      	ldr	r3, [r7, #12]

    __HAL_RCC_GPIOA_CLK_ENABLE();
 80014f8:	4b19      	ldr	r3, [pc, #100]	; (8001560 <HAL_USART_MspInit+0xa0>)
 80014fa:	699b      	ldr	r3, [r3, #24]
 80014fc:	4a18      	ldr	r2, [pc, #96]	; (8001560 <HAL_USART_MspInit+0xa0>)
 80014fe:	f043 0304 	orr.w	r3, r3, #4
 8001502:	6193      	str	r3, [r2, #24]
 8001504:	4b16      	ldr	r3, [pc, #88]	; (8001560 <HAL_USART_MspInit+0xa0>)
 8001506:	699b      	ldr	r3, [r3, #24]
 8001508:	f003 0304 	and.w	r3, r3, #4
 800150c:	60bb      	str	r3, [r7, #8]
 800150e:	68bb      	ldr	r3, [r7, #8]
    /**USART1 GPIO Configuration
    PA8     ------> USART1_CK
    PA9     ------> USART1_TX
    PA10     ------> USART1_RX
    */
    GPIO_InitStruct.Pin = GPIO_PIN_8|GPIO_PIN_9;
 8001510:	f44f 7340 	mov.w	r3, #768	; 0x300
 8001514:	613b      	str	r3, [r7, #16]
    GPIO_InitStruct.Mode = GPIO_MODE_AF_PP;
 8001516:	2302      	movs	r3, #2
 8001518:	617b      	str	r3, [r7, #20]
    GPIO_InitStruct.Speed = GPIO_SPEED_FREQ_HIGH;
 800151a:	2303      	movs	r3, #3
 800151c:	61fb      	str	r3, [r7, #28]
    HAL_GPIO_Init(GPIOA, &GPIO_InitStruct);
 800151e:	f107 0310 	add.w	r3, r7, #16
 8001522:	4619      	mov	r1, r3
 8001524:	480f      	ldr	r0, [pc, #60]	; (8001564 <HAL_USART_MspInit+0xa4>)
 8001526:	f000 fabd 	bl	8001aa4 <HAL_GPIO_Init>

    GPIO_InitStruct.Pin = GPIO_PIN_10;
 800152a:	f44f 6380 	mov.w	r3, #1024	; 0x400
 800152e:	613b      	str	r3, [r7, #16]
    GPIO_InitStruct.Mode = GPIO_MODE_INPUT;
 8001530:	2300      	movs	r3, #0
 8001532:	617b      	str	r3, [r7, #20]
    GPIO_InitStruct.Pull = GPIO_NOPULL;
 8001534:	2300      	movs	r3, #0
 8001536:	61bb      	str	r3, [r7, #24]
    HAL_GPIO_Init(GPIOA, &GPIO_InitStruct);
 8001538:	f107 0310 	add.w	r3, r7, #16
 800153c:	4619      	mov	r1, r3
 800153e:	4809      	ldr	r0, [pc, #36]	; (8001564 <HAL_USART_MspInit+0xa4>)
 8001540:	f000 fab0 	bl	8001aa4 <HAL_GPIO_Init>

    /* USART1 interrupt Init */
    HAL_NVIC_SetPriority(USART1_IRQn, 0, 0);
 8001544:	2200      	movs	r2, #0
 8001546:	2100      	movs	r1, #0
 8001548:	2025      	movs	r0, #37	; 0x25
 800154a:	f000 f9fe 	bl	800194a <HAL_NVIC_SetPriority>
    HAL_NVIC_EnableIRQ(USART1_IRQn);
 800154e:	2025      	movs	r0, #37	; 0x25
 8001550:	f000 fa17 	bl	8001982 <HAL_NVIC_EnableIRQ>
  /* USER CODE BEGIN USART1_MspInit 1 */

  /* USER CODE END USART1_MspInit 1 */
  }

}
 8001554:	bf00      	nop
 8001556:	3720      	adds	r7, #32
 8001558:	46bd      	mov	sp, r7
 800155a:	bd80      	pop	{r7, pc}
 800155c:	40013800 	.word	0x40013800
 8001560:	40021000 	.word	0x40021000
 8001564:	40010800 	.word	0x40010800

08001568 <NMI_Handler>:
/******************************************************************************/
/**
  * @brief This function handles Non maskable interrupt.
  */
void NMI_Handler(void)
{
 8001568:	b480      	push	{r7}
 800156a:	af00      	add	r7, sp, #0
  /* USER CODE BEGIN NonMaskableInt_IRQn 0 */

  /* USER CODE END NonMaskableInt_IRQn 0 */
  /* USER CODE BEGIN NonMaskableInt_IRQn 1 */
  while (1)
 800156c:	e7fe      	b.n	800156c <NMI_Handler+0x4>

0800156e <HardFault_Handler>:

/**
  * @brief This function handles Hard fault interrupt.
  */
void HardFault_Handler(void)
{
 800156e:	b480      	push	{r7}
 8001570:	af00      	add	r7, sp, #0
  /* USER CODE BEGIN HardFault_IRQn 0 */

  /* USER CODE END HardFault_IRQn 0 */
  while (1)
 8001572:	e7fe      	b.n	8001572 <HardFault_Handler+0x4>

08001574 <MemManage_Handler>:

/**
  * @brief This function handles Memory management fault.
  */
void MemManage_Handler(void)
{
 8001574:	b480      	push	{r7}
 8001576:	af00      	add	r7, sp, #0
  /* USER CODE BEGIN MemoryManagement_IRQn 0 */

  /* USER CODE END MemoryManagement_IRQn 0 */
  while (1)
 8001578:	e7fe      	b.n	8001578 <MemManage_Handler+0x4>

0800157a <BusFault_Handler>:

/**
  * @brief This function handles Prefetch fault, memory access fault.
  */
void BusFault_Handler(void)
{
 800157a:	b480      	push	{r7}
 800157c:	af00      	add	r7, sp, #0
  /* USER CODE BEGIN BusFault_IRQn 0 */

  /* USER CODE END BusFault_IRQn 0 */
  while (1)
 800157e:	e7fe      	b.n	800157e <BusFault_Handler+0x4>

08001580 <UsageFault_Handler>:

/**
  * @brief This function handles Undefined instruction or illegal state.
  */
void UsageFault_Handler(void)
{
 8001580:	b480      	push	{r7}
 8001582:	af00      	add	r7, sp, #0
  /* USER CODE BEGIN UsageFault_IRQn 0 */

  /* USER CODE END UsageFault_IRQn 0 */
  while (1)
 8001584:	e7fe      	b.n	8001584 <UsageFault_Handler+0x4>

08001586 <SVC_Handler>:

/**
  * @brief This function handles System service call via SWI instruction.
  */
void SVC_Handler(void)
{
 8001586:	b480      	push	{r7}
 8001588:	af00      	add	r7, sp, #0

  /* USER CODE END SVCall_IRQn 0 */
  /* USER CODE BEGIN SVCall_IRQn 1 */

  /* USER CODE END SVCall_IRQn 1 */
}
 800158a:	bf00      	nop
 800158c:	46bd      	mov	sp, r7
 800158e:	bc80      	pop	{r7}
 8001590:	4770      	bx	lr

08001592 <DebugMon_Handler>:

/**
  * @brief This function handles Debug monitor.
  */
void DebugMon_Handler(void)
{
 8001592:	b480      	push	{r7}
 8001594:	af00      	add	r7, sp, #0

  /* USER CODE END DebugMonitor_IRQn 0 */
  /* USER CODE BEGIN DebugMonitor_IRQn 1 */

  /* USER CODE END DebugMonitor_IRQn 1 */
}
 8001596:	bf00      	nop
 8001598:	46bd      	mov	sp, r7
 800159a:	bc80      	pop	{r7}
 800159c:	4770      	bx	lr

0800159e <PendSV_Handler>:

/**
  * @brief This function handles Pendable request for system service.
  */
void PendSV_Handler(void)
{
 800159e:	b480      	push	{r7}
 80015a0:	af00      	add	r7, sp, #0

  /* USER CODE END PendSV_IRQn 0 */
  /* USER CODE BEGIN PendSV_IRQn 1 */

  /* USER CODE END PendSV_IRQn 1 */
}
 80015a2:	bf00      	nop
 80015a4:	46bd      	mov	sp, r7
 80015a6:	bc80      	pop	{r7}
 80015a8:	4770      	bx	lr

080015aa <SysTick_Handler>:

/**
  * @brief This function handles System tick timer.
  */
void SysTick_Handler(void)
{
 80015aa:	b580      	push	{r7, lr}
 80015ac:	af00      	add	r7, sp, #0
  /* USER CODE BEGIN SysTick_IRQn 0 */

  /* USER CODE END SysTick_IRQn 0 */
  HAL_IncTick();
 80015ae:	f000 f8b5 	bl	800171c <HAL_IncTick>
  /* USER CODE BEGIN SysTick_IRQn 1 */

  /* USER CODE END SysTick_IRQn 1 */
}
 80015b2:	bf00      	nop
 80015b4:	bd80      	pop	{r7, pc}
	...

080015b8 <USART1_IRQHandler>:

/**
  * @brief This function handles USART1 global interrupt.
  */
void USART1_IRQHandler(void)
{
 80015b8:	b580      	push	{r7, lr}
 80015ba:	af00      	add	r7, sp, #0
  /* USER CODE BEGIN USART1_IRQn 0 */

  /* USER CODE END USART1_IRQn 0 */
  HAL_USART_IRQHandler(&husart1);
 80015bc:	4802      	ldr	r0, [pc, #8]	; (80015c8 <USART1_IRQHandler+0x10>)
 80015be:	f002 f81f 	bl	8003600 <HAL_USART_IRQHandler>
  /* USER CODE BEGIN USART1_IRQn 1 */

  /* USER CODE END USART1_IRQn 1 */
}
 80015c2:	bf00      	nop
 80015c4:	bd80      	pop	{r7, pc}
 80015c6:	bf00      	nop
 80015c8:	20000140 	.word	0x20000140

080015cc <_sbrk>:
 *
 * @param incr Memory size
 * @return Pointer to allocated memory
 */
void *_sbrk(ptrdiff_t incr)
{
 80015cc:	b580      	push	{r7, lr}
 80015ce:	b086      	sub	sp, #24
 80015d0:	af00      	add	r7, sp, #0
 80015d2:	6078      	str	r0, [r7, #4]
  extern uint8_t _end; /* Symbol defined in the linker script */
  extern uint8_t _estack; /* Symbol defined in the linker script */
  extern uint32_t _Min_Stack_Size; /* Symbol defined in the linker script */
  const uint32_t stack_limit = (uint32_t)&_estack - (uint32_t)&_Min_Stack_Size;
 80015d4:	4a14      	ldr	r2, [pc, #80]	; (8001628 <_sbrk+0x5c>)
 80015d6:	4b15      	ldr	r3, [pc, #84]	; (800162c <_sbrk+0x60>)
 80015d8:	1ad3      	subs	r3, r2, r3
 80015da:	617b      	str	r3, [r7, #20]
  const uint8_t *max_heap = (uint8_t *)stack_limit;
 80015dc:	697b      	ldr	r3, [r7, #20]
 80015de:	613b      	str	r3, [r7, #16]
  uint8_t *prev_heap_end;

  /* Initialize heap end at first call */
  if (NULL == __sbrk_heap_end)
 80015e0:	4b13      	ldr	r3, [pc, #76]	; (8001630 <_sbrk+0x64>)
 80015e2:	681b      	ldr	r3, [r3, #0]
 80015e4:	2b00      	cmp	r3, #0
 80015e6:	d102      	bne.n	80015ee <_sbrk+0x22>
  {
    __sbrk_heap_end = &_end;
 80015e8:	4b11      	ldr	r3, [pc, #68]	; (8001630 <_sbrk+0x64>)
 80015ea:	4a12      	ldr	r2, [pc, #72]	; (8001634 <_sbrk+0x68>)
 80015ec:	601a      	str	r2, [r3, #0]
  }

  /* Protect heap from growing into the reserved MSP stack */
  if (__sbrk_heap_end + incr > max_heap)
 80015ee:	4b10      	ldr	r3, [pc, #64]	; (8001630 <_sbrk+0x64>)
 80015f0:	681a      	ldr	r2, [r3, #0]
 80015f2:	687b      	ldr	r3, [r7, #4]
 80015f4:	4413      	add	r3, r2
 80015f6:	693a      	ldr	r2, [r7, #16]
 80015f8:	429a      	cmp	r2, r3
 80015fa:	d207      	bcs.n	800160c <_sbrk+0x40>
  {
    errno = ENOMEM;
 80015fc:	f002 fc34 	bl	8003e68 <__errno>
 8001600:	4603      	mov	r3, r0
 8001602:	220c      	movs	r2, #12
 8001604:	601a      	str	r2, [r3, #0]
    return (void *)-1;
 8001606:	f04f 33ff 	mov.w	r3, #4294967295	; 0xffffffff
 800160a:	e009      	b.n	8001620 <_sbrk+0x54>
  }

  prev_heap_end = __sbrk_heap_end;
 800160c:	4b08      	ldr	r3, [pc, #32]	; (8001630 <_sbrk+0x64>)
 800160e:	681b      	ldr	r3, [r3, #0]
 8001610:	60fb      	str	r3, [r7, #12]
  __sbrk_heap_end += incr;
 8001612:	4b07      	ldr	r3, [pc, #28]	; (8001630 <_sbrk+0x64>)
 8001614:	681a      	ldr	r2, [r3, #0]
 8001616:	687b      	ldr	r3, [r7, #4]
 8001618:	4413      	add	r3, r2
 800161a:	4a05      	ldr	r2, [pc, #20]	; (8001630 <_sbrk+0x64>)
 800161c:	6013      	str	r3, [r2, #0]

  return (void *)prev_heap_end;
 800161e:	68fb      	ldr	r3, [r7, #12]
}
 8001620:	4618      	mov	r0, r3
 8001622:	3718      	adds	r7, #24
 8001624:	46bd      	mov	sp, r7
 8001626:	bd80      	pop	{r7, pc}
 8001628:	20005000 	.word	0x20005000
 800162c:	00000400 	.word	0x00000400
 8001630:	20000184 	.word	0x20000184
 8001634:	200001a0 	.word	0x200001a0

08001638 <SystemInit>:
  * @note   This function should be used only after reset.
  * @param  None
  * @retval None
  */
void SystemInit (void)
{
 8001638:	b480      	push	{r7}
 800163a:	af00      	add	r7, sp, #0

  /* Configure the Vector Table location -------------------------------------*/
#if defined(USER_VECT_TAB_ADDRESS)
  SCB->VTOR = VECT_TAB_BASE_ADDRESS | VECT_TAB_OFFSET; /* Vector Table Relocation in Internal SRAM. */
#endif /* USER_VECT_TAB_ADDRESS */
}
 800163c:	bf00      	nop
 800163e:	46bd      	mov	sp, r7
 8001640:	bc80      	pop	{r7}
 8001642:	4770      	bx	lr

08001644 <Reset_Handler>:
  .weak Reset_Handler
  .type Reset_Handler, %function
Reset_Handler:

/* Copy the data segment initializers from flash to SRAM */
  ldr r0, =_sdata
 8001644:	480c      	ldr	r0, [pc, #48]	; (8001678 <LoopFillZerobss+0x12>)
  ldr r1, =_edata
 8001646:	490d      	ldr	r1, [pc, #52]	; (800167c <LoopFillZerobss+0x16>)
  ldr r2, =_sidata
 8001648:	4a0d      	ldr	r2, [pc, #52]	; (8001680 <LoopFillZerobss+0x1a>)
  movs r3, #0
 800164a:	2300      	movs	r3, #0
  b LoopCopyDataInit
 800164c:	e002      	b.n	8001654 <LoopCopyDataInit>

0800164e <CopyDataInit>:

CopyDataInit:
  ldr r4, [r2, r3]
 800164e:	58d4      	ldr	r4, [r2, r3]
  str r4, [r0, r3]
 8001650:	50c4      	str	r4, [r0, r3]
  adds r3, r3, #4
 8001652:	3304      	adds	r3, #4

08001654 <LoopCopyDataInit>:

LoopCopyDataInit:
  adds r4, r0, r3
 8001654:	18c4      	adds	r4, r0, r3
  cmp r4, r1
 8001656:	428c      	cmp	r4, r1
  bcc CopyDataInit
 8001658:	d3f9      	bcc.n	800164e <CopyDataInit>
  
/* Zero fill the bss segment. */
  ldr r2, =_sbss
 800165a:	4a0a      	ldr	r2, [pc, #40]	; (8001684 <LoopFillZerobss+0x1e>)
  ldr r4, =_ebss
 800165c:	4c0a      	ldr	r4, [pc, #40]	; (8001688 <LoopFillZerobss+0x22>)
  movs r3, #0
 800165e:	2300      	movs	r3, #0
  b LoopFillZerobss
 8001660:	e001      	b.n	8001666 <LoopFillZerobss>

08001662 <FillZerobss>:

FillZerobss:
  str  r3, [r2]
 8001662:	6013      	str	r3, [r2, #0]
  adds r2, r2, #4
 8001664:	3204      	adds	r2, #4

08001666 <LoopFillZerobss>:

LoopFillZerobss:
  cmp r2, r4
 8001666:	42a2      	cmp	r2, r4
  bcc FillZerobss
 8001668:	d3fb      	bcc.n	8001662 <FillZerobss>

/* Call the clock system intitialization function.*/
    bl  SystemInit
 800166a:	f7ff ffe5 	bl	8001638 <SystemInit>
/* Call static constructors */
    bl __libc_init_array
 800166e:	f002 fc01 	bl	8003e74 <__libc_init_array>
/* Call the application's entry point.*/
  bl main
 8001672:	f7fe ffc1 	bl	80005f8 <main>
  bx lr
 8001676:	4770      	bx	lr
  ldr r0, =_sdata
 8001678:	20000000 	.word	0x20000000
  ldr r1, =_edata
 800167c:	200000d0 	.word	0x200000d0
  ldr r2, =_sidata
 8001680:	080045ec 	.word	0x080045ec
  ldr r2, =_sbss
 8001684:	200000d0 	.word	0x200000d0
  ldr r4, =_ebss
 8001688:	2000019c 	.word	0x2000019c

0800168c <ADC1_2_IRQHandler>:
 * @retval : None
*/
    .section .text.Default_Handler,"ax",%progbits
Default_Handler:
Infinite_Loop:
  b Infinite_Loop
 800168c:	e7fe      	b.n	800168c <ADC1_2_IRQHandler>
	...

08001690 <HAL_Init>:
  *         need to ensure that the SysTick time base is always set to 1 millisecond
  *         to have correct HAL operation.
  * @retval HAL status
  */
HAL_StatusTypeDef HAL_Init(void)
{
 8001690:	b580      	push	{r7, lr}
 8001692:	af00      	add	r7, sp, #0
    defined(STM32F102x6) || defined(STM32F102xB) || \
    defined(STM32F103x6) || defined(STM32F103xB) || defined(STM32F103xE) || defined(STM32F103xG) || \
    defined(STM32F105xC) || defined(STM32F107xC)

  /* Prefetch buffer is not available on value line devices */
  __HAL_FLASH_PREFETCH_BUFFER_ENABLE();
 8001694:	4b08      	ldr	r3, [pc, #32]	; (80016b8 <HAL_Init+0x28>)
 8001696:	681b      	ldr	r3, [r3, #0]
 8001698:	4a07      	ldr	r2, [pc, #28]	; (80016b8 <HAL_Init+0x28>)
 800169a:	f043 0310 	orr.w	r3, r3, #16
 800169e:	6013      	str	r3, [r2, #0]
#endif
#endif /* PREFETCH_ENABLE */

  /* Set Interrupt Group Priority */
  HAL_NVIC_SetPriorityGrouping(NVIC_PRIORITYGROUP_4);
 80016a0:	2003      	movs	r0, #3
 80016a2:	f000 f947 	bl	8001934 <HAL_NVIC_SetPriorityGrouping>

  /* Use systick as time base source and configure 1ms tick (default clock after Reset is HSI) */
  HAL_InitTick(TICK_INT_PRIORITY);
 80016a6:	200f      	movs	r0, #15
 80016a8:	f000 f808 	bl	80016bc <HAL_InitTick>

  /* Init the low level hardware */
  HAL_MspInit();
 80016ac:	f7ff fe96 	bl	80013dc <HAL_MspInit>

  /* Return function status */
  return HAL_OK;
 80016b0:	2300      	movs	r3, #0
}
 80016b2:	4618      	mov	r0, r3
 80016b4:	bd80      	pop	{r7, pc}
 80016b6:	bf00      	nop
 80016b8:	40022000 	.word	0x40022000

080016bc <HAL_InitTick>:
  *       implementation  in user file.
  * @param TickPriority Tick interrupt priority.
  * @retval HAL status
  */
__weak HAL_StatusTypeDef HAL_InitTick(uint32_t TickPriority)
{
 80016bc:	b580      	push	{r7, lr}
 80016be:	b082      	sub	sp, #8
 80016c0:	af00      	add	r7, sp, #0
 80016c2:	6078      	str	r0, [r7, #4]
  /* Configure the SysTick to have interrupt in 1ms time basis*/
  if (HAL_SYSTICK_Config(SystemCoreClock / (1000U / uwTickFreq)) > 0U)
 80016c4:	4b12      	ldr	r3, [pc, #72]	; (8001710 <HAL_InitTick+0x54>)
 80016c6:	681a      	ldr	r2, [r3, #0]
 80016c8:	4b12      	ldr	r3, [pc, #72]	; (8001714 <HAL_InitTick+0x58>)
 80016ca:	781b      	ldrb	r3, [r3, #0]
 80016cc:	4619      	mov	r1, r3
 80016ce:	f44f 737a 	mov.w	r3, #1000	; 0x3e8
 80016d2:	fbb3 f3f1 	udiv	r3, r3, r1
 80016d6:	fbb2 f3f3 	udiv	r3, r2, r3
 80016da:	4618      	mov	r0, r3
 80016dc:	f000 f95f 	bl	800199e <HAL_SYSTICK_Config>
 80016e0:	4603      	mov	r3, r0
 80016e2:	2b00      	cmp	r3, #0
 80016e4:	d001      	beq.n	80016ea <HAL_InitTick+0x2e>
  {
    return HAL_ERROR;
 80016e6:	2301      	movs	r3, #1
 80016e8:	e00e      	b.n	8001708 <HAL_InitTick+0x4c>
  }

  /* Configure the SysTick IRQ priority */
  if (TickPriority < (1UL << __NVIC_PRIO_BITS))
 80016ea:	687b      	ldr	r3, [r7, #4]
 80016ec:	2b0f      	cmp	r3, #15
 80016ee:	d80a      	bhi.n	8001706 <HAL_InitTick+0x4a>
  {
    HAL_NVIC_SetPriority(SysTick_IRQn, TickPriority, 0U);
 80016f0:	2200      	movs	r2, #0
 80016f2:	6879      	ldr	r1, [r7, #4]
 80016f4:	f04f 30ff 	mov.w	r0, #4294967295	; 0xffffffff
 80016f8:	f000 f927 	bl	800194a <HAL_NVIC_SetPriority>
    uwTickPrio = TickPriority;
 80016fc:	4a06      	ldr	r2, [pc, #24]	; (8001718 <HAL_InitTick+0x5c>)
 80016fe:	687b      	ldr	r3, [r7, #4]
 8001700:	6013      	str	r3, [r2, #0]
  {
    return HAL_ERROR;
  }

  /* Return function status */
  return HAL_OK;
 8001702:	2300      	movs	r3, #0
 8001704:	e000      	b.n	8001708 <HAL_InitTick+0x4c>
    return HAL_ERROR;
 8001706:	2301      	movs	r3, #1
}
 8001708:	4618      	mov	r0, r3
 800170a:	3708      	adds	r7, #8
 800170c:	46bd      	mov	sp, r7
 800170e:	bd80      	pop	{r7, pc}
 8001710:	20000060 	.word	0x20000060
 8001714:	20000068 	.word	0x20000068
 8001718:	20000064 	.word	0x20000064

0800171c <HAL_IncTick>:
  * @note This function is declared as __weak to be overwritten in case of other
  *      implementations in user file.
  * @retval None
  */
__weak void HAL_IncTick(void)
{
 800171c:	b480      	push	{r7}
 800171e:	af00      	add	r7, sp, #0
  uwTick += uwTickFreq;
 8001720:	4b05      	ldr	r3, [pc, #20]	; (8001738 <HAL_IncTick+0x1c>)
 8001722:	781b      	ldrb	r3, [r3, #0]
 8001724:	461a      	mov	r2, r3
 8001726:	4b05      	ldr	r3, [pc, #20]	; (800173c <HAL_IncTick+0x20>)
 8001728:	681b      	ldr	r3, [r3, #0]
 800172a:	4413      	add	r3, r2
 800172c:	4a03      	ldr	r2, [pc, #12]	; (800173c <HAL_IncTick+0x20>)
 800172e:	6013      	str	r3, [r2, #0]
}
 8001730:	bf00      	nop
 8001732:	46bd      	mov	sp, r7
 8001734:	bc80      	pop	{r7}
 8001736:	4770      	bx	lr
 8001738:	20000068 	.word	0x20000068
 800173c:	20000188 	.word	0x20000188

08001740 <HAL_GetTick>:
  * @note  This function is declared as __weak to be overwritten in case of other
  *       implementations in user file.
  * @retval tick value
  */
__weak uint32_t HAL_GetTick(void)
{
 8001740:	b480      	push	{r7}
 8001742:	af00      	add	r7, sp, #0
  return uwTick;
 8001744:	4b02      	ldr	r3, [pc, #8]	; (8001750 <HAL_GetTick+0x10>)
 8001746:	681b      	ldr	r3, [r3, #0]
}
 8001748:	4618      	mov	r0, r3
 800174a:	46bd      	mov	sp, r7
 800174c:	bc80      	pop	{r7}
 800174e:	4770      	bx	lr
 8001750:	20000188 	.word	0x20000188

08001754 <HAL_Delay>:
  *       implementations in user file.
  * @param Delay specifies the delay time length, in milliseconds.
  * @retval None
  */
__weak void HAL_Delay(uint32_t Delay)
{
 8001754:	b580      	push	{r7, lr}
 8001756:	b084      	sub	sp, #16
 8001758:	af00      	add	r7, sp, #0
 800175a:	6078      	str	r0, [r7, #4]
  uint32_t tickstart = HAL_GetTick();
 800175c:	f7ff fff0 	bl	8001740 <HAL_GetTick>
 8001760:	60b8      	str	r0, [r7, #8]
  uint32_t wait = Delay;
 8001762:	687b      	ldr	r3, [r7, #4]
 8001764:	60fb      	str	r3, [r7, #12]

  /* Add a freq to guarantee minimum wait */
  if (wait < HAL_MAX_DELAY)
 8001766:	68fb      	ldr	r3, [r7, #12]
 8001768:	f1b3 3fff 	cmp.w	r3, #4294967295	; 0xffffffff
 800176c:	d005      	beq.n	800177a <HAL_Delay+0x26>
  {
    wait += (uint32_t)(uwTickFreq);
 800176e:	4b0a      	ldr	r3, [pc, #40]	; (8001798 <HAL_Delay+0x44>)
 8001770:	781b      	ldrb	r3, [r3, #0]
 8001772:	461a      	mov	r2, r3
 8001774:	68fb      	ldr	r3, [r7, #12]
 8001776:	4413      	add	r3, r2
 8001778:	60fb      	str	r3, [r7, #12]
  }

  while ((HAL_GetTick() - tickstart) < wait)
 800177a:	bf00      	nop
 800177c:	f7ff ffe0 	bl	8001740 <HAL_GetTick>
 8001780:	4602      	mov	r2, r0
 8001782:	68bb      	ldr	r3, [r7, #8]
 8001784:	1ad3      	subs	r3, r2, r3
 8001786:	68fa      	ldr	r2, [r7, #12]
 8001788:	429a      	cmp	r2, r3
 800178a:	d8f7      	bhi.n	800177c <HAL_Delay+0x28>
  {
  }
}
 800178c:	bf00      	nop
 800178e:	bf00      	nop
 8001790:	3710      	adds	r7, #16
 8001792:	46bd      	mov	sp, r7
 8001794:	bd80      	pop	{r7, pc}
 8001796:	bf00      	nop
 8001798:	20000068 	.word	0x20000068

0800179c <__NVIC_SetPriorityGrouping>:
           In case of a conflict between priority grouping and available
           priority bits (__NVIC_PRIO_BITS), the smallest possible priority group is set.
  \param [in]      PriorityGroup  Priority grouping field.
 */
__STATIC_INLINE void __NVIC_SetPriorityGrouping(uint32_t PriorityGroup)
{
 800179c:	b480      	push	{r7}
 800179e:	b085      	sub	sp, #20
 80017a0:	af00      	add	r7, sp, #0
 80017a2:	6078      	str	r0, [r7, #4]
  uint32_t reg_value;
  uint32_t PriorityGroupTmp = (PriorityGroup & (uint32_t)0x07UL);             /* only values 0..7 are used          */
 80017a4:	687b      	ldr	r3, [r7, #4]
 80017a6:	f003 0307 	and.w	r3, r3, #7
 80017aa:	60fb      	str	r3, [r7, #12]

  reg_value  =  SCB->AIRCR;                                                   /* read old register configuration    */
 80017ac:	4b0c      	ldr	r3, [pc, #48]	; (80017e0 <__NVIC_SetPriorityGrouping+0x44>)
 80017ae:	68db      	ldr	r3, [r3, #12]
 80017b0:	60bb      	str	r3, [r7, #8]
  reg_value &= ~((uint32_t)(SCB_AIRCR_VECTKEY_Msk | SCB_AIRCR_PRIGROUP_Msk)); /* clear bits to change               */
 80017b2:	68ba      	ldr	r2, [r7, #8]
 80017b4:	f64f 03ff 	movw	r3, #63743	; 0xf8ff
 80017b8:	4013      	ands	r3, r2
 80017ba:	60bb      	str	r3, [r7, #8]
  reg_value  =  (reg_value                                   |
                ((uint32_t)0x5FAUL << SCB_AIRCR_VECTKEY_Pos) |
                (PriorityGroupTmp << SCB_AIRCR_PRIGROUP_Pos) );               /* Insert write key and priority group */
 80017bc:	68fb      	ldr	r3, [r7, #12]
 80017be:	021a      	lsls	r2, r3, #8
                ((uint32_t)0x5FAUL << SCB_AIRCR_VECTKEY_Pos) |
 80017c0:	68bb      	ldr	r3, [r7, #8]
 80017c2:	4313      	orrs	r3, r2
  reg_value  =  (reg_value                                   |
 80017c4:	f043 63bf 	orr.w	r3, r3, #100139008	; 0x5f80000
 80017c8:	f443 3300 	orr.w	r3, r3, #131072	; 0x20000
 80017cc:	60bb      	str	r3, [r7, #8]
  SCB->AIRCR =  reg_value;
 80017ce:	4a04      	ldr	r2, [pc, #16]	; (80017e0 <__NVIC_SetPriorityGrouping+0x44>)
 80017d0:	68bb      	ldr	r3, [r7, #8]
 80017d2:	60d3      	str	r3, [r2, #12]
}
 80017d4:	bf00      	nop
 80017d6:	3714      	adds	r7, #20
 80017d8:	46bd      	mov	sp, r7
 80017da:	bc80      	pop	{r7}
 80017dc:	4770      	bx	lr
 80017de:	bf00      	nop
 80017e0:	e000ed00 	.word	0xe000ed00

080017e4 <__NVIC_GetPriorityGrouping>:
  \brief   Get Priority Grouping
  \details Reads the priority grouping field from the NVIC Interrupt Controller.
  \return                Priority grouping field (SCB->AIRCR [10:8] PRIGROUP field).
 */
__STATIC_INLINE uint32_t __NVIC_GetPriorityGrouping(void)
{
 80017e4:	b480      	push	{r7}
 80017e6:	af00      	add	r7, sp, #0
  return ((uint32_t)((SCB->AIRCR & SCB_AIRCR_PRIGROUP_Msk) >> SCB_AIRCR_PRIGROUP_Pos));
 80017e8:	4b04      	ldr	r3, [pc, #16]	; (80017fc <__NVIC_GetPriorityGrouping+0x18>)
 80017ea:	68db      	ldr	r3, [r3, #12]
 80017ec:	0a1b      	lsrs	r3, r3, #8
 80017ee:	f003 0307 	and.w	r3, r3, #7
}
 80017f2:	4618      	mov	r0, r3
 80017f4:	46bd      	mov	sp, r7
 80017f6:	bc80      	pop	{r7}
 80017f8:	4770      	bx	lr
 80017fa:	bf00      	nop
 80017fc:	e000ed00 	.word	0xe000ed00

08001800 <__NVIC_EnableIRQ>:
  \details Enables a device specific interrupt in the NVIC interrupt controller.
  \param [in]      IRQn  Device specific interrupt number.
  \note    IRQn must not be negative.
 */
__STATIC_INLINE void __NVIC_EnableIRQ(IRQn_Type IRQn)
{
 8001800:	b480      	push	{r7}
 8001802:	b083      	sub	sp, #12
 8001804:	af00      	add	r7, sp, #0
 8001806:	4603      	mov	r3, r0
 8001808:	71fb      	strb	r3, [r7, #7]
  if ((int32_t)(IRQn) >= 0)
 800180a:	f997 3007 	ldrsb.w	r3, [r7, #7]
 800180e:	2b00      	cmp	r3, #0
 8001810:	db0b      	blt.n	800182a <__NVIC_EnableIRQ+0x2a>
  {
    NVIC->ISER[(((uint32_t)IRQn) >> 5UL)] = (uint32_t)(1UL << (((uint32_t)IRQn) & 0x1FUL));
 8001812:	79fb      	ldrb	r3, [r7, #7]
 8001814:	f003 021f 	and.w	r2, r3, #31
 8001818:	4906      	ldr	r1, [pc, #24]	; (8001834 <__NVIC_EnableIRQ+0x34>)
 800181a:	f997 3007 	ldrsb.w	r3, [r7, #7]
 800181e:	095b      	lsrs	r3, r3, #5
 8001820:	2001      	movs	r0, #1
 8001822:	fa00 f202 	lsl.w	r2, r0, r2
 8001826:	f841 2023 	str.w	r2, [r1, r3, lsl #2]
  }
}
 800182a:	bf00      	nop
 800182c:	370c      	adds	r7, #12
 800182e:	46bd      	mov	sp, r7
 8001830:	bc80      	pop	{r7}
 8001832:	4770      	bx	lr
 8001834:	e000e100 	.word	0xe000e100

08001838 <__NVIC_SetPriority>:
  \param [in]      IRQn  Interrupt number.
  \param [in]  priority  Priority to set.
  \note    The priority cannot be set for every processor exception.
 */
__STATIC_INLINE void __NVIC_SetPriority(IRQn_Type IRQn, uint32_t priority)
{
 8001838:	b480      	push	{r7}
 800183a:	b083      	sub	sp, #12
 800183c:	af00      	add	r7, sp, #0
 800183e:	4603      	mov	r3, r0
 8001840:	6039      	str	r1, [r7, #0]
 8001842:	71fb      	strb	r3, [r7, #7]
  if ((int32_t)(IRQn) >= 0)
 8001844:	f997 3007 	ldrsb.w	r3, [r7, #7]
 8001848:	2b00      	cmp	r3, #0
 800184a:	db0a      	blt.n	8001862 <__NVIC_SetPriority+0x2a>
  {
    NVIC->IP[((uint32_t)IRQn)]               = (uint8_t)((priority << (8U - __NVIC_PRIO_BITS)) & (uint32_t)0xFFUL);
 800184c:	683b      	ldr	r3, [r7, #0]
 800184e:	b2da      	uxtb	r2, r3
 8001850:	490c      	ldr	r1, [pc, #48]	; (8001884 <__NVIC_SetPriority+0x4c>)
 8001852:	f997 3007 	ldrsb.w	r3, [r7, #7]
 8001856:	0112      	lsls	r2, r2, #4
 8001858:	b2d2      	uxtb	r2, r2
 800185a:	440b      	add	r3, r1
 800185c:	f883 2300 	strb.w	r2, [r3, #768]	; 0x300
  }
  else
  {
    SCB->SHP[(((uint32_t)IRQn) & 0xFUL)-4UL] = (uint8_t)((priority << (8U - __NVIC_PRIO_BITS)) & (uint32_t)0xFFUL);
  }
}
 8001860:	e00a      	b.n	8001878 <__NVIC_SetPriority+0x40>
    SCB->SHP[(((uint32_t)IRQn) & 0xFUL)-4UL] = (uint8_t)((priority << (8U - __NVIC_PRIO_BITS)) & (uint32_t)0xFFUL);
 8001862:	683b      	ldr	r3, [r7, #0]
 8001864:	b2da      	uxtb	r2, r3
 8001866:	4908      	ldr	r1, [pc, #32]	; (8001888 <__NVIC_SetPriority+0x50>)
 8001868:	79fb      	ldrb	r3, [r7, #7]
 800186a:	f003 030f 	and.w	r3, r3, #15
 800186e:	3b04      	subs	r3, #4
 8001870:	0112      	lsls	r2, r2, #4
 8001872:	b2d2      	uxtb	r2, r2
 8001874:	440b      	add	r3, r1
 8001876:	761a      	strb	r2, [r3, #24]
}
 8001878:	bf00      	nop
 800187a:	370c      	adds	r7, #12
 800187c:	46bd      	mov	sp, r7
 800187e:	bc80      	pop	{r7}
 8001880:	4770      	bx	lr
 8001882:	bf00      	nop
 8001884:	e000e100 	.word	0xe000e100
 8001888:	e000ed00 	.word	0xe000ed00

0800188c <NVIC_EncodePriority>:
  \param [in]   PreemptPriority  Preemptive priority value (starting from 0).
  \param [in]       SubPriority  Subpriority value (starting from 0).
  \return                        Encoded priority. Value can be used in the function \ref NVIC_SetPriority().
 */
__STATIC_INLINE uint32_t NVIC_EncodePriority (uint32_t PriorityGroup, uint32_t PreemptPriority, uint32_t SubPriority)
{
 800188c:	b480      	push	{r7}
 800188e:	b089      	sub	sp, #36	; 0x24
 8001890:	af00      	add	r7, sp, #0
 8001892:	60f8      	str	r0, [r7, #12]
 8001894:	60b9      	str	r1, [r7, #8]
 8001896:	607a      	str	r2, [r7, #4]
  uint32_t PriorityGroupTmp = (PriorityGroup & (uint32_t)0x07UL);   /* only values 0..7 are used          */
 8001898:	68fb      	ldr	r3, [r7, #12]
 800189a:	f003 0307 	and.w	r3, r3, #7
 800189e:	61fb      	str	r3, [r7, #28]
  uint32_t PreemptPriorityBits;
  uint32_t SubPriorityBits;

  PreemptPriorityBits = ((7UL - PriorityGroupTmp) > (uint32_t)(__NVIC_PRIO_BITS)) ? (uint32_t)(__NVIC_PRIO_BITS) : (uint32_t)(7UL - PriorityGroupTmp);
 80018a0:	69fb      	ldr	r3, [r7, #28]
 80018a2:	f1c3 0307 	rsb	r3, r3, #7
 80018a6:	2b04      	cmp	r3, #4
 80018a8:	bf28      	it	cs
 80018aa:	2304      	movcs	r3, #4
 80018ac:	61bb      	str	r3, [r7, #24]
  SubPriorityBits     = ((PriorityGroupTmp + (uint32_t)(__NVIC_PRIO_BITS)) < (uint32_t)7UL) ? (uint32_t)0UL : (uint32_t)((PriorityGroupTmp - 7UL) + (uint32_t)(__NVIC_PRIO_BITS));
 80018ae:	69fb      	ldr	r3, [r7, #28]
 80018b0:	3304      	adds	r3, #4
 80018b2:	2b06      	cmp	r3, #6
 80018b4:	d902      	bls.n	80018bc <NVIC_EncodePriority+0x30>
 80018b6:	69fb      	ldr	r3, [r7, #28]
 80018b8:	3b03      	subs	r3, #3
 80018ba:	e000      	b.n	80018be <NVIC_EncodePriority+0x32>
 80018bc:	2300      	movs	r3, #0
 80018be:	617b      	str	r3, [r7, #20]

  return (
           ((PreemptPriority & (uint32_t)((1UL << (PreemptPriorityBits)) - 1UL)) << SubPriorityBits) |
 80018c0:	f04f 32ff 	mov.w	r2, #4294967295	; 0xffffffff
 80018c4:	69bb      	ldr	r3, [r7, #24]
 80018c6:	fa02 f303 	lsl.w	r3, r2, r3
 80018ca:	43da      	mvns	r2, r3
 80018cc:	68bb      	ldr	r3, [r7, #8]
 80018ce:	401a      	ands	r2, r3
 80018d0:	697b      	ldr	r3, [r7, #20]
 80018d2:	409a      	lsls	r2, r3
           ((SubPriority     & (uint32_t)((1UL << (SubPriorityBits    )) - 1UL)))
 80018d4:	f04f 31ff 	mov.w	r1, #4294967295	; 0xffffffff
 80018d8:	697b      	ldr	r3, [r7, #20]
 80018da:	fa01 f303 	lsl.w	r3, r1, r3
 80018de:	43d9      	mvns	r1, r3
 80018e0:	687b      	ldr	r3, [r7, #4]
 80018e2:	400b      	ands	r3, r1
           ((PreemptPriority & (uint32_t)((1UL << (PreemptPriorityBits)) - 1UL)) << SubPriorityBits) |
 80018e4:	4313      	orrs	r3, r2
         );
}
 80018e6:	4618      	mov	r0, r3
 80018e8:	3724      	adds	r7, #36	; 0x24
 80018ea:	46bd      	mov	sp, r7
 80018ec:	bc80      	pop	{r7}
 80018ee:	4770      	bx	lr

080018f0 <SysTick_Config>:
  \note    When the variable <b>__Vendor_SysTickConfig</b> is set to 1, then the
           function <b>SysTick_Config</b> is not included. In this case, the file <b><i>device</i>.h</b>
           must contain a vendor-specific implementation of this function.
 */
__STATIC_INLINE uint32_t SysTick_Config(uint32_t ticks)
{
 80018f0:	b580      	push	{r7, lr}
 80018f2:	b082      	sub	sp, #8
 80018f4:	af00      	add	r7, sp, #0
 80018f6:	6078      	str	r0, [r7, #4]
  if ((ticks - 1UL) > SysTick_LOAD_RELOAD_Msk)
 80018f8:	687b      	ldr	r3, [r7, #4]
 80018fa:	3b01      	subs	r3, #1
 80018fc:	f1b3 7f80 	cmp.w	r3, #16777216	; 0x1000000
 8001900:	d301      	bcc.n	8001906 <SysTick_Config+0x16>
  {
    return (1UL);                                                   /* Reload value impossible */
 8001902:	2301      	movs	r3, #1
 8001904:	e00f      	b.n	8001926 <SysTick_Config+0x36>
  }

  SysTick->LOAD  = (uint32_t)(ticks - 1UL);                         /* set reload register */
 8001906:	4a0a      	ldr	r2, [pc, #40]	; (8001930 <SysTick_Config+0x40>)
 8001908:	687b      	ldr	r3, [r7, #4]
 800190a:	3b01      	subs	r3, #1
 800190c:	6053      	str	r3, [r2, #4]
  NVIC_SetPriority (SysTick_IRQn, (1UL << __NVIC_PRIO_BITS) - 1UL); /* set Priority for Systick Interrupt */
 800190e:	210f      	movs	r1, #15
 8001910:	f04f 30ff 	mov.w	r0, #4294967295	; 0xffffffff
 8001914:	f7ff ff90 	bl	8001838 <__NVIC_SetPriority>
  SysTick->VAL   = 0UL;                                             /* Load the SysTick Counter Value */
 8001918:	4b05      	ldr	r3, [pc, #20]	; (8001930 <SysTick_Config+0x40>)
 800191a:	2200      	movs	r2, #0
 800191c:	609a      	str	r2, [r3, #8]
  SysTick->CTRL  = SysTick_CTRL_CLKSOURCE_Msk |
 800191e:	4b04      	ldr	r3, [pc, #16]	; (8001930 <SysTick_Config+0x40>)
 8001920:	2207      	movs	r2, #7
 8001922:	601a      	str	r2, [r3, #0]
                   SysTick_CTRL_TICKINT_Msk   |
                   SysTick_CTRL_ENABLE_Msk;                         /* Enable SysTick IRQ and SysTick Timer */
  return (0UL);                                                     /* Function successful */
 8001924:	2300      	movs	r3, #0
}
 8001926:	4618      	mov	r0, r3
 8001928:	3708      	adds	r7, #8
 800192a:	46bd      	mov	sp, r7
 800192c:	bd80      	pop	{r7, pc}
 800192e:	bf00      	nop
 8001930:	e000e010 	.word	0xe000e010

08001934 <HAL_NVIC_SetPriorityGrouping>:
  * @note   When the NVIC_PriorityGroup_0 is selected, IRQ preemption is no more possible. 
  *         The pending IRQ priority will be managed only by the subpriority. 
  * @retval None
  */
void HAL_NVIC_SetPriorityGrouping(uint32_t PriorityGroup)
{
 8001934:	b580      	push	{r7, lr}
 8001936:	b082      	sub	sp, #8
 8001938:	af00      	add	r7, sp, #0
 800193a:	6078      	str	r0, [r7, #4]
  /* Check the parameters */
  assert_param(IS_NVIC_PRIORITY_GROUP(PriorityGroup));
  
  /* Set the PRIGROUP[10:8] bits according to the PriorityGroup parameter value */
  NVIC_SetPriorityGrouping(PriorityGroup);
 800193c:	6878      	ldr	r0, [r7, #4]
 800193e:	f7ff ff2d 	bl	800179c <__NVIC_SetPriorityGrouping>
}
 8001942:	bf00      	nop
 8001944:	3708      	adds	r7, #8
 8001946:	46bd      	mov	sp, r7
 8001948:	bd80      	pop	{r7, pc}

0800194a <HAL_NVIC_SetPriority>:
  *         This parameter can be a value between 0 and 15
  *         A lower priority value indicates a higher priority.          
  * @retval None
  */
void HAL_NVIC_SetPriority(IRQn_Type IRQn, uint32_t PreemptPriority, uint32_t SubPriority)
{ 
 800194a:	b580      	push	{r7, lr}
 800194c:	b086      	sub	sp, #24
 800194e:	af00      	add	r7, sp, #0
 8001950:	4603      	mov	r3, r0
 8001952:	60b9      	str	r1, [r7, #8]
 8001954:	607a      	str	r2, [r7, #4]
 8001956:	73fb      	strb	r3, [r7, #15]
  uint32_t prioritygroup = 0x00U;
 8001958:	2300      	movs	r3, #0
 800195a:	617b      	str	r3, [r7, #20]
  
  /* Check the parameters */
  assert_param(IS_NVIC_SUB_PRIORITY(SubPriority));
  assert_param(IS_NVIC_PREEMPTION_PRIORITY(PreemptPriority));
  
  prioritygroup = NVIC_GetPriorityGrouping();
 800195c:	f7ff ff42 	bl	80017e4 <__NVIC_GetPriorityGrouping>
 8001960:	6178      	str	r0, [r7, #20]
  
  NVIC_SetPriority(IRQn, NVIC_EncodePriority(prioritygroup, PreemptPriority, SubPriority));
 8001962:	687a      	ldr	r2, [r7, #4]
 8001964:	68b9      	ldr	r1, [r7, #8]
 8001966:	6978      	ldr	r0, [r7, #20]
 8001968:	f7ff ff90 	bl	800188c <NVIC_EncodePriority>
 800196c:	4602      	mov	r2, r0
 800196e:	f997 300f 	ldrsb.w	r3, [r7, #15]
 8001972:	4611      	mov	r1, r2
 8001974:	4618      	mov	r0, r3
 8001976:	f7ff ff5f 	bl	8001838 <__NVIC_SetPriority>
}
 800197a:	bf00      	nop
 800197c:	3718      	adds	r7, #24
 800197e:	46bd      	mov	sp, r7
 8001980:	bd80      	pop	{r7, pc}

08001982 <HAL_NVIC_EnableIRQ>:
  *         This parameter can be an enumerator of IRQn_Type enumeration
  *         (For the complete STM32 Devices IRQ Channels list, please refer to the appropriate CMSIS device file (stm32f10xxx.h))
  * @retval None
  */
void HAL_NVIC_EnableIRQ(IRQn_Type IRQn)
{
 8001982:	b580      	push	{r7, lr}
 8001984:	b082      	sub	sp, #8
 8001986:	af00      	add	r7, sp, #0
 8001988:	4603      	mov	r3, r0
 800198a:	71fb      	strb	r3, [r7, #7]
  /* Check the parameters */
  assert_param(IS_NVIC_DEVICE_IRQ(IRQn));

  /* Enable interrupt */
  NVIC_EnableIRQ(IRQn);
 800198c:	f997 3007 	ldrsb.w	r3, [r7, #7]
 8001990:	4618      	mov	r0, r3
 8001992:	f7ff ff35 	bl	8001800 <__NVIC_EnableIRQ>
}
 8001996:	bf00      	nop
 8001998:	3708      	adds	r7, #8
 800199a:	46bd      	mov	sp, r7
 800199c:	bd80      	pop	{r7, pc}

0800199e <HAL_SYSTICK_Config>:
  * @param  TicksNumb: Specifies the ticks Number of ticks between two interrupts.
  * @retval status:  - 0  Function succeeded.
  *                  - 1  Function failed.
  */
uint32_t HAL_SYSTICK_Config(uint32_t TicksNumb)
{
 800199e:	b580      	push	{r7, lr}
 80019a0:	b082      	sub	sp, #8
 80019a2:	af00      	add	r7, sp, #0
 80019a4:	6078      	str	r0, [r7, #4]
   return SysTick_Config(TicksNumb);
 80019a6:	6878      	ldr	r0, [r7, #4]
 80019a8:	f7ff ffa2 	bl	80018f0 <SysTick_Config>
 80019ac:	4603      	mov	r3, r0
}
 80019ae:	4618      	mov	r0, r3
 80019b0:	3708      	adds	r7, #8
 80019b2:	46bd      	mov	sp, r7
 80019b4:	bd80      	pop	{r7, pc}
	...

080019b8 <HAL_DMA_Abort_IT>:
  * @param  hdma  : pointer to a DMA_HandleTypeDef structure that contains
  *                 the configuration information for the specified DMA Channel.
  * @retval HAL status
  */
HAL_StatusTypeDef HAL_DMA_Abort_IT(DMA_HandleTypeDef *hdma)
{  
 80019b8:	b580      	push	{r7, lr}
 80019ba:	b084      	sub	sp, #16
 80019bc:	af00      	add	r7, sp, #0
 80019be:	6078      	str	r0, [r7, #4]
  HAL_StatusTypeDef status = HAL_OK;
 80019c0:	2300      	movs	r3, #0
 80019c2:	73fb      	strb	r3, [r7, #15]
  
  if(HAL_DMA_STATE_BUSY != hdma->State)
 80019c4:	687b      	ldr	r3, [r7, #4]
 80019c6:	f893 3021 	ldrb.w	r3, [r3, #33]	; 0x21
 80019ca:	2b02      	cmp	r3, #2
 80019cc:	d005      	beq.n	80019da <HAL_DMA_Abort_IT+0x22>
  {
    /* no transfer ongoing */
    hdma->ErrorCode = HAL_DMA_ERROR_NO_XFER;
 80019ce:	687b      	ldr	r3, [r7, #4]
 80019d0:	2204      	movs	r2, #4
 80019d2:	639a      	str	r2, [r3, #56]	; 0x38
        
    status = HAL_ERROR;
 80019d4:	2301      	movs	r3, #1
 80019d6:	73fb      	strb	r3, [r7, #15]
 80019d8:	e051      	b.n	8001a7e <HAL_DMA_Abort_IT+0xc6>
  }
  else
  { 
    /* Disable DMA IT */
    __HAL_DMA_DISABLE_IT(hdma, (DMA_IT_TC | DMA_IT_HT | DMA_IT_TE));
 80019da:	687b      	ldr	r3, [r7, #4]
 80019dc:	681b      	ldr	r3, [r3, #0]
 80019de:	681a      	ldr	r2, [r3, #0]
 80019e0:	687b      	ldr	r3, [r7, #4]
 80019e2:	681b      	ldr	r3, [r3, #0]
 80019e4:	f022 020e 	bic.w	r2, r2, #14
 80019e8:	601a      	str	r2, [r3, #0]

    /* Disable the channel */
    __HAL_DMA_DISABLE(hdma);
 80019ea:	687b      	ldr	r3, [r7, #4]
 80019ec:	681b      	ldr	r3, [r3, #0]
 80019ee:	681a      	ldr	r2, [r3, #0]
 80019f0:	687b      	ldr	r3, [r7, #4]
 80019f2:	681b      	ldr	r3, [r3, #0]
 80019f4:	f022 0201 	bic.w	r2, r2, #1
 80019f8:	601a      	str	r2, [r3, #0]

    /* Clear all flags */
    __HAL_DMA_CLEAR_FLAG(hdma, __HAL_DMA_GET_GI_FLAG_INDEX(hdma));
 80019fa:	687b      	ldr	r3, [r7, #4]
 80019fc:	681b      	ldr	r3, [r3, #0]
 80019fe:	4a22      	ldr	r2, [pc, #136]	; (8001a88 <HAL_DMA_Abort_IT+0xd0>)
 8001a00:	4293      	cmp	r3, r2
 8001a02:	d029      	beq.n	8001a58 <HAL_DMA_Abort_IT+0xa0>
 8001a04:	687b      	ldr	r3, [r7, #4]
 8001a06:	681b      	ldr	r3, [r3, #0]
 8001a08:	4a20      	ldr	r2, [pc, #128]	; (8001a8c <HAL_DMA_Abort_IT+0xd4>)
 8001a0a:	4293      	cmp	r3, r2
 8001a0c:	d022      	beq.n	8001a54 <HAL_DMA_Abort_IT+0x9c>
 8001a0e:	687b      	ldr	r3, [r7, #4]
 8001a10:	681b      	ldr	r3, [r3, #0]
 8001a12:	4a1f      	ldr	r2, [pc, #124]	; (8001a90 <HAL_DMA_Abort_IT+0xd8>)
 8001a14:	4293      	cmp	r3, r2
 8001a16:	d01a      	beq.n	8001a4e <HAL_DMA_Abort_IT+0x96>
 8001a18:	687b      	ldr	r3, [r7, #4]
 8001a1a:	681b      	ldr	r3, [r3, #0]
 8001a1c:	4a1d      	ldr	r2, [pc, #116]	; (8001a94 <HAL_DMA_Abort_IT+0xdc>)
 8001a1e:	4293      	cmp	r3, r2
 8001a20:	d012      	beq.n	8001a48 <HAL_DMA_Abort_IT+0x90>
 8001a22:	687b      	ldr	r3, [r7, #4]
 8001a24:	681b      	ldr	r3, [r3, #0]
 8001a26:	4a1c      	ldr	r2, [pc, #112]	; (8001a98 <HAL_DMA_Abort_IT+0xe0>)
 8001a28:	4293      	cmp	r3, r2
 8001a2a:	d00a      	beq.n	8001a42 <HAL_DMA_Abort_IT+0x8a>
 8001a2c:	687b      	ldr	r3, [r7, #4]
 8001a2e:	681b      	ldr	r3, [r3, #0]
 8001a30:	4a1a      	ldr	r2, [pc, #104]	; (8001a9c <HAL_DMA_Abort_IT+0xe4>)
 8001a32:	4293      	cmp	r3, r2
 8001a34:	d102      	bne.n	8001a3c <HAL_DMA_Abort_IT+0x84>
 8001a36:	f44f 1380 	mov.w	r3, #1048576	; 0x100000
 8001a3a:	e00e      	b.n	8001a5a <HAL_DMA_Abort_IT+0xa2>
 8001a3c:	f04f 7380 	mov.w	r3, #16777216	; 0x1000000
 8001a40:	e00b      	b.n	8001a5a <HAL_DMA_Abort_IT+0xa2>
 8001a42:	f44f 3380 	mov.w	r3, #65536	; 0x10000
 8001a46:	e008      	b.n	8001a5a <HAL_DMA_Abort_IT+0xa2>
 8001a48:	f44f 5380 	mov.w	r3, #4096	; 0x1000
 8001a4c:	e005      	b.n	8001a5a <HAL_DMA_Abort_IT+0xa2>
 8001a4e:	f44f 7380 	mov.w	r3, #256	; 0x100
 8001a52:	e002      	b.n	8001a5a <HAL_DMA_Abort_IT+0xa2>
 8001a54:	2310      	movs	r3, #16
 8001a56:	e000      	b.n	8001a5a <HAL_DMA_Abort_IT+0xa2>
 8001a58:	2301      	movs	r3, #1
 8001a5a:	4a11      	ldr	r2, [pc, #68]	; (8001aa0 <HAL_DMA_Abort_IT+0xe8>)
 8001a5c:	6053      	str	r3, [r2, #4]

    /* Change the DMA state */
    hdma->State = HAL_DMA_STATE_READY;
 8001a5e:	687b      	ldr	r3, [r7, #4]
 8001a60:	2201      	movs	r2, #1
 8001a62:	f883 2021 	strb.w	r2, [r3, #33]	; 0x21

    /* Process Unlocked */
    __HAL_UNLOCK(hdma);
 8001a66:	687b      	ldr	r3, [r7, #4]
 8001a68:	2200      	movs	r2, #0
 8001a6a:	f883 2020 	strb.w	r2, [r3, #32]

    /* Call User Abort callback */
    if(hdma->XferAbortCallback != NULL)
 8001a6e:	687b      	ldr	r3, [r7, #4]
 8001a70:	6b5b      	ldr	r3, [r3, #52]	; 0x34
 8001a72:	2b00      	cmp	r3, #0
 8001a74:	d003      	beq.n	8001a7e <HAL_DMA_Abort_IT+0xc6>
    {
      hdma->XferAbortCallback(hdma);
 8001a76:	687b      	ldr	r3, [r7, #4]
 8001a78:	6b5b      	ldr	r3, [r3, #52]	; 0x34
 8001a7a:	6878      	ldr	r0, [r7, #4]
 8001a7c:	4798      	blx	r3
    } 
  }
  return status;
 8001a7e:	7bfb      	ldrb	r3, [r7, #15]
}
 8001a80:	4618      	mov	r0, r3
 8001a82:	3710      	adds	r7, #16
 8001a84:	46bd      	mov	sp, r7
 8001a86:	bd80      	pop	{r7, pc}
 8001a88:	40020008 	.word	0x40020008
 8001a8c:	4002001c 	.word	0x4002001c
 8001a90:	40020030 	.word	0x40020030
 8001a94:	40020044 	.word	0x40020044
 8001a98:	40020058 	.word	0x40020058
 8001a9c:	4002006c 	.word	0x4002006c
 8001aa0:	40020000 	.word	0x40020000

08001aa4 <HAL_GPIO_Init>:
  * @param  GPIO_Init: pointer to a GPIO_InitTypeDef structure that contains
  *         the configuration information for the specified GPIO peripheral.
  * @retval None
  */
void HAL_GPIO_Init(GPIO_TypeDef  *GPIOx, GPIO_InitTypeDef *GPIO_Init)
{
 8001aa4:	b480      	push	{r7}
 8001aa6:	b08b      	sub	sp, #44	; 0x2c
 8001aa8:	af00      	add	r7, sp, #0
 8001aaa:	6078      	str	r0, [r7, #4]
 8001aac:	6039      	str	r1, [r7, #0]
  uint32_t position = 0x00u;
 8001aae:	2300      	movs	r3, #0
 8001ab0:	627b      	str	r3, [r7, #36]	; 0x24
  uint32_t ioposition;
  uint32_t iocurrent;
  uint32_t temp;
  uint32_t config = 0x00u;
 8001ab2:	2300      	movs	r3, #0
 8001ab4:	623b      	str	r3, [r7, #32]
  assert_param(IS_GPIO_ALL_INSTANCE(GPIOx));
  assert_param(IS_GPIO_PIN(GPIO_Init->Pin));
  assert_param(IS_GPIO_MODE(GPIO_Init->Mode));

  /* Configure the port pins */
  while (((GPIO_Init->Pin) >> position) != 0x00u)
 8001ab6:	e169      	b.n	8001d8c <HAL_GPIO_Init+0x2e8>
  {
    /* Get the IO position */
    ioposition = (0x01uL << position);
 8001ab8:	2201      	movs	r2, #1
 8001aba:	6a7b      	ldr	r3, [r7, #36]	; 0x24
 8001abc:	fa02 f303 	lsl.w	r3, r2, r3
 8001ac0:	61fb      	str	r3, [r7, #28]

    /* Get the current IO position */
    iocurrent = (uint32_t)(GPIO_Init->Pin) & ioposition;
 8001ac2:	683b      	ldr	r3, [r7, #0]
 8001ac4:	681b      	ldr	r3, [r3, #0]
 8001ac6:	69fa      	ldr	r2, [r7, #28]
 8001ac8:	4013      	ands	r3, r2
 8001aca:	61bb      	str	r3, [r7, #24]

    if (iocurrent == ioposition)
 8001acc:	69ba      	ldr	r2, [r7, #24]
 8001ace:	69fb      	ldr	r3, [r7, #28]
 8001ad0:	429a      	cmp	r2, r3
 8001ad2:	f040 8158 	bne.w	8001d86 <HAL_GPIO_Init+0x2e2>
    {
      /* Check the Alternate function parameters */
      assert_param(IS_GPIO_AF_INSTANCE(GPIOx));

      /* Based on the required mode, filling config variable with MODEy[1:0] and CNFy[3:2] corresponding bits */
      switch (GPIO_Init->Mode)
 8001ad6:	683b      	ldr	r3, [r7, #0]
 8001ad8:	685b      	ldr	r3, [r3, #4]
 8001ada:	4a9a      	ldr	r2, [pc, #616]	; (8001d44 <HAL_GPIO_Init+0x2a0>)
 8001adc:	4293      	cmp	r3, r2
 8001ade:	d05e      	beq.n	8001b9e <HAL_GPIO_Init+0xfa>
 8001ae0:	4a98      	ldr	r2, [pc, #608]	; (8001d44 <HAL_GPIO_Init+0x2a0>)
 8001ae2:	4293      	cmp	r3, r2
 8001ae4:	d875      	bhi.n	8001bd2 <HAL_GPIO_Init+0x12e>
 8001ae6:	4a98      	ldr	r2, [pc, #608]	; (8001d48 <HAL_GPIO_Init+0x2a4>)
 8001ae8:	4293      	cmp	r3, r2
 8001aea:	d058      	beq.n	8001b9e <HAL_GPIO_Init+0xfa>
 8001aec:	4a96      	ldr	r2, [pc, #600]	; (8001d48 <HAL_GPIO_Init+0x2a4>)
 8001aee:	4293      	cmp	r3, r2
 8001af0:	d86f      	bhi.n	8001bd2 <HAL_GPIO_Init+0x12e>
 8001af2:	4a96      	ldr	r2, [pc, #600]	; (8001d4c <HAL_GPIO_Init+0x2a8>)
 8001af4:	4293      	cmp	r3, r2
 8001af6:	d052      	beq.n	8001b9e <HAL_GPIO_Init+0xfa>
 8001af8:	4a94      	ldr	r2, [pc, #592]	; (8001d4c <HAL_GPIO_Init+0x2a8>)
 8001afa:	4293      	cmp	r3, r2
 8001afc:	d869      	bhi.n	8001bd2 <HAL_GPIO_Init+0x12e>
 8001afe:	4a94      	ldr	r2, [pc, #592]	; (8001d50 <HAL_GPIO_Init+0x2ac>)
 8001b00:	4293      	cmp	r3, r2
 8001b02:	d04c      	beq.n	8001b9e <HAL_GPIO_Init+0xfa>
 8001b04:	4a92      	ldr	r2, [pc, #584]	; (8001d50 <HAL_GPIO_Init+0x2ac>)
 8001b06:	4293      	cmp	r3, r2
 8001b08:	d863      	bhi.n	8001bd2 <HAL_GPIO_Init+0x12e>
 8001b0a:	4a92      	ldr	r2, [pc, #584]	; (8001d54 <HAL_GPIO_Init+0x2b0>)
 8001b0c:	4293      	cmp	r3, r2
 8001b0e:	d046      	beq.n	8001b9e <HAL_GPIO_Init+0xfa>
 8001b10:	4a90      	ldr	r2, [pc, #576]	; (8001d54 <HAL_GPIO_Init+0x2b0>)
 8001b12:	4293      	cmp	r3, r2
 8001b14:	d85d      	bhi.n	8001bd2 <HAL_GPIO_Init+0x12e>
 8001b16:	2b12      	cmp	r3, #18
 8001b18:	d82a      	bhi.n	8001b70 <HAL_GPIO_Init+0xcc>
 8001b1a:	2b12      	cmp	r3, #18
 8001b1c:	d859      	bhi.n	8001bd2 <HAL_GPIO_Init+0x12e>
 8001b1e:	a201      	add	r2, pc, #4	; (adr r2, 8001b24 <HAL_GPIO_Init+0x80>)
 8001b20:	f852 f023 	ldr.w	pc, [r2, r3, lsl #2]
 8001b24:	08001b9f 	.word	0x08001b9f
 8001b28:	08001b79 	.word	0x08001b79
 8001b2c:	08001b8b 	.word	0x08001b8b
 8001b30:	08001bcd 	.word	0x08001bcd
 8001b34:	08001bd3 	.word	0x08001bd3
 8001b38:	08001bd3 	.word	0x08001bd3
 8001b3c:	08001bd3 	.word	0x08001bd3
 8001b40:	08001bd3 	.word	0x08001bd3
 8001b44:	08001bd3 	.word	0x08001bd3
 8001b48:	08001bd3 	.word	0x08001bd3
 8001b4c:	08001bd3 	.word	0x08001bd3
 8001b50:	08001bd3 	.word	0x08001bd3
 8001b54:	08001bd3 	.word	0x08001bd3
 8001b58:	08001bd3 	.word	0x08001bd3
 8001b5c:	08001bd3 	.word	0x08001bd3
 8001b60:	08001bd3 	.word	0x08001bd3
 8001b64:	08001bd3 	.word	0x08001bd3
 8001b68:	08001b81 	.word	0x08001b81
 8001b6c:	08001b95 	.word	0x08001b95
 8001b70:	4a79      	ldr	r2, [pc, #484]	; (8001d58 <HAL_GPIO_Init+0x2b4>)
 8001b72:	4293      	cmp	r3, r2
 8001b74:	d013      	beq.n	8001b9e <HAL_GPIO_Init+0xfa>
          config = GPIO_CR_MODE_INPUT + GPIO_CR_CNF_ANALOG;
          break;

        /* Parameters are checked with assert_param */
        default:
          break;
 8001b76:	e02c      	b.n	8001bd2 <HAL_GPIO_Init+0x12e>
          config = GPIO_Init->Speed + GPIO_CR_CNF_GP_OUTPUT_PP;
 8001b78:	683b      	ldr	r3, [r7, #0]
 8001b7a:	68db      	ldr	r3, [r3, #12]
 8001b7c:	623b      	str	r3, [r7, #32]
          break;
 8001b7e:	e029      	b.n	8001bd4 <HAL_GPIO_Init+0x130>
          config = GPIO_Init->Speed + GPIO_CR_CNF_GP_OUTPUT_OD;
 8001b80:	683b      	ldr	r3, [r7, #0]
 8001b82:	68db      	ldr	r3, [r3, #12]
 8001b84:	3304      	adds	r3, #4
 8001b86:	623b      	str	r3, [r7, #32]
          break;
 8001b88:	e024      	b.n	8001bd4 <HAL_GPIO_Init+0x130>
          config = GPIO_Init->Speed + GPIO_CR_CNF_AF_OUTPUT_PP;
 8001b8a:	683b      	ldr	r3, [r7, #0]
 8001b8c:	68db      	ldr	r3, [r3, #12]
 8001b8e:	3308      	adds	r3, #8
 8001b90:	623b      	str	r3, [r7, #32]
          break;
 8001b92:	e01f      	b.n	8001bd4 <HAL_GPIO_Init+0x130>
          config = GPIO_Init->Speed + GPIO_CR_CNF_AF_OUTPUT_OD;
 8001b94:	683b      	ldr	r3, [r7, #0]
 8001b96:	68db      	ldr	r3, [r3, #12]
 8001b98:	330c      	adds	r3, #12
 8001b9a:	623b      	str	r3, [r7, #32]
          break;
 8001b9c:	e01a      	b.n	8001bd4 <HAL_GPIO_Init+0x130>
          if (GPIO_Init->Pull == GPIO_NOPULL)
 8001b9e:	683b      	ldr	r3, [r7, #0]
 8001ba0:	689b      	ldr	r3, [r3, #8]
 8001ba2:	2b00      	cmp	r3, #0
 8001ba4:	d102      	bne.n	8001bac <HAL_GPIO_Init+0x108>
            config = GPIO_CR_MODE_INPUT + GPIO_CR_CNF_INPUT_FLOATING;
 8001ba6:	2304      	movs	r3, #4
 8001ba8:	623b      	str	r3, [r7, #32]
          break;
 8001baa:	e013      	b.n	8001bd4 <HAL_GPIO_Init+0x130>
          else if (GPIO_Init->Pull == GPIO_PULLUP)
 8001bac:	683b      	ldr	r3, [r7, #0]
 8001bae:	689b      	ldr	r3, [r3, #8]
 8001bb0:	2b01      	cmp	r3, #1
 8001bb2:	d105      	bne.n	8001bc0 <HAL_GPIO_Init+0x11c>
            config = GPIO_CR_MODE_INPUT + GPIO_CR_CNF_INPUT_PU_PD;
 8001bb4:	2308      	movs	r3, #8
 8001bb6:	623b      	str	r3, [r7, #32]
            GPIOx->BSRR = ioposition;
 8001bb8:	687b      	ldr	r3, [r7, #4]
 8001bba:	69fa      	ldr	r2, [r7, #28]
 8001bbc:	611a      	str	r2, [r3, #16]
          break;
 8001bbe:	e009      	b.n	8001bd4 <HAL_GPIO_Init+0x130>
            config = GPIO_CR_MODE_INPUT + GPIO_CR_CNF_INPUT_PU_PD;
 8001bc0:	2308      	movs	r3, #8
 8001bc2:	623b      	str	r3, [r7, #32]
            GPIOx->BRR = ioposition;
 8001bc4:	687b      	ldr	r3, [r7, #4]
 8001bc6:	69fa      	ldr	r2, [r7, #28]
 8001bc8:	615a      	str	r2, [r3, #20]
          break;
 8001bca:	e003      	b.n	8001bd4 <HAL_GPIO_Init+0x130>
          config = GPIO_CR_MODE_INPUT + GPIO_CR_CNF_ANALOG;
 8001bcc:	2300      	movs	r3, #0
 8001bce:	623b      	str	r3, [r7, #32]
          break;
 8001bd0:	e000      	b.n	8001bd4 <HAL_GPIO_Init+0x130>
          break;
 8001bd2:	bf00      	nop
      }

      /* Check if the current bit belongs to first half or last half of the pin count number
       in order to address CRH or CRL register*/
      configregister = (iocurrent < GPIO_PIN_8) ? &GPIOx->CRL     : &GPIOx->CRH;
 8001bd4:	69bb      	ldr	r3, [r7, #24]
 8001bd6:	2bff      	cmp	r3, #255	; 0xff
 8001bd8:	d801      	bhi.n	8001bde <HAL_GPIO_Init+0x13a>
 8001bda:	687b      	ldr	r3, [r7, #4]
 8001bdc:	e001      	b.n	8001be2 <HAL_GPIO_Init+0x13e>
 8001bde:	687b      	ldr	r3, [r7, #4]
 8001be0:	3304      	adds	r3, #4
 8001be2:	617b      	str	r3, [r7, #20]
      registeroffset = (iocurrent < GPIO_PIN_8) ? (position << 2u) : ((position - 8u) << 2u);
 8001be4:	69bb      	ldr	r3, [r7, #24]
 8001be6:	2bff      	cmp	r3, #255	; 0xff
 8001be8:	d802      	bhi.n	8001bf0 <HAL_GPIO_Init+0x14c>
 8001bea:	6a7b      	ldr	r3, [r7, #36]	; 0x24
 8001bec:	009b      	lsls	r3, r3, #2
 8001bee:	e002      	b.n	8001bf6 <HAL_GPIO_Init+0x152>
 8001bf0:	6a7b      	ldr	r3, [r7, #36]	; 0x24
 8001bf2:	3b08      	subs	r3, #8
 8001bf4:	009b      	lsls	r3, r3, #2
 8001bf6:	613b      	str	r3, [r7, #16]

      /* Apply the new configuration of the pin to the register */
      MODIFY_REG((*configregister), ((GPIO_CRL_MODE0 | GPIO_CRL_CNF0) << registeroffset), (config << registeroffset));
 8001bf8:	697b      	ldr	r3, [r7, #20]
 8001bfa:	681a      	ldr	r2, [r3, #0]
 8001bfc:	210f      	movs	r1, #15
 8001bfe:	693b      	ldr	r3, [r7, #16]
 8001c00:	fa01 f303 	lsl.w	r3, r1, r3
 8001c04:	43db      	mvns	r3, r3
 8001c06:	401a      	ands	r2, r3
 8001c08:	6a39      	ldr	r1, [r7, #32]
 8001c0a:	693b      	ldr	r3, [r7, #16]
 8001c0c:	fa01 f303 	lsl.w	r3, r1, r3
 8001c10:	431a      	orrs	r2, r3
 8001c12:	697b      	ldr	r3, [r7, #20]
 8001c14:	601a      	str	r2, [r3, #0]

      /*--------------------- EXTI Mode Configuration ------------------------*/
      /* Configure the External Interrupt or event for the current IO */
      if ((GPIO_Init->Mode & EXTI_MODE) == EXTI_MODE)
 8001c16:	683b      	ldr	r3, [r7, #0]
 8001c18:	685b      	ldr	r3, [r3, #4]
 8001c1a:	f003 5380 	and.w	r3, r3, #268435456	; 0x10000000
 8001c1e:	2b00      	cmp	r3, #0
 8001c20:	f000 80b1 	beq.w	8001d86 <HAL_GPIO_Init+0x2e2>
      {
        /* Enable AFIO Clock */
        __HAL_RCC_AFIO_CLK_ENABLE();
 8001c24:	4b4d      	ldr	r3, [pc, #308]	; (8001d5c <HAL_GPIO_Init+0x2b8>)
 8001c26:	699b      	ldr	r3, [r3, #24]
 8001c28:	4a4c      	ldr	r2, [pc, #304]	; (8001d5c <HAL_GPIO_Init+0x2b8>)
 8001c2a:	f043 0301 	orr.w	r3, r3, #1
 8001c2e:	6193      	str	r3, [r2, #24]
 8001c30:	4b4a      	ldr	r3, [pc, #296]	; (8001d5c <HAL_GPIO_Init+0x2b8>)
 8001c32:	699b      	ldr	r3, [r3, #24]
 8001c34:	f003 0301 	and.w	r3, r3, #1
 8001c38:	60bb      	str	r3, [r7, #8]
 8001c3a:	68bb      	ldr	r3, [r7, #8]
        temp = AFIO->EXTICR[position >> 2u];
 8001c3c:	4a48      	ldr	r2, [pc, #288]	; (8001d60 <HAL_GPIO_Init+0x2bc>)
 8001c3e:	6a7b      	ldr	r3, [r7, #36]	; 0x24
 8001c40:	089b      	lsrs	r3, r3, #2
 8001c42:	3302      	adds	r3, #2
 8001c44:	f852 3023 	ldr.w	r3, [r2, r3, lsl #2]
 8001c48:	60fb      	str	r3, [r7, #12]
        CLEAR_BIT(temp, (0x0Fu) << (4u * (position & 0x03u)));
 8001c4a:	6a7b      	ldr	r3, [r7, #36]	; 0x24
 8001c4c:	f003 0303 	and.w	r3, r3, #3
 8001c50:	009b      	lsls	r3, r3, #2
 8001c52:	220f      	movs	r2, #15
 8001c54:	fa02 f303 	lsl.w	r3, r2, r3
 8001c58:	43db      	mvns	r3, r3
 8001c5a:	68fa      	ldr	r2, [r7, #12]
 8001c5c:	4013      	ands	r3, r2
 8001c5e:	60fb      	str	r3, [r7, #12]
        SET_BIT(temp, (GPIO_GET_INDEX(GPIOx)) << (4u * (position & 0x03u)));
 8001c60:	687b      	ldr	r3, [r7, #4]
 8001c62:	4a40      	ldr	r2, [pc, #256]	; (8001d64 <HAL_GPIO_Init+0x2c0>)
 8001c64:	4293      	cmp	r3, r2
 8001c66:	d013      	beq.n	8001c90 <HAL_GPIO_Init+0x1ec>
 8001c68:	687b      	ldr	r3, [r7, #4]
 8001c6a:	4a3f      	ldr	r2, [pc, #252]	; (8001d68 <HAL_GPIO_Init+0x2c4>)
 8001c6c:	4293      	cmp	r3, r2
 8001c6e:	d00d      	beq.n	8001c8c <HAL_GPIO_Init+0x1e8>
 8001c70:	687b      	ldr	r3, [r7, #4]
 8001c72:	4a3e      	ldr	r2, [pc, #248]	; (8001d6c <HAL_GPIO_Init+0x2c8>)
 8001c74:	4293      	cmp	r3, r2
 8001c76:	d007      	beq.n	8001c88 <HAL_GPIO_Init+0x1e4>
 8001c78:	687b      	ldr	r3, [r7, #4]
 8001c7a:	4a3d      	ldr	r2, [pc, #244]	; (8001d70 <HAL_GPIO_Init+0x2cc>)
 8001c7c:	4293      	cmp	r3, r2
 8001c7e:	d101      	bne.n	8001c84 <HAL_GPIO_Init+0x1e0>
 8001c80:	2303      	movs	r3, #3
 8001c82:	e006      	b.n	8001c92 <HAL_GPIO_Init+0x1ee>
 8001c84:	2304      	movs	r3, #4
 8001c86:	e004      	b.n	8001c92 <HAL_GPIO_Init+0x1ee>
 8001c88:	2302      	movs	r3, #2
 8001c8a:	e002      	b.n	8001c92 <HAL_GPIO_Init+0x1ee>
 8001c8c:	2301      	movs	r3, #1
 8001c8e:	e000      	b.n	8001c92 <HAL_GPIO_Init+0x1ee>
 8001c90:	2300      	movs	r3, #0
 8001c92:	6a7a      	ldr	r2, [r7, #36]	; 0x24
 8001c94:	f002 0203 	and.w	r2, r2, #3
 8001c98:	0092      	lsls	r2, r2, #2
 8001c9a:	4093      	lsls	r3, r2
 8001c9c:	68fa      	ldr	r2, [r7, #12]
 8001c9e:	4313      	orrs	r3, r2
 8001ca0:	60fb      	str	r3, [r7, #12]
        AFIO->EXTICR[position >> 2u] = temp;
 8001ca2:	492f      	ldr	r1, [pc, #188]	; (8001d60 <HAL_GPIO_Init+0x2bc>)
 8001ca4:	6a7b      	ldr	r3, [r7, #36]	; 0x24
 8001ca6:	089b      	lsrs	r3, r3, #2
 8001ca8:	3302      	adds	r3, #2
 8001caa:	68fa      	ldr	r2, [r7, #12]
 8001cac:	f841 2023 	str.w	r2, [r1, r3, lsl #2]


        /* Configure the interrupt mask */
        if ((GPIO_Init->Mode & GPIO_MODE_IT) == GPIO_MODE_IT)
 8001cb0:	683b      	ldr	r3, [r7, #0]
 8001cb2:	685b      	ldr	r3, [r3, #4]
 8001cb4:	f403 3380 	and.w	r3, r3, #65536	; 0x10000
 8001cb8:	2b00      	cmp	r3, #0
 8001cba:	d006      	beq.n	8001cca <HAL_GPIO_Init+0x226>
        {
          SET_BIT(EXTI->IMR, iocurrent);
 8001cbc:	4b2d      	ldr	r3, [pc, #180]	; (8001d74 <HAL_GPIO_Init+0x2d0>)
 8001cbe:	681a      	ldr	r2, [r3, #0]
 8001cc0:	492c      	ldr	r1, [pc, #176]	; (8001d74 <HAL_GPIO_Init+0x2d0>)
 8001cc2:	69bb      	ldr	r3, [r7, #24]
 8001cc4:	4313      	orrs	r3, r2
 8001cc6:	600b      	str	r3, [r1, #0]
 8001cc8:	e006      	b.n	8001cd8 <HAL_GPIO_Init+0x234>
        }
        else
        {
          CLEAR_BIT(EXTI->IMR, iocurrent);
 8001cca:	4b2a      	ldr	r3, [pc, #168]	; (8001d74 <HAL_GPIO_Init+0x2d0>)
 8001ccc:	681a      	ldr	r2, [r3, #0]
 8001cce:	69bb      	ldr	r3, [r7, #24]
 8001cd0:	43db      	mvns	r3, r3
 8001cd2:	4928      	ldr	r1, [pc, #160]	; (8001d74 <HAL_GPIO_Init+0x2d0>)
 8001cd4:	4013      	ands	r3, r2
 8001cd6:	600b      	str	r3, [r1, #0]
        }

        /* Configure the event mask */
        if ((GPIO_Init->Mode & GPIO_MODE_EVT) == GPIO_MODE_EVT)
 8001cd8:	683b      	ldr	r3, [r7, #0]
 8001cda:	685b      	ldr	r3, [r3, #4]
 8001cdc:	f403 3300 	and.w	r3, r3, #131072	; 0x20000
 8001ce0:	2b00      	cmp	r3, #0
 8001ce2:	d006      	beq.n	8001cf2 <HAL_GPIO_Init+0x24e>
        {
          SET_BIT(EXTI->EMR, iocurrent);
 8001ce4:	4b23      	ldr	r3, [pc, #140]	; (8001d74 <HAL_GPIO_Init+0x2d0>)
 8001ce6:	685a      	ldr	r2, [r3, #4]
 8001ce8:	4922      	ldr	r1, [pc, #136]	; (8001d74 <HAL_GPIO_Init+0x2d0>)
 8001cea:	69bb      	ldr	r3, [r7, #24]
 8001cec:	4313      	orrs	r3, r2
 8001cee:	604b      	str	r3, [r1, #4]
 8001cf0:	e006      	b.n	8001d00 <HAL_GPIO_Init+0x25c>
        }
        else
        {
          CLEAR_BIT(EXTI->EMR, iocurrent);
 8001cf2:	4b20      	ldr	r3, [pc, #128]	; (8001d74 <HAL_GPIO_Init+0x2d0>)
 8001cf4:	685a      	ldr	r2, [r3, #4]
 8001cf6:	69bb      	ldr	r3, [r7, #24]
 8001cf8:	43db      	mvns	r3, r3
 8001cfa:	491e      	ldr	r1, [pc, #120]	; (8001d74 <HAL_GPIO_Init+0x2d0>)
 8001cfc:	4013      	ands	r3, r2
 8001cfe:	604b      	str	r3, [r1, #4]
        }

        /* Enable or disable the rising trigger */
        if ((GPIO_Init->Mode & RISING_EDGE) == RISING_EDGE)
 8001d00:	683b      	ldr	r3, [r7, #0]
 8001d02:	685b      	ldr	r3, [r3, #4]
 8001d04:	f403 1380 	and.w	r3, r3, #1048576	; 0x100000
 8001d08:	2b00      	cmp	r3, #0
 8001d0a:	d006      	beq.n	8001d1a <HAL_GPIO_Init+0x276>
        {
          SET_BIT(EXTI->RTSR, iocurrent);
 8001d0c:	4b19      	ldr	r3, [pc, #100]	; (8001d74 <HAL_GPIO_Init+0x2d0>)
 8001d0e:	689a      	ldr	r2, [r3, #8]
 8001d10:	4918      	ldr	r1, [pc, #96]	; (8001d74 <HAL_GPIO_Init+0x2d0>)
 8001d12:	69bb      	ldr	r3, [r7, #24]
 8001d14:	4313      	orrs	r3, r2
 8001d16:	608b      	str	r3, [r1, #8]
 8001d18:	e006      	b.n	8001d28 <HAL_GPIO_Init+0x284>
        }
        else
        {
          CLEAR_BIT(EXTI->RTSR, iocurrent);
 8001d1a:	4b16      	ldr	r3, [pc, #88]	; (8001d74 <HAL_GPIO_Init+0x2d0>)
 8001d1c:	689a      	ldr	r2, [r3, #8]
 8001d1e:	69bb      	ldr	r3, [r7, #24]
 8001d20:	43db      	mvns	r3, r3
 8001d22:	4914      	ldr	r1, [pc, #80]	; (8001d74 <HAL_GPIO_Init+0x2d0>)
 8001d24:	4013      	ands	r3, r2
 8001d26:	608b      	str	r3, [r1, #8]
        }

        /* Enable or disable the falling trigger */
        if ((GPIO_Init->Mode & FALLING_EDGE) == FALLING_EDGE)
 8001d28:	683b      	ldr	r3, [r7, #0]
 8001d2a:	685b      	ldr	r3, [r3, #4]
 8001d2c:	f403 1300 	and.w	r3, r3, #2097152	; 0x200000
 8001d30:	2b00      	cmp	r3, #0
 8001d32:	d021      	beq.n	8001d78 <HAL_GPIO_Init+0x2d4>
        {
          SET_BIT(EXTI->FTSR, iocurrent);
 8001d34:	4b0f      	ldr	r3, [pc, #60]	; (8001d74 <HAL_GPIO_Init+0x2d0>)
 8001d36:	68da      	ldr	r2, [r3, #12]
 8001d38:	490e      	ldr	r1, [pc, #56]	; (8001d74 <HAL_GPIO_Init+0x2d0>)
 8001d3a:	69bb      	ldr	r3, [r7, #24]
 8001d3c:	4313      	orrs	r3, r2
 8001d3e:	60cb      	str	r3, [r1, #12]
 8001d40:	e021      	b.n	8001d86 <HAL_GPIO_Init+0x2e2>
 8001d42:	bf00      	nop
 8001d44:	10320000 	.word	0x10320000
 8001d48:	10310000 	.word	0x10310000
 8001d4c:	10220000 	.word	0x10220000
 8001d50:	10210000 	.word	0x10210000
 8001d54:	10120000 	.word	0x10120000
 8001d58:	10110000 	.word	0x10110000
 8001d5c:	40021000 	.word	0x40021000
 8001d60:	40010000 	.word	0x40010000
 8001d64:	40010800 	.word	0x40010800
 8001d68:	40010c00 	.word	0x40010c00
 8001d6c:	40011000 	.word	0x40011000
 8001d70:	40011400 	.word	0x40011400
 8001d74:	40010400 	.word	0x40010400
        }
        else
        {
          CLEAR_BIT(EXTI->FTSR, iocurrent);
 8001d78:	4b0b      	ldr	r3, [pc, #44]	; (8001da8 <HAL_GPIO_Init+0x304>)
 8001d7a:	68da      	ldr	r2, [r3, #12]
 8001d7c:	69bb      	ldr	r3, [r7, #24]
 8001d7e:	43db      	mvns	r3, r3
 8001d80:	4909      	ldr	r1, [pc, #36]	; (8001da8 <HAL_GPIO_Init+0x304>)
 8001d82:	4013      	ands	r3, r2
 8001d84:	60cb      	str	r3, [r1, #12]
        }
      }
    }

	position++;
 8001d86:	6a7b      	ldr	r3, [r7, #36]	; 0x24
 8001d88:	3301      	adds	r3, #1
 8001d8a:	627b      	str	r3, [r7, #36]	; 0x24
  while (((GPIO_Init->Pin) >> position) != 0x00u)
 8001d8c:	683b      	ldr	r3, [r7, #0]
 8001d8e:	681a      	ldr	r2, [r3, #0]
 8001d90:	6a7b      	ldr	r3, [r7, #36]	; 0x24
 8001d92:	fa22 f303 	lsr.w	r3, r2, r3
 8001d96:	2b00      	cmp	r3, #0
 8001d98:	f47f ae8e 	bne.w	8001ab8 <HAL_GPIO_Init+0x14>
  }
}
 8001d9c:	bf00      	nop
 8001d9e:	bf00      	nop
 8001da0:	372c      	adds	r7, #44	; 0x2c
 8001da2:	46bd      	mov	sp, r7
 8001da4:	bc80      	pop	{r7}
 8001da6:	4770      	bx	lr
 8001da8:	40010400 	.word	0x40010400

08001dac <HAL_I2C_Init>:
  * @param  hi2c Pointer to a I2C_HandleTypeDef structure that contains
  *                the configuration information for the specified I2C.
  * @retval HAL status
  */
HAL_StatusTypeDef HAL_I2C_Init(I2C_HandleTypeDef *hi2c)
{
 8001dac:	b580      	push	{r7, lr}
 8001dae:	b084      	sub	sp, #16
 8001db0:	af00      	add	r7, sp, #0
 8001db2:	6078      	str	r0, [r7, #4]
  uint32_t freqrange;
  uint32_t pclk1;

  /* Check the I2C handle allocation */
  if (hi2c == NULL)
 8001db4:	687b      	ldr	r3, [r7, #4]
 8001db6:	2b00      	cmp	r3, #0
 8001db8:	d101      	bne.n	8001dbe <HAL_I2C_Init+0x12>
  {
    return HAL_ERROR;
 8001dba:	2301      	movs	r3, #1
 8001dbc:	e12b      	b.n	8002016 <HAL_I2C_Init+0x26a>
  assert_param(IS_I2C_DUAL_ADDRESS(hi2c->Init.DualAddressMode));
  assert_param(IS_I2C_OWN_ADDRESS2(hi2c->Init.OwnAddress2));
  assert_param(IS_I2C_GENERAL_CALL(hi2c->Init.GeneralCallMode));
  assert_param(IS_I2C_NO_STRETCH(hi2c->Init.NoStretchMode));

  if (hi2c->State == HAL_I2C_STATE_RESET)
 8001dbe:	687b      	ldr	r3, [r7, #4]
 8001dc0:	f893 303d 	ldrb.w	r3, [r3, #61]	; 0x3d
 8001dc4:	b2db      	uxtb	r3, r3
 8001dc6:	2b00      	cmp	r3, #0
 8001dc8:	d106      	bne.n	8001dd8 <HAL_I2C_Init+0x2c>
  {
    /* Allocate lock resource and initialize it */
    hi2c->Lock = HAL_UNLOCKED;
 8001dca:	687b      	ldr	r3, [r7, #4]
 8001dcc:	2200      	movs	r2, #0
 8001dce:	f883 203c 	strb.w	r2, [r3, #60]	; 0x3c

    /* Init the low level hardware : GPIO, CLOCK, NVIC */
    hi2c->MspInitCallback(hi2c);
#else
    /* Init the low level hardware : GPIO, CLOCK, NVIC */
    HAL_I2C_MspInit(hi2c);
 8001dd2:	6878      	ldr	r0, [r7, #4]
 8001dd4:	f7ff fb34 	bl	8001440 <HAL_I2C_MspInit>
#endif /* USE_HAL_I2C_REGISTER_CALLBACKS */
  }

  hi2c->State = HAL_I2C_STATE_BUSY;
 8001dd8:	687b      	ldr	r3, [r7, #4]
 8001dda:	2224      	movs	r2, #36	; 0x24
 8001ddc:	f883 203d 	strb.w	r2, [r3, #61]	; 0x3d

  /* Disable the selected I2C peripheral */
  __HAL_I2C_DISABLE(hi2c);
 8001de0:	687b      	ldr	r3, [r7, #4]
 8001de2:	681b      	ldr	r3, [r3, #0]
 8001de4:	681a      	ldr	r2, [r3, #0]
 8001de6:	687b      	ldr	r3, [r7, #4]
 8001de8:	681b      	ldr	r3, [r3, #0]
 8001dea:	f022 0201 	bic.w	r2, r2, #1
 8001dee:	601a      	str	r2, [r3, #0]

  /*Reset I2C*/
  hi2c->Instance->CR1 |= I2C_CR1_SWRST;
 8001df0:	687b      	ldr	r3, [r7, #4]
 8001df2:	681b      	ldr	r3, [r3, #0]
 8001df4:	681a      	ldr	r2, [r3, #0]
 8001df6:	687b      	ldr	r3, [r7, #4]
 8001df8:	681b      	ldr	r3, [r3, #0]
 8001dfa:	f442 4200 	orr.w	r2, r2, #32768	; 0x8000
 8001dfe:	601a      	str	r2, [r3, #0]
  hi2c->Instance->CR1 &= ~I2C_CR1_SWRST;
 8001e00:	687b      	ldr	r3, [r7, #4]
 8001e02:	681b      	ldr	r3, [r3, #0]
 8001e04:	681a      	ldr	r2, [r3, #0]
 8001e06:	687b      	ldr	r3, [r7, #4]
 8001e08:	681b      	ldr	r3, [r3, #0]
 8001e0a:	f422 4200 	bic.w	r2, r2, #32768	; 0x8000
 8001e0e:	601a      	str	r2, [r3, #0]

  /* Get PCLK1 frequency */
  pclk1 = HAL_RCC_GetPCLK1Freq();
 8001e10:	f001 fb6e 	bl	80034f0 <HAL_RCC_GetPCLK1Freq>
 8001e14:	60f8      	str	r0, [r7, #12]

  /* Check the minimum allowed PCLK1 frequency */
  if (I2C_MIN_PCLK_FREQ(pclk1, hi2c->Init.ClockSpeed) == 1U)
 8001e16:	687b      	ldr	r3, [r7, #4]
 8001e18:	685b      	ldr	r3, [r3, #4]
 8001e1a:	4a81      	ldr	r2, [pc, #516]	; (8002020 <HAL_I2C_Init+0x274>)
 8001e1c:	4293      	cmp	r3, r2
 8001e1e:	d807      	bhi.n	8001e30 <HAL_I2C_Init+0x84>
 8001e20:	68fb      	ldr	r3, [r7, #12]
 8001e22:	4a80      	ldr	r2, [pc, #512]	; (8002024 <HAL_I2C_Init+0x278>)
 8001e24:	4293      	cmp	r3, r2
 8001e26:	bf94      	ite	ls
 8001e28:	2301      	movls	r3, #1
 8001e2a:	2300      	movhi	r3, #0
 8001e2c:	b2db      	uxtb	r3, r3
 8001e2e:	e006      	b.n	8001e3e <HAL_I2C_Init+0x92>
 8001e30:	68fb      	ldr	r3, [r7, #12]
 8001e32:	4a7d      	ldr	r2, [pc, #500]	; (8002028 <HAL_I2C_Init+0x27c>)
 8001e34:	4293      	cmp	r3, r2
 8001e36:	bf94      	ite	ls
 8001e38:	2301      	movls	r3, #1
 8001e3a:	2300      	movhi	r3, #0
 8001e3c:	b2db      	uxtb	r3, r3
 8001e3e:	2b00      	cmp	r3, #0
 8001e40:	d001      	beq.n	8001e46 <HAL_I2C_Init+0x9a>
  {
    return HAL_ERROR;
 8001e42:	2301      	movs	r3, #1
 8001e44:	e0e7      	b.n	8002016 <HAL_I2C_Init+0x26a>
  }

  /* Calculate frequency range */
  freqrange = I2C_FREQRANGE(pclk1);
 8001e46:	68fb      	ldr	r3, [r7, #12]
 8001e48:	4a78      	ldr	r2, [pc, #480]	; (800202c <HAL_I2C_Init+0x280>)
 8001e4a:	fba2 2303 	umull	r2, r3, r2, r3
 8001e4e:	0c9b      	lsrs	r3, r3, #18
 8001e50:	60bb      	str	r3, [r7, #8]

  /*---------------------------- I2Cx CR2 Configuration ----------------------*/
  /* Configure I2Cx: Frequency range */
  MODIFY_REG(hi2c->Instance->CR2, I2C_CR2_FREQ, freqrange);
 8001e52:	687b      	ldr	r3, [r7, #4]
 8001e54:	681b      	ldr	r3, [r3, #0]
 8001e56:	685b      	ldr	r3, [r3, #4]
 8001e58:	f023 013f 	bic.w	r1, r3, #63	; 0x3f
 8001e5c:	687b      	ldr	r3, [r7, #4]
 8001e5e:	681b      	ldr	r3, [r3, #0]
 8001e60:	68ba      	ldr	r2, [r7, #8]
 8001e62:	430a      	orrs	r2, r1
 8001e64:	605a      	str	r2, [r3, #4]

  /*---------------------------- I2Cx TRISE Configuration --------------------*/
  /* Configure I2Cx: Rise Time */
  MODIFY_REG(hi2c->Instance->TRISE, I2C_TRISE_TRISE, I2C_RISE_TIME(freqrange, hi2c->Init.ClockSpeed));
 8001e66:	687b      	ldr	r3, [r7, #4]
 8001e68:	681b      	ldr	r3, [r3, #0]
 8001e6a:	6a1b      	ldr	r3, [r3, #32]
 8001e6c:	f023 013f 	bic.w	r1, r3, #63	; 0x3f
 8001e70:	687b      	ldr	r3, [r7, #4]
 8001e72:	685b      	ldr	r3, [r3, #4]
 8001e74:	4a6a      	ldr	r2, [pc, #424]	; (8002020 <HAL_I2C_Init+0x274>)
 8001e76:	4293      	cmp	r3, r2
 8001e78:	d802      	bhi.n	8001e80 <HAL_I2C_Init+0xd4>
 8001e7a:	68bb      	ldr	r3, [r7, #8]
 8001e7c:	3301      	adds	r3, #1
 8001e7e:	e009      	b.n	8001e94 <HAL_I2C_Init+0xe8>
 8001e80:	68bb      	ldr	r3, [r7, #8]
 8001e82:	f44f 7296 	mov.w	r2, #300	; 0x12c
 8001e86:	fb02 f303 	mul.w	r3, r2, r3
 8001e8a:	4a69      	ldr	r2, [pc, #420]	; (8002030 <HAL_I2C_Init+0x284>)
 8001e8c:	fba2 2303 	umull	r2, r3, r2, r3
 8001e90:	099b      	lsrs	r3, r3, #6
 8001e92:	3301      	adds	r3, #1
 8001e94:	687a      	ldr	r2, [r7, #4]
 8001e96:	6812      	ldr	r2, [r2, #0]
 8001e98:	430b      	orrs	r3, r1
 8001e9a:	6213      	str	r3, [r2, #32]

  /*---------------------------- I2Cx CCR Configuration ----------------------*/
  /* Configure I2Cx: Speed */
  MODIFY_REG(hi2c->Instance->CCR, (I2C_CCR_FS | I2C_CCR_DUTY | I2C_CCR_CCR), I2C_SPEED(pclk1, hi2c->Init.ClockSpeed, hi2c->Init.DutyCycle));
 8001e9c:	687b      	ldr	r3, [r7, #4]
 8001e9e:	681b      	ldr	r3, [r3, #0]
 8001ea0:	69db      	ldr	r3, [r3, #28]
 8001ea2:	f423 424f 	bic.w	r2, r3, #52992	; 0xcf00
 8001ea6:	f022 02ff 	bic.w	r2, r2, #255	; 0xff
 8001eaa:	687b      	ldr	r3, [r7, #4]
 8001eac:	685b      	ldr	r3, [r3, #4]
 8001eae:	495c      	ldr	r1, [pc, #368]	; (8002020 <HAL_I2C_Init+0x274>)
 8001eb0:	428b      	cmp	r3, r1
 8001eb2:	d819      	bhi.n	8001ee8 <HAL_I2C_Init+0x13c>
 8001eb4:	68fb      	ldr	r3, [r7, #12]
 8001eb6:	1e59      	subs	r1, r3, #1
 8001eb8:	687b      	ldr	r3, [r7, #4]
 8001eba:	685b      	ldr	r3, [r3, #4]
 8001ebc:	005b      	lsls	r3, r3, #1
 8001ebe:	fbb1 f3f3 	udiv	r3, r1, r3
 8001ec2:	1c59      	adds	r1, r3, #1
 8001ec4:	f640 73fc 	movw	r3, #4092	; 0xffc
 8001ec8:	400b      	ands	r3, r1
 8001eca:	2b00      	cmp	r3, #0
 8001ecc:	d00a      	beq.n	8001ee4 <HAL_I2C_Init+0x138>
 8001ece:	68fb      	ldr	r3, [r7, #12]
 8001ed0:	1e59      	subs	r1, r3, #1
 8001ed2:	687b      	ldr	r3, [r7, #4]
 8001ed4:	685b      	ldr	r3, [r3, #4]
 8001ed6:	005b      	lsls	r3, r3, #1
 8001ed8:	fbb1 f3f3 	udiv	r3, r1, r3
 8001edc:	3301      	adds	r3, #1
 8001ede:	f3c3 030b 	ubfx	r3, r3, #0, #12
 8001ee2:	e051      	b.n	8001f88 <HAL_I2C_Init+0x1dc>
 8001ee4:	2304      	movs	r3, #4
 8001ee6:	e04f      	b.n	8001f88 <HAL_I2C_Init+0x1dc>
 8001ee8:	687b      	ldr	r3, [r7, #4]
 8001eea:	689b      	ldr	r3, [r3, #8]
 8001eec:	2b00      	cmp	r3, #0
 8001eee:	d111      	bne.n	8001f14 <HAL_I2C_Init+0x168>
 8001ef0:	68fb      	ldr	r3, [r7, #12]
 8001ef2:	1e58      	subs	r0, r3, #1
 8001ef4:	687b      	ldr	r3, [r7, #4]
 8001ef6:	6859      	ldr	r1, [r3, #4]
 8001ef8:	460b      	mov	r3, r1
 8001efa:	005b      	lsls	r3, r3, #1
 8001efc:	440b      	add	r3, r1
 8001efe:	fbb0 f3f3 	udiv	r3, r0, r3
 8001f02:	3301      	adds	r3, #1
 8001f04:	f3c3 030b 	ubfx	r3, r3, #0, #12
 8001f08:	2b00      	cmp	r3, #0
 8001f0a:	bf0c      	ite	eq
 8001f0c:	2301      	moveq	r3, #1
 8001f0e:	2300      	movne	r3, #0
 8001f10:	b2db      	uxtb	r3, r3
 8001f12:	e012      	b.n	8001f3a <HAL_I2C_Init+0x18e>
 8001f14:	68fb      	ldr	r3, [r7, #12]
 8001f16:	1e58      	subs	r0, r3, #1
 8001f18:	687b      	ldr	r3, [r7, #4]
 8001f1a:	6859      	ldr	r1, [r3, #4]
 8001f1c:	460b      	mov	r3, r1
 8001f1e:	009b      	lsls	r3, r3, #2
 8001f20:	440b      	add	r3, r1
 8001f22:	0099      	lsls	r1, r3, #2
 8001f24:	440b      	add	r3, r1
 8001f26:	fbb0 f3f3 	udiv	r3, r0, r3
 8001f2a:	3301      	adds	r3, #1
 8001f2c:	f3c3 030b 	ubfx	r3, r3, #0, #12
 8001f30:	2b00      	cmp	r3, #0
 8001f32:	bf0c      	ite	eq
 8001f34:	2301      	moveq	r3, #1
 8001f36:	2300      	movne	r3, #0
 8001f38:	b2db      	uxtb	r3, r3
 8001f3a:	2b00      	cmp	r3, #0
 8001f3c:	d001      	beq.n	8001f42 <HAL_I2C_Init+0x196>
 8001f3e:	2301      	movs	r3, #1
 8001f40:	e022      	b.n	8001f88 <HAL_I2C_Init+0x1dc>
 8001f42:	687b      	ldr	r3, [r7, #4]
 8001f44:	689b      	ldr	r3, [r3, #8]
 8001f46:	2b00      	cmp	r3, #0
 8001f48:	d10e      	bne.n	8001f68 <HAL_I2C_Init+0x1bc>
 8001f4a:	68fb      	ldr	r3, [r7, #12]
 8001f4c:	1e58      	subs	r0, r3, #1
 8001f4e:	687b      	ldr	r3, [r7, #4]
 8001f50:	6859      	ldr	r1, [r3, #4]
 8001f52:	460b      	mov	r3, r1
 8001f54:	005b      	lsls	r3, r3, #1
 8001f56:	440b      	add	r3, r1
 8001f58:	fbb0 f3f3 	udiv	r3, r0, r3
 8001f5c:	3301      	adds	r3, #1
 8001f5e:	f3c3 030b 	ubfx	r3, r3, #0, #12
 8001f62:	f443 4300 	orr.w	r3, r3, #32768	; 0x8000
 8001f66:	e00f      	b.n	8001f88 <HAL_I2C_Init+0x1dc>
 8001f68:	68fb      	ldr	r3, [r7, #12]
 8001f6a:	1e58      	subs	r0, r3, #1
 8001f6c:	687b      	ldr	r3, [r7, #4]
 8001f6e:	6859      	ldr	r1, [r3, #4]
 8001f70:	460b      	mov	r3, r1
 8001f72:	009b      	lsls	r3, r3, #2
 8001f74:	440b      	add	r3, r1
 8001f76:	0099      	lsls	r1, r3, #2
 8001f78:	440b      	add	r3, r1
 8001f7a:	fbb0 f3f3 	udiv	r3, r0, r3
 8001f7e:	3301      	adds	r3, #1
 8001f80:	f3c3 030b 	ubfx	r3, r3, #0, #12
 8001f84:	f443 4340 	orr.w	r3, r3, #49152	; 0xc000
 8001f88:	6879      	ldr	r1, [r7, #4]
 8001f8a:	6809      	ldr	r1, [r1, #0]
 8001f8c:	4313      	orrs	r3, r2
 8001f8e:	61cb      	str	r3, [r1, #28]

  /*---------------------------- I2Cx CR1 Configuration ----------------------*/
  /* Configure I2Cx: Generalcall and NoStretch mode */
  MODIFY_REG(hi2c->Instance->CR1, (I2C_CR1_ENGC | I2C_CR1_NOSTRETCH), (hi2c->Init.GeneralCallMode | hi2c->Init.NoStretchMode));
 8001f90:	687b      	ldr	r3, [r7, #4]
 8001f92:	681b      	ldr	r3, [r3, #0]
 8001f94:	681b      	ldr	r3, [r3, #0]
 8001f96:	f023 01c0 	bic.w	r1, r3, #192	; 0xc0
 8001f9a:	687b      	ldr	r3, [r7, #4]
 8001f9c:	69da      	ldr	r2, [r3, #28]
 8001f9e:	687b      	ldr	r3, [r7, #4]
 8001fa0:	6a1b      	ldr	r3, [r3, #32]
 8001fa2:	431a      	orrs	r2, r3
 8001fa4:	687b      	ldr	r3, [r7, #4]
 8001fa6:	681b      	ldr	r3, [r3, #0]
 8001fa8:	430a      	orrs	r2, r1
 8001faa:	601a      	str	r2, [r3, #0]

  /*---------------------------- I2Cx OAR1 Configuration ---------------------*/
  /* Configure I2Cx: Own Address1 and addressing mode */
  MODIFY_REG(hi2c->Instance->OAR1, (I2C_OAR1_ADDMODE | I2C_OAR1_ADD8_9 | I2C_OAR1_ADD1_7 | I2C_OAR1_ADD0), (hi2c->Init.AddressingMode | hi2c->Init.OwnAddress1));
 8001fac:	687b      	ldr	r3, [r7, #4]
 8001fae:	681b      	ldr	r3, [r3, #0]
 8001fb0:	689b      	ldr	r3, [r3, #8]
 8001fb2:	f423 4303 	bic.w	r3, r3, #33536	; 0x8300
 8001fb6:	f023 03ff 	bic.w	r3, r3, #255	; 0xff
 8001fba:	687a      	ldr	r2, [r7, #4]
 8001fbc:	6911      	ldr	r1, [r2, #16]
 8001fbe:	687a      	ldr	r2, [r7, #4]
 8001fc0:	68d2      	ldr	r2, [r2, #12]
 8001fc2:	4311      	orrs	r1, r2
 8001fc4:	687a      	ldr	r2, [r7, #4]
 8001fc6:	6812      	ldr	r2, [r2, #0]
 8001fc8:	430b      	orrs	r3, r1
 8001fca:	6093      	str	r3, [r2, #8]

  /*---------------------------- I2Cx OAR2 Configuration ---------------------*/
  /* Configure I2Cx: Dual mode and Own Address2 */
  MODIFY_REG(hi2c->Instance->OAR2, (I2C_OAR2_ENDUAL | I2C_OAR2_ADD2), (hi2c->Init.DualAddressMode | hi2c->Init.OwnAddress2));
 8001fcc:	687b      	ldr	r3, [r7, #4]
 8001fce:	681b      	ldr	r3, [r3, #0]
 8001fd0:	68db      	ldr	r3, [r3, #12]
 8001fd2:	f023 01ff 	bic.w	r1, r3, #255	; 0xff
 8001fd6:	687b      	ldr	r3, [r7, #4]
 8001fd8:	695a      	ldr	r2, [r3, #20]
 8001fda:	687b      	ldr	r3, [r7, #4]
 8001fdc:	699b      	ldr	r3, [r3, #24]
 8001fde:	431a      	orrs	r2, r3
 8001fe0:	687b      	ldr	r3, [r7, #4]
 8001fe2:	681b      	ldr	r3, [r3, #0]
 8001fe4:	430a      	orrs	r2, r1
 8001fe6:	60da      	str	r2, [r3, #12]

  /* Enable the selected I2C peripheral */
  __HAL_I2C_ENABLE(hi2c);
 8001fe8:	687b      	ldr	r3, [r7, #4]
 8001fea:	681b      	ldr	r3, [r3, #0]
 8001fec:	681a      	ldr	r2, [r3, #0]
 8001fee:	687b      	ldr	r3, [r7, #4]
 8001ff0:	681b      	ldr	r3, [r3, #0]
 8001ff2:	f042 0201 	orr.w	r2, r2, #1
 8001ff6:	601a      	str	r2, [r3, #0]

  hi2c->ErrorCode = HAL_I2C_ERROR_NONE;
 8001ff8:	687b      	ldr	r3, [r7, #4]
 8001ffa:	2200      	movs	r2, #0
 8001ffc:	641a      	str	r2, [r3, #64]	; 0x40
  hi2c->State = HAL_I2C_STATE_READY;
 8001ffe:	687b      	ldr	r3, [r7, #4]
 8002000:	2220      	movs	r2, #32
 8002002:	f883 203d 	strb.w	r2, [r3, #61]	; 0x3d
  hi2c->PreviousState = I2C_STATE_NONE;
 8002006:	687b      	ldr	r3, [r7, #4]
 8002008:	2200      	movs	r2, #0
 800200a:	631a      	str	r2, [r3, #48]	; 0x30
  hi2c->Mode = HAL_I2C_MODE_NONE;
 800200c:	687b      	ldr	r3, [r7, #4]
 800200e:	2200      	movs	r2, #0
 8002010:	f883 203e 	strb.w	r2, [r3, #62]	; 0x3e

  return HAL_OK;
 8002014:	2300      	movs	r3, #0
}
 8002016:	4618      	mov	r0, r3
 8002018:	3710      	adds	r7, #16
 800201a:	46bd      	mov	sp, r7
 800201c:	bd80      	pop	{r7, pc}
 800201e:	bf00      	nop
 8002020:	000186a0 	.word	0x000186a0
 8002024:	001e847f 	.word	0x001e847f
 8002028:	003d08ff 	.word	0x003d08ff
 800202c:	431bde83 	.word	0x431bde83
 8002030:	10624dd3 	.word	0x10624dd3

08002034 <HAL_I2C_Master_Transmit>:
  * @param  Size Amount of data to be sent
  * @param  Timeout Timeout duration
  * @retval HAL status
  */
HAL_StatusTypeDef HAL_I2C_Master_Transmit(I2C_HandleTypeDef *hi2c, uint16_t DevAddress, uint8_t *pData, uint16_t Size, uint32_t Timeout)
{
 8002034:	b580      	push	{r7, lr}
 8002036:	b088      	sub	sp, #32
 8002038:	af02      	add	r7, sp, #8
 800203a:	60f8      	str	r0, [r7, #12]
 800203c:	607a      	str	r2, [r7, #4]
 800203e:	461a      	mov	r2, r3
 8002040:	460b      	mov	r3, r1
 8002042:	817b      	strh	r3, [r7, #10]
 8002044:	4613      	mov	r3, r2
 8002046:	813b      	strh	r3, [r7, #8]
  /* Init tickstart for timeout management*/
  uint32_t tickstart = HAL_GetTick();
 8002048:	f7ff fb7a 	bl	8001740 <HAL_GetTick>
 800204c:	6178      	str	r0, [r7, #20]

  if (hi2c->State == HAL_I2C_STATE_READY)
 800204e:	68fb      	ldr	r3, [r7, #12]
 8002050:	f893 303d 	ldrb.w	r3, [r3, #61]	; 0x3d
 8002054:	b2db      	uxtb	r3, r3
 8002056:	2b20      	cmp	r3, #32
 8002058:	f040 80e0 	bne.w	800221c <HAL_I2C_Master_Transmit+0x1e8>
  {
    /* Wait until BUSY flag is reset */
    if (I2C_WaitOnFlagUntilTimeout(hi2c, I2C_FLAG_BUSY, SET, I2C_TIMEOUT_BUSY_FLAG, tickstart) != HAL_OK)
 800205c:	697b      	ldr	r3, [r7, #20]
 800205e:	9300      	str	r3, [sp, #0]
 8002060:	2319      	movs	r3, #25
 8002062:	2201      	movs	r2, #1
 8002064:	4970      	ldr	r1, [pc, #448]	; (8002228 <HAL_I2C_Master_Transmit+0x1f4>)
 8002066:	68f8      	ldr	r0, [r7, #12]
 8002068:	f000 fc92 	bl	8002990 <I2C_WaitOnFlagUntilTimeout>
 800206c:	4603      	mov	r3, r0
 800206e:	2b00      	cmp	r3, #0
 8002070:	d001      	beq.n	8002076 <HAL_I2C_Master_Transmit+0x42>
    {
      return HAL_BUSY;
 8002072:	2302      	movs	r3, #2
 8002074:	e0d3      	b.n	800221e <HAL_I2C_Master_Transmit+0x1ea>
    }

    /* Process Locked */
    __HAL_LOCK(hi2c);
 8002076:	68fb      	ldr	r3, [r7, #12]
 8002078:	f893 303c 	ldrb.w	r3, [r3, #60]	; 0x3c
 800207c:	2b01      	cmp	r3, #1
 800207e:	d101      	bne.n	8002084 <HAL_I2C_Master_Transmit+0x50>
 8002080:	2302      	movs	r3, #2
 8002082:	e0cc      	b.n	800221e <HAL_I2C_Master_Transmit+0x1ea>
 8002084:	68fb      	ldr	r3, [r7, #12]
 8002086:	2201      	movs	r2, #1
 8002088:	f883 203c 	strb.w	r2, [r3, #60]	; 0x3c

    /* Check if the I2C is already enabled */
    if ((hi2c->Instance->CR1 & I2C_CR1_PE) != I2C_CR1_PE)
 800208c:	68fb      	ldr	r3, [r7, #12]
 800208e:	681b      	ldr	r3, [r3, #0]
 8002090:	681b      	ldr	r3, [r3, #0]
 8002092:	f003 0301 	and.w	r3, r3, #1
 8002096:	2b01      	cmp	r3, #1
 8002098:	d007      	beq.n	80020aa <HAL_I2C_Master_Transmit+0x76>
    {
      /* Enable I2C peripheral */
      __HAL_I2C_ENABLE(hi2c);
 800209a:	68fb      	ldr	r3, [r7, #12]
 800209c:	681b      	ldr	r3, [r3, #0]
 800209e:	681a      	ldr	r2, [r3, #0]
 80020a0:	68fb      	ldr	r3, [r7, #12]
 80020a2:	681b      	ldr	r3, [r3, #0]
 80020a4:	f042 0201 	orr.w	r2, r2, #1
 80020a8:	601a      	str	r2, [r3, #0]
    }

    /* Disable Pos */
    CLEAR_BIT(hi2c->Instance->CR1, I2C_CR1_POS);
 80020aa:	68fb      	ldr	r3, [r7, #12]
 80020ac:	681b      	ldr	r3, [r3, #0]
 80020ae:	681a      	ldr	r2, [r3, #0]
 80020b0:	68fb      	ldr	r3, [r7, #12]
 80020b2:	681b      	ldr	r3, [r3, #0]
 80020b4:	f422 6200 	bic.w	r2, r2, #2048	; 0x800
 80020b8:	601a      	str	r2, [r3, #0]

    hi2c->State       = HAL_I2C_STATE_BUSY_TX;
 80020ba:	68fb      	ldr	r3, [r7, #12]
 80020bc:	2221      	movs	r2, #33	; 0x21
 80020be:	f883 203d 	strb.w	r2, [r3, #61]	; 0x3d
    hi2c->Mode        = HAL_I2C_MODE_MASTER;
 80020c2:	68fb      	ldr	r3, [r7, #12]
 80020c4:	2210      	movs	r2, #16
 80020c6:	f883 203e 	strb.w	r2, [r3, #62]	; 0x3e
    hi2c->ErrorCode   = HAL_I2C_ERROR_NONE;
 80020ca:	68fb      	ldr	r3, [r7, #12]
 80020cc:	2200      	movs	r2, #0
 80020ce:	641a      	str	r2, [r3, #64]	; 0x40

    /* Prepare transfer parameters */
    hi2c->pBuffPtr    = pData;
 80020d0:	68fb      	ldr	r3, [r7, #12]
 80020d2:	687a      	ldr	r2, [r7, #4]
 80020d4:	625a      	str	r2, [r3, #36]	; 0x24
    hi2c->XferCount   = Size;
 80020d6:	68fb      	ldr	r3, [r7, #12]
 80020d8:	893a      	ldrh	r2, [r7, #8]
 80020da:	855a      	strh	r2, [r3, #42]	; 0x2a
    hi2c->XferSize    = hi2c->XferCount;
 80020dc:	68fb      	ldr	r3, [r7, #12]
 80020de:	8d5b      	ldrh	r3, [r3, #42]	; 0x2a
 80020e0:	b29a      	uxth	r2, r3
 80020e2:	68fb      	ldr	r3, [r7, #12]
 80020e4:	851a      	strh	r2, [r3, #40]	; 0x28
    hi2c->XferOptions = I2C_NO_OPTION_FRAME;
 80020e6:	68fb      	ldr	r3, [r7, #12]
 80020e8:	4a50      	ldr	r2, [pc, #320]	; (800222c <HAL_I2C_Master_Transmit+0x1f8>)
 80020ea:	62da      	str	r2, [r3, #44]	; 0x2c

    /* Send Slave Address */
    if (I2C_MasterRequestWrite(hi2c, DevAddress, Timeout, tickstart) != HAL_OK)
 80020ec:	8979      	ldrh	r1, [r7, #10]
 80020ee:	697b      	ldr	r3, [r7, #20]
 80020f0:	6a3a      	ldr	r2, [r7, #32]
 80020f2:	68f8      	ldr	r0, [r7, #12]
 80020f4:	f000 fafc 	bl	80026f0 <I2C_MasterRequestWrite>
 80020f8:	4603      	mov	r3, r0
 80020fa:	2b00      	cmp	r3, #0
 80020fc:	d001      	beq.n	8002102 <HAL_I2C_Master_Transmit+0xce>
    {
      return HAL_ERROR;
 80020fe:	2301      	movs	r3, #1
 8002100:	e08d      	b.n	800221e <HAL_I2C_Master_Transmit+0x1ea>
    }

    /* Clear ADDR flag */
    __HAL_I2C_CLEAR_ADDRFLAG(hi2c);
 8002102:	2300      	movs	r3, #0
 8002104:	613b      	str	r3, [r7, #16]
 8002106:	68fb      	ldr	r3, [r7, #12]
 8002108:	681b      	ldr	r3, [r3, #0]
 800210a:	695b      	ldr	r3, [r3, #20]
 800210c:	613b      	str	r3, [r7, #16]
 800210e:	68fb      	ldr	r3, [r7, #12]
 8002110:	681b      	ldr	r3, [r3, #0]
 8002112:	699b      	ldr	r3, [r3, #24]
 8002114:	613b      	str	r3, [r7, #16]
 8002116:	693b      	ldr	r3, [r7, #16]

    while (hi2c->XferSize > 0U)
 8002118:	e066      	b.n	80021e8 <HAL_I2C_Master_Transmit+0x1b4>
    {
      /* Wait until TXE flag is set */
      if (I2C_WaitOnTXEFlagUntilTimeout(hi2c, Timeout, tickstart) != HAL_OK)
 800211a:	697a      	ldr	r2, [r7, #20]
 800211c:	6a39      	ldr	r1, [r7, #32]
 800211e:	68f8      	ldr	r0, [r7, #12]
 8002120:	f000 fd0c 	bl	8002b3c <I2C_WaitOnTXEFlagUntilTimeout>
 8002124:	4603      	mov	r3, r0
 8002126:	2b00      	cmp	r3, #0
 8002128:	d00d      	beq.n	8002146 <HAL_I2C_Master_Transmit+0x112>
      {
        if (hi2c->ErrorCode == HAL_I2C_ERROR_AF)
 800212a:	68fb      	ldr	r3, [r7, #12]
 800212c:	6c1b      	ldr	r3, [r3, #64]	; 0x40
 800212e:	2b04      	cmp	r3, #4
 8002130:	d107      	bne.n	8002142 <HAL_I2C_Master_Transmit+0x10e>
        {
          /* Generate Stop */
          SET_BIT(hi2c->Instance->CR1, I2C_CR1_STOP);
 8002132:	68fb      	ldr	r3, [r7, #12]
 8002134:	681b      	ldr	r3, [r3, #0]
 8002136:	681a      	ldr	r2, [r3, #0]
 8002138:	68fb      	ldr	r3, [r7, #12]
 800213a:	681b      	ldr	r3, [r3, #0]
 800213c:	f442 7200 	orr.w	r2, r2, #512	; 0x200
 8002140:	601a      	str	r2, [r3, #0]
        }
        return HAL_ERROR;
 8002142:	2301      	movs	r3, #1
 8002144:	e06b      	b.n	800221e <HAL_I2C_Master_Transmit+0x1ea>
      }

      /* Write data to DR */
      hi2c->Instance->DR = *hi2c->pBuffPtr;
 8002146:	68fb      	ldr	r3, [r7, #12]
 8002148:	6a5b      	ldr	r3, [r3, #36]	; 0x24
 800214a:	781a      	ldrb	r2, [r3, #0]
 800214c:	68fb      	ldr	r3, [r7, #12]
 800214e:	681b      	ldr	r3, [r3, #0]
 8002150:	611a      	str	r2, [r3, #16]

      /* Increment Buffer pointer */
      hi2c->pBuffPtr++;
 8002152:	68fb      	ldr	r3, [r7, #12]
 8002154:	6a5b      	ldr	r3, [r3, #36]	; 0x24
 8002156:	1c5a      	adds	r2, r3, #1
 8002158:	68fb      	ldr	r3, [r7, #12]
 800215a:	625a      	str	r2, [r3, #36]	; 0x24

      /* Update counter */
      hi2c->XferCount--;
 800215c:	68fb      	ldr	r3, [r7, #12]
 800215e:	8d5b      	ldrh	r3, [r3, #42]	; 0x2a
 8002160:	b29b      	uxth	r3, r3
 8002162:	3b01      	subs	r3, #1
 8002164:	b29a      	uxth	r2, r3
 8002166:	68fb      	ldr	r3, [r7, #12]
 8002168:	855a      	strh	r2, [r3, #42]	; 0x2a
      hi2c->XferSize--;
 800216a:	68fb      	ldr	r3, [r7, #12]
 800216c:	8d1b      	ldrh	r3, [r3, #40]	; 0x28
 800216e:	3b01      	subs	r3, #1
 8002170:	b29a      	uxth	r2, r3
 8002172:	68fb      	ldr	r3, [r7, #12]
 8002174:	851a      	strh	r2, [r3, #40]	; 0x28

      if ((__HAL_I2C_GET_FLAG(hi2c, I2C_FLAG_BTF) == SET) && (hi2c->XferSize != 0U))
 8002176:	68fb      	ldr	r3, [r7, #12]
 8002178:	681b      	ldr	r3, [r3, #0]
 800217a:	695b      	ldr	r3, [r3, #20]
 800217c:	f003 0304 	and.w	r3, r3, #4
 8002180:	2b04      	cmp	r3, #4
 8002182:	d11b      	bne.n	80021bc <HAL_I2C_Master_Transmit+0x188>
 8002184:	68fb      	ldr	r3, [r7, #12]
 8002186:	8d1b      	ldrh	r3, [r3, #40]	; 0x28
 8002188:	2b00      	cmp	r3, #0
 800218a:	d017      	beq.n	80021bc <HAL_I2C_Master_Transmit+0x188>
      {
        /* Write data to DR */
        hi2c->Instance->DR = *hi2c->pBuffPtr;
 800218c:	68fb      	ldr	r3, [r7, #12]
 800218e:	6a5b      	ldr	r3, [r3, #36]	; 0x24
 8002190:	781a      	ldrb	r2, [r3, #0]
 8002192:	68fb      	ldr	r3, [r7, #12]
 8002194:	681b      	ldr	r3, [r3, #0]
 8002196:	611a      	str	r2, [r3, #16]

        /* Increment Buffer pointer */
        hi2c->pBuffPtr++;
 8002198:	68fb      	ldr	r3, [r7, #12]
 800219a:	6a5b      	ldr	r3, [r3, #36]	; 0x24
 800219c:	1c5a      	adds	r2, r3, #1
 800219e:	68fb      	ldr	r3, [r7, #12]
 80021a0:	625a      	str	r2, [r3, #36]	; 0x24

        /* Update counter */
        hi2c->XferCount--;
 80021a2:	68fb      	ldr	r3, [r7, #12]
 80021a4:	8d5b      	ldrh	r3, [r3, #42]	; 0x2a
 80021a6:	b29b      	uxth	r3, r3
 80021a8:	3b01      	subs	r3, #1
 80021aa:	b29a      	uxth	r2, r3
 80021ac:	68fb      	ldr	r3, [r7, #12]
 80021ae:	855a      	strh	r2, [r3, #42]	; 0x2a
        hi2c->XferSize--;
 80021b0:	68fb      	ldr	r3, [r7, #12]
 80021b2:	8d1b      	ldrh	r3, [r3, #40]	; 0x28
 80021b4:	3b01      	subs	r3, #1
 80021b6:	b29a      	uxth	r2, r3
 80021b8:	68fb      	ldr	r3, [r7, #12]
 80021ba:	851a      	strh	r2, [r3, #40]	; 0x28
      }

      /* Wait until BTF flag is set */
      if (I2C_WaitOnBTFFlagUntilTimeout(hi2c, Timeout, tickstart) != HAL_OK)
 80021bc:	697a      	ldr	r2, [r7, #20]
 80021be:	6a39      	ldr	r1, [r7, #32]
 80021c0:	68f8      	ldr	r0, [r7, #12]
 80021c2:	f000 fcfc 	bl	8002bbe <I2C_WaitOnBTFFlagUntilTimeout>
 80021c6:	4603      	mov	r3, r0
 80021c8:	2b00      	cmp	r3, #0
 80021ca:	d00d      	beq.n	80021e8 <HAL_I2C_Master_Transmit+0x1b4>
      {
        if (hi2c->ErrorCode == HAL_I2C_ERROR_AF)
 80021cc:	68fb      	ldr	r3, [r7, #12]
 80021ce:	6c1b      	ldr	r3, [r3, #64]	; 0x40
 80021d0:	2b04      	cmp	r3, #4
 80021d2:	d107      	bne.n	80021e4 <HAL_I2C_Master_Transmit+0x1b0>
        {
          /* Generate Stop */
          SET_BIT(hi2c->Instance->CR1, I2C_CR1_STOP);
 80021d4:	68fb      	ldr	r3, [r7, #12]
 80021d6:	681b      	ldr	r3, [r3, #0]
 80021d8:	681a      	ldr	r2, [r3, #0]
 80021da:	68fb      	ldr	r3, [r7, #12]
 80021dc:	681b      	ldr	r3, [r3, #0]
 80021de:	f442 7200 	orr.w	r2, r2, #512	; 0x200
 80021e2:	601a      	str	r2, [r3, #0]
        }
        return HAL_ERROR;
 80021e4:	2301      	movs	r3, #1
 80021e6:	e01a      	b.n	800221e <HAL_I2C_Master_Transmit+0x1ea>
    while (hi2c->XferSize > 0U)
 80021e8:	68fb      	ldr	r3, [r7, #12]
 80021ea:	8d1b      	ldrh	r3, [r3, #40]	; 0x28
 80021ec:	2b00      	cmp	r3, #0
 80021ee:	d194      	bne.n	800211a <HAL_I2C_Master_Transmit+0xe6>
      }
    }

    /* Generate Stop */
    SET_BIT(hi2c->Instance->CR1, I2C_CR1_STOP);
 80021f0:	68fb      	ldr	r3, [r7, #12]
 80021f2:	681b      	ldr	r3, [r3, #0]
 80021f4:	681a      	ldr	r2, [r3, #0]
 80021f6:	68fb      	ldr	r3, [r7, #12]
 80021f8:	681b      	ldr	r3, [r3, #0]
 80021fa:	f442 7200 	orr.w	r2, r2, #512	; 0x200
 80021fe:	601a      	str	r2, [r3, #0]

    hi2c->State = HAL_I2C_STATE_READY;
 8002200:	68fb      	ldr	r3, [r7, #12]
 8002202:	2220      	movs	r2, #32
 8002204:	f883 203d 	strb.w	r2, [r3, #61]	; 0x3d
    hi2c->Mode = HAL_I2C_MODE_NONE;
 8002208:	68fb      	ldr	r3, [r7, #12]
 800220a:	2200      	movs	r2, #0
 800220c:	f883 203e 	strb.w	r2, [r3, #62]	; 0x3e

    /* Process Unlocked */
    __HAL_UNLOCK(hi2c);
 8002210:	68fb      	ldr	r3, [r7, #12]
 8002212:	2200      	movs	r2, #0
 8002214:	f883 203c 	strb.w	r2, [r3, #60]	; 0x3c

    return HAL_OK;
 8002218:	2300      	movs	r3, #0
 800221a:	e000      	b.n	800221e <HAL_I2C_Master_Transmit+0x1ea>
  }
  else
  {
    return HAL_BUSY;
 800221c:	2302      	movs	r3, #2
  }
}
 800221e:	4618      	mov	r0, r3
 8002220:	3718      	adds	r7, #24
 8002222:	46bd      	mov	sp, r7
 8002224:	bd80      	pop	{r7, pc}
 8002226:	bf00      	nop
 8002228:	00100002 	.word	0x00100002
 800222c:	ffff0000 	.word	0xffff0000

08002230 <HAL_I2C_Master_Receive>:
  * @param  Size Amount of data to be sent
  * @param  Timeout Timeout duration
  * @retval HAL status
  */
HAL_StatusTypeDef HAL_I2C_Master_Receive(I2C_HandleTypeDef *hi2c, uint16_t DevAddress, uint8_t *pData, uint16_t Size, uint32_t Timeout)
{
 8002230:	b580      	push	{r7, lr}
 8002232:	b08c      	sub	sp, #48	; 0x30
 8002234:	af02      	add	r7, sp, #8
 8002236:	60f8      	str	r0, [r7, #12]
 8002238:	607a      	str	r2, [r7, #4]
 800223a:	461a      	mov	r2, r3
 800223c:	460b      	mov	r3, r1
 800223e:	817b      	strh	r3, [r7, #10]
 8002240:	4613      	mov	r3, r2
 8002242:	813b      	strh	r3, [r7, #8]
  __IO uint32_t count = 0U;
 8002244:	2300      	movs	r3, #0
 8002246:	623b      	str	r3, [r7, #32]

  /* Init tickstart for timeout management*/
  uint32_t tickstart = HAL_GetTick();
 8002248:	f7ff fa7a 	bl	8001740 <HAL_GetTick>
 800224c:	6278      	str	r0, [r7, #36]	; 0x24

  if (hi2c->State == HAL_I2C_STATE_READY)
 800224e:	68fb      	ldr	r3, [r7, #12]
 8002250:	f893 303d 	ldrb.w	r3, [r3, #61]	; 0x3d
 8002254:	b2db      	uxtb	r3, r3
 8002256:	2b20      	cmp	r3, #32
 8002258:	f040 823f 	bne.w	80026da <HAL_I2C_Master_Receive+0x4aa>
  {
    /* Wait until BUSY flag is reset */
    if (I2C_WaitOnFlagUntilTimeout(hi2c, I2C_FLAG_BUSY, SET, I2C_TIMEOUT_BUSY_FLAG, tickstart) != HAL_OK)
 800225c:	6a7b      	ldr	r3, [r7, #36]	; 0x24
 800225e:	9300      	str	r3, [sp, #0]
 8002260:	2319      	movs	r3, #25
 8002262:	2201      	movs	r2, #1
 8002264:	497f      	ldr	r1, [pc, #508]	; (8002464 <HAL_I2C_Master_Receive+0x234>)
 8002266:	68f8      	ldr	r0, [r7, #12]
 8002268:	f000 fb92 	bl	8002990 <I2C_WaitOnFlagUntilTimeout>
 800226c:	4603      	mov	r3, r0
 800226e:	2b00      	cmp	r3, #0
 8002270:	d001      	beq.n	8002276 <HAL_I2C_Master_Receive+0x46>
    {
      return HAL_BUSY;
 8002272:	2302      	movs	r3, #2
 8002274:	e232      	b.n	80026dc <HAL_I2C_Master_Receive+0x4ac>
    }

    /* Process Locked */
    __HAL_LOCK(hi2c);
 8002276:	68fb      	ldr	r3, [r7, #12]
 8002278:	f893 303c 	ldrb.w	r3, [r3, #60]	; 0x3c
 800227c:	2b01      	cmp	r3, #1
 800227e:	d101      	bne.n	8002284 <HAL_I2C_Master_Receive+0x54>
 8002280:	2302      	movs	r3, #2
 8002282:	e22b      	b.n	80026dc <HAL_I2C_Master_Receive+0x4ac>
 8002284:	68fb      	ldr	r3, [r7, #12]
 8002286:	2201      	movs	r2, #1
 8002288:	f883 203c 	strb.w	r2, [r3, #60]	; 0x3c

    /* Check if the I2C is already enabled */
    if ((hi2c->Instance->CR1 & I2C_CR1_PE) != I2C_CR1_PE)
 800228c:	68fb      	ldr	r3, [r7, #12]
 800228e:	681b      	ldr	r3, [r3, #0]
 8002290:	681b      	ldr	r3, [r3, #0]
 8002292:	f003 0301 	and.w	r3, r3, #1
 8002296:	2b01      	cmp	r3, #1
 8002298:	d007      	beq.n	80022aa <HAL_I2C_Master_Receive+0x7a>
    {
      /* Enable I2C peripheral */
      __HAL_I2C_ENABLE(hi2c);
 800229a:	68fb      	ldr	r3, [r7, #12]
 800229c:	681b      	ldr	r3, [r3, #0]
 800229e:	681a      	ldr	r2, [r3, #0]
 80022a0:	68fb      	ldr	r3, [r7, #12]
 80022a2:	681b      	ldr	r3, [r3, #0]
 80022a4:	f042 0201 	orr.w	r2, r2, #1
 80022a8:	601a      	str	r2, [r3, #0]
    }

    /* Disable Pos */
    CLEAR_BIT(hi2c->Instance->CR1, I2C_CR1_POS);
 80022aa:	68fb      	ldr	r3, [r7, #12]
 80022ac:	681b      	ldr	r3, [r3, #0]
 80022ae:	681a      	ldr	r2, [r3, #0]
 80022b0:	68fb      	ldr	r3, [r7, #12]
 80022b2:	681b      	ldr	r3, [r3, #0]
 80022b4:	f422 6200 	bic.w	r2, r2, #2048	; 0x800
 80022b8:	601a      	str	r2, [r3, #0]

    hi2c->State       = HAL_I2C_STATE_BUSY_RX;
 80022ba:	68fb      	ldr	r3, [r7, #12]
 80022bc:	2222      	movs	r2, #34	; 0x22
 80022be:	f883 203d 	strb.w	r2, [r3, #61]	; 0x3d
    hi2c->Mode        = HAL_I2C_MODE_MASTER;
 80022c2:	68fb      	ldr	r3, [r7, #12]
 80022c4:	2210      	movs	r2, #16
 80022c6:	f883 203e 	strb.w	r2, [r3, #62]	; 0x3e
    hi2c->ErrorCode   = HAL_I2C_ERROR_NONE;
 80022ca:	68fb      	ldr	r3, [r7, #12]
 80022cc:	2200      	movs	r2, #0
 80022ce:	641a      	str	r2, [r3, #64]	; 0x40

    /* Prepare transfer parameters */
    hi2c->pBuffPtr    = pData;
 80022d0:	68fb      	ldr	r3, [r7, #12]
 80022d2:	687a      	ldr	r2, [r7, #4]
 80022d4:	625a      	str	r2, [r3, #36]	; 0x24
    hi2c->XferCount   = Size;
 80022d6:	68fb      	ldr	r3, [r7, #12]
 80022d8:	893a      	ldrh	r2, [r7, #8]
 80022da:	855a      	strh	r2, [r3, #42]	; 0x2a
    hi2c->XferSize    = hi2c->XferCount;
 80022dc:	68fb      	ldr	r3, [r7, #12]
 80022de:	8d5b      	ldrh	r3, [r3, #42]	; 0x2a
 80022e0:	b29a      	uxth	r2, r3
 80022e2:	68fb      	ldr	r3, [r7, #12]
 80022e4:	851a      	strh	r2, [r3, #40]	; 0x28
    hi2c->XferOptions = I2C_NO_OPTION_FRAME;
 80022e6:	68fb      	ldr	r3, [r7, #12]
 80022e8:	4a5f      	ldr	r2, [pc, #380]	; (8002468 <HAL_I2C_Master_Receive+0x238>)
 80022ea:	62da      	str	r2, [r3, #44]	; 0x2c

    /* Send Slave Address */
    if (I2C_MasterRequestRead(hi2c, DevAddress, Timeout, tickstart) != HAL_OK)
 80022ec:	8979      	ldrh	r1, [r7, #10]
 80022ee:	6a7b      	ldr	r3, [r7, #36]	; 0x24
 80022f0:	6b3a      	ldr	r2, [r7, #48]	; 0x30
 80022f2:	68f8      	ldr	r0, [r7, #12]
 80022f4:	f000 fa7e 	bl	80027f4 <I2C_MasterRequestRead>
 80022f8:	4603      	mov	r3, r0
 80022fa:	2b00      	cmp	r3, #0
 80022fc:	d001      	beq.n	8002302 <HAL_I2C_Master_Receive+0xd2>
    {
      return HAL_ERROR;
 80022fe:	2301      	movs	r3, #1
 8002300:	e1ec      	b.n	80026dc <HAL_I2C_Master_Receive+0x4ac>
    }

    if (hi2c->XferSize == 0U)
 8002302:	68fb      	ldr	r3, [r7, #12]
 8002304:	8d1b      	ldrh	r3, [r3, #40]	; 0x28
 8002306:	2b00      	cmp	r3, #0
 8002308:	d113      	bne.n	8002332 <HAL_I2C_Master_Receive+0x102>
    {
      /* Clear ADDR flag */
      __HAL_I2C_CLEAR_ADDRFLAG(hi2c);
 800230a:	2300      	movs	r3, #0
 800230c:	61fb      	str	r3, [r7, #28]
 800230e:	68fb      	ldr	r3, [r7, #12]
 8002310:	681b      	ldr	r3, [r3, #0]
 8002312:	695b      	ldr	r3, [r3, #20]
 8002314:	61fb      	str	r3, [r7, #28]
 8002316:	68fb      	ldr	r3, [r7, #12]
 8002318:	681b      	ldr	r3, [r3, #0]
 800231a:	699b      	ldr	r3, [r3, #24]
 800231c:	61fb      	str	r3, [r7, #28]
 800231e:	69fb      	ldr	r3, [r7, #28]

      /* Generate Stop */
      SET_BIT(hi2c->Instance->CR1, I2C_CR1_STOP);
 8002320:	68fb      	ldr	r3, [r7, #12]
 8002322:	681b      	ldr	r3, [r3, #0]
 8002324:	681a      	ldr	r2, [r3, #0]
 8002326:	68fb      	ldr	r3, [r7, #12]
 8002328:	681b      	ldr	r3, [r3, #0]
 800232a:	f442 7200 	orr.w	r2, r2, #512	; 0x200
 800232e:	601a      	str	r2, [r3, #0]
 8002330:	e1c0      	b.n	80026b4 <HAL_I2C_Master_Receive+0x484>
    }
    else if (hi2c->XferSize == 1U)
 8002332:	68fb      	ldr	r3, [r7, #12]
 8002334:	8d1b      	ldrh	r3, [r3, #40]	; 0x28
 8002336:	2b01      	cmp	r3, #1
 8002338:	d11e      	bne.n	8002378 <HAL_I2C_Master_Receive+0x148>
    {
      /* Disable Acknowledge */
      CLEAR_BIT(hi2c->Instance->CR1, I2C_CR1_ACK);
 800233a:	68fb      	ldr	r3, [r7, #12]
 800233c:	681b      	ldr	r3, [r3, #0]
 800233e:	681a      	ldr	r2, [r3, #0]
 8002340:	68fb      	ldr	r3, [r7, #12]
 8002342:	681b      	ldr	r3, [r3, #0]
 8002344:	f422 6280 	bic.w	r2, r2, #1024	; 0x400
 8002348:	601a      	str	r2, [r3, #0]
  __ASM volatile ("cpsid i" : : : "memory");
 800234a:	b672      	cpsid	i
}
 800234c:	bf00      	nop
      /* Disable all active IRQs around ADDR clearing and STOP programming because the EV6_3
      software sequence must complete before the current byte end of transfer */
      __disable_irq();

      /* Clear ADDR flag */
      __HAL_I2C_CLEAR_ADDRFLAG(hi2c);
 800234e:	2300      	movs	r3, #0
 8002350:	61bb      	str	r3, [r7, #24]
 8002352:	68fb      	ldr	r3, [r7, #12]
 8002354:	681b      	ldr	r3, [r3, #0]
 8002356:	695b      	ldr	r3, [r3, #20]
 8002358:	61bb      	str	r3, [r7, #24]
 800235a:	68fb      	ldr	r3, [r7, #12]
 800235c:	681b      	ldr	r3, [r3, #0]
 800235e:	699b      	ldr	r3, [r3, #24]
 8002360:	61bb      	str	r3, [r7, #24]
 8002362:	69bb      	ldr	r3, [r7, #24]

      /* Generate Stop */
      SET_BIT(hi2c->Instance->CR1, I2C_CR1_STOP);
 8002364:	68fb      	ldr	r3, [r7, #12]
 8002366:	681b      	ldr	r3, [r3, #0]
 8002368:	681a      	ldr	r2, [r3, #0]
 800236a:	68fb      	ldr	r3, [r7, #12]
 800236c:	681b      	ldr	r3, [r3, #0]
 800236e:	f442 7200 	orr.w	r2, r2, #512	; 0x200
 8002372:	601a      	str	r2, [r3, #0]
  __ASM volatile ("cpsie i" : : : "memory");
 8002374:	b662      	cpsie	i
}
 8002376:	e035      	b.n	80023e4 <HAL_I2C_Master_Receive+0x1b4>

      /* Re-enable IRQs */
      __enable_irq();
    }
    else if (hi2c->XferSize == 2U)
 8002378:	68fb      	ldr	r3, [r7, #12]
 800237a:	8d1b      	ldrh	r3, [r3, #40]	; 0x28
 800237c:	2b02      	cmp	r3, #2
 800237e:	d11e      	bne.n	80023be <HAL_I2C_Master_Receive+0x18e>
    {
      /* Enable Pos */
      SET_BIT(hi2c->Instance->CR1, I2C_CR1_POS);
 8002380:	68fb      	ldr	r3, [r7, #12]
 8002382:	681b      	ldr	r3, [r3, #0]
 8002384:	681a      	ldr	r2, [r3, #0]
 8002386:	68fb      	ldr	r3, [r7, #12]
 8002388:	681b      	ldr	r3, [r3, #0]
 800238a:	f442 6200 	orr.w	r2, r2, #2048	; 0x800
 800238e:	601a      	str	r2, [r3, #0]
  __ASM volatile ("cpsid i" : : : "memory");
 8002390:	b672      	cpsid	i
}
 8002392:	bf00      	nop
      /* Disable all active IRQs around ADDR clearing and STOP programming because the EV6_3
      software sequence must complete before the current byte end of transfer */
      __disable_irq();

      /* Clear ADDR flag */
      __HAL_I2C_CLEAR_ADDRFLAG(hi2c);
 8002394:	2300      	movs	r3, #0
 8002396:	617b      	str	r3, [r7, #20]
 8002398:	68fb      	ldr	r3, [r7, #12]
 800239a:	681b      	ldr	r3, [r3, #0]
 800239c:	695b      	ldr	r3, [r3, #20]
 800239e:	617b      	str	r3, [r7, #20]
 80023a0:	68fb      	ldr	r3, [r7, #12]
 80023a2:	681b      	ldr	r3, [r3, #0]
 80023a4:	699b      	ldr	r3, [r3, #24]
 80023a6:	617b      	str	r3, [r7, #20]
 80023a8:	697b      	ldr	r3, [r7, #20]

      /* Disable Acknowledge */
      CLEAR_BIT(hi2c->Instance->CR1, I2C_CR1_ACK);
 80023aa:	68fb      	ldr	r3, [r7, #12]
 80023ac:	681b      	ldr	r3, [r3, #0]
 80023ae:	681a      	ldr	r2, [r3, #0]
 80023b0:	68fb      	ldr	r3, [r7, #12]
 80023b2:	681b      	ldr	r3, [r3, #0]
 80023b4:	f422 6280 	bic.w	r2, r2, #1024	; 0x400
 80023b8:	601a      	str	r2, [r3, #0]
  __ASM volatile ("cpsie i" : : : "memory");
 80023ba:	b662      	cpsie	i
}
 80023bc:	e012      	b.n	80023e4 <HAL_I2C_Master_Receive+0x1b4>
      __enable_irq();
    }
    else
    {
      /* Enable Acknowledge */
      SET_BIT(hi2c->Instance->CR1, I2C_CR1_ACK);
 80023be:	68fb      	ldr	r3, [r7, #12]
 80023c0:	681b      	ldr	r3, [r3, #0]
 80023c2:	681a      	ldr	r2, [r3, #0]
 80023c4:	68fb      	ldr	r3, [r7, #12]
 80023c6:	681b      	ldr	r3, [r3, #0]
 80023c8:	f442 6280 	orr.w	r2, r2, #1024	; 0x400
 80023cc:	601a      	str	r2, [r3, #0]

      /* Clear ADDR flag */
      __HAL_I2C_CLEAR_ADDRFLAG(hi2c);
 80023ce:	2300      	movs	r3, #0
 80023d0:	613b      	str	r3, [r7, #16]
 80023d2:	68fb      	ldr	r3, [r7, #12]
 80023d4:	681b      	ldr	r3, [r3, #0]
 80023d6:	695b      	ldr	r3, [r3, #20]
 80023d8:	613b      	str	r3, [r7, #16]
 80023da:	68fb      	ldr	r3, [r7, #12]
 80023dc:	681b      	ldr	r3, [r3, #0]
 80023de:	699b      	ldr	r3, [r3, #24]
 80023e0:	613b      	str	r3, [r7, #16]
 80023e2:	693b      	ldr	r3, [r7, #16]
    }

    while (hi2c->XferSize > 0U)
 80023e4:	e166      	b.n	80026b4 <HAL_I2C_Master_Receive+0x484>
    {
      if (hi2c->XferSize <= 3U)
 80023e6:	68fb      	ldr	r3, [r7, #12]
 80023e8:	8d1b      	ldrh	r3, [r3, #40]	; 0x28
 80023ea:	2b03      	cmp	r3, #3
 80023ec:	f200 811f 	bhi.w	800262e <HAL_I2C_Master_Receive+0x3fe>
      {
        /* One byte */
        if (hi2c->XferSize == 1U)
 80023f0:	68fb      	ldr	r3, [r7, #12]
 80023f2:	8d1b      	ldrh	r3, [r3, #40]	; 0x28
 80023f4:	2b01      	cmp	r3, #1
 80023f6:	d123      	bne.n	8002440 <HAL_I2C_Master_Receive+0x210>
        {
          /* Wait until RXNE flag is set */
          if (I2C_WaitOnRXNEFlagUntilTimeout(hi2c, Timeout, tickstart) != HAL_OK)
 80023f8:	6a7a      	ldr	r2, [r7, #36]	; 0x24
 80023fa:	6b39      	ldr	r1, [r7, #48]	; 0x30
 80023fc:	68f8      	ldr	r0, [r7, #12]
 80023fe:	f000 fc1f 	bl	8002c40 <I2C_WaitOnRXNEFlagUntilTimeout>
 8002402:	4603      	mov	r3, r0
 8002404:	2b00      	cmp	r3, #0
 8002406:	d001      	beq.n	800240c <HAL_I2C_Master_Receive+0x1dc>
          {
            return HAL_ERROR;
 8002408:	2301      	movs	r3, #1
 800240a:	e167      	b.n	80026dc <HAL_I2C_Master_Receive+0x4ac>
          }

          /* Read data from DR */
          *hi2c->pBuffPtr = (uint8_t)hi2c->Instance->DR;
 800240c:	68fb      	ldr	r3, [r7, #12]
 800240e:	681b      	ldr	r3, [r3, #0]
 8002410:	691a      	ldr	r2, [r3, #16]
 8002412:	68fb      	ldr	r3, [r7, #12]
 8002414:	6a5b      	ldr	r3, [r3, #36]	; 0x24
 8002416:	b2d2      	uxtb	r2, r2
 8002418:	701a      	strb	r2, [r3, #0]

          /* Increment Buffer pointer */
          hi2c->pBuffPtr++;
 800241a:	68fb      	ldr	r3, [r7, #12]
 800241c:	6a5b      	ldr	r3, [r3, #36]	; 0x24
 800241e:	1c5a      	adds	r2, r3, #1
 8002420:	68fb      	ldr	r3, [r7, #12]
 8002422:	625a      	str	r2, [r3, #36]	; 0x24

          /* Update counter */
          hi2c->XferSize--;
 8002424:	68fb      	ldr	r3, [r7, #12]
 8002426:	8d1b      	ldrh	r3, [r3, #40]	; 0x28
 8002428:	3b01      	subs	r3, #1
 800242a:	b29a      	uxth	r2, r3
 800242c:	68fb      	ldr	r3, [r7, #12]
 800242e:	851a      	strh	r2, [r3, #40]	; 0x28
          hi2c->XferCount--;
 8002430:	68fb      	ldr	r3, [r7, #12]
 8002432:	8d5b      	ldrh	r3, [r3, #42]	; 0x2a
 8002434:	b29b      	uxth	r3, r3
 8002436:	3b01      	subs	r3, #1
 8002438:	b29a      	uxth	r2, r3
 800243a:	68fb      	ldr	r3, [r7, #12]
 800243c:	855a      	strh	r2, [r3, #42]	; 0x2a
 800243e:	e139      	b.n	80026b4 <HAL_I2C_Master_Receive+0x484>
        }
        /* Two bytes */
        else if (hi2c->XferSize == 2U)
 8002440:	68fb      	ldr	r3, [r7, #12]
 8002442:	8d1b      	ldrh	r3, [r3, #40]	; 0x28
 8002444:	2b02      	cmp	r3, #2
 8002446:	d152      	bne.n	80024ee <HAL_I2C_Master_Receive+0x2be>
        {
          /* Wait until BTF flag is set */
          if (I2C_WaitOnFlagUntilTimeout(hi2c, I2C_FLAG_BTF, RESET, Timeout, tickstart) != HAL_OK)
 8002448:	6a7b      	ldr	r3, [r7, #36]	; 0x24
 800244a:	9300      	str	r3, [sp, #0]
 800244c:	6b3b      	ldr	r3, [r7, #48]	; 0x30
 800244e:	2200      	movs	r2, #0
 8002450:	4906      	ldr	r1, [pc, #24]	; (800246c <HAL_I2C_Master_Receive+0x23c>)
 8002452:	68f8      	ldr	r0, [r7, #12]
 8002454:	f000 fa9c 	bl	8002990 <I2C_WaitOnFlagUntilTimeout>
 8002458:	4603      	mov	r3, r0
 800245a:	2b00      	cmp	r3, #0
 800245c:	d008      	beq.n	8002470 <HAL_I2C_Master_Receive+0x240>
          {
            return HAL_ERROR;
 800245e:	2301      	movs	r3, #1
 8002460:	e13c      	b.n	80026dc <HAL_I2C_Master_Receive+0x4ac>
 8002462:	bf00      	nop
 8002464:	00100002 	.word	0x00100002
 8002468:	ffff0000 	.word	0xffff0000
 800246c:	00010004 	.word	0x00010004
  __ASM volatile ("cpsid i" : : : "memory");
 8002470:	b672      	cpsid	i
}
 8002472:	bf00      	nop
          /* Disable all active IRQs around ADDR clearing and STOP programming because the EV6_3
             software sequence must complete before the current byte end of transfer */
          __disable_irq();

          /* Generate Stop */
          SET_BIT(hi2c->Instance->CR1, I2C_CR1_STOP);
 8002474:	68fb      	ldr	r3, [r7, #12]
 8002476:	681b      	ldr	r3, [r3, #0]
 8002478:	681a      	ldr	r2, [r3, #0]
 800247a:	68fb      	ldr	r3, [r7, #12]
 800247c:	681b      	ldr	r3, [r3, #0]
 800247e:	f442 7200 	orr.w	r2, r2, #512	; 0x200
 8002482:	601a      	str	r2, [r3, #0]

          /* Read data from DR */
          *hi2c->pBuffPtr = (uint8_t)hi2c->Instance->DR;
 8002484:	68fb      	ldr	r3, [r7, #12]
 8002486:	681b      	ldr	r3, [r3, #0]
 8002488:	691a      	ldr	r2, [r3, #16]
 800248a:	68fb      	ldr	r3, [r7, #12]
 800248c:	6a5b      	ldr	r3, [r3, #36]	; 0x24
 800248e:	b2d2      	uxtb	r2, r2
 8002490:	701a      	strb	r2, [r3, #0]

          /* Increment Buffer pointer */
          hi2c->pBuffPtr++;
 8002492:	68fb      	ldr	r3, [r7, #12]
 8002494:	6a5b      	ldr	r3, [r3, #36]	; 0x24
 8002496:	1c5a      	adds	r2, r3, #1
 8002498:	68fb      	ldr	r3, [r7, #12]
 800249a:	625a      	str	r2, [r3, #36]	; 0x24

          /* Update counter */
          hi2c->XferSize--;
 800249c:	68fb      	ldr	r3, [r7, #12]
 800249e:	8d1b      	ldrh	r3, [r3, #40]	; 0x28
 80024a0:	3b01      	subs	r3, #1
 80024a2:	b29a      	uxth	r2, r3
 80024a4:	68fb      	ldr	r3, [r7, #12]
 80024a6:	851a      	strh	r2, [r3, #40]	; 0x28
          hi2c->XferCount--;
 80024a8:	68fb      	ldr	r3, [r7, #12]
 80024aa:	8d5b      	ldrh	r3, [r3, #42]	; 0x2a
 80024ac:	b29b      	uxth	r3, r3
 80024ae:	3b01      	subs	r3, #1
 80024b0:	b29a      	uxth	r2, r3
 80024b2:	68fb      	ldr	r3, [r7, #12]
 80024b4:	855a      	strh	r2, [r3, #42]	; 0x2a
  __ASM volatile ("cpsie i" : : : "memory");
 80024b6:	b662      	cpsie	i
}
 80024b8:	bf00      	nop

          /* Re-enable IRQs */
          __enable_irq();

          /* Read data from DR */
          *hi2c->pBuffPtr = (uint8_t)hi2c->Instance->DR;
 80024ba:	68fb      	ldr	r3, [r7, #12]
 80024bc:	681b      	ldr	r3, [r3, #0]
 80024be:	691a      	ldr	r2, [r3, #16]
 80024c0:	68fb      	ldr	r3, [r7, #12]
 80024c2:	6a5b      	ldr	r3, [r3, #36]	; 0x24
 80024c4:	b2d2      	uxtb	r2, r2
 80024c6:	701a      	strb	r2, [r3, #0]

          /* Increment Buffer pointer */
          hi2c->pBuffPtr++;
 80024c8:	68fb      	ldr	r3, [r7, #12]
 80024ca:	6a5b      	ldr	r3, [r3, #36]	; 0x24
 80024cc:	1c5a      	adds	r2, r3, #1
 80024ce:	68fb      	ldr	r3, [r7, #12]
 80024d0:	625a      	str	r2, [r3, #36]	; 0x24

          /* Update counter */
          hi2c->XferSize--;
 80024d2:	68fb      	ldr	r3, [r7, #12]
 80024d4:	8d1b      	ldrh	r3, [r3, #40]	; 0x28
 80024d6:	3b01      	subs	r3, #1
 80024d8:	b29a      	uxth	r2, r3
 80024da:	68fb      	ldr	r3, [r7, #12]
 80024dc:	851a      	strh	r2, [r3, #40]	; 0x28
          hi2c->XferCount--;
 80024de:	68fb      	ldr	r3, [r7, #12]
 80024e0:	8d5b      	ldrh	r3, [r3, #42]	; 0x2a
 80024e2:	b29b      	uxth	r3, r3
 80024e4:	3b01      	subs	r3, #1
 80024e6:	b29a      	uxth	r2, r3
 80024e8:	68fb      	ldr	r3, [r7, #12]
 80024ea:	855a      	strh	r2, [r3, #42]	; 0x2a
 80024ec:	e0e2      	b.n	80026b4 <HAL_I2C_Master_Receive+0x484>
        }
        /* 3 Last bytes */
        else
        {
          /* Wait until BTF flag is set */
          if (I2C_WaitOnFlagUntilTimeout(hi2c, I2C_FLAG_BTF, RESET, Timeout, tickstart) != HAL_OK)
 80024ee:	6a7b      	ldr	r3, [r7, #36]	; 0x24
 80024f0:	9300      	str	r3, [sp, #0]
 80024f2:	6b3b      	ldr	r3, [r7, #48]	; 0x30
 80024f4:	2200      	movs	r2, #0
 80024f6:	497b      	ldr	r1, [pc, #492]	; (80026e4 <HAL_I2C_Master_Receive+0x4b4>)
 80024f8:	68f8      	ldr	r0, [r7, #12]
 80024fa:	f000 fa49 	bl	8002990 <I2C_WaitOnFlagUntilTimeout>
 80024fe:	4603      	mov	r3, r0
 8002500:	2b00      	cmp	r3, #0
 8002502:	d001      	beq.n	8002508 <HAL_I2C_Master_Receive+0x2d8>
          {
            return HAL_ERROR;
 8002504:	2301      	movs	r3, #1
 8002506:	e0e9      	b.n	80026dc <HAL_I2C_Master_Receive+0x4ac>
          }

          /* Disable Acknowledge */
          CLEAR_BIT(hi2c->Instance->CR1, I2C_CR1_ACK);
 8002508:	68fb      	ldr	r3, [r7, #12]
 800250a:	681b      	ldr	r3, [r3, #0]
 800250c:	681a      	ldr	r2, [r3, #0]
 800250e:	68fb      	ldr	r3, [r7, #12]
 8002510:	681b      	ldr	r3, [r3, #0]
 8002512:	f422 6280 	bic.w	r2, r2, #1024	; 0x400
 8002516:	601a      	str	r2, [r3, #0]
  __ASM volatile ("cpsid i" : : : "memory");
 8002518:	b672      	cpsid	i
}
 800251a:	bf00      	nop
          /* Disable all active IRQs around ADDR clearing and STOP programming because the EV6_3
             software sequence must complete before the current byte end of transfer */
          __disable_irq();

          /* Read data from DR */
          *hi2c->pBuffPtr = (uint8_t)hi2c->Instance->DR;
 800251c:	68fb      	ldr	r3, [r7, #12]
 800251e:	681b      	ldr	r3, [r3, #0]
 8002520:	691a      	ldr	r2, [r3, #16]
 8002522:	68fb      	ldr	r3, [r7, #12]
 8002524:	6a5b      	ldr	r3, [r3, #36]	; 0x24
 8002526:	b2d2      	uxtb	r2, r2
 8002528:	701a      	strb	r2, [r3, #0]

          /* Increment Buffer pointer */
          hi2c->pBuffPtr++;
 800252a:	68fb      	ldr	r3, [r7, #12]
 800252c:	6a5b      	ldr	r3, [r3, #36]	; 0x24
 800252e:	1c5a      	adds	r2, r3, #1
 8002530:	68fb      	ldr	r3, [r7, #12]
 8002532:	625a      	str	r2, [r3, #36]	; 0x24

          /* Update counter */
          hi2c->XferSize--;
 8002534:	68fb      	ldr	r3, [r7, #12]
 8002536:	8d1b      	ldrh	r3, [r3, #40]	; 0x28
 8002538:	3b01      	subs	r3, #1
 800253a:	b29a      	uxth	r2, r3
 800253c:	68fb      	ldr	r3, [r7, #12]
 800253e:	851a      	strh	r2, [r3, #40]	; 0x28
          hi2c->XferCount--;
 8002540:	68fb      	ldr	r3, [r7, #12]
 8002542:	8d5b      	ldrh	r3, [r3, #42]	; 0x2a
 8002544:	b29b      	uxth	r3, r3
 8002546:	3b01      	subs	r3, #1
 8002548:	b29a      	uxth	r2, r3
 800254a:	68fb      	ldr	r3, [r7, #12]
 800254c:	855a      	strh	r2, [r3, #42]	; 0x2a

          /* Wait until BTF flag is set */
          count = I2C_TIMEOUT_FLAG * (SystemCoreClock / 25U / 1000U);
 800254e:	4b66      	ldr	r3, [pc, #408]	; (80026e8 <HAL_I2C_Master_Receive+0x4b8>)
 8002550:	681b      	ldr	r3, [r3, #0]
 8002552:	08db      	lsrs	r3, r3, #3
 8002554:	4a65      	ldr	r2, [pc, #404]	; (80026ec <HAL_I2C_Master_Receive+0x4bc>)
 8002556:	fba2 2303 	umull	r2, r3, r2, r3
 800255a:	0a1a      	lsrs	r2, r3, #8
 800255c:	4613      	mov	r3, r2
 800255e:	009b      	lsls	r3, r3, #2
 8002560:	4413      	add	r3, r2
 8002562:	00da      	lsls	r2, r3, #3
 8002564:	1ad3      	subs	r3, r2, r3
 8002566:	623b      	str	r3, [r7, #32]
          do
          {
            count--;
 8002568:	6a3b      	ldr	r3, [r7, #32]
 800256a:	3b01      	subs	r3, #1
 800256c:	623b      	str	r3, [r7, #32]
            if (count == 0U)
 800256e:	6a3b      	ldr	r3, [r7, #32]
 8002570:	2b00      	cmp	r3, #0
 8002572:	d118      	bne.n	80025a6 <HAL_I2C_Master_Receive+0x376>
            {
              hi2c->PreviousState       = I2C_STATE_NONE;
 8002574:	68fb      	ldr	r3, [r7, #12]
 8002576:	2200      	movs	r2, #0
 8002578:	631a      	str	r2, [r3, #48]	; 0x30
              hi2c->State               = HAL_I2C_STATE_READY;
 800257a:	68fb      	ldr	r3, [r7, #12]
 800257c:	2220      	movs	r2, #32
 800257e:	f883 203d 	strb.w	r2, [r3, #61]	; 0x3d
              hi2c->Mode                = HAL_I2C_MODE_NONE;
 8002582:	68fb      	ldr	r3, [r7, #12]
 8002584:	2200      	movs	r2, #0
 8002586:	f883 203e 	strb.w	r2, [r3, #62]	; 0x3e
              hi2c->ErrorCode           |= HAL_I2C_ERROR_TIMEOUT;
 800258a:	68fb      	ldr	r3, [r7, #12]
 800258c:	6c1b      	ldr	r3, [r3, #64]	; 0x40
 800258e:	f043 0220 	orr.w	r2, r3, #32
 8002592:	68fb      	ldr	r3, [r7, #12]
 8002594:	641a      	str	r2, [r3, #64]	; 0x40
  __ASM volatile ("cpsie i" : : : "memory");
 8002596:	b662      	cpsie	i
}
 8002598:	bf00      	nop

              /* Re-enable IRQs */
              __enable_irq();

              /* Process Unlocked */
              __HAL_UNLOCK(hi2c);
 800259a:	68fb      	ldr	r3, [r7, #12]
 800259c:	2200      	movs	r2, #0
 800259e:	f883 203c 	strb.w	r2, [r3, #60]	; 0x3c

              return HAL_ERROR;
 80025a2:	2301      	movs	r3, #1
 80025a4:	e09a      	b.n	80026dc <HAL_I2C_Master_Receive+0x4ac>
            }
          }
          while (__HAL_I2C_GET_FLAG(hi2c, I2C_FLAG_BTF) == RESET);
 80025a6:	68fb      	ldr	r3, [r7, #12]
 80025a8:	681b      	ldr	r3, [r3, #0]
 80025aa:	695b      	ldr	r3, [r3, #20]
 80025ac:	f003 0304 	and.w	r3, r3, #4
 80025b0:	2b04      	cmp	r3, #4
 80025b2:	d1d9      	bne.n	8002568 <HAL_I2C_Master_Receive+0x338>

          /* Generate Stop */
          SET_BIT(hi2c->Instance->CR1, I2C_CR1_STOP);
 80025b4:	68fb      	ldr	r3, [r7, #12]
 80025b6:	681b      	ldr	r3, [r3, #0]
 80025b8:	681a      	ldr	r2, [r3, #0]
 80025ba:	68fb      	ldr	r3, [r7, #12]
 80025bc:	681b      	ldr	r3, [r3, #0]
 80025be:	f442 7200 	orr.w	r2, r2, #512	; 0x200
 80025c2:	601a      	str	r2, [r3, #0]

          /* Read data from DR */
          *hi2c->pBuffPtr = (uint8_t)hi2c->Instance->DR;
 80025c4:	68fb      	ldr	r3, [r7, #12]
 80025c6:	681b      	ldr	r3, [r3, #0]
 80025c8:	691a      	ldr	r2, [r3, #16]
 80025ca:	68fb      	ldr	r3, [r7, #12]
 80025cc:	6a5b      	ldr	r3, [r3, #36]	; 0x24
 80025ce:	b2d2      	uxtb	r2, r2
 80025d0:	701a      	strb	r2, [r3, #0]

          /* Increment Buffer pointer */
          hi2c->pBuffPtr++;
 80025d2:	68fb      	ldr	r3, [r7, #12]
 80025d4:	6a5b      	ldr	r3, [r3, #36]	; 0x24
 80025d6:	1c5a      	adds	r2, r3, #1
 80025d8:	68fb      	ldr	r3, [r7, #12]
 80025da:	625a      	str	r2, [r3, #36]	; 0x24

          /* Update counter */
          hi2c->XferSize--;
 80025dc:	68fb      	ldr	r3, [r7, #12]
 80025de:	8d1b      	ldrh	r3, [r3, #40]	; 0x28
 80025e0:	3b01      	subs	r3, #1
 80025e2:	b29a      	uxth	r2, r3
 80025e4:	68fb      	ldr	r3, [r7, #12]
 80025e6:	851a      	strh	r2, [r3, #40]	; 0x28
          hi2c->XferCount--;
 80025e8:	68fb      	ldr	r3, [r7, #12]
 80025ea:	8d5b      	ldrh	r3, [r3, #42]	; 0x2a
 80025ec:	b29b      	uxth	r3, r3
 80025ee:	3b01      	subs	r3, #1
 80025f0:	b29a      	uxth	r2, r3
 80025f2:	68fb      	ldr	r3, [r7, #12]
 80025f4:	855a      	strh	r2, [r3, #42]	; 0x2a
  __ASM volatile ("cpsie i" : : : "memory");
 80025f6:	b662      	cpsie	i
}
 80025f8:	bf00      	nop

          /* Re-enable IRQs */
          __enable_irq();

          /* Read data from DR */
          *hi2c->pBuffPtr = (uint8_t)hi2c->Instance->DR;
 80025fa:	68fb      	ldr	r3, [r7, #12]
 80025fc:	681b      	ldr	r3, [r3, #0]
 80025fe:	691a      	ldr	r2, [r3, #16]
 8002600:	68fb      	ldr	r3, [r7, #12]
 8002602:	6a5b      	ldr	r3, [r3, #36]	; 0x24
 8002604:	b2d2      	uxtb	r2, r2
 8002606:	701a      	strb	r2, [r3, #0]

          /* Increment Buffer pointer */
          hi2c->pBuffPtr++;
 8002608:	68fb      	ldr	r3, [r7, #12]
 800260a:	6a5b      	ldr	r3, [r3, #36]	; 0x24
 800260c:	1c5a      	adds	r2, r3, #1
 800260e:	68fb      	ldr	r3, [r7, #12]
 8002610:	625a      	str	r2, [r3, #36]	; 0x24

          /* Update counter */
          hi2c->XferSize--;
 8002612:	68fb      	ldr	r3, [r7, #12]
 8002614:	8d1b      	ldrh	r3, [r3, #40]	; 0x28
 8002616:	3b01      	subs	r3, #1
 8002618:	b29a      	uxth	r2, r3
 800261a:	68fb      	ldr	r3, [r7, #12]
 800261c:	851a      	strh	r2, [r3, #40]	; 0x28
          hi2c->XferCount--;
 800261e:	68fb      	ldr	r3, [r7, #12]
 8002620:	8d5b      	ldrh	r3, [r3, #42]	; 0x2a
 8002622:	b29b      	uxth	r3, r3
 8002624:	3b01      	subs	r3, #1
 8002626:	b29a      	uxth	r2, r3
 8002628:	68fb      	ldr	r3, [r7, #12]
 800262a:	855a      	strh	r2, [r3, #42]	; 0x2a
 800262c:	e042      	b.n	80026b4 <HAL_I2C_Master_Receive+0x484>
        }
      }
      else
      {
        /* Wait until RXNE flag is set */
        if (I2C_WaitOnRXNEFlagUntilTimeout(hi2c, Timeout, tickstart) != HAL_OK)
 800262e:	6a7a      	ldr	r2, [r7, #36]	; 0x24
 8002630:	6b39      	ldr	r1, [r7, #48]	; 0x30
 8002632:	68f8      	ldr	r0, [r7, #12]
 8002634:	f000 fb04 	bl	8002c40 <I2C_WaitOnRXNEFlagUntilTimeout>
 8002638:	4603      	mov	r3, r0
 800263a:	2b00      	cmp	r3, #0
 800263c:	d001      	beq.n	8002642 <HAL_I2C_Master_Receive+0x412>
        {
          return HAL_ERROR;
 800263e:	2301      	movs	r3, #1
 8002640:	e04c      	b.n	80026dc <HAL_I2C_Master_Receive+0x4ac>
        }

        /* Read data from DR */
        *hi2c->pBuffPtr = (uint8_t)hi2c->Instance->DR;
 8002642:	68fb      	ldr	r3, [r7, #12]
 8002644:	681b      	ldr	r3, [r3, #0]
 8002646:	691a      	ldr	r2, [r3, #16]
 8002648:	68fb      	ldr	r3, [r7, #12]
 800264a:	6a5b      	ldr	r3, [r3, #36]	; 0x24
 800264c:	b2d2      	uxtb	r2, r2
 800264e:	701a      	strb	r2, [r3, #0]

        /* Increment Buffer pointer */
        hi2c->pBuffPtr++;
 8002650:	68fb      	ldr	r3, [r7, #12]
 8002652:	6a5b      	ldr	r3, [r3, #36]	; 0x24
 8002654:	1c5a      	adds	r2, r3, #1
 8002656:	68fb      	ldr	r3, [r7, #12]
 8002658:	625a      	str	r2, [r3, #36]	; 0x24

        /* Update counter */
        hi2c->XferSize--;
 800265a:	68fb      	ldr	r3, [r7, #12]
 800265c:	8d1b      	ldrh	r3, [r3, #40]	; 0x28
 800265e:	3b01      	subs	r3, #1
 8002660:	b29a      	uxth	r2, r3
 8002662:	68fb      	ldr	r3, [r7, #12]
 8002664:	851a      	strh	r2, [r3, #40]	; 0x28
        hi2c->XferCount--;
 8002666:	68fb      	ldr	r3, [r7, #12]
 8002668:	8d5b      	ldrh	r3, [r3, #42]	; 0x2a
 800266a:	b29b      	uxth	r3, r3
 800266c:	3b01      	subs	r3, #1
 800266e:	b29a      	uxth	r2, r3
 8002670:	68fb      	ldr	r3, [r7, #12]
 8002672:	855a      	strh	r2, [r3, #42]	; 0x2a

        if (__HAL_I2C_GET_FLAG(hi2c, I2C_FLAG_BTF) == SET)
 8002674:	68fb      	ldr	r3, [r7, #12]
 8002676:	681b      	ldr	r3, [r3, #0]
 8002678:	695b      	ldr	r3, [r3, #20]
 800267a:	f003 0304 	and.w	r3, r3, #4
 800267e:	2b04      	cmp	r3, #4
 8002680:	d118      	bne.n	80026b4 <HAL_I2C_Master_Receive+0x484>
        {
          /* Read data from DR */
          *hi2c->pBuffPtr = (uint8_t)hi2c->Instance->DR;
 8002682:	68fb      	ldr	r3, [r7, #12]
 8002684:	681b      	ldr	r3, [r3, #0]
 8002686:	691a      	ldr	r2, [r3, #16]
 8002688:	68fb      	ldr	r3, [r7, #12]
 800268a:	6a5b      	ldr	r3, [r3, #36]	; 0x24
 800268c:	b2d2      	uxtb	r2, r2
 800268e:	701a      	strb	r2, [r3, #0]

          /* Increment Buffer pointer */
          hi2c->pBuffPtr++;
 8002690:	68fb      	ldr	r3, [r7, #12]
 8002692:	6a5b      	ldr	r3, [r3, #36]	; 0x24
 8002694:	1c5a      	adds	r2, r3, #1
 8002696:	68fb      	ldr	r3, [r7, #12]
 8002698:	625a      	str	r2, [r3, #36]	; 0x24

          /* Update counter */
          hi2c->XferSize--;
 800269a:	68fb      	ldr	r3, [r7, #12]
 800269c:	8d1b      	ldrh	r3, [r3, #40]	; 0x28
 800269e:	3b01      	subs	r3, #1
 80026a0:	b29a      	uxth	r2, r3
 80026a2:	68fb      	ldr	r3, [r7, #12]
 80026a4:	851a      	strh	r2, [r3, #40]	; 0x28
          hi2c->XferCount--;
 80026a6:	68fb      	ldr	r3, [r7, #12]
 80026a8:	8d5b      	ldrh	r3, [r3, #42]	; 0x2a
 80026aa:	b29b      	uxth	r3, r3
 80026ac:	3b01      	subs	r3, #1
 80026ae:	b29a      	uxth	r2, r3
 80026b0:	68fb      	ldr	r3, [r7, #12]
 80026b2:	855a      	strh	r2, [r3, #42]	; 0x2a
    while (hi2c->XferSize > 0U)
 80026b4:	68fb      	ldr	r3, [r7, #12]
 80026b6:	8d1b      	ldrh	r3, [r3, #40]	; 0x28
 80026b8:	2b00      	cmp	r3, #0
 80026ba:	f47f ae94 	bne.w	80023e6 <HAL_I2C_Master_Receive+0x1b6>
        }
      }
    }

    hi2c->State = HAL_I2C_STATE_READY;
 80026be:	68fb      	ldr	r3, [r7, #12]
 80026c0:	2220      	movs	r2, #32
 80026c2:	f883 203d 	strb.w	r2, [r3, #61]	; 0x3d
    hi2c->Mode = HAL_I2C_MODE_NONE;
 80026c6:	68fb      	ldr	r3, [r7, #12]
 80026c8:	2200      	movs	r2, #0
 80026ca:	f883 203e 	strb.w	r2, [r3, #62]	; 0x3e

    /* Process Unlocked */
    __HAL_UNLOCK(hi2c);
 80026ce:	68fb      	ldr	r3, [r7, #12]
 80026d0:	2200      	movs	r2, #0
 80026d2:	f883 203c 	strb.w	r2, [r3, #60]	; 0x3c

    return HAL_OK;
 80026d6:	2300      	movs	r3, #0
 80026d8:	e000      	b.n	80026dc <HAL_I2C_Master_Receive+0x4ac>
  }
  else
  {
    return HAL_BUSY;
 80026da:	2302      	movs	r3, #2
  }
}
 80026dc:	4618      	mov	r0, r3
 80026de:	3728      	adds	r7, #40	; 0x28
 80026e0:	46bd      	mov	sp, r7
 80026e2:	bd80      	pop	{r7, pc}
 80026e4:	00010004 	.word	0x00010004
 80026e8:	20000060 	.word	0x20000060
 80026ec:	14f8b589 	.word	0x14f8b589

080026f0 <I2C_MasterRequestWrite>:
  * @param  Timeout Timeout duration
  * @param  Tickstart Tick start value
  * @retval HAL status
  */
static HAL_StatusTypeDef I2C_MasterRequestWrite(I2C_HandleTypeDef *hi2c, uint16_t DevAddress, uint32_t Timeout, uint32_t Tickstart)
{
 80026f0:	b580      	push	{r7, lr}
 80026f2:	b088      	sub	sp, #32
 80026f4:	af02      	add	r7, sp, #8
 80026f6:	60f8      	str	r0, [r7, #12]
 80026f8:	607a      	str	r2, [r7, #4]
 80026fa:	603b      	str	r3, [r7, #0]
 80026fc:	460b      	mov	r3, r1
 80026fe:	817b      	strh	r3, [r7, #10]
  /* Declaration of temporary variable to prevent undefined behavior of volatile usage */
  uint32_t CurrentXferOptions = hi2c->XferOptions;
 8002700:	68fb      	ldr	r3, [r7, #12]
 8002702:	6adb      	ldr	r3, [r3, #44]	; 0x2c
 8002704:	617b      	str	r3, [r7, #20]

  /* Generate Start condition if first transfer */
  if ((CurrentXferOptions == I2C_FIRST_AND_LAST_FRAME) || (CurrentXferOptions == I2C_FIRST_FRAME) || (CurrentXferOptions == I2C_NO_OPTION_FRAME))
 8002706:	697b      	ldr	r3, [r7, #20]
 8002708:	2b08      	cmp	r3, #8
 800270a:	d006      	beq.n	800271a <I2C_MasterRequestWrite+0x2a>
 800270c:	697b      	ldr	r3, [r7, #20]
 800270e:	2b01      	cmp	r3, #1
 8002710:	d003      	beq.n	800271a <I2C_MasterRequestWrite+0x2a>
 8002712:	697b      	ldr	r3, [r7, #20]
 8002714:	f513 3f80 	cmn.w	r3, #65536	; 0x10000
 8002718:	d108      	bne.n	800272c <I2C_MasterRequestWrite+0x3c>
  {
    /* Generate Start */
    SET_BIT(hi2c->Instance->CR1, I2C_CR1_START);
 800271a:	68fb      	ldr	r3, [r7, #12]
 800271c:	681b      	ldr	r3, [r3, #0]
 800271e:	681a      	ldr	r2, [r3, #0]
 8002720:	68fb      	ldr	r3, [r7, #12]
 8002722:	681b      	ldr	r3, [r3, #0]
 8002724:	f442 7280 	orr.w	r2, r2, #256	; 0x100
 8002728:	601a      	str	r2, [r3, #0]
 800272a:	e00b      	b.n	8002744 <I2C_MasterRequestWrite+0x54>
  }
  else if (hi2c->PreviousState == I2C_STATE_MASTER_BUSY_RX)
 800272c:	68fb      	ldr	r3, [r7, #12]
 800272e:	6b1b      	ldr	r3, [r3, #48]	; 0x30
 8002730:	2b12      	cmp	r3, #18
 8002732:	d107      	bne.n	8002744 <I2C_MasterRequestWrite+0x54>
  {
    /* Generate ReStart */
    SET_BIT(hi2c->Instance->CR1, I2C_CR1_START);
 8002734:	68fb      	ldr	r3, [r7, #12]
 8002736:	681b      	ldr	r3, [r3, #0]
 8002738:	681a      	ldr	r2, [r3, #0]
 800273a:	68fb      	ldr	r3, [r7, #12]
 800273c:	681b      	ldr	r3, [r3, #0]
 800273e:	f442 7280 	orr.w	r2, r2, #256	; 0x100
 8002742:	601a      	str	r2, [r3, #0]
  {
    /* Do nothing */
  }

  /* Wait until SB flag is set */
  if (I2C_WaitOnFlagUntilTimeout(hi2c, I2C_FLAG_SB, RESET, Timeout, Tickstart) != HAL_OK)
 8002744:	683b      	ldr	r3, [r7, #0]
 8002746:	9300      	str	r3, [sp, #0]
 8002748:	687b      	ldr	r3, [r7, #4]
 800274a:	2200      	movs	r2, #0
 800274c:	f04f 1101 	mov.w	r1, #65537	; 0x10001
 8002750:	68f8      	ldr	r0, [r7, #12]
 8002752:	f000 f91d 	bl	8002990 <I2C_WaitOnFlagUntilTimeout>
 8002756:	4603      	mov	r3, r0
 8002758:	2b00      	cmp	r3, #0
 800275a:	d00d      	beq.n	8002778 <I2C_MasterRequestWrite+0x88>
  {
    if (READ_BIT(hi2c->Instance->CR1, I2C_CR1_START) == I2C_CR1_START)
 800275c:	68fb      	ldr	r3, [r7, #12]
 800275e:	681b      	ldr	r3, [r3, #0]
 8002760:	681b      	ldr	r3, [r3, #0]
 8002762:	f403 7380 	and.w	r3, r3, #256	; 0x100
 8002766:	f5b3 7f80 	cmp.w	r3, #256	; 0x100
 800276a:	d103      	bne.n	8002774 <I2C_MasterRequestWrite+0x84>
    {
      hi2c->ErrorCode = HAL_I2C_WRONG_START;
 800276c:	68fb      	ldr	r3, [r7, #12]
 800276e:	f44f 7200 	mov.w	r2, #512	; 0x200
 8002772:	641a      	str	r2, [r3, #64]	; 0x40
    }
    return HAL_TIMEOUT;
 8002774:	2303      	movs	r3, #3
 8002776:	e035      	b.n	80027e4 <I2C_MasterRequestWrite+0xf4>
  }

  if (hi2c->Init.AddressingMode == I2C_ADDRESSINGMODE_7BIT)
 8002778:	68fb      	ldr	r3, [r7, #12]
 800277a:	691b      	ldr	r3, [r3, #16]
 800277c:	f5b3 4f80 	cmp.w	r3, #16384	; 0x4000
 8002780:	d108      	bne.n	8002794 <I2C_MasterRequestWrite+0xa4>
  {
    /* Send slave address */
    hi2c->Instance->DR = I2C_7BIT_ADD_WRITE(DevAddress);
 8002782:	897b      	ldrh	r3, [r7, #10]
 8002784:	b2db      	uxtb	r3, r3
 8002786:	461a      	mov	r2, r3
 8002788:	68fb      	ldr	r3, [r7, #12]
 800278a:	681b      	ldr	r3, [r3, #0]
 800278c:	f002 02fe 	and.w	r2, r2, #254	; 0xfe
 8002790:	611a      	str	r2, [r3, #16]
 8002792:	e01b      	b.n	80027cc <I2C_MasterRequestWrite+0xdc>
  }
  else
  {
    /* Send header of slave address */
    hi2c->Instance->DR = I2C_10BIT_HEADER_WRITE(DevAddress);
 8002794:	897b      	ldrh	r3, [r7, #10]
 8002796:	11db      	asrs	r3, r3, #7
 8002798:	b2db      	uxtb	r3, r3
 800279a:	f003 0306 	and.w	r3, r3, #6
 800279e:	b2db      	uxtb	r3, r3
 80027a0:	f063 030f 	orn	r3, r3, #15
 80027a4:	b2da      	uxtb	r2, r3
 80027a6:	68fb      	ldr	r3, [r7, #12]
 80027a8:	681b      	ldr	r3, [r3, #0]
 80027aa:	611a      	str	r2, [r3, #16]

    /* Wait until ADD10 flag is set */
    if (I2C_WaitOnMasterAddressFlagUntilTimeout(hi2c, I2C_FLAG_ADD10, Timeout, Tickstart) != HAL_OK)
 80027ac:	683b      	ldr	r3, [r7, #0]
 80027ae:	687a      	ldr	r2, [r7, #4]
 80027b0:	490e      	ldr	r1, [pc, #56]	; (80027ec <I2C_MasterRequestWrite+0xfc>)
 80027b2:	68f8      	ldr	r0, [r7, #12]
 80027b4:	f000 f943 	bl	8002a3e <I2C_WaitOnMasterAddressFlagUntilTimeout>
 80027b8:	4603      	mov	r3, r0
 80027ba:	2b00      	cmp	r3, #0
 80027bc:	d001      	beq.n	80027c2 <I2C_MasterRequestWrite+0xd2>
    {
      return HAL_ERROR;
 80027be:	2301      	movs	r3, #1
 80027c0:	e010      	b.n	80027e4 <I2C_MasterRequestWrite+0xf4>
    }

    /* Send slave address */
    hi2c->Instance->DR = I2C_10BIT_ADDRESS(DevAddress);
 80027c2:	897b      	ldrh	r3, [r7, #10]
 80027c4:	b2da      	uxtb	r2, r3
 80027c6:	68fb      	ldr	r3, [r7, #12]
 80027c8:	681b      	ldr	r3, [r3, #0]
 80027ca:	611a      	str	r2, [r3, #16]
  }

  /* Wait until ADDR flag is set */
  if (I2C_WaitOnMasterAddressFlagUntilTimeout(hi2c, I2C_FLAG_ADDR, Timeout, Tickstart) != HAL_OK)
 80027cc:	683b      	ldr	r3, [r7, #0]
 80027ce:	687a      	ldr	r2, [r7, #4]
 80027d0:	4907      	ldr	r1, [pc, #28]	; (80027f0 <I2C_MasterRequestWrite+0x100>)
 80027d2:	68f8      	ldr	r0, [r7, #12]
 80027d4:	f000 f933 	bl	8002a3e <I2C_WaitOnMasterAddressFlagUntilTimeout>
 80027d8:	4603      	mov	r3, r0
 80027da:	2b00      	cmp	r3, #0
 80027dc:	d001      	beq.n	80027e2 <I2C_MasterRequestWrite+0xf2>
  {
    return HAL_ERROR;
 80027de:	2301      	movs	r3, #1
 80027e0:	e000      	b.n	80027e4 <I2C_MasterRequestWrite+0xf4>
  }

  return HAL_OK;
 80027e2:	2300      	movs	r3, #0
}
 80027e4:	4618      	mov	r0, r3
 80027e6:	3718      	adds	r7, #24
 80027e8:	46bd      	mov	sp, r7
 80027ea:	bd80      	pop	{r7, pc}
 80027ec:	00010008 	.word	0x00010008
 80027f0:	00010002 	.word	0x00010002

080027f4 <I2C_MasterRequestRead>:
  * @param  Timeout Timeout duration
  * @param  Tickstart Tick start value
  * @retval HAL status
  */
static HAL_StatusTypeDef I2C_MasterRequestRead(I2C_HandleTypeDef *hi2c, uint16_t DevAddress, uint32_t Timeout, uint32_t Tickstart)
{
 80027f4:	b580      	push	{r7, lr}
 80027f6:	b088      	sub	sp, #32
 80027f8:	af02      	add	r7, sp, #8
 80027fa:	60f8      	str	r0, [r7, #12]
 80027fc:	607a      	str	r2, [r7, #4]
 80027fe:	603b      	str	r3, [r7, #0]
 8002800:	460b      	mov	r3, r1
 8002802:	817b      	strh	r3, [r7, #10]
  /* Declaration of temporary variable to prevent undefined behavior of volatile usage */
  uint32_t CurrentXferOptions = hi2c->XferOptions;
 8002804:	68fb      	ldr	r3, [r7, #12]
 8002806:	6adb      	ldr	r3, [r3, #44]	; 0x2c
 8002808:	617b      	str	r3, [r7, #20]

  /* Enable Acknowledge */
  SET_BIT(hi2c->Instance->CR1, I2C_CR1_ACK);
 800280a:	68fb      	ldr	r3, [r7, #12]
 800280c:	681b      	ldr	r3, [r3, #0]
 800280e:	681a      	ldr	r2, [r3, #0]
 8002810:	68fb      	ldr	r3, [r7, #12]
 8002812:	681b      	ldr	r3, [r3, #0]
 8002814:	f442 6280 	orr.w	r2, r2, #1024	; 0x400
 8002818:	601a      	str	r2, [r3, #0]

  /* Generate Start condition if first transfer */
  if ((CurrentXferOptions == I2C_FIRST_AND_LAST_FRAME) || (CurrentXferOptions == I2C_FIRST_FRAME)  || (CurrentXferOptions == I2C_NO_OPTION_FRAME))
 800281a:	697b      	ldr	r3, [r7, #20]
 800281c:	2b08      	cmp	r3, #8
 800281e:	d006      	beq.n	800282e <I2C_MasterRequestRead+0x3a>
 8002820:	697b      	ldr	r3, [r7, #20]
 8002822:	2b01      	cmp	r3, #1
 8002824:	d003      	beq.n	800282e <I2C_MasterRequestRead+0x3a>
 8002826:	697b      	ldr	r3, [r7, #20]
 8002828:	f513 3f80 	cmn.w	r3, #65536	; 0x10000
 800282c:	d108      	bne.n	8002840 <I2C_MasterRequestRead+0x4c>
  {
    /* Generate Start */
    SET_BIT(hi2c->Instance->CR1, I2C_CR1_START);
 800282e:	68fb      	ldr	r3, [r7, #12]
 8002830:	681b      	ldr	r3, [r3, #0]
 8002832:	681a      	ldr	r2, [r3, #0]
 8002834:	68fb      	ldr	r3, [r7, #12]
 8002836:	681b      	ldr	r3, [r3, #0]
 8002838:	f442 7280 	orr.w	r2, r2, #256	; 0x100
 800283c:	601a      	str	r2, [r3, #0]
 800283e:	e00b      	b.n	8002858 <I2C_MasterRequestRead+0x64>
  }
  else if (hi2c->PreviousState == I2C_STATE_MASTER_BUSY_TX)
 8002840:	68fb      	ldr	r3, [r7, #12]
 8002842:	6b1b      	ldr	r3, [r3, #48]	; 0x30
 8002844:	2b11      	cmp	r3, #17
 8002846:	d107      	bne.n	8002858 <I2C_MasterRequestRead+0x64>
  {
    /* Generate ReStart */
    SET_BIT(hi2c->Instance->CR1, I2C_CR1_START);
 8002848:	68fb      	ldr	r3, [r7, #12]
 800284a:	681b      	ldr	r3, [r3, #0]
 800284c:	681a      	ldr	r2, [r3, #0]
 800284e:	68fb      	ldr	r3, [r7, #12]
 8002850:	681b      	ldr	r3, [r3, #0]
 8002852:	f442 7280 	orr.w	r2, r2, #256	; 0x100
 8002856:	601a      	str	r2, [r3, #0]
  {
    /* Do nothing */
  }

  /* Wait until SB flag is set */
  if (I2C_WaitOnFlagUntilTimeout(hi2c, I2C_FLAG_SB, RESET, Timeout, Tickstart) != HAL_OK)
 8002858:	683b      	ldr	r3, [r7, #0]
 800285a:	9300      	str	r3, [sp, #0]
 800285c:	687b      	ldr	r3, [r7, #4]
 800285e:	2200      	movs	r2, #0
 8002860:	f04f 1101 	mov.w	r1, #65537	; 0x10001
 8002864:	68f8      	ldr	r0, [r7, #12]
 8002866:	f000 f893 	bl	8002990 <I2C_WaitOnFlagUntilTimeout>
 800286a:	4603      	mov	r3, r0
 800286c:	2b00      	cmp	r3, #0
 800286e:	d00d      	beq.n	800288c <I2C_MasterRequestRead+0x98>
  {
    if (READ_BIT(hi2c->Instance->CR1, I2C_CR1_START) == I2C_CR1_START)
 8002870:	68fb      	ldr	r3, [r7, #12]
 8002872:	681b      	ldr	r3, [r3, #0]
 8002874:	681b      	ldr	r3, [r3, #0]
 8002876:	f403 7380 	and.w	r3, r3, #256	; 0x100
 800287a:	f5b3 7f80 	cmp.w	r3, #256	; 0x100
 800287e:	d103      	bne.n	8002888 <I2C_MasterRequestRead+0x94>
    {
      hi2c->ErrorCode = HAL_I2C_WRONG_START;
 8002880:	68fb      	ldr	r3, [r7, #12]
 8002882:	f44f 7200 	mov.w	r2, #512	; 0x200
 8002886:	641a      	str	r2, [r3, #64]	; 0x40
    }
    return HAL_TIMEOUT;
 8002888:	2303      	movs	r3, #3
 800288a:	e079      	b.n	8002980 <I2C_MasterRequestRead+0x18c>
  }

  if (hi2c->Init.AddressingMode == I2C_ADDRESSINGMODE_7BIT)
 800288c:	68fb      	ldr	r3, [r7, #12]
 800288e:	691b      	ldr	r3, [r3, #16]
 8002890:	f5b3 4f80 	cmp.w	r3, #16384	; 0x4000
 8002894:	d108      	bne.n	80028a8 <I2C_MasterRequestRead+0xb4>
  {
    /* Send slave address */
    hi2c->Instance->DR = I2C_7BIT_ADD_READ(DevAddress);
 8002896:	897b      	ldrh	r3, [r7, #10]
 8002898:	b2db      	uxtb	r3, r3
 800289a:	f043 0301 	orr.w	r3, r3, #1
 800289e:	b2da      	uxtb	r2, r3
 80028a0:	68fb      	ldr	r3, [r7, #12]
 80028a2:	681b      	ldr	r3, [r3, #0]
 80028a4:	611a      	str	r2, [r3, #16]
 80028a6:	e05f      	b.n	8002968 <I2C_MasterRequestRead+0x174>
  }
  else
  {
    /* Send header of slave address */
    hi2c->Instance->DR = I2C_10BIT_HEADER_WRITE(DevAddress);
 80028a8:	897b      	ldrh	r3, [r7, #10]
 80028aa:	11db      	asrs	r3, r3, #7
 80028ac:	b2db      	uxtb	r3, r3
 80028ae:	f003 0306 	and.w	r3, r3, #6
 80028b2:	b2db      	uxtb	r3, r3
 80028b4:	f063 030f 	orn	r3, r3, #15
 80028b8:	b2da      	uxtb	r2, r3
 80028ba:	68fb      	ldr	r3, [r7, #12]
 80028bc:	681b      	ldr	r3, [r3, #0]
 80028be:	611a      	str	r2, [r3, #16]

    /* Wait until ADD10 flag is set */
    if (I2C_WaitOnMasterAddressFlagUntilTimeout(hi2c, I2C_FLAG_ADD10, Timeout, Tickstart) != HAL_OK)
 80028c0:	683b      	ldr	r3, [r7, #0]
 80028c2:	687a      	ldr	r2, [r7, #4]
 80028c4:	4930      	ldr	r1, [pc, #192]	; (8002988 <I2C_MasterRequestRead+0x194>)
 80028c6:	68f8      	ldr	r0, [r7, #12]
 80028c8:	f000 f8b9 	bl	8002a3e <I2C_WaitOnMasterAddressFlagUntilTimeout>
 80028cc:	4603      	mov	r3, r0
 80028ce:	2b00      	cmp	r3, #0
 80028d0:	d001      	beq.n	80028d6 <I2C_MasterRequestRead+0xe2>
    {
      return HAL_ERROR;
 80028d2:	2301      	movs	r3, #1
 80028d4:	e054      	b.n	8002980 <I2C_MasterRequestRead+0x18c>
    }

    /* Send slave address */
    hi2c->Instance->DR = I2C_10BIT_ADDRESS(DevAddress);
 80028d6:	897b      	ldrh	r3, [r7, #10]
 80028d8:	b2da      	uxtb	r2, r3
 80028da:	68fb      	ldr	r3, [r7, #12]
 80028dc:	681b      	ldr	r3, [r3, #0]
 80028de:	611a      	str	r2, [r3, #16]

    /* Wait until ADDR flag is set */
    if (I2C_WaitOnMasterAddressFlagUntilTimeout(hi2c, I2C_FLAG_ADDR, Timeout, Tickstart) != HAL_OK)
 80028e0:	683b      	ldr	r3, [r7, #0]
 80028e2:	687a      	ldr	r2, [r7, #4]
 80028e4:	4929      	ldr	r1, [pc, #164]	; (800298c <I2C_MasterRequestRead+0x198>)
 80028e6:	68f8      	ldr	r0, [r7, #12]
 80028e8:	f000 f8a9 	bl	8002a3e <I2C_WaitOnMasterAddressFlagUntilTimeout>
 80028ec:	4603      	mov	r3, r0
 80028ee:	2b00      	cmp	r3, #0
 80028f0:	d001      	beq.n	80028f6 <I2C_MasterRequestRead+0x102>
    {
      return HAL_ERROR;
 80028f2:	2301      	movs	r3, #1
 80028f4:	e044      	b.n	8002980 <I2C_MasterRequestRead+0x18c>
    }

    /* Clear ADDR flag */
    __HAL_I2C_CLEAR_ADDRFLAG(hi2c);
 80028f6:	2300      	movs	r3, #0
 80028f8:	613b      	str	r3, [r7, #16]
 80028fa:	68fb      	ldr	r3, [r7, #12]
 80028fc:	681b      	ldr	r3, [r3, #0]
 80028fe:	695b      	ldr	r3, [r3, #20]
 8002900:	613b      	str	r3, [r7, #16]
 8002902:	68fb      	ldr	r3, [r7, #12]
 8002904:	681b      	ldr	r3, [r3, #0]
 8002906:	699b      	ldr	r3, [r3, #24]
 8002908:	613b      	str	r3, [r7, #16]
 800290a:	693b      	ldr	r3, [r7, #16]

    /* Generate Restart */
    SET_BIT(hi2c->Instance->CR1, I2C_CR1_START);
 800290c:	68fb      	ldr	r3, [r7, #12]
 800290e:	681b      	ldr	r3, [r3, #0]
 8002910:	681a      	ldr	r2, [r3, #0]
 8002912:	68fb      	ldr	r3, [r7, #12]
 8002914:	681b      	ldr	r3, [r3, #0]
 8002916:	f442 7280 	orr.w	r2, r2, #256	; 0x100
 800291a:	601a      	str	r2, [r3, #0]

    /* Wait until SB flag is set */
    if (I2C_WaitOnFlagUntilTimeout(hi2c, I2C_FLAG_SB, RESET, Timeout, Tickstart) != HAL_OK)
 800291c:	683b      	ldr	r3, [r7, #0]
 800291e:	9300      	str	r3, [sp, #0]
 8002920:	687b      	ldr	r3, [r7, #4]
 8002922:	2200      	movs	r2, #0
 8002924:	f04f 1101 	mov.w	r1, #65537	; 0x10001
 8002928:	68f8      	ldr	r0, [r7, #12]
 800292a:	f000 f831 	bl	8002990 <I2C_WaitOnFlagUntilTimeout>
 800292e:	4603      	mov	r3, r0
 8002930:	2b00      	cmp	r3, #0
 8002932:	d00d      	beq.n	8002950 <I2C_MasterRequestRead+0x15c>
    {
      if (READ_BIT(hi2c->Instance->CR1, I2C_CR1_START) == I2C_CR1_START)
 8002934:	68fb      	ldr	r3, [r7, #12]
 8002936:	681b      	ldr	r3, [r3, #0]
 8002938:	681b      	ldr	r3, [r3, #0]
 800293a:	f403 7380 	and.w	r3, r3, #256	; 0x100
 800293e:	f5b3 7f80 	cmp.w	r3, #256	; 0x100
 8002942:	d103      	bne.n	800294c <I2C_MasterRequestRead+0x158>
      {
        hi2c->ErrorCode = HAL_I2C_WRONG_START;
 8002944:	68fb      	ldr	r3, [r7, #12]
 8002946:	f44f 7200 	mov.w	r2, #512	; 0x200
 800294a:	641a      	str	r2, [r3, #64]	; 0x40
      }
      return HAL_TIMEOUT;
 800294c:	2303      	movs	r3, #3
 800294e:	e017      	b.n	8002980 <I2C_MasterRequestRead+0x18c>
    }

    /* Send header of slave address */
    hi2c->Instance->DR = I2C_10BIT_HEADER_READ(DevAddress);
 8002950:	897b      	ldrh	r3, [r7, #10]
 8002952:	11db      	asrs	r3, r3, #7
 8002954:	b2db      	uxtb	r3, r3
 8002956:	f003 0306 	and.w	r3, r3, #6
 800295a:	b2db      	uxtb	r3, r3
 800295c:	f063 030e 	orn	r3, r3, #14
 8002960:	b2da      	uxtb	r2, r3
 8002962:	68fb      	ldr	r3, [r7, #12]
 8002964:	681b      	ldr	r3, [r3, #0]
 8002966:	611a      	str	r2, [r3, #16]
  }

  /* Wait until ADDR flag is set */
  if (I2C_WaitOnMasterAddressFlagUntilTimeout(hi2c, I2C_FLAG_ADDR, Timeout, Tickstart) != HAL_OK)
 8002968:	683b      	ldr	r3, [r7, #0]
 800296a:	687a      	ldr	r2, [r7, #4]
 800296c:	4907      	ldr	r1, [pc, #28]	; (800298c <I2C_MasterRequestRead+0x198>)
 800296e:	68f8      	ldr	r0, [r7, #12]
 8002970:	f000 f865 	bl	8002a3e <I2C_WaitOnMasterAddressFlagUntilTimeout>
 8002974:	4603      	mov	r3, r0
 8002976:	2b00      	cmp	r3, #0
 8002978:	d001      	beq.n	800297e <I2C_MasterRequestRead+0x18a>
  {
    return HAL_ERROR;
 800297a:	2301      	movs	r3, #1
 800297c:	e000      	b.n	8002980 <I2C_MasterRequestRead+0x18c>
  }

  return HAL_OK;
 800297e:	2300      	movs	r3, #0
}
 8002980:	4618      	mov	r0, r3
 8002982:	3718      	adds	r7, #24
 8002984:	46bd      	mov	sp, r7
 8002986:	bd80      	pop	{r7, pc}
 8002988:	00010008 	.word	0x00010008
 800298c:	00010002 	.word	0x00010002

08002990 <I2C_WaitOnFlagUntilTimeout>:
  * @param  Timeout Timeout duration
  * @param  Tickstart Tick start value
  * @retval HAL status
  */
static HAL_StatusTypeDef I2C_WaitOnFlagUntilTimeout(I2C_HandleTypeDef *hi2c, uint32_t Flag, FlagStatus Status, uint32_t Timeout, uint32_t Tickstart)
{
 8002990:	b580      	push	{r7, lr}
 8002992:	b084      	sub	sp, #16
 8002994:	af00      	add	r7, sp, #0
 8002996:	60f8      	str	r0, [r7, #12]
 8002998:	60b9      	str	r1, [r7, #8]
 800299a:	603b      	str	r3, [r7, #0]
 800299c:	4613      	mov	r3, r2
 800299e:	71fb      	strb	r3, [r7, #7]
  /* Wait until flag is set */
  while (__HAL_I2C_GET_FLAG(hi2c, Flag) == Status)
 80029a0:	e025      	b.n	80029ee <I2C_WaitOnFlagUntilTimeout+0x5e>
  {
    /* Check for the Timeout */
    if (Timeout != HAL_MAX_DELAY)
 80029a2:	683b      	ldr	r3, [r7, #0]
 80029a4:	f1b3 3fff 	cmp.w	r3, #4294967295	; 0xffffffff
 80029a8:	d021      	beq.n	80029ee <I2C_WaitOnFlagUntilTimeout+0x5e>
    {
      if (((HAL_GetTick() - Tickstart) > Timeout) || (Timeout == 0U))
 80029aa:	f7fe fec9 	bl	8001740 <HAL_GetTick>
 80029ae:	4602      	mov	r2, r0
 80029b0:	69bb      	ldr	r3, [r7, #24]
 80029b2:	1ad3      	subs	r3, r2, r3
 80029b4:	683a      	ldr	r2, [r7, #0]
 80029b6:	429a      	cmp	r2, r3
 80029b8:	d302      	bcc.n	80029c0 <I2C_WaitOnFlagUntilTimeout+0x30>
 80029ba:	683b      	ldr	r3, [r7, #0]
 80029bc:	2b00      	cmp	r3, #0
 80029be:	d116      	bne.n	80029ee <I2C_WaitOnFlagUntilTimeout+0x5e>
      {
        hi2c->PreviousState     = I2C_STATE_NONE;
 80029c0:	68fb      	ldr	r3, [r7, #12]
 80029c2:	2200      	movs	r2, #0
 80029c4:	631a      	str	r2, [r3, #48]	; 0x30
        hi2c->State             = HAL_I2C_STATE_READY;
 80029c6:	68fb      	ldr	r3, [r7, #12]
 80029c8:	2220      	movs	r2, #32
 80029ca:	f883 203d 	strb.w	r2, [r3, #61]	; 0x3d
        hi2c->Mode              = HAL_I2C_MODE_NONE;
 80029ce:	68fb      	ldr	r3, [r7, #12]
 80029d0:	2200      	movs	r2, #0
 80029d2:	f883 203e 	strb.w	r2, [r3, #62]	; 0x3e
        hi2c->ErrorCode         |= HAL_I2C_ERROR_TIMEOUT;
 80029d6:	68fb      	ldr	r3, [r7, #12]
 80029d8:	6c1b      	ldr	r3, [r3, #64]	; 0x40
 80029da:	f043 0220 	orr.w	r2, r3, #32
 80029de:	68fb      	ldr	r3, [r7, #12]
 80029e0:	641a      	str	r2, [r3, #64]	; 0x40

        /* Process Unlocked */
        __HAL_UNLOCK(hi2c);
 80029e2:	68fb      	ldr	r3, [r7, #12]
 80029e4:	2200      	movs	r2, #0
 80029e6:	f883 203c 	strb.w	r2, [r3, #60]	; 0x3c

        return HAL_ERROR;
 80029ea:	2301      	movs	r3, #1
 80029ec:	e023      	b.n	8002a36 <I2C_WaitOnFlagUntilTimeout+0xa6>
  while (__HAL_I2C_GET_FLAG(hi2c, Flag) == Status)
 80029ee:	68bb      	ldr	r3, [r7, #8]
 80029f0:	0c1b      	lsrs	r3, r3, #16
 80029f2:	b2db      	uxtb	r3, r3
 80029f4:	2b01      	cmp	r3, #1
 80029f6:	d10d      	bne.n	8002a14 <I2C_WaitOnFlagUntilTimeout+0x84>
 80029f8:	68fb      	ldr	r3, [r7, #12]
 80029fa:	681b      	ldr	r3, [r3, #0]
 80029fc:	695b      	ldr	r3, [r3, #20]
 80029fe:	43da      	mvns	r2, r3
 8002a00:	68bb      	ldr	r3, [r7, #8]
 8002a02:	4013      	ands	r3, r2
 8002a04:	b29b      	uxth	r3, r3
 8002a06:	2b00      	cmp	r3, #0
 8002a08:	bf0c      	ite	eq
 8002a0a:	2301      	moveq	r3, #1
 8002a0c:	2300      	movne	r3, #0
 8002a0e:	b2db      	uxtb	r3, r3
 8002a10:	461a      	mov	r2, r3
 8002a12:	e00c      	b.n	8002a2e <I2C_WaitOnFlagUntilTimeout+0x9e>
 8002a14:	68fb      	ldr	r3, [r7, #12]
 8002a16:	681b      	ldr	r3, [r3, #0]
 8002a18:	699b      	ldr	r3, [r3, #24]
 8002a1a:	43da      	mvns	r2, r3
 8002a1c:	68bb      	ldr	r3, [r7, #8]
 8002a1e:	4013      	ands	r3, r2
 8002a20:	b29b      	uxth	r3, r3
 8002a22:	2b00      	cmp	r3, #0
 8002a24:	bf0c      	ite	eq
 8002a26:	2301      	moveq	r3, #1
 8002a28:	2300      	movne	r3, #0
 8002a2a:	b2db      	uxtb	r3, r3
 8002a2c:	461a      	mov	r2, r3
 8002a2e:	79fb      	ldrb	r3, [r7, #7]
 8002a30:	429a      	cmp	r2, r3
 8002a32:	d0b6      	beq.n	80029a2 <I2C_WaitOnFlagUntilTimeout+0x12>
      }
    }
  }
  return HAL_OK;
 8002a34:	2300      	movs	r3, #0
}
 8002a36:	4618      	mov	r0, r3
 8002a38:	3710      	adds	r7, #16
 8002a3a:	46bd      	mov	sp, r7
 8002a3c:	bd80      	pop	{r7, pc}

08002a3e <I2C_WaitOnMasterAddressFlagUntilTimeout>:
  * @param  Timeout Timeout duration
  * @param  Tickstart Tick start value
  * @retval HAL status
  */
static HAL_StatusTypeDef I2C_WaitOnMasterAddressFlagUntilTimeout(I2C_HandleTypeDef *hi2c, uint32_t Flag, uint32_t Timeout, uint32_t Tickstart)
{
 8002a3e:	b580      	push	{r7, lr}
 8002a40:	b084      	sub	sp, #16
 8002a42:	af00      	add	r7, sp, #0
 8002a44:	60f8      	str	r0, [r7, #12]
 8002a46:	60b9      	str	r1, [r7, #8]
 8002a48:	607a      	str	r2, [r7, #4]
 8002a4a:	603b      	str	r3, [r7, #0]
  while (__HAL_I2C_GET_FLAG(hi2c, Flag) == RESET)
 8002a4c:	e051      	b.n	8002af2 <I2C_WaitOnMasterAddressFlagUntilTimeout+0xb4>
  {
    if (__HAL_I2C_GET_FLAG(hi2c, I2C_FLAG_AF) == SET)
 8002a4e:	68fb      	ldr	r3, [r7, #12]
 8002a50:	681b      	ldr	r3, [r3, #0]
 8002a52:	695b      	ldr	r3, [r3, #20]
 8002a54:	f403 6380 	and.w	r3, r3, #1024	; 0x400
 8002a58:	f5b3 6f80 	cmp.w	r3, #1024	; 0x400
 8002a5c:	d123      	bne.n	8002aa6 <I2C_WaitOnMasterAddressFlagUntilTimeout+0x68>
    {
      /* Generate Stop */
      SET_BIT(hi2c->Instance->CR1, I2C_CR1_STOP);
 8002a5e:	68fb      	ldr	r3, [r7, #12]
 8002a60:	681b      	ldr	r3, [r3, #0]
 8002a62:	681a      	ldr	r2, [r3, #0]
 8002a64:	68fb      	ldr	r3, [r7, #12]
 8002a66:	681b      	ldr	r3, [r3, #0]
 8002a68:	f442 7200 	orr.w	r2, r2, #512	; 0x200
 8002a6c:	601a      	str	r2, [r3, #0]

      /* Clear AF Flag */
      __HAL_I2C_CLEAR_FLAG(hi2c, I2C_FLAG_AF);
 8002a6e:	68fb      	ldr	r3, [r7, #12]
 8002a70:	681b      	ldr	r3, [r3, #0]
 8002a72:	f46f 6280 	mvn.w	r2, #1024	; 0x400
 8002a76:	615a      	str	r2, [r3, #20]

      hi2c->PreviousState       = I2C_STATE_NONE;
 8002a78:	68fb      	ldr	r3, [r7, #12]
 8002a7a:	2200      	movs	r2, #0
 8002a7c:	631a      	str	r2, [r3, #48]	; 0x30
      hi2c->State               = HAL_I2C_STATE_READY;
 8002a7e:	68fb      	ldr	r3, [r7, #12]
 8002a80:	2220      	movs	r2, #32
 8002a82:	f883 203d 	strb.w	r2, [r3, #61]	; 0x3d
      hi2c->Mode                = HAL_I2C_MODE_NONE;
 8002a86:	68fb      	ldr	r3, [r7, #12]
 8002a88:	2200      	movs	r2, #0
 8002a8a:	f883 203e 	strb.w	r2, [r3, #62]	; 0x3e
      hi2c->ErrorCode           |= HAL_I2C_ERROR_AF;
 8002a8e:	68fb      	ldr	r3, [r7, #12]
 8002a90:	6c1b      	ldr	r3, [r3, #64]	; 0x40
 8002a92:	f043 0204 	orr.w	r2, r3, #4
 8002a96:	68fb      	ldr	r3, [r7, #12]
 8002a98:	641a      	str	r2, [r3, #64]	; 0x40

      /* Process Unlocked */
      __HAL_UNLOCK(hi2c);
 8002a9a:	68fb      	ldr	r3, [r7, #12]
 8002a9c:	2200      	movs	r2, #0
 8002a9e:	f883 203c 	strb.w	r2, [r3, #60]	; 0x3c

      return HAL_ERROR;
 8002aa2:	2301      	movs	r3, #1
 8002aa4:	e046      	b.n	8002b34 <I2C_WaitOnMasterAddressFlagUntilTimeout+0xf6>
    }

    /* Check for the Timeout */
    if (Timeout != HAL_MAX_DELAY)
 8002aa6:	687b      	ldr	r3, [r7, #4]
 8002aa8:	f1b3 3fff 	cmp.w	r3, #4294967295	; 0xffffffff
 8002aac:	d021      	beq.n	8002af2 <I2C_WaitOnMasterAddressFlagUntilTimeout+0xb4>
    {
      if (((HAL_GetTick() - Tickstart) > Timeout) || (Timeout == 0U))
 8002aae:	f7fe fe47 	bl	8001740 <HAL_GetTick>
 8002ab2:	4602      	mov	r2, r0
 8002ab4:	683b      	ldr	r3, [r7, #0]
 8002ab6:	1ad3      	subs	r3, r2, r3
 8002ab8:	687a      	ldr	r2, [r7, #4]
 8002aba:	429a      	cmp	r2, r3
 8002abc:	d302      	bcc.n	8002ac4 <I2C_WaitOnMasterAddressFlagUntilTimeout+0x86>
 8002abe:	687b      	ldr	r3, [r7, #4]
 8002ac0:	2b00      	cmp	r3, #0
 8002ac2:	d116      	bne.n	8002af2 <I2C_WaitOnMasterAddressFlagUntilTimeout+0xb4>
      {
        hi2c->PreviousState       = I2C_STATE_NONE;
 8002ac4:	68fb      	ldr	r3, [r7, #12]
 8002ac6:	2200      	movs	r2, #0
 8002ac8:	631a      	str	r2, [r3, #48]	; 0x30
        hi2c->State               = HAL_I2C_STATE_READY;
 8002aca:	68fb      	ldr	r3, [r7, #12]
 8002acc:	2220      	movs	r2, #32
 8002ace:	f883 203d 	strb.w	r2, [r3, #61]	; 0x3d
        hi2c->Mode                = HAL_I2C_MODE_NONE;
 8002ad2:	68fb      	ldr	r3, [r7, #12]
 8002ad4:	2200      	movs	r2, #0
 8002ad6:	f883 203e 	strb.w	r2, [r3, #62]	; 0x3e
        hi2c->ErrorCode           |= HAL_I2C_ERROR_TIMEOUT;
 8002ada:	68fb      	ldr	r3, [r7, #12]
 8002adc:	6c1b      	ldr	r3, [r3, #64]	; 0x40
 8002ade:	f043 0220 	orr.w	r2, r3, #32
 8002ae2:	68fb      	ldr	r3, [r7, #12]
 8002ae4:	641a      	str	r2, [r3, #64]	; 0x40

        /* Process Unlocked */
        __HAL_UNLOCK(hi2c);
 8002ae6:	68fb      	ldr	r3, [r7, #12]
 8002ae8:	2200      	movs	r2, #0
 8002aea:	f883 203c 	strb.w	r2, [r3, #60]	; 0x3c

        return HAL_ERROR;
 8002aee:	2301      	movs	r3, #1
 8002af0:	e020      	b.n	8002b34 <I2C_WaitOnMasterAddressFlagUntilTimeout+0xf6>
  while (__HAL_I2C_GET_FLAG(hi2c, Flag) == RESET)
 8002af2:	68bb      	ldr	r3, [r7, #8]
 8002af4:	0c1b      	lsrs	r3, r3, #16
 8002af6:	b2db      	uxtb	r3, r3
 8002af8:	2b01      	cmp	r3, #1
 8002afa:	d10c      	bne.n	8002b16 <I2C_WaitOnMasterAddressFlagUntilTimeout+0xd8>
 8002afc:	68fb      	ldr	r3, [r7, #12]
 8002afe:	681b      	ldr	r3, [r3, #0]
 8002b00:	695b      	ldr	r3, [r3, #20]
 8002b02:	43da      	mvns	r2, r3
 8002b04:	68bb      	ldr	r3, [r7, #8]
 8002b06:	4013      	ands	r3, r2
 8002b08:	b29b      	uxth	r3, r3
 8002b0a:	2b00      	cmp	r3, #0
 8002b0c:	bf14      	ite	ne
 8002b0e:	2301      	movne	r3, #1
 8002b10:	2300      	moveq	r3, #0
 8002b12:	b2db      	uxtb	r3, r3
 8002b14:	e00b      	b.n	8002b2e <I2C_WaitOnMasterAddressFlagUntilTimeout+0xf0>
 8002b16:	68fb      	ldr	r3, [r7, #12]
 8002b18:	681b      	ldr	r3, [r3, #0]
 8002b1a:	699b      	ldr	r3, [r3, #24]
 8002b1c:	43da      	mvns	r2, r3
 8002b1e:	68bb      	ldr	r3, [r7, #8]
 8002b20:	4013      	ands	r3, r2
 8002b22:	b29b      	uxth	r3, r3
 8002b24:	2b00      	cmp	r3, #0
 8002b26:	bf14      	ite	ne
 8002b28:	2301      	movne	r3, #1
 8002b2a:	2300      	moveq	r3, #0
 8002b2c:	b2db      	uxtb	r3, r3
 8002b2e:	2b00      	cmp	r3, #0
 8002b30:	d18d      	bne.n	8002a4e <I2C_WaitOnMasterAddressFlagUntilTimeout+0x10>
      }
    }
  }
  return HAL_OK;
 8002b32:	2300      	movs	r3, #0
}
 8002b34:	4618      	mov	r0, r3
 8002b36:	3710      	adds	r7, #16
 8002b38:	46bd      	mov	sp, r7
 8002b3a:	bd80      	pop	{r7, pc}

08002b3c <I2C_WaitOnTXEFlagUntilTimeout>:
  * @param  Timeout Timeout duration
  * @param  Tickstart Tick start value
  * @retval HAL status
  */
static HAL_StatusTypeDef I2C_WaitOnTXEFlagUntilTimeout(I2C_HandleTypeDef *hi2c, uint32_t Timeout, uint32_t Tickstart)
{
 8002b3c:	b580      	push	{r7, lr}
 8002b3e:	b084      	sub	sp, #16
 8002b40:	af00      	add	r7, sp, #0
 8002b42:	60f8      	str	r0, [r7, #12]
 8002b44:	60b9      	str	r1, [r7, #8]
 8002b46:	607a      	str	r2, [r7, #4]
  while (__HAL_I2C_GET_FLAG(hi2c, I2C_FLAG_TXE) == RESET)
 8002b48:	e02d      	b.n	8002ba6 <I2C_WaitOnTXEFlagUntilTimeout+0x6a>
  {
    /* Check if a NACK is detected */
    if (I2C_IsAcknowledgeFailed(hi2c) != HAL_OK)
 8002b4a:	68f8      	ldr	r0, [r7, #12]
 8002b4c:	f000 f8ce 	bl	8002cec <I2C_IsAcknowledgeFailed>
 8002b50:	4603      	mov	r3, r0
 8002b52:	2b00      	cmp	r3, #0
 8002b54:	d001      	beq.n	8002b5a <I2C_WaitOnTXEFlagUntilTimeout+0x1e>
    {
      return HAL_ERROR;
 8002b56:	2301      	movs	r3, #1
 8002b58:	e02d      	b.n	8002bb6 <I2C_WaitOnTXEFlagUntilTimeout+0x7a>
    }

    /* Check for the Timeout */
    if (Timeout != HAL_MAX_DELAY)
 8002b5a:	68bb      	ldr	r3, [r7, #8]
 8002b5c:	f1b3 3fff 	cmp.w	r3, #4294967295	; 0xffffffff
 8002b60:	d021      	beq.n	8002ba6 <I2C_WaitOnTXEFlagUntilTimeout+0x6a>
    {
      if (((HAL_GetTick() - Tickstart) > Timeout) || (Timeout == 0U))
 8002b62:	f7fe fded 	bl	8001740 <HAL_GetTick>
 8002b66:	4602      	mov	r2, r0
 8002b68:	687b      	ldr	r3, [r7, #4]
 8002b6a:	1ad3      	subs	r3, r2, r3
 8002b6c:	68ba      	ldr	r2, [r7, #8]
 8002b6e:	429a      	cmp	r2, r3
 8002b70:	d302      	bcc.n	8002b78 <I2C_WaitOnTXEFlagUntilTimeout+0x3c>
 8002b72:	68bb      	ldr	r3, [r7, #8]
 8002b74:	2b00      	cmp	r3, #0
 8002b76:	d116      	bne.n	8002ba6 <I2C_WaitOnTXEFlagUntilTimeout+0x6a>
      {
        hi2c->PreviousState       = I2C_STATE_NONE;
 8002b78:	68fb      	ldr	r3, [r7, #12]
 8002b7a:	2200      	movs	r2, #0
 8002b7c:	631a      	str	r2, [r3, #48]	; 0x30
        hi2c->State               = HAL_I2C_STATE_READY;
 8002b7e:	68fb      	ldr	r3, [r7, #12]
 8002b80:	2220      	movs	r2, #32
 8002b82:	f883 203d 	strb.w	r2, [r3, #61]	; 0x3d
        hi2c->Mode                = HAL_I2C_MODE_NONE;
 8002b86:	68fb      	ldr	r3, [r7, #12]
 8002b88:	2200      	movs	r2, #0
 8002b8a:	f883 203e 	strb.w	r2, [r3, #62]	; 0x3e
        hi2c->ErrorCode           |= HAL_I2C_ERROR_TIMEOUT;
 8002b8e:	68fb      	ldr	r3, [r7, #12]
 8002b90:	6c1b      	ldr	r3, [r3, #64]	; 0x40
 8002b92:	f043 0220 	orr.w	r2, r3, #32
 8002b96:	68fb      	ldr	r3, [r7, #12]
 8002b98:	641a      	str	r2, [r3, #64]	; 0x40

        /* Process Unlocked */
        __HAL_UNLOCK(hi2c);
 8002b9a:	68fb      	ldr	r3, [r7, #12]
 8002b9c:	2200      	movs	r2, #0
 8002b9e:	f883 203c 	strb.w	r2, [r3, #60]	; 0x3c

        return HAL_ERROR;
 8002ba2:	2301      	movs	r3, #1
 8002ba4:	e007      	b.n	8002bb6 <I2C_WaitOnTXEFlagUntilTimeout+0x7a>
  while (__HAL_I2C_GET_FLAG(hi2c, I2C_FLAG_TXE) == RESET)
 8002ba6:	68fb      	ldr	r3, [r7, #12]
 8002ba8:	681b      	ldr	r3, [r3, #0]
 8002baa:	695b      	ldr	r3, [r3, #20]
 8002bac:	f003 0380 	and.w	r3, r3, #128	; 0x80
 8002bb0:	2b80      	cmp	r3, #128	; 0x80
 8002bb2:	d1ca      	bne.n	8002b4a <I2C_WaitOnTXEFlagUntilTimeout+0xe>
      }
    }
  }
  return HAL_OK;
 8002bb4:	2300      	movs	r3, #0
}
 8002bb6:	4618      	mov	r0, r3
 8002bb8:	3710      	adds	r7, #16
 8002bba:	46bd      	mov	sp, r7
 8002bbc:	bd80      	pop	{r7, pc}

08002bbe <I2C_WaitOnBTFFlagUntilTimeout>:
  * @param  Timeout Timeout duration
  * @param  Tickstart Tick start value
  * @retval HAL status
  */
static HAL_StatusTypeDef I2C_WaitOnBTFFlagUntilTimeout(I2C_HandleTypeDef *hi2c, uint32_t Timeout, uint32_t Tickstart)
{
 8002bbe:	b580      	push	{r7, lr}
 8002bc0:	b084      	sub	sp, #16
 8002bc2:	af00      	add	r7, sp, #0
 8002bc4:	60f8      	str	r0, [r7, #12]
 8002bc6:	60b9      	str	r1, [r7, #8]
 8002bc8:	607a      	str	r2, [r7, #4]
  while (__HAL_I2C_GET_FLAG(hi2c, I2C_FLAG_BTF) == RESET)
 8002bca:	e02d      	b.n	8002c28 <I2C_WaitOnBTFFlagUntilTimeout+0x6a>
  {
    /* Check if a NACK is detected */
    if (I2C_IsAcknowledgeFailed(hi2c) != HAL_OK)
 8002bcc:	68f8      	ldr	r0, [r7, #12]
 8002bce:	f000 f88d 	bl	8002cec <I2C_IsAcknowledgeFailed>
 8002bd2:	4603      	mov	r3, r0
 8002bd4:	2b00      	cmp	r3, #0
 8002bd6:	d001      	beq.n	8002bdc <I2C_WaitOnBTFFlagUntilTimeout+0x1e>
    {
      return HAL_ERROR;
 8002bd8:	2301      	movs	r3, #1
 8002bda:	e02d      	b.n	8002c38 <I2C_WaitOnBTFFlagUntilTimeout+0x7a>
    }

    /* Check for the Timeout */
    if (Timeout != HAL_MAX_DELAY)
 8002bdc:	68bb      	ldr	r3, [r7, #8]
 8002bde:	f1b3 3fff 	cmp.w	r3, #4294967295	; 0xffffffff
 8002be2:	d021      	beq.n	8002c28 <I2C_WaitOnBTFFlagUntilTimeout+0x6a>
    {
      if (((HAL_GetTick() - Tickstart) > Timeout) || (Timeout == 0U))
 8002be4:	f7fe fdac 	bl	8001740 <HAL_GetTick>
 8002be8:	4602      	mov	r2, r0
 8002bea:	687b      	ldr	r3, [r7, #4]
 8002bec:	1ad3      	subs	r3, r2, r3
 8002bee:	68ba      	ldr	r2, [r7, #8]
 8002bf0:	429a      	cmp	r2, r3
 8002bf2:	d302      	bcc.n	8002bfa <I2C_WaitOnBTFFlagUntilTimeout+0x3c>
 8002bf4:	68bb      	ldr	r3, [r7, #8]
 8002bf6:	2b00      	cmp	r3, #0
 8002bf8:	d116      	bne.n	8002c28 <I2C_WaitOnBTFFlagUntilTimeout+0x6a>
      {
        hi2c->PreviousState       = I2C_STATE_NONE;
 8002bfa:	68fb      	ldr	r3, [r7, #12]
 8002bfc:	2200      	movs	r2, #0
 8002bfe:	631a      	str	r2, [r3, #48]	; 0x30
        hi2c->State               = HAL_I2C_STATE_READY;
 8002c00:	68fb      	ldr	r3, [r7, #12]
 8002c02:	2220      	movs	r2, #32
 8002c04:	f883 203d 	strb.w	r2, [r3, #61]	; 0x3d
        hi2c->Mode                = HAL_I2C_MODE_NONE;
 8002c08:	68fb      	ldr	r3, [r7, #12]
 8002c0a:	2200      	movs	r2, #0
 8002c0c:	f883 203e 	strb.w	r2, [r3, #62]	; 0x3e
        hi2c->ErrorCode           |= HAL_I2C_ERROR_TIMEOUT;
 8002c10:	68fb      	ldr	r3, [r7, #12]
 8002c12:	6c1b      	ldr	r3, [r3, #64]	; 0x40
 8002c14:	f043 0220 	orr.w	r2, r3, #32
 8002c18:	68fb      	ldr	r3, [r7, #12]
 8002c1a:	641a      	str	r2, [r3, #64]	; 0x40

        /* Process Unlocked */
        __HAL_UNLOCK(hi2c);
 8002c1c:	68fb      	ldr	r3, [r7, #12]
 8002c1e:	2200      	movs	r2, #0
 8002c20:	f883 203c 	strb.w	r2, [r3, #60]	; 0x3c

        return HAL_ERROR;
 8002c24:	2301      	movs	r3, #1
 8002c26:	e007      	b.n	8002c38 <I2C_WaitOnBTFFlagUntilTimeout+0x7a>
  while (__HAL_I2C_GET_FLAG(hi2c, I2C_FLAG_BTF) == RESET)
 8002c28:	68fb      	ldr	r3, [r7, #12]
 8002c2a:	681b      	ldr	r3, [r3, #0]
 8002c2c:	695b      	ldr	r3, [r3, #20]
 8002c2e:	f003 0304 	and.w	r3, r3, #4
 8002c32:	2b04      	cmp	r3, #4
 8002c34:	d1ca      	bne.n	8002bcc <I2C_WaitOnBTFFlagUntilTimeout+0xe>
      }
    }
  }
  return HAL_OK;
 8002c36:	2300      	movs	r3, #0
}
 8002c38:	4618      	mov	r0, r3
 8002c3a:	3710      	adds	r7, #16
 8002c3c:	46bd      	mov	sp, r7
 8002c3e:	bd80      	pop	{r7, pc}

08002c40 <I2C_WaitOnRXNEFlagUntilTimeout>:
  * @param  Timeout Timeout duration
  * @param  Tickstart Tick start value
  * @retval HAL status
  */
static HAL_StatusTypeDef I2C_WaitOnRXNEFlagUntilTimeout(I2C_HandleTypeDef *hi2c, uint32_t Timeout, uint32_t Tickstart)
{
 8002c40:	b580      	push	{r7, lr}
 8002c42:	b084      	sub	sp, #16
 8002c44:	af00      	add	r7, sp, #0
 8002c46:	60f8      	str	r0, [r7, #12]
 8002c48:	60b9      	str	r1, [r7, #8]
 8002c4a:	607a      	str	r2, [r7, #4]

  while (__HAL_I2C_GET_FLAG(hi2c, I2C_FLAG_RXNE) == RESET)
 8002c4c:	e042      	b.n	8002cd4 <I2C_WaitOnRXNEFlagUntilTimeout+0x94>
  {
    /* Check if a STOPF is detected */
    if (__HAL_I2C_GET_FLAG(hi2c, I2C_FLAG_STOPF) == SET)
 8002c4e:	68fb      	ldr	r3, [r7, #12]
 8002c50:	681b      	ldr	r3, [r3, #0]
 8002c52:	695b      	ldr	r3, [r3, #20]
 8002c54:	f003 0310 	and.w	r3, r3, #16
 8002c58:	2b10      	cmp	r3, #16
 8002c5a:	d119      	bne.n	8002c90 <I2C_WaitOnRXNEFlagUntilTimeout+0x50>
    {
      /* Clear STOP Flag */
      __HAL_I2C_CLEAR_FLAG(hi2c, I2C_FLAG_STOPF);
 8002c5c:	68fb      	ldr	r3, [r7, #12]
 8002c5e:	681b      	ldr	r3, [r3, #0]
 8002c60:	f06f 0210 	mvn.w	r2, #16
 8002c64:	615a      	str	r2, [r3, #20]

      hi2c->PreviousState       = I2C_STATE_NONE;
 8002c66:	68fb      	ldr	r3, [r7, #12]
 8002c68:	2200      	movs	r2, #0
 8002c6a:	631a      	str	r2, [r3, #48]	; 0x30
      hi2c->State               = HAL_I2C_STATE_READY;
 8002c6c:	68fb      	ldr	r3, [r7, #12]
 8002c6e:	2220      	movs	r2, #32
 8002c70:	f883 203d 	strb.w	r2, [r3, #61]	; 0x3d
      hi2c->Mode                = HAL_I2C_MODE_NONE;
 8002c74:	68fb      	ldr	r3, [r7, #12]
 8002c76:	2200      	movs	r2, #0
 8002c78:	f883 203e 	strb.w	r2, [r3, #62]	; 0x3e
      hi2c->ErrorCode           |= HAL_I2C_ERROR_NONE;
 8002c7c:	68fb      	ldr	r3, [r7, #12]
 8002c7e:	6c1a      	ldr	r2, [r3, #64]	; 0x40
 8002c80:	68fb      	ldr	r3, [r7, #12]
 8002c82:	641a      	str	r2, [r3, #64]	; 0x40

      /* Process Unlocked */
      __HAL_UNLOCK(hi2c);
 8002c84:	68fb      	ldr	r3, [r7, #12]
 8002c86:	2200      	movs	r2, #0
 8002c88:	f883 203c 	strb.w	r2, [r3, #60]	; 0x3c

      return HAL_ERROR;
 8002c8c:	2301      	movs	r3, #1
 8002c8e:	e029      	b.n	8002ce4 <I2C_WaitOnRXNEFlagUntilTimeout+0xa4>
    }

    /* Check for the Timeout */
    if (((HAL_GetTick() - Tickstart) > Timeout) || (Timeout == 0U))
 8002c90:	f7fe fd56 	bl	8001740 <HAL_GetTick>
 8002c94:	4602      	mov	r2, r0
 8002c96:	687b      	ldr	r3, [r7, #4]
 8002c98:	1ad3      	subs	r3, r2, r3
 8002c9a:	68ba      	ldr	r2, [r7, #8]
 8002c9c:	429a      	cmp	r2, r3
 8002c9e:	d302      	bcc.n	8002ca6 <I2C_WaitOnRXNEFlagUntilTimeout+0x66>
 8002ca0:	68bb      	ldr	r3, [r7, #8]
 8002ca2:	2b00      	cmp	r3, #0
 8002ca4:	d116      	bne.n	8002cd4 <I2C_WaitOnRXNEFlagUntilTimeout+0x94>
    {
      hi2c->PreviousState       = I2C_STATE_NONE;
 8002ca6:	68fb      	ldr	r3, [r7, #12]
 8002ca8:	2200      	movs	r2, #0
 8002caa:	631a      	str	r2, [r3, #48]	; 0x30
      hi2c->State               = HAL_I2C_STATE_READY;
 8002cac:	68fb      	ldr	r3, [r7, #12]
 8002cae:	2220      	movs	r2, #32
 8002cb0:	f883 203d 	strb.w	r2, [r3, #61]	; 0x3d
      hi2c->Mode                = HAL_I2C_MODE_NONE;
 8002cb4:	68fb      	ldr	r3, [r7, #12]
 8002cb6:	2200      	movs	r2, #0
 8002cb8:	f883 203e 	strb.w	r2, [r3, #62]	; 0x3e
      hi2c->ErrorCode           |= HAL_I2C_ERROR_TIMEOUT;
 8002cbc:	68fb      	ldr	r3, [r7, #12]
 8002cbe:	6c1b      	ldr	r3, [r3, #64]	; 0x40
 8002cc0:	f043 0220 	orr.w	r2, r3, #32
 8002cc4:	68fb      	ldr	r3, [r7, #12]
 8002cc6:	641a      	str	r2, [r3, #64]	; 0x40

      /* Process Unlocked */
      __HAL_UNLOCK(hi2c);
 8002cc8:	68fb      	ldr	r3, [r7, #12]
 8002cca:	2200      	movs	r2, #0
 8002ccc:	f883 203c 	strb.w	r2, [r3, #60]	; 0x3c

      return HAL_ERROR;
 8002cd0:	2301      	movs	r3, #1
 8002cd2:	e007      	b.n	8002ce4 <I2C_WaitOnRXNEFlagUntilTimeout+0xa4>
  while (__HAL_I2C_GET_FLAG(hi2c, I2C_FLAG_RXNE) == RESET)
 8002cd4:	68fb      	ldr	r3, [r7, #12]
 8002cd6:	681b      	ldr	r3, [r3, #0]
 8002cd8:	695b      	ldr	r3, [r3, #20]
 8002cda:	f003 0340 	and.w	r3, r3, #64	; 0x40
 8002cde:	2b40      	cmp	r3, #64	; 0x40
 8002ce0:	d1b5      	bne.n	8002c4e <I2C_WaitOnRXNEFlagUntilTimeout+0xe>
    }
  }
  return HAL_OK;
 8002ce2:	2300      	movs	r3, #0
}
 8002ce4:	4618      	mov	r0, r3
 8002ce6:	3710      	adds	r7, #16
 8002ce8:	46bd      	mov	sp, r7
 8002cea:	bd80      	pop	{r7, pc}

08002cec <I2C_IsAcknowledgeFailed>:
  * @param  hi2c Pointer to a I2C_HandleTypeDef structure that contains
  *                the configuration information for the specified I2C.
  * @retval HAL status
  */
static HAL_StatusTypeDef I2C_IsAcknowledgeFailed(I2C_HandleTypeDef *hi2c)
{
 8002cec:	b480      	push	{r7}
 8002cee:	b083      	sub	sp, #12
 8002cf0:	af00      	add	r7, sp, #0
 8002cf2:	6078      	str	r0, [r7, #4]
  if (__HAL_I2C_GET_FLAG(hi2c, I2C_FLAG_AF) == SET)
 8002cf4:	687b      	ldr	r3, [r7, #4]
 8002cf6:	681b      	ldr	r3, [r3, #0]
 8002cf8:	695b      	ldr	r3, [r3, #20]
 8002cfa:	f403 6380 	and.w	r3, r3, #1024	; 0x400
 8002cfe:	f5b3 6f80 	cmp.w	r3, #1024	; 0x400
 8002d02:	d11b      	bne.n	8002d3c <I2C_IsAcknowledgeFailed+0x50>
  {
    /* Clear NACKF Flag */
    __HAL_I2C_CLEAR_FLAG(hi2c, I2C_FLAG_AF);
 8002d04:	687b      	ldr	r3, [r7, #4]
 8002d06:	681b      	ldr	r3, [r3, #0]
 8002d08:	f46f 6280 	mvn.w	r2, #1024	; 0x400
 8002d0c:	615a      	str	r2, [r3, #20]

    hi2c->PreviousState       = I2C_STATE_NONE;
 8002d0e:	687b      	ldr	r3, [r7, #4]
 8002d10:	2200      	movs	r2, #0
 8002d12:	631a      	str	r2, [r3, #48]	; 0x30
    hi2c->State               = HAL_I2C_STATE_READY;
 8002d14:	687b      	ldr	r3, [r7, #4]
 8002d16:	2220      	movs	r2, #32
 8002d18:	f883 203d 	strb.w	r2, [r3, #61]	; 0x3d
    hi2c->Mode                = HAL_I2C_MODE_NONE;
 8002d1c:	687b      	ldr	r3, [r7, #4]
 8002d1e:	2200      	movs	r2, #0
 8002d20:	f883 203e 	strb.w	r2, [r3, #62]	; 0x3e
    hi2c->ErrorCode           |= HAL_I2C_ERROR_AF;
 8002d24:	687b      	ldr	r3, [r7, #4]
 8002d26:	6c1b      	ldr	r3, [r3, #64]	; 0x40
 8002d28:	f043 0204 	orr.w	r2, r3, #4
 8002d2c:	687b      	ldr	r3, [r7, #4]
 8002d2e:	641a      	str	r2, [r3, #64]	; 0x40

    /* Process Unlocked */
    __HAL_UNLOCK(hi2c);
 8002d30:	687b      	ldr	r3, [r7, #4]
 8002d32:	2200      	movs	r2, #0
 8002d34:	f883 203c 	strb.w	r2, [r3, #60]	; 0x3c

    return HAL_ERROR;
 8002d38:	2301      	movs	r3, #1
 8002d3a:	e000      	b.n	8002d3e <I2C_IsAcknowledgeFailed+0x52>
  }
  return HAL_OK;
 8002d3c:	2300      	movs	r3, #0
}
 8002d3e:	4618      	mov	r0, r3
 8002d40:	370c      	adds	r7, #12
 8002d42:	46bd      	mov	sp, r7
 8002d44:	bc80      	pop	{r7}
 8002d46:	4770      	bx	lr

08002d48 <HAL_RCC_OscConfig>:
  *         supported by this macro. User should request a transition to HSE Off
  *         first and then HSE On or HSE Bypass.
  * @retval HAL status
  */
HAL_StatusTypeDef HAL_RCC_OscConfig(RCC_OscInitTypeDef  *RCC_OscInitStruct)
{
 8002d48:	b580      	push	{r7, lr}
 8002d4a:	b086      	sub	sp, #24
 8002d4c:	af00      	add	r7, sp, #0
 8002d4e:	6078      	str	r0, [r7, #4]
  uint32_t tickstart;
  uint32_t pll_config;

  /* Check Null pointer */
  if (RCC_OscInitStruct == NULL)
 8002d50:	687b      	ldr	r3, [r7, #4]
 8002d52:	2b00      	cmp	r3, #0
 8002d54:	d101      	bne.n	8002d5a <HAL_RCC_OscConfig+0x12>
  {
    return HAL_ERROR;
 8002d56:	2301      	movs	r3, #1
 8002d58:	e272      	b.n	8003240 <HAL_RCC_OscConfig+0x4f8>

  /* Check the parameters */
  assert_param(IS_RCC_OSCILLATORTYPE(RCC_OscInitStruct->OscillatorType));

  /*------------------------------- HSE Configuration ------------------------*/
  if (((RCC_OscInitStruct->OscillatorType) & RCC_OSCILLATORTYPE_HSE) == RCC_OSCILLATORTYPE_HSE)
 8002d5a:	687b      	ldr	r3, [r7, #4]
 8002d5c:	681b      	ldr	r3, [r3, #0]
 8002d5e:	f003 0301 	and.w	r3, r3, #1
 8002d62:	2b00      	cmp	r3, #0
 8002d64:	f000 8087 	beq.w	8002e76 <HAL_RCC_OscConfig+0x12e>
  {
    /* Check the parameters */
    assert_param(IS_RCC_HSE(RCC_OscInitStruct->HSEState));

    /* When the HSE is used as system clock or clock source for PLL in these cases it is not allowed to be disabled */
    if ((__HAL_RCC_GET_SYSCLK_SOURCE() == RCC_SYSCLKSOURCE_STATUS_HSE)
 8002d68:	4b92      	ldr	r3, [pc, #584]	; (8002fb4 <HAL_RCC_OscConfig+0x26c>)
 8002d6a:	685b      	ldr	r3, [r3, #4]
 8002d6c:	f003 030c 	and.w	r3, r3, #12
 8002d70:	2b04      	cmp	r3, #4
 8002d72:	d00c      	beq.n	8002d8e <HAL_RCC_OscConfig+0x46>
        || ((__HAL_RCC_GET_SYSCLK_SOURCE() == RCC_SYSCLKSOURCE_STATUS_PLLCLK) && (__HAL_RCC_GET_PLL_OSCSOURCE() == RCC_PLLSOURCE_HSE)))
 8002d74:	4b8f      	ldr	r3, [pc, #572]	; (8002fb4 <HAL_RCC_OscConfig+0x26c>)
 8002d76:	685b      	ldr	r3, [r3, #4]
 8002d78:	f003 030c 	and.w	r3, r3, #12
 8002d7c:	2b08      	cmp	r3, #8
 8002d7e:	d112      	bne.n	8002da6 <HAL_RCC_OscConfig+0x5e>
 8002d80:	4b8c      	ldr	r3, [pc, #560]	; (8002fb4 <HAL_RCC_OscConfig+0x26c>)
 8002d82:	685b      	ldr	r3, [r3, #4]
 8002d84:	f403 3380 	and.w	r3, r3, #65536	; 0x10000
 8002d88:	f5b3 3f80 	cmp.w	r3, #65536	; 0x10000
 8002d8c:	d10b      	bne.n	8002da6 <HAL_RCC_OscConfig+0x5e>
    {
      if ((__HAL_RCC_GET_FLAG(RCC_FLAG_HSERDY) != RESET) && (RCC_OscInitStruct->HSEState == RCC_HSE_OFF))
 8002d8e:	4b89      	ldr	r3, [pc, #548]	; (8002fb4 <HAL_RCC_OscConfig+0x26c>)
 8002d90:	681b      	ldr	r3, [r3, #0]
 8002d92:	f403 3300 	and.w	r3, r3, #131072	; 0x20000
 8002d96:	2b00      	cmp	r3, #0
 8002d98:	d06c      	beq.n	8002e74 <HAL_RCC_OscConfig+0x12c>
 8002d9a:	687b      	ldr	r3, [r7, #4]
 8002d9c:	685b      	ldr	r3, [r3, #4]
 8002d9e:	2b00      	cmp	r3, #0
 8002da0:	d168      	bne.n	8002e74 <HAL_RCC_OscConfig+0x12c>
      {
        return HAL_ERROR;
 8002da2:	2301      	movs	r3, #1
 8002da4:	e24c      	b.n	8003240 <HAL_RCC_OscConfig+0x4f8>
      }
    }
    else
    {
      /* Set the new HSE configuration ---------------------------------------*/
      __HAL_RCC_HSE_CONFIG(RCC_OscInitStruct->HSEState);
 8002da6:	687b      	ldr	r3, [r7, #4]
 8002da8:	685b      	ldr	r3, [r3, #4]
 8002daa:	f5b3 3f80 	cmp.w	r3, #65536	; 0x10000
 8002dae:	d106      	bne.n	8002dbe <HAL_RCC_OscConfig+0x76>
 8002db0:	4b80      	ldr	r3, [pc, #512]	; (8002fb4 <HAL_RCC_OscConfig+0x26c>)
 8002db2:	681b      	ldr	r3, [r3, #0]
 8002db4:	4a7f      	ldr	r2, [pc, #508]	; (8002fb4 <HAL_RCC_OscConfig+0x26c>)
 8002db6:	f443 3380 	orr.w	r3, r3, #65536	; 0x10000
 8002dba:	6013      	str	r3, [r2, #0]
 8002dbc:	e02e      	b.n	8002e1c <HAL_RCC_OscConfig+0xd4>
 8002dbe:	687b      	ldr	r3, [r7, #4]
 8002dc0:	685b      	ldr	r3, [r3, #4]
 8002dc2:	2b00      	cmp	r3, #0
 8002dc4:	d10c      	bne.n	8002de0 <HAL_RCC_OscConfig+0x98>
 8002dc6:	4b7b      	ldr	r3, [pc, #492]	; (8002fb4 <HAL_RCC_OscConfig+0x26c>)
 8002dc8:	681b      	ldr	r3, [r3, #0]
 8002dca:	4a7a      	ldr	r2, [pc, #488]	; (8002fb4 <HAL_RCC_OscConfig+0x26c>)
 8002dcc:	f423 3380 	bic.w	r3, r3, #65536	; 0x10000
 8002dd0:	6013      	str	r3, [r2, #0]
 8002dd2:	4b78      	ldr	r3, [pc, #480]	; (8002fb4 <HAL_RCC_OscConfig+0x26c>)
 8002dd4:	681b      	ldr	r3, [r3, #0]
 8002dd6:	4a77      	ldr	r2, [pc, #476]	; (8002fb4 <HAL_RCC_OscConfig+0x26c>)
 8002dd8:	f423 2380 	bic.w	r3, r3, #262144	; 0x40000
 8002ddc:	6013      	str	r3, [r2, #0]
 8002dde:	e01d      	b.n	8002e1c <HAL_RCC_OscConfig+0xd4>
 8002de0:	687b      	ldr	r3, [r7, #4]
 8002de2:	685b      	ldr	r3, [r3, #4]
 8002de4:	f5b3 2fa0 	cmp.w	r3, #327680	; 0x50000
 8002de8:	d10c      	bne.n	8002e04 <HAL_RCC_OscConfig+0xbc>
 8002dea:	4b72      	ldr	r3, [pc, #456]	; (8002fb4 <HAL_RCC_OscConfig+0x26c>)
 8002dec:	681b      	ldr	r3, [r3, #0]
 8002dee:	4a71      	ldr	r2, [pc, #452]	; (8002fb4 <HAL_RCC_OscConfig+0x26c>)
 8002df0:	f443 2380 	orr.w	r3, r3, #262144	; 0x40000
 8002df4:	6013      	str	r3, [r2, #0]
 8002df6:	4b6f      	ldr	r3, [pc, #444]	; (8002fb4 <HAL_RCC_OscConfig+0x26c>)
 8002df8:	681b      	ldr	r3, [r3, #0]
 8002dfa:	4a6e      	ldr	r2, [pc, #440]	; (8002fb4 <HAL_RCC_OscConfig+0x26c>)
 8002dfc:	f443 3380 	orr.w	r3, r3, #65536	; 0x10000
 8002e00:	6013      	str	r3, [r2, #0]
 8002e02:	e00b      	b.n	8002e1c <HAL_RCC_OscConfig+0xd4>
 8002e04:	4b6b      	ldr	r3, [pc, #428]	; (8002fb4 <HAL_RCC_OscConfig+0x26c>)
 8002e06:	681b      	ldr	r3, [r3, #0]
 8002e08:	4a6a      	ldr	r2, [pc, #424]	; (8002fb4 <HAL_RCC_OscConfig+0x26c>)
 8002e0a:	f423 3380 	bic.w	r3, r3, #65536	; 0x10000
 8002e0e:	6013      	str	r3, [r2, #0]
 8002e10:	4b68      	ldr	r3, [pc, #416]	; (8002fb4 <HAL_RCC_OscConfig+0x26c>)
 8002e12:	681b      	ldr	r3, [r3, #0]
 8002e14:	4a67      	ldr	r2, [pc, #412]	; (8002fb4 <HAL_RCC_OscConfig+0x26c>)
 8002e16:	f423 2380 	bic.w	r3, r3, #262144	; 0x40000
 8002e1a:	6013      	str	r3, [r2, #0]


      /* Check the HSE State */
      if (RCC_OscInitStruct->HSEState != RCC_HSE_OFF)
 8002e1c:	687b      	ldr	r3, [r7, #4]
 8002e1e:	685b      	ldr	r3, [r3, #4]
 8002e20:	2b00      	cmp	r3, #0
 8002e22:	d013      	beq.n	8002e4c <HAL_RCC_OscConfig+0x104>
      {
        /* Get Start Tick */
        tickstart = HAL_GetTick();
 8002e24:	f7fe fc8c 	bl	8001740 <HAL_GetTick>
 8002e28:	6138      	str	r0, [r7, #16]

        /* Wait till HSE is ready */
        while (__HAL_RCC_GET_FLAG(RCC_FLAG_HSERDY) == RESET)
 8002e2a:	e008      	b.n	8002e3e <HAL_RCC_OscConfig+0xf6>
        {
          if ((HAL_GetTick() - tickstart) > HSE_TIMEOUT_VALUE)
 8002e2c:	f7fe fc88 	bl	8001740 <HAL_GetTick>
 8002e30:	4602      	mov	r2, r0
 8002e32:	693b      	ldr	r3, [r7, #16]
 8002e34:	1ad3      	subs	r3, r2, r3
 8002e36:	2b64      	cmp	r3, #100	; 0x64
 8002e38:	d901      	bls.n	8002e3e <HAL_RCC_OscConfig+0xf6>
          {
            return HAL_TIMEOUT;
 8002e3a:	2303      	movs	r3, #3
 8002e3c:	e200      	b.n	8003240 <HAL_RCC_OscConfig+0x4f8>
        while (__HAL_RCC_GET_FLAG(RCC_FLAG_HSERDY) == RESET)
 8002e3e:	4b5d      	ldr	r3, [pc, #372]	; (8002fb4 <HAL_RCC_OscConfig+0x26c>)
 8002e40:	681b      	ldr	r3, [r3, #0]
 8002e42:	f403 3300 	and.w	r3, r3, #131072	; 0x20000
 8002e46:	2b00      	cmp	r3, #0
 8002e48:	d0f0      	beq.n	8002e2c <HAL_RCC_OscConfig+0xe4>
 8002e4a:	e014      	b.n	8002e76 <HAL_RCC_OscConfig+0x12e>
        }
      }
      else
      {
        /* Get Start Tick */
        tickstart = HAL_GetTick();
 8002e4c:	f7fe fc78 	bl	8001740 <HAL_GetTick>
 8002e50:	6138      	str	r0, [r7, #16]

        /* Wait till HSE is disabled */
        while (__HAL_RCC_GET_FLAG(RCC_FLAG_HSERDY) != RESET)
 8002e52:	e008      	b.n	8002e66 <HAL_RCC_OscConfig+0x11e>
        {
          if ((HAL_GetTick() - tickstart) > HSE_TIMEOUT_VALUE)
 8002e54:	f7fe fc74 	bl	8001740 <HAL_GetTick>
 8002e58:	4602      	mov	r2, r0
 8002e5a:	693b      	ldr	r3, [r7, #16]
 8002e5c:	1ad3      	subs	r3, r2, r3
 8002e5e:	2b64      	cmp	r3, #100	; 0x64
 8002e60:	d901      	bls.n	8002e66 <HAL_RCC_OscConfig+0x11e>
          {
            return HAL_TIMEOUT;
 8002e62:	2303      	movs	r3, #3
 8002e64:	e1ec      	b.n	8003240 <HAL_RCC_OscConfig+0x4f8>
        while (__HAL_RCC_GET_FLAG(RCC_FLAG_HSERDY) != RESET)
 8002e66:	4b53      	ldr	r3, [pc, #332]	; (8002fb4 <HAL_RCC_OscConfig+0x26c>)
 8002e68:	681b      	ldr	r3, [r3, #0]
 8002e6a:	f403 3300 	and.w	r3, r3, #131072	; 0x20000
 8002e6e:	2b00      	cmp	r3, #0
 8002e70:	d1f0      	bne.n	8002e54 <HAL_RCC_OscConfig+0x10c>
 8002e72:	e000      	b.n	8002e76 <HAL_RCC_OscConfig+0x12e>
      if ((__HAL_RCC_GET_FLAG(RCC_FLAG_HSERDY) != RESET) && (RCC_OscInitStruct->HSEState == RCC_HSE_OFF))
 8002e74:	bf00      	nop
        }
      }
    }
  }
  /*----------------------------- HSI Configuration --------------------------*/
  if (((RCC_OscInitStruct->OscillatorType) & RCC_OSCILLATORTYPE_HSI) == RCC_OSCILLATORTYPE_HSI)
 8002e76:	687b      	ldr	r3, [r7, #4]
 8002e78:	681b      	ldr	r3, [r3, #0]
 8002e7a:	f003 0302 	and.w	r3, r3, #2
 8002e7e:	2b00      	cmp	r3, #0
 8002e80:	d063      	beq.n	8002f4a <HAL_RCC_OscConfig+0x202>
    /* Check the parameters */
    assert_param(IS_RCC_HSI(RCC_OscInitStruct->HSIState));
    assert_param(IS_RCC_CALIBRATION_VALUE(RCC_OscInitStruct->HSICalibrationValue));

    /* Check if HSI is used as system clock or as PLL source when PLL is selected as system clock */
    if ((__HAL_RCC_GET_SYSCLK_SOURCE() == RCC_SYSCLKSOURCE_STATUS_HSI)
 8002e82:	4b4c      	ldr	r3, [pc, #304]	; (8002fb4 <HAL_RCC_OscConfig+0x26c>)
 8002e84:	685b      	ldr	r3, [r3, #4]
 8002e86:	f003 030c 	and.w	r3, r3, #12
 8002e8a:	2b00      	cmp	r3, #0
 8002e8c:	d00b      	beq.n	8002ea6 <HAL_RCC_OscConfig+0x15e>
        || ((__HAL_RCC_GET_SYSCLK_SOURCE() == RCC_SYSCLKSOURCE_STATUS_PLLCLK) && (__HAL_RCC_GET_PLL_OSCSOURCE() == RCC_PLLSOURCE_HSI_DIV2)))
 8002e8e:	4b49      	ldr	r3, [pc, #292]	; (8002fb4 <HAL_RCC_OscConfig+0x26c>)
 8002e90:	685b      	ldr	r3, [r3, #4]
 8002e92:	f003 030c 	and.w	r3, r3, #12
 8002e96:	2b08      	cmp	r3, #8
 8002e98:	d11c      	bne.n	8002ed4 <HAL_RCC_OscConfig+0x18c>
 8002e9a:	4b46      	ldr	r3, [pc, #280]	; (8002fb4 <HAL_RCC_OscConfig+0x26c>)
 8002e9c:	685b      	ldr	r3, [r3, #4]
 8002e9e:	f403 3380 	and.w	r3, r3, #65536	; 0x10000
 8002ea2:	2b00      	cmp	r3, #0
 8002ea4:	d116      	bne.n	8002ed4 <HAL_RCC_OscConfig+0x18c>
    {
      /* When HSI is used as system clock it will not disabled */
      if ((__HAL_RCC_GET_FLAG(RCC_FLAG_HSIRDY) != RESET) && (RCC_OscInitStruct->HSIState != RCC_HSI_ON))
 8002ea6:	4b43      	ldr	r3, [pc, #268]	; (8002fb4 <HAL_RCC_OscConfig+0x26c>)
 8002ea8:	681b      	ldr	r3, [r3, #0]
 8002eaa:	f003 0302 	and.w	r3, r3, #2
 8002eae:	2b00      	cmp	r3, #0
 8002eb0:	d005      	beq.n	8002ebe <HAL_RCC_OscConfig+0x176>
 8002eb2:	687b      	ldr	r3, [r7, #4]
 8002eb4:	691b      	ldr	r3, [r3, #16]
 8002eb6:	2b01      	cmp	r3, #1
 8002eb8:	d001      	beq.n	8002ebe <HAL_RCC_OscConfig+0x176>
      {
        return HAL_ERROR;
 8002eba:	2301      	movs	r3, #1
 8002ebc:	e1c0      	b.n	8003240 <HAL_RCC_OscConfig+0x4f8>
      }
      /* Otherwise, just the calibration is allowed */
      else
      {
        /* Adjusts the Internal High Speed oscillator (HSI) calibration value.*/
        __HAL_RCC_HSI_CALIBRATIONVALUE_ADJUST(RCC_OscInitStruct->HSICalibrationValue);
 8002ebe:	4b3d      	ldr	r3, [pc, #244]	; (8002fb4 <HAL_RCC_OscConfig+0x26c>)
 8002ec0:	681b      	ldr	r3, [r3, #0]
 8002ec2:	f023 02f8 	bic.w	r2, r3, #248	; 0xf8
 8002ec6:	687b      	ldr	r3, [r7, #4]
 8002ec8:	695b      	ldr	r3, [r3, #20]
 8002eca:	00db      	lsls	r3, r3, #3
 8002ecc:	4939      	ldr	r1, [pc, #228]	; (8002fb4 <HAL_RCC_OscConfig+0x26c>)
 8002ece:	4313      	orrs	r3, r2
 8002ed0:	600b      	str	r3, [r1, #0]
      if ((__HAL_RCC_GET_FLAG(RCC_FLAG_HSIRDY) != RESET) && (RCC_OscInitStruct->HSIState != RCC_HSI_ON))
 8002ed2:	e03a      	b.n	8002f4a <HAL_RCC_OscConfig+0x202>
      }
    }
    else
    {
      /* Check the HSI State */
      if (RCC_OscInitStruct->HSIState != RCC_HSI_OFF)
 8002ed4:	687b      	ldr	r3, [r7, #4]
 8002ed6:	691b      	ldr	r3, [r3, #16]
 8002ed8:	2b00      	cmp	r3, #0
 8002eda:	d020      	beq.n	8002f1e <HAL_RCC_OscConfig+0x1d6>
      {
        /* Enable the Internal High Speed oscillator (HSI). */
        __HAL_RCC_HSI_ENABLE();
 8002edc:	4b36      	ldr	r3, [pc, #216]	; (8002fb8 <HAL_RCC_OscConfig+0x270>)
 8002ede:	2201      	movs	r2, #1
 8002ee0:	601a      	str	r2, [r3, #0]

        /* Get Start Tick */
        tickstart = HAL_GetTick();
 8002ee2:	f7fe fc2d 	bl	8001740 <HAL_GetTick>
 8002ee6:	6138      	str	r0, [r7, #16]

        /* Wait till HSI is ready */
        while (__HAL_RCC_GET_FLAG(RCC_FLAG_HSIRDY) == RESET)
 8002ee8:	e008      	b.n	8002efc <HAL_RCC_OscConfig+0x1b4>
        {
          if ((HAL_GetTick() - tickstart) > HSI_TIMEOUT_VALUE)
 8002eea:	f7fe fc29 	bl	8001740 <HAL_GetTick>
 8002eee:	4602      	mov	r2, r0
 8002ef0:	693b      	ldr	r3, [r7, #16]
 8002ef2:	1ad3      	subs	r3, r2, r3
 8002ef4:	2b02      	cmp	r3, #2
 8002ef6:	d901      	bls.n	8002efc <HAL_RCC_OscConfig+0x1b4>
          {
            return HAL_TIMEOUT;
 8002ef8:	2303      	movs	r3, #3
 8002efa:	e1a1      	b.n	8003240 <HAL_RCC_OscConfig+0x4f8>
        while (__HAL_RCC_GET_FLAG(RCC_FLAG_HSIRDY) == RESET)
 8002efc:	4b2d      	ldr	r3, [pc, #180]	; (8002fb4 <HAL_RCC_OscConfig+0x26c>)
 8002efe:	681b      	ldr	r3, [r3, #0]
 8002f00:	f003 0302 	and.w	r3, r3, #2
 8002f04:	2b00      	cmp	r3, #0
 8002f06:	d0f0      	beq.n	8002eea <HAL_RCC_OscConfig+0x1a2>
          }
        }

        /* Adjusts the Internal High Speed oscillator (HSI) calibration value.*/
        __HAL_RCC_HSI_CALIBRATIONVALUE_ADJUST(RCC_OscInitStruct->HSICalibrationValue);
 8002f08:	4b2a      	ldr	r3, [pc, #168]	; (8002fb4 <HAL_RCC_OscConfig+0x26c>)
 8002f0a:	681b      	ldr	r3, [r3, #0]
 8002f0c:	f023 02f8 	bic.w	r2, r3, #248	; 0xf8
 8002f10:	687b      	ldr	r3, [r7, #4]
 8002f12:	695b      	ldr	r3, [r3, #20]
 8002f14:	00db      	lsls	r3, r3, #3
 8002f16:	4927      	ldr	r1, [pc, #156]	; (8002fb4 <HAL_RCC_OscConfig+0x26c>)
 8002f18:	4313      	orrs	r3, r2
 8002f1a:	600b      	str	r3, [r1, #0]
 8002f1c:	e015      	b.n	8002f4a <HAL_RCC_OscConfig+0x202>
      }
      else
      {
        /* Disable the Internal High Speed oscillator (HSI). */
        __HAL_RCC_HSI_DISABLE();
 8002f1e:	4b26      	ldr	r3, [pc, #152]	; (8002fb8 <HAL_RCC_OscConfig+0x270>)
 8002f20:	2200      	movs	r2, #0
 8002f22:	601a      	str	r2, [r3, #0]

        /* Get Start Tick */
        tickstart = HAL_GetTick();
 8002f24:	f7fe fc0c 	bl	8001740 <HAL_GetTick>
 8002f28:	6138      	str	r0, [r7, #16]

        /* Wait till HSI is disabled */
        while (__HAL_RCC_GET_FLAG(RCC_FLAG_HSIRDY) != RESET)
 8002f2a:	e008      	b.n	8002f3e <HAL_RCC_OscConfig+0x1f6>
        {
          if ((HAL_GetTick() - tickstart) > HSI_TIMEOUT_VALUE)
 8002f2c:	f7fe fc08 	bl	8001740 <HAL_GetTick>
 8002f30:	4602      	mov	r2, r0
 8002f32:	693b      	ldr	r3, [r7, #16]
 8002f34:	1ad3      	subs	r3, r2, r3
 8002f36:	2b02      	cmp	r3, #2
 8002f38:	d901      	bls.n	8002f3e <HAL_RCC_OscConfig+0x1f6>
          {
            return HAL_TIMEOUT;
 8002f3a:	2303      	movs	r3, #3
 8002f3c:	e180      	b.n	8003240 <HAL_RCC_OscConfig+0x4f8>
        while (__HAL_RCC_GET_FLAG(RCC_FLAG_HSIRDY) != RESET)
 8002f3e:	4b1d      	ldr	r3, [pc, #116]	; (8002fb4 <HAL_RCC_OscConfig+0x26c>)
 8002f40:	681b      	ldr	r3, [r3, #0]
 8002f42:	f003 0302 	and.w	r3, r3, #2
 8002f46:	2b00      	cmp	r3, #0
 8002f48:	d1f0      	bne.n	8002f2c <HAL_RCC_OscConfig+0x1e4>
        }
      }
    }
  }
  /*------------------------------ LSI Configuration -------------------------*/
  if (((RCC_OscInitStruct->OscillatorType) & RCC_OSCILLATORTYPE_LSI) == RCC_OSCILLATORTYPE_LSI)
 8002f4a:	687b      	ldr	r3, [r7, #4]
 8002f4c:	681b      	ldr	r3, [r3, #0]
 8002f4e:	f003 0308 	and.w	r3, r3, #8
 8002f52:	2b00      	cmp	r3, #0
 8002f54:	d03a      	beq.n	8002fcc <HAL_RCC_OscConfig+0x284>
  {
    /* Check the parameters */
    assert_param(IS_RCC_LSI(RCC_OscInitStruct->LSIState));

    /* Check the LSI State */
    if (RCC_OscInitStruct->LSIState != RCC_LSI_OFF)
 8002f56:	687b      	ldr	r3, [r7, #4]
 8002f58:	699b      	ldr	r3, [r3, #24]
 8002f5a:	2b00      	cmp	r3, #0
 8002f5c:	d019      	beq.n	8002f92 <HAL_RCC_OscConfig+0x24a>
    {
      /* Enable the Internal Low Speed oscillator (LSI). */
      __HAL_RCC_LSI_ENABLE();
 8002f5e:	4b17      	ldr	r3, [pc, #92]	; (8002fbc <HAL_RCC_OscConfig+0x274>)
 8002f60:	2201      	movs	r2, #1
 8002f62:	601a      	str	r2, [r3, #0]

      /* Get Start Tick */
      tickstart = HAL_GetTick();
 8002f64:	f7fe fbec 	bl	8001740 <HAL_GetTick>
 8002f68:	6138      	str	r0, [r7, #16]

      /* Wait till LSI is ready */
      while (__HAL_RCC_GET_FLAG(RCC_FLAG_LSIRDY) == RESET)
 8002f6a:	e008      	b.n	8002f7e <HAL_RCC_OscConfig+0x236>
      {
        if ((HAL_GetTick() - tickstart) > LSI_TIMEOUT_VALUE)
 8002f6c:	f7fe fbe8 	bl	8001740 <HAL_GetTick>
 8002f70:	4602      	mov	r2, r0
 8002f72:	693b      	ldr	r3, [r7, #16]
 8002f74:	1ad3      	subs	r3, r2, r3
 8002f76:	2b02      	cmp	r3, #2
 8002f78:	d901      	bls.n	8002f7e <HAL_RCC_OscConfig+0x236>
        {
          return HAL_TIMEOUT;
 8002f7a:	2303      	movs	r3, #3
 8002f7c:	e160      	b.n	8003240 <HAL_RCC_OscConfig+0x4f8>
      while (__HAL_RCC_GET_FLAG(RCC_FLAG_LSIRDY) == RESET)
 8002f7e:	4b0d      	ldr	r3, [pc, #52]	; (8002fb4 <HAL_RCC_OscConfig+0x26c>)
 8002f80:	6a5b      	ldr	r3, [r3, #36]	; 0x24
 8002f82:	f003 0302 	and.w	r3, r3, #2
 8002f86:	2b00      	cmp	r3, #0
 8002f88:	d0f0      	beq.n	8002f6c <HAL_RCC_OscConfig+0x224>
        }
      }
      /*  To have a fully stabilized clock in the specified range, a software delay of 1ms
          should be added.*/
      RCC_Delay(1);
 8002f8a:	2001      	movs	r0, #1
 8002f8c:	f000 fad8 	bl	8003540 <RCC_Delay>
 8002f90:	e01c      	b.n	8002fcc <HAL_RCC_OscConfig+0x284>
    }
    else
    {
      /* Disable the Internal Low Speed oscillator (LSI). */
      __HAL_RCC_LSI_DISABLE();
 8002f92:	4b0a      	ldr	r3, [pc, #40]	; (8002fbc <HAL_RCC_OscConfig+0x274>)
 8002f94:	2200      	movs	r2, #0
 8002f96:	601a      	str	r2, [r3, #0]

      /* Get Start Tick */
      tickstart = HAL_GetTick();
 8002f98:	f7fe fbd2 	bl	8001740 <HAL_GetTick>
 8002f9c:	6138      	str	r0, [r7, #16]

      /* Wait till LSI is disabled */
      while (__HAL_RCC_GET_FLAG(RCC_FLAG_LSIRDY) != RESET)
 8002f9e:	e00f      	b.n	8002fc0 <HAL_RCC_OscConfig+0x278>
      {
        if ((HAL_GetTick() - tickstart) > LSI_TIMEOUT_VALUE)
 8002fa0:	f7fe fbce 	bl	8001740 <HAL_GetTick>
 8002fa4:	4602      	mov	r2, r0
 8002fa6:	693b      	ldr	r3, [r7, #16]
 8002fa8:	1ad3      	subs	r3, r2, r3
 8002faa:	2b02      	cmp	r3, #2
 8002fac:	d908      	bls.n	8002fc0 <HAL_RCC_OscConfig+0x278>
        {
          return HAL_TIMEOUT;
 8002fae:	2303      	movs	r3, #3
 8002fb0:	e146      	b.n	8003240 <HAL_RCC_OscConfig+0x4f8>
 8002fb2:	bf00      	nop
 8002fb4:	40021000 	.word	0x40021000
 8002fb8:	42420000 	.word	0x42420000
 8002fbc:	42420480 	.word	0x42420480
      while (__HAL_RCC_GET_FLAG(RCC_FLAG_LSIRDY) != RESET)
 8002fc0:	4b92      	ldr	r3, [pc, #584]	; (800320c <HAL_RCC_OscConfig+0x4c4>)
 8002fc2:	6a5b      	ldr	r3, [r3, #36]	; 0x24
 8002fc4:	f003 0302 	and.w	r3, r3, #2
 8002fc8:	2b00      	cmp	r3, #0
 8002fca:	d1e9      	bne.n	8002fa0 <HAL_RCC_OscConfig+0x258>
        }
      }
    }
  }
  /*------------------------------ LSE Configuration -------------------------*/
  if (((RCC_OscInitStruct->OscillatorType) & RCC_OSCILLATORTYPE_LSE) == RCC_OSCILLATORTYPE_LSE)
 8002fcc:	687b      	ldr	r3, [r7, #4]
 8002fce:	681b      	ldr	r3, [r3, #0]
 8002fd0:	f003 0304 	and.w	r3, r3, #4
 8002fd4:	2b00      	cmp	r3, #0
 8002fd6:	f000 80a6 	beq.w	8003126 <HAL_RCC_OscConfig+0x3de>
  {
    FlagStatus       pwrclkchanged = RESET;
 8002fda:	2300      	movs	r3, #0
 8002fdc:	75fb      	strb	r3, [r7, #23]
    /* Check the parameters */
    assert_param(IS_RCC_LSE(RCC_OscInitStruct->LSEState));

    /* Update LSE configuration in Backup Domain control register    */
    /* Requires to enable write access to Backup Domain of necessary */
    if (__HAL_RCC_PWR_IS_CLK_DISABLED())
 8002fde:	4b8b      	ldr	r3, [pc, #556]	; (800320c <HAL_RCC_OscConfig+0x4c4>)
 8002fe0:	69db      	ldr	r3, [r3, #28]
 8002fe2:	f003 5380 	and.w	r3, r3, #268435456	; 0x10000000
 8002fe6:	2b00      	cmp	r3, #0
 8002fe8:	d10d      	bne.n	8003006 <HAL_RCC_OscConfig+0x2be>
    {
      __HAL_RCC_PWR_CLK_ENABLE();
 8002fea:	4b88      	ldr	r3, [pc, #544]	; (800320c <HAL_RCC_OscConfig+0x4c4>)
 8002fec:	69db      	ldr	r3, [r3, #28]
 8002fee:	4a87      	ldr	r2, [pc, #540]	; (800320c <HAL_RCC_OscConfig+0x4c4>)
 8002ff0:	f043 5380 	orr.w	r3, r3, #268435456	; 0x10000000
 8002ff4:	61d3      	str	r3, [r2, #28]
 8002ff6:	4b85      	ldr	r3, [pc, #532]	; (800320c <HAL_RCC_OscConfig+0x4c4>)
 8002ff8:	69db      	ldr	r3, [r3, #28]
 8002ffa:	f003 5380 	and.w	r3, r3, #268435456	; 0x10000000
 8002ffe:	60bb      	str	r3, [r7, #8]
 8003000:	68bb      	ldr	r3, [r7, #8]
      pwrclkchanged = SET;
 8003002:	2301      	movs	r3, #1
 8003004:	75fb      	strb	r3, [r7, #23]
    }

    if (HAL_IS_BIT_CLR(PWR->CR, PWR_CR_DBP))
 8003006:	4b82      	ldr	r3, [pc, #520]	; (8003210 <HAL_RCC_OscConfig+0x4c8>)
 8003008:	681b      	ldr	r3, [r3, #0]
 800300a:	f403 7380 	and.w	r3, r3, #256	; 0x100
 800300e:	2b00      	cmp	r3, #0
 8003010:	d118      	bne.n	8003044 <HAL_RCC_OscConfig+0x2fc>
    {
      /* Enable write access to Backup domain */
      SET_BIT(PWR->CR, PWR_CR_DBP);
 8003012:	4b7f      	ldr	r3, [pc, #508]	; (8003210 <HAL_RCC_OscConfig+0x4c8>)
 8003014:	681b      	ldr	r3, [r3, #0]
 8003016:	4a7e      	ldr	r2, [pc, #504]	; (8003210 <HAL_RCC_OscConfig+0x4c8>)
 8003018:	f443 7380 	orr.w	r3, r3, #256	; 0x100
 800301c:	6013      	str	r3, [r2, #0]

      /* Wait for Backup domain Write protection disable */
      tickstart = HAL_GetTick();
 800301e:	f7fe fb8f 	bl	8001740 <HAL_GetTick>
 8003022:	6138      	str	r0, [r7, #16]

      while (HAL_IS_BIT_CLR(PWR->CR, PWR_CR_DBP))
 8003024:	e008      	b.n	8003038 <HAL_RCC_OscConfig+0x2f0>
      {
        if ((HAL_GetTick() - tickstart) > RCC_DBP_TIMEOUT_VALUE)
 8003026:	f7fe fb8b 	bl	8001740 <HAL_GetTick>
 800302a:	4602      	mov	r2, r0
 800302c:	693b      	ldr	r3, [r7, #16]
 800302e:	1ad3      	subs	r3, r2, r3
 8003030:	2b64      	cmp	r3, #100	; 0x64
 8003032:	d901      	bls.n	8003038 <HAL_RCC_OscConfig+0x2f0>
        {
          return HAL_TIMEOUT;
 8003034:	2303      	movs	r3, #3
 8003036:	e103      	b.n	8003240 <HAL_RCC_OscConfig+0x4f8>
      while (HAL_IS_BIT_CLR(PWR->CR, PWR_CR_DBP))
 8003038:	4b75      	ldr	r3, [pc, #468]	; (8003210 <HAL_RCC_OscConfig+0x4c8>)
 800303a:	681b      	ldr	r3, [r3, #0]
 800303c:	f403 7380 	and.w	r3, r3, #256	; 0x100
 8003040:	2b00      	cmp	r3, #0
 8003042:	d0f0      	beq.n	8003026 <HAL_RCC_OscConfig+0x2de>
        }
      }
    }

    /* Set the new LSE configuration -----------------------------------------*/
    __HAL_RCC_LSE_CONFIG(RCC_OscInitStruct->LSEState);
 8003044:	687b      	ldr	r3, [r7, #4]
 8003046:	68db      	ldr	r3, [r3, #12]
 8003048:	2b01      	cmp	r3, #1
 800304a:	d106      	bne.n	800305a <HAL_RCC_OscConfig+0x312>
 800304c:	4b6f      	ldr	r3, [pc, #444]	; (800320c <HAL_RCC_OscConfig+0x4c4>)
 800304e:	6a1b      	ldr	r3, [r3, #32]
 8003050:	4a6e      	ldr	r2, [pc, #440]	; (800320c <HAL_RCC_OscConfig+0x4c4>)
 8003052:	f043 0301 	orr.w	r3, r3, #1
 8003056:	6213      	str	r3, [r2, #32]
 8003058:	e02d      	b.n	80030b6 <HAL_RCC_OscConfig+0x36e>
 800305a:	687b      	ldr	r3, [r7, #4]
 800305c:	68db      	ldr	r3, [r3, #12]
 800305e:	2b00      	cmp	r3, #0
 8003060:	d10c      	bne.n	800307c <HAL_RCC_OscConfig+0x334>
 8003062:	4b6a      	ldr	r3, [pc, #424]	; (800320c <HAL_RCC_OscConfig+0x4c4>)
 8003064:	6a1b      	ldr	r3, [r3, #32]
 8003066:	4a69      	ldr	r2, [pc, #420]	; (800320c <HAL_RCC_OscConfig+0x4c4>)
 8003068:	f023 0301 	bic.w	r3, r3, #1
 800306c:	6213      	str	r3, [r2, #32]
 800306e:	4b67      	ldr	r3, [pc, #412]	; (800320c <HAL_RCC_OscConfig+0x4c4>)
 8003070:	6a1b      	ldr	r3, [r3, #32]
 8003072:	4a66      	ldr	r2, [pc, #408]	; (800320c <HAL_RCC_OscConfig+0x4c4>)
 8003074:	f023 0304 	bic.w	r3, r3, #4
 8003078:	6213      	str	r3, [r2, #32]
 800307a:	e01c      	b.n	80030b6 <HAL_RCC_OscConfig+0x36e>
 800307c:	687b      	ldr	r3, [r7, #4]
 800307e:	68db      	ldr	r3, [r3, #12]
 8003080:	2b05      	cmp	r3, #5
 8003082:	d10c      	bne.n	800309e <HAL_RCC_OscConfig+0x356>
 8003084:	4b61      	ldr	r3, [pc, #388]	; (800320c <HAL_RCC_OscConfig+0x4c4>)
 8003086:	6a1b      	ldr	r3, [r3, #32]
 8003088:	4a60      	ldr	r2, [pc, #384]	; (800320c <HAL_RCC_OscConfig+0x4c4>)
 800308a:	f043 0304 	orr.w	r3, r3, #4
 800308e:	6213      	str	r3, [r2, #32]
 8003090:	4b5e      	ldr	r3, [pc, #376]	; (800320c <HAL_RCC_OscConfig+0x4c4>)
 8003092:	6a1b      	ldr	r3, [r3, #32]
 8003094:	4a5d      	ldr	r2, [pc, #372]	; (800320c <HAL_RCC_OscConfig+0x4c4>)
 8003096:	f043 0301 	orr.w	r3, r3, #1
 800309a:	6213      	str	r3, [r2, #32]
 800309c:	e00b      	b.n	80030b6 <HAL_RCC_OscConfig+0x36e>
 800309e:	4b5b      	ldr	r3, [pc, #364]	; (800320c <HAL_RCC_OscConfig+0x4c4>)
 80030a0:	6a1b      	ldr	r3, [r3, #32]
 80030a2:	4a5a      	ldr	r2, [pc, #360]	; (800320c <HAL_RCC_OscConfig+0x4c4>)
 80030a4:	f023 0301 	bic.w	r3, r3, #1
 80030a8:	6213      	str	r3, [r2, #32]
 80030aa:	4b58      	ldr	r3, [pc, #352]	; (800320c <HAL_RCC_OscConfig+0x4c4>)
 80030ac:	6a1b      	ldr	r3, [r3, #32]
 80030ae:	4a57      	ldr	r2, [pc, #348]	; (800320c <HAL_RCC_OscConfig+0x4c4>)
 80030b0:	f023 0304 	bic.w	r3, r3, #4
 80030b4:	6213      	str	r3, [r2, #32]
    /* Check the LSE State */
    if (RCC_OscInitStruct->LSEState != RCC_LSE_OFF)
 80030b6:	687b      	ldr	r3, [r7, #4]
 80030b8:	68db      	ldr	r3, [r3, #12]
 80030ba:	2b00      	cmp	r3, #0
 80030bc:	d015      	beq.n	80030ea <HAL_RCC_OscConfig+0x3a2>
    {
      /* Get Start Tick */
      tickstart = HAL_GetTick();
 80030be:	f7fe fb3f 	bl	8001740 <HAL_GetTick>
 80030c2:	6138      	str	r0, [r7, #16]

      /* Wait till LSE is ready */
      while (__HAL_RCC_GET_FLAG(RCC_FLAG_LSERDY) == RESET)
 80030c4:	e00a      	b.n	80030dc <HAL_RCC_OscConfig+0x394>
      {
        if ((HAL_GetTick() - tickstart) > RCC_LSE_TIMEOUT_VALUE)
 80030c6:	f7fe fb3b 	bl	8001740 <HAL_GetTick>
 80030ca:	4602      	mov	r2, r0
 80030cc:	693b      	ldr	r3, [r7, #16]
 80030ce:	1ad3      	subs	r3, r2, r3
 80030d0:	f241 3288 	movw	r2, #5000	; 0x1388
 80030d4:	4293      	cmp	r3, r2
 80030d6:	d901      	bls.n	80030dc <HAL_RCC_OscConfig+0x394>
        {
          return HAL_TIMEOUT;
 80030d8:	2303      	movs	r3, #3
 80030da:	e0b1      	b.n	8003240 <HAL_RCC_OscConfig+0x4f8>
      while (__HAL_RCC_GET_FLAG(RCC_FLAG_LSERDY) == RESET)
 80030dc:	4b4b      	ldr	r3, [pc, #300]	; (800320c <HAL_RCC_OscConfig+0x4c4>)
 80030de:	6a1b      	ldr	r3, [r3, #32]
 80030e0:	f003 0302 	and.w	r3, r3, #2
 80030e4:	2b00      	cmp	r3, #0
 80030e6:	d0ee      	beq.n	80030c6 <HAL_RCC_OscConfig+0x37e>
 80030e8:	e014      	b.n	8003114 <HAL_RCC_OscConfig+0x3cc>
      }
    }
    else
    {
      /* Get Start Tick */
      tickstart = HAL_GetTick();
 80030ea:	f7fe fb29 	bl	8001740 <HAL_GetTick>
 80030ee:	6138      	str	r0, [r7, #16]

      /* Wait till LSE is disabled */
      while (__HAL_RCC_GET_FLAG(RCC_FLAG_LSERDY) != RESET)
 80030f0:	e00a      	b.n	8003108 <HAL_RCC_OscConfig+0x3c0>
      {
        if ((HAL_GetTick() - tickstart) > RCC_LSE_TIMEOUT_VALUE)
 80030f2:	f7fe fb25 	bl	8001740 <HAL_GetTick>
 80030f6:	4602      	mov	r2, r0
 80030f8:	693b      	ldr	r3, [r7, #16]
 80030fa:	1ad3      	subs	r3, r2, r3
 80030fc:	f241 3288 	movw	r2, #5000	; 0x1388
 8003100:	4293      	cmp	r3, r2
 8003102:	d901      	bls.n	8003108 <HAL_RCC_OscConfig+0x3c0>
        {
          return HAL_TIMEOUT;
 8003104:	2303      	movs	r3, #3
 8003106:	e09b      	b.n	8003240 <HAL_RCC_OscConfig+0x4f8>
      while (__HAL_RCC_GET_FLAG(RCC_FLAG_LSERDY) != RESET)
 8003108:	4b40      	ldr	r3, [pc, #256]	; (800320c <HAL_RCC_OscConfig+0x4c4>)
 800310a:	6a1b      	ldr	r3, [r3, #32]
 800310c:	f003 0302 	and.w	r3, r3, #2
 8003110:	2b00      	cmp	r3, #0
 8003112:	d1ee      	bne.n	80030f2 <HAL_RCC_OscConfig+0x3aa>
        }
      }
    }

    /* Require to disable power clock if necessary */
    if (pwrclkchanged == SET)
 8003114:	7dfb      	ldrb	r3, [r7, #23]
 8003116:	2b01      	cmp	r3, #1
 8003118:	d105      	bne.n	8003126 <HAL_RCC_OscConfig+0x3de>
    {
      __HAL_RCC_PWR_CLK_DISABLE();
 800311a:	4b3c      	ldr	r3, [pc, #240]	; (800320c <HAL_RCC_OscConfig+0x4c4>)
 800311c:	69db      	ldr	r3, [r3, #28]
 800311e:	4a3b      	ldr	r2, [pc, #236]	; (800320c <HAL_RCC_OscConfig+0x4c4>)
 8003120:	f023 5380 	bic.w	r3, r3, #268435456	; 0x10000000
 8003124:	61d3      	str	r3, [r2, #28]

#endif /* RCC_CR_PLL2ON */
  /*-------------------------------- PLL Configuration -----------------------*/
  /* Check the parameters */
  assert_param(IS_RCC_PLL(RCC_OscInitStruct->PLL.PLLState));
  if ((RCC_OscInitStruct->PLL.PLLState) != RCC_PLL_NONE)
 8003126:	687b      	ldr	r3, [r7, #4]
 8003128:	69db      	ldr	r3, [r3, #28]
 800312a:	2b00      	cmp	r3, #0
 800312c:	f000 8087 	beq.w	800323e <HAL_RCC_OscConfig+0x4f6>
  {
    /* Check if the PLL is used as system clock or not */
    if (__HAL_RCC_GET_SYSCLK_SOURCE() != RCC_SYSCLKSOURCE_STATUS_PLLCLK)
 8003130:	4b36      	ldr	r3, [pc, #216]	; (800320c <HAL_RCC_OscConfig+0x4c4>)
 8003132:	685b      	ldr	r3, [r3, #4]
 8003134:	f003 030c 	and.w	r3, r3, #12
 8003138:	2b08      	cmp	r3, #8
 800313a:	d061      	beq.n	8003200 <HAL_RCC_OscConfig+0x4b8>
    {
      if ((RCC_OscInitStruct->PLL.PLLState) == RCC_PLL_ON)
 800313c:	687b      	ldr	r3, [r7, #4]
 800313e:	69db      	ldr	r3, [r3, #28]
 8003140:	2b02      	cmp	r3, #2
 8003142:	d146      	bne.n	80031d2 <HAL_RCC_OscConfig+0x48a>
        /* Check the parameters */
        assert_param(IS_RCC_PLLSOURCE(RCC_OscInitStruct->PLL.PLLSource));
        assert_param(IS_RCC_PLL_MUL(RCC_OscInitStruct->PLL.PLLMUL));

        /* Disable the main PLL. */
        __HAL_RCC_PLL_DISABLE();
 8003144:	4b33      	ldr	r3, [pc, #204]	; (8003214 <HAL_RCC_OscConfig+0x4cc>)
 8003146:	2200      	movs	r2, #0
 8003148:	601a      	str	r2, [r3, #0]

        /* Get Start Tick */
        tickstart = HAL_GetTick();
 800314a:	f7fe faf9 	bl	8001740 <HAL_GetTick>
 800314e:	6138      	str	r0, [r7, #16]

        /* Wait till PLL is disabled */
        while (__HAL_RCC_GET_FLAG(RCC_FLAG_PLLRDY)  != RESET)
 8003150:	e008      	b.n	8003164 <HAL_RCC_OscConfig+0x41c>
        {
          if ((HAL_GetTick() - tickstart) > PLL_TIMEOUT_VALUE)
 8003152:	f7fe faf5 	bl	8001740 <HAL_GetTick>
 8003156:	4602      	mov	r2, r0
 8003158:	693b      	ldr	r3, [r7, #16]
 800315a:	1ad3      	subs	r3, r2, r3
 800315c:	2b02      	cmp	r3, #2
 800315e:	d901      	bls.n	8003164 <HAL_RCC_OscConfig+0x41c>
          {
            return HAL_TIMEOUT;
 8003160:	2303      	movs	r3, #3
 8003162:	e06d      	b.n	8003240 <HAL_RCC_OscConfig+0x4f8>
        while (__HAL_RCC_GET_FLAG(RCC_FLAG_PLLRDY)  != RESET)
 8003164:	4b29      	ldr	r3, [pc, #164]	; (800320c <HAL_RCC_OscConfig+0x4c4>)
 8003166:	681b      	ldr	r3, [r3, #0]
 8003168:	f003 7300 	and.w	r3, r3, #33554432	; 0x2000000
 800316c:	2b00      	cmp	r3, #0
 800316e:	d1f0      	bne.n	8003152 <HAL_RCC_OscConfig+0x40a>
          }
        }

        /* Configure the HSE prediv factor --------------------------------*/
        /* It can be written only when the PLL is disabled. Not used in PLL source is different than HSE */
        if (RCC_OscInitStruct->PLL.PLLSource == RCC_PLLSOURCE_HSE)
 8003170:	687b      	ldr	r3, [r7, #4]
 8003172:	6a1b      	ldr	r3, [r3, #32]
 8003174:	f5b3 3f80 	cmp.w	r3, #65536	; 0x10000
 8003178:	d108      	bne.n	800318c <HAL_RCC_OscConfig+0x444>
          /* Set PREDIV1 source */
          SET_BIT(RCC->CFGR2, RCC_OscInitStruct->Prediv1Source);
#endif /* RCC_CFGR2_PREDIV1SRC */

          /* Set PREDIV1 Value */
          __HAL_RCC_HSE_PREDIV_CONFIG(RCC_OscInitStruct->HSEPredivValue);
 800317a:	4b24      	ldr	r3, [pc, #144]	; (800320c <HAL_RCC_OscConfig+0x4c4>)
 800317c:	685b      	ldr	r3, [r3, #4]
 800317e:	f423 3200 	bic.w	r2, r3, #131072	; 0x20000
 8003182:	687b      	ldr	r3, [r7, #4]
 8003184:	689b      	ldr	r3, [r3, #8]
 8003186:	4921      	ldr	r1, [pc, #132]	; (800320c <HAL_RCC_OscConfig+0x4c4>)
 8003188:	4313      	orrs	r3, r2
 800318a:	604b      	str	r3, [r1, #4]
        }

        /* Configure the main PLL clock source and multiplication factors. */
        __HAL_RCC_PLL_CONFIG(RCC_OscInitStruct->PLL.PLLSource,
 800318c:	4b1f      	ldr	r3, [pc, #124]	; (800320c <HAL_RCC_OscConfig+0x4c4>)
 800318e:	685b      	ldr	r3, [r3, #4]
 8003190:	f423 1274 	bic.w	r2, r3, #3997696	; 0x3d0000
 8003194:	687b      	ldr	r3, [r7, #4]
 8003196:	6a19      	ldr	r1, [r3, #32]
 8003198:	687b      	ldr	r3, [r7, #4]
 800319a:	6a5b      	ldr	r3, [r3, #36]	; 0x24
 800319c:	430b      	orrs	r3, r1
 800319e:	491b      	ldr	r1, [pc, #108]	; (800320c <HAL_RCC_OscConfig+0x4c4>)
 80031a0:	4313      	orrs	r3, r2
 80031a2:	604b      	str	r3, [r1, #4]
                             RCC_OscInitStruct->PLL.PLLMUL);
        /* Enable the main PLL. */
        __HAL_RCC_PLL_ENABLE();
 80031a4:	4b1b      	ldr	r3, [pc, #108]	; (8003214 <HAL_RCC_OscConfig+0x4cc>)
 80031a6:	2201      	movs	r2, #1
 80031a8:	601a      	str	r2, [r3, #0]

        /* Get Start Tick */
        tickstart = HAL_GetTick();
 80031aa:	f7fe fac9 	bl	8001740 <HAL_GetTick>
 80031ae:	6138      	str	r0, [r7, #16]

        /* Wait till PLL is ready */
        while (__HAL_RCC_GET_FLAG(RCC_FLAG_PLLRDY)  == RESET)
 80031b0:	e008      	b.n	80031c4 <HAL_RCC_OscConfig+0x47c>
        {
          if ((HAL_GetTick() - tickstart) > PLL_TIMEOUT_VALUE)
 80031b2:	f7fe fac5 	bl	8001740 <HAL_GetTick>
 80031b6:	4602      	mov	r2, r0
 80031b8:	693b      	ldr	r3, [r7, #16]
 80031ba:	1ad3      	subs	r3, r2, r3
 80031bc:	2b02      	cmp	r3, #2
 80031be:	d901      	bls.n	80031c4 <HAL_RCC_OscConfig+0x47c>
          {
            return HAL_TIMEOUT;
 80031c0:	2303      	movs	r3, #3
 80031c2:	e03d      	b.n	8003240 <HAL_RCC_OscConfig+0x4f8>
        while (__HAL_RCC_GET_FLAG(RCC_FLAG_PLLRDY)  == RESET)
 80031c4:	4b11      	ldr	r3, [pc, #68]	; (800320c <HAL_RCC_OscConfig+0x4c4>)
 80031c6:	681b      	ldr	r3, [r3, #0]
 80031c8:	f003 7300 	and.w	r3, r3, #33554432	; 0x2000000
 80031cc:	2b00      	cmp	r3, #0
 80031ce:	d0f0      	beq.n	80031b2 <HAL_RCC_OscConfig+0x46a>
 80031d0:	e035      	b.n	800323e <HAL_RCC_OscConfig+0x4f6>
        }
      }
      else
      {
        /* Disable the main PLL. */
        __HAL_RCC_PLL_DISABLE();
 80031d2:	4b10      	ldr	r3, [pc, #64]	; (8003214 <HAL_RCC_OscConfig+0x4cc>)
 80031d4:	2200      	movs	r2, #0
 80031d6:	601a      	str	r2, [r3, #0]

        /* Get Start Tick */
        tickstart = HAL_GetTick();
 80031d8:	f7fe fab2 	bl	8001740 <HAL_GetTick>
 80031dc:	6138      	str	r0, [r7, #16]

        /* Wait till PLL is disabled */
        while (__HAL_RCC_GET_FLAG(RCC_FLAG_PLLRDY)  != RESET)
 80031de:	e008      	b.n	80031f2 <HAL_RCC_OscConfig+0x4aa>
        {
          if ((HAL_GetTick() - tickstart) > PLL_TIMEOUT_VALUE)
 80031e0:	f7fe faae 	bl	8001740 <HAL_GetTick>
 80031e4:	4602      	mov	r2, r0
 80031e6:	693b      	ldr	r3, [r7, #16]
 80031e8:	1ad3      	subs	r3, r2, r3
 80031ea:	2b02      	cmp	r3, #2
 80031ec:	d901      	bls.n	80031f2 <HAL_RCC_OscConfig+0x4aa>
          {
            return HAL_TIMEOUT;
 80031ee:	2303      	movs	r3, #3
 80031f0:	e026      	b.n	8003240 <HAL_RCC_OscConfig+0x4f8>
        while (__HAL_RCC_GET_FLAG(RCC_FLAG_PLLRDY)  != RESET)
 80031f2:	4b06      	ldr	r3, [pc, #24]	; (800320c <HAL_RCC_OscConfig+0x4c4>)
 80031f4:	681b      	ldr	r3, [r3, #0]
 80031f6:	f003 7300 	and.w	r3, r3, #33554432	; 0x2000000
 80031fa:	2b00      	cmp	r3, #0
 80031fc:	d1f0      	bne.n	80031e0 <HAL_RCC_OscConfig+0x498>
 80031fe:	e01e      	b.n	800323e <HAL_RCC_OscConfig+0x4f6>
      }
    }
    else
    {
      /* Check if there is a request to disable the PLL used as System clock source */
      if ((RCC_OscInitStruct->PLL.PLLState) == RCC_PLL_OFF)
 8003200:	687b      	ldr	r3, [r7, #4]
 8003202:	69db      	ldr	r3, [r3, #28]
 8003204:	2b01      	cmp	r3, #1
 8003206:	d107      	bne.n	8003218 <HAL_RCC_OscConfig+0x4d0>
      {
        return HAL_ERROR;
 8003208:	2301      	movs	r3, #1
 800320a:	e019      	b.n	8003240 <HAL_RCC_OscConfig+0x4f8>
 800320c:	40021000 	.word	0x40021000
 8003210:	40007000 	.word	0x40007000
 8003214:	42420060 	.word	0x42420060
      }
      else
      {
        /* Do not return HAL_ERROR if request repeats the current configuration */
        pll_config = RCC->CFGR;
 8003218:	4b0b      	ldr	r3, [pc, #44]	; (8003248 <HAL_RCC_OscConfig+0x500>)
 800321a:	685b      	ldr	r3, [r3, #4]
 800321c:	60fb      	str	r3, [r7, #12]
        if ((READ_BIT(pll_config, RCC_CFGR_PLLSRC) != RCC_OscInitStruct->PLL.PLLSource) ||
 800321e:	68fb      	ldr	r3, [r7, #12]
 8003220:	f403 3280 	and.w	r2, r3, #65536	; 0x10000
 8003224:	687b      	ldr	r3, [r7, #4]
 8003226:	6a1b      	ldr	r3, [r3, #32]
 8003228:	429a      	cmp	r2, r3
 800322a:	d106      	bne.n	800323a <HAL_RCC_OscConfig+0x4f2>
            (READ_BIT(pll_config, RCC_CFGR_PLLMULL) != RCC_OscInitStruct->PLL.PLLMUL))
 800322c:	68fb      	ldr	r3, [r7, #12]
 800322e:	f403 1270 	and.w	r2, r3, #3932160	; 0x3c0000
 8003232:	687b      	ldr	r3, [r7, #4]
 8003234:	6a5b      	ldr	r3, [r3, #36]	; 0x24
        if ((READ_BIT(pll_config, RCC_CFGR_PLLSRC) != RCC_OscInitStruct->PLL.PLLSource) ||
 8003236:	429a      	cmp	r2, r3
 8003238:	d001      	beq.n	800323e <HAL_RCC_OscConfig+0x4f6>
        {
          return HAL_ERROR;
 800323a:	2301      	movs	r3, #1
 800323c:	e000      	b.n	8003240 <HAL_RCC_OscConfig+0x4f8>
        }
      }
    }
  }

  return HAL_OK;
 800323e:	2300      	movs	r3, #0
}
 8003240:	4618      	mov	r0, r3
 8003242:	3718      	adds	r7, #24
 8003244:	46bd      	mov	sp, r7
 8003246:	bd80      	pop	{r7, pc}
 8003248:	40021000 	.word	0x40021000

0800324c <HAL_RCC_ClockConfig>:
  *         You can use @ref HAL_RCC_GetClockConfig() function to know which clock is
  *         currently used as system clock source.
  * @retval HAL status
  */
HAL_StatusTypeDef HAL_RCC_ClockConfig(RCC_ClkInitTypeDef  *RCC_ClkInitStruct, uint32_t FLatency)
{
 800324c:	b580      	push	{r7, lr}
 800324e:	b084      	sub	sp, #16
 8003250:	af00      	add	r7, sp, #0
 8003252:	6078      	str	r0, [r7, #4]
 8003254:	6039      	str	r1, [r7, #0]
  uint32_t tickstart;

  /* Check Null pointer */
  if (RCC_ClkInitStruct == NULL)
 8003256:	687b      	ldr	r3, [r7, #4]
 8003258:	2b00      	cmp	r3, #0
 800325a:	d101      	bne.n	8003260 <HAL_RCC_ClockConfig+0x14>
  {
    return HAL_ERROR;
 800325c:	2301      	movs	r3, #1
 800325e:	e0d0      	b.n	8003402 <HAL_RCC_ClockConfig+0x1b6>
  must be correctly programmed according to the frequency of the CPU clock
    (HCLK) of the device. */

#if defined(FLASH_ACR_LATENCY)
  /* Increasing the number of wait states because of higher CPU frequency */
  if (FLatency > __HAL_FLASH_GET_LATENCY())
 8003260:	4b6a      	ldr	r3, [pc, #424]	; (800340c <HAL_RCC_ClockConfig+0x1c0>)
 8003262:	681b      	ldr	r3, [r3, #0]
 8003264:	f003 0307 	and.w	r3, r3, #7
 8003268:	683a      	ldr	r2, [r7, #0]
 800326a:	429a      	cmp	r2, r3
 800326c:	d910      	bls.n	8003290 <HAL_RCC_ClockConfig+0x44>
  {
    /* Program the new number of wait states to the LATENCY bits in the FLASH_ACR register */
    __HAL_FLASH_SET_LATENCY(FLatency);
 800326e:	4b67      	ldr	r3, [pc, #412]	; (800340c <HAL_RCC_ClockConfig+0x1c0>)
 8003270:	681b      	ldr	r3, [r3, #0]
 8003272:	f023 0207 	bic.w	r2, r3, #7
 8003276:	4965      	ldr	r1, [pc, #404]	; (800340c <HAL_RCC_ClockConfig+0x1c0>)
 8003278:	683b      	ldr	r3, [r7, #0]
 800327a:	4313      	orrs	r3, r2
 800327c:	600b      	str	r3, [r1, #0]

    /* Check that the new number of wait states is taken into account to access the Flash
    memory by reading the FLASH_ACR register */
    if (__HAL_FLASH_GET_LATENCY() != FLatency)
 800327e:	4b63      	ldr	r3, [pc, #396]	; (800340c <HAL_RCC_ClockConfig+0x1c0>)
 8003280:	681b      	ldr	r3, [r3, #0]
 8003282:	f003 0307 	and.w	r3, r3, #7
 8003286:	683a      	ldr	r2, [r7, #0]
 8003288:	429a      	cmp	r2, r3
 800328a:	d001      	beq.n	8003290 <HAL_RCC_ClockConfig+0x44>
  {
    return HAL_ERROR;
 800328c:	2301      	movs	r3, #1
 800328e:	e0b8      	b.n	8003402 <HAL_RCC_ClockConfig+0x1b6>
  }
}

#endif /* FLASH_ACR_LATENCY */
/*-------------------------- HCLK Configuration --------------------------*/
if (((RCC_ClkInitStruct->ClockType) & RCC_CLOCKTYPE_HCLK) == RCC_CLOCKTYPE_HCLK)
 8003290:	687b      	ldr	r3, [r7, #4]
 8003292:	681b      	ldr	r3, [r3, #0]
 8003294:	f003 0302 	and.w	r3, r3, #2
 8003298:	2b00      	cmp	r3, #0
 800329a:	d020      	beq.n	80032de <HAL_RCC_ClockConfig+0x92>
  {
    /* Set the highest APBx dividers in order to ensure that we do not go through
    a non-spec phase whatever we decrease or increase HCLK. */
    if (((RCC_ClkInitStruct->ClockType) & RCC_CLOCKTYPE_PCLK1) == RCC_CLOCKTYPE_PCLK1)
 800329c:	687b      	ldr	r3, [r7, #4]
 800329e:	681b      	ldr	r3, [r3, #0]
 80032a0:	f003 0304 	and.w	r3, r3, #4
 80032a4:	2b00      	cmp	r3, #0
 80032a6:	d005      	beq.n	80032b4 <HAL_RCC_ClockConfig+0x68>
    {
      MODIFY_REG(RCC->CFGR, RCC_CFGR_PPRE1, RCC_HCLK_DIV16);
 80032a8:	4b59      	ldr	r3, [pc, #356]	; (8003410 <HAL_RCC_ClockConfig+0x1c4>)
 80032aa:	685b      	ldr	r3, [r3, #4]
 80032ac:	4a58      	ldr	r2, [pc, #352]	; (8003410 <HAL_RCC_ClockConfig+0x1c4>)
 80032ae:	f443 63e0 	orr.w	r3, r3, #1792	; 0x700
 80032b2:	6053      	str	r3, [r2, #4]
    }

    if (((RCC_ClkInitStruct->ClockType) & RCC_CLOCKTYPE_PCLK2) == RCC_CLOCKTYPE_PCLK2)
 80032b4:	687b      	ldr	r3, [r7, #4]
 80032b6:	681b      	ldr	r3, [r3, #0]
 80032b8:	f003 0308 	and.w	r3, r3, #8
 80032bc:	2b00      	cmp	r3, #0
 80032be:	d005      	beq.n	80032cc <HAL_RCC_ClockConfig+0x80>
    {
      MODIFY_REG(RCC->CFGR, RCC_CFGR_PPRE2, (RCC_HCLK_DIV16 << 3));
 80032c0:	4b53      	ldr	r3, [pc, #332]	; (8003410 <HAL_RCC_ClockConfig+0x1c4>)
 80032c2:	685b      	ldr	r3, [r3, #4]
 80032c4:	4a52      	ldr	r2, [pc, #328]	; (8003410 <HAL_RCC_ClockConfig+0x1c4>)
 80032c6:	f443 5360 	orr.w	r3, r3, #14336	; 0x3800
 80032ca:	6053      	str	r3, [r2, #4]
    }

    /* Set the new HCLK clock divider */
    assert_param(IS_RCC_HCLK(RCC_ClkInitStruct->AHBCLKDivider));
    MODIFY_REG(RCC->CFGR, RCC_CFGR_HPRE, RCC_ClkInitStruct->AHBCLKDivider);
 80032cc:	4b50      	ldr	r3, [pc, #320]	; (8003410 <HAL_RCC_ClockConfig+0x1c4>)
 80032ce:	685b      	ldr	r3, [r3, #4]
 80032d0:	f023 02f0 	bic.w	r2, r3, #240	; 0xf0
 80032d4:	687b      	ldr	r3, [r7, #4]
 80032d6:	689b      	ldr	r3, [r3, #8]
 80032d8:	494d      	ldr	r1, [pc, #308]	; (8003410 <HAL_RCC_ClockConfig+0x1c4>)
 80032da:	4313      	orrs	r3, r2
 80032dc:	604b      	str	r3, [r1, #4]
  }

  /*------------------------- SYSCLK Configuration ---------------------------*/
  if (((RCC_ClkInitStruct->ClockType) & RCC_CLOCKTYPE_SYSCLK) == RCC_CLOCKTYPE_SYSCLK)
 80032de:	687b      	ldr	r3, [r7, #4]
 80032e0:	681b      	ldr	r3, [r3, #0]
 80032e2:	f003 0301 	and.w	r3, r3, #1
 80032e6:	2b00      	cmp	r3, #0
 80032e8:	d040      	beq.n	800336c <HAL_RCC_ClockConfig+0x120>
  {
    assert_param(IS_RCC_SYSCLKSOURCE(RCC_ClkInitStruct->SYSCLKSource));

    /* HSE is selected as System Clock Source */
    if (RCC_ClkInitStruct->SYSCLKSource == RCC_SYSCLKSOURCE_HSE)
 80032ea:	687b      	ldr	r3, [r7, #4]
 80032ec:	685b      	ldr	r3, [r3, #4]
 80032ee:	2b01      	cmp	r3, #1
 80032f0:	d107      	bne.n	8003302 <HAL_RCC_ClockConfig+0xb6>
    {
      /* Check the HSE ready flag */
      if (__HAL_RCC_GET_FLAG(RCC_FLAG_HSERDY) == RESET)
 80032f2:	4b47      	ldr	r3, [pc, #284]	; (8003410 <HAL_RCC_ClockConfig+0x1c4>)
 80032f4:	681b      	ldr	r3, [r3, #0]
 80032f6:	f403 3300 	and.w	r3, r3, #131072	; 0x20000
 80032fa:	2b00      	cmp	r3, #0
 80032fc:	d115      	bne.n	800332a <HAL_RCC_ClockConfig+0xde>
      {
        return HAL_ERROR;
 80032fe:	2301      	movs	r3, #1
 8003300:	e07f      	b.n	8003402 <HAL_RCC_ClockConfig+0x1b6>
      }
    }
    /* PLL is selected as System Clock Source */
    else if (RCC_ClkInitStruct->SYSCLKSource == RCC_SYSCLKSOURCE_PLLCLK)
 8003302:	687b      	ldr	r3, [r7, #4]
 8003304:	685b      	ldr	r3, [r3, #4]
 8003306:	2b02      	cmp	r3, #2
 8003308:	d107      	bne.n	800331a <HAL_RCC_ClockConfig+0xce>
    {
      /* Check the PLL ready flag */
      if (__HAL_RCC_GET_FLAG(RCC_FLAG_PLLRDY) == RESET)
 800330a:	4b41      	ldr	r3, [pc, #260]	; (8003410 <HAL_RCC_ClockConfig+0x1c4>)
 800330c:	681b      	ldr	r3, [r3, #0]
 800330e:	f003 7300 	and.w	r3, r3, #33554432	; 0x2000000
 8003312:	2b00      	cmp	r3, #0
 8003314:	d109      	bne.n	800332a <HAL_RCC_ClockConfig+0xde>
      {
        return HAL_ERROR;
 8003316:	2301      	movs	r3, #1
 8003318:	e073      	b.n	8003402 <HAL_RCC_ClockConfig+0x1b6>
    }
    /* HSI is selected as System Clock Source */
    else
    {
      /* Check the HSI ready flag */
      if (__HAL_RCC_GET_FLAG(RCC_FLAG_HSIRDY) == RESET)
 800331a:	4b3d      	ldr	r3, [pc, #244]	; (8003410 <HAL_RCC_ClockConfig+0x1c4>)
 800331c:	681b      	ldr	r3, [r3, #0]
 800331e:	f003 0302 	and.w	r3, r3, #2
 8003322:	2b00      	cmp	r3, #0
 8003324:	d101      	bne.n	800332a <HAL_RCC_ClockConfig+0xde>
      {
        return HAL_ERROR;
 8003326:	2301      	movs	r3, #1
 8003328:	e06b      	b.n	8003402 <HAL_RCC_ClockConfig+0x1b6>
      }
    }
    __HAL_RCC_SYSCLK_CONFIG(RCC_ClkInitStruct->SYSCLKSource);
 800332a:	4b39      	ldr	r3, [pc, #228]	; (8003410 <HAL_RCC_ClockConfig+0x1c4>)
 800332c:	685b      	ldr	r3, [r3, #4]
 800332e:	f023 0203 	bic.w	r2, r3, #3
 8003332:	687b      	ldr	r3, [r7, #4]
 8003334:	685b      	ldr	r3, [r3, #4]
 8003336:	4936      	ldr	r1, [pc, #216]	; (8003410 <HAL_RCC_ClockConfig+0x1c4>)
 8003338:	4313      	orrs	r3, r2
 800333a:	604b      	str	r3, [r1, #4]

    /* Get Start Tick */
    tickstart = HAL_GetTick();
 800333c:	f7fe fa00 	bl	8001740 <HAL_GetTick>
 8003340:	60f8      	str	r0, [r7, #12]

    while (__HAL_RCC_GET_SYSCLK_SOURCE() != (RCC_ClkInitStruct->SYSCLKSource << RCC_CFGR_SWS_Pos))
 8003342:	e00a      	b.n	800335a <HAL_RCC_ClockConfig+0x10e>
    {
      if ((HAL_GetTick() - tickstart) > CLOCKSWITCH_TIMEOUT_VALUE)
 8003344:	f7fe f9fc 	bl	8001740 <HAL_GetTick>
 8003348:	4602      	mov	r2, r0
 800334a:	68fb      	ldr	r3, [r7, #12]
 800334c:	1ad3      	subs	r3, r2, r3
 800334e:	f241 3288 	movw	r2, #5000	; 0x1388
 8003352:	4293      	cmp	r3, r2
 8003354:	d901      	bls.n	800335a <HAL_RCC_ClockConfig+0x10e>
      {
        return HAL_TIMEOUT;
 8003356:	2303      	movs	r3, #3
 8003358:	e053      	b.n	8003402 <HAL_RCC_ClockConfig+0x1b6>
    while (__HAL_RCC_GET_SYSCLK_SOURCE() != (RCC_ClkInitStruct->SYSCLKSource << RCC_CFGR_SWS_Pos))
 800335a:	4b2d      	ldr	r3, [pc, #180]	; (8003410 <HAL_RCC_ClockConfig+0x1c4>)
 800335c:	685b      	ldr	r3, [r3, #4]
 800335e:	f003 020c 	and.w	r2, r3, #12
 8003362:	687b      	ldr	r3, [r7, #4]
 8003364:	685b      	ldr	r3, [r3, #4]
 8003366:	009b      	lsls	r3, r3, #2
 8003368:	429a      	cmp	r2, r3
 800336a:	d1eb      	bne.n	8003344 <HAL_RCC_ClockConfig+0xf8>
    }
  }

#if defined(FLASH_ACR_LATENCY)
  /* Decreasing the number of wait states because of lower CPU frequency */
  if (FLatency < __HAL_FLASH_GET_LATENCY())
 800336c:	4b27      	ldr	r3, [pc, #156]	; (800340c <HAL_RCC_ClockConfig+0x1c0>)
 800336e:	681b      	ldr	r3, [r3, #0]
 8003370:	f003 0307 	and.w	r3, r3, #7
 8003374:	683a      	ldr	r2, [r7, #0]
 8003376:	429a      	cmp	r2, r3
 8003378:	d210      	bcs.n	800339c <HAL_RCC_ClockConfig+0x150>
  {
    /* Program the new number of wait states to the LATENCY bits in the FLASH_ACR register */
    __HAL_FLASH_SET_LATENCY(FLatency);
 800337a:	4b24      	ldr	r3, [pc, #144]	; (800340c <HAL_RCC_ClockConfig+0x1c0>)
 800337c:	681b      	ldr	r3, [r3, #0]
 800337e:	f023 0207 	bic.w	r2, r3, #7
 8003382:	4922      	ldr	r1, [pc, #136]	; (800340c <HAL_RCC_ClockConfig+0x1c0>)
 8003384:	683b      	ldr	r3, [r7, #0]
 8003386:	4313      	orrs	r3, r2
 8003388:	600b      	str	r3, [r1, #0]

    /* Check that the new number of wait states is taken into account to access the Flash
    memory by reading the FLASH_ACR register */
    if (__HAL_FLASH_GET_LATENCY() != FLatency)
 800338a:	4b20      	ldr	r3, [pc, #128]	; (800340c <HAL_RCC_ClockConfig+0x1c0>)
 800338c:	681b      	ldr	r3, [r3, #0]
 800338e:	f003 0307 	and.w	r3, r3, #7
 8003392:	683a      	ldr	r2, [r7, #0]
 8003394:	429a      	cmp	r2, r3
 8003396:	d001      	beq.n	800339c <HAL_RCC_ClockConfig+0x150>
  {
    return HAL_ERROR;
 8003398:	2301      	movs	r3, #1
 800339a:	e032      	b.n	8003402 <HAL_RCC_ClockConfig+0x1b6>
  }
}
#endif /* FLASH_ACR_LATENCY */

/*-------------------------- PCLK1 Configuration ---------------------------*/
if (((RCC_ClkInitStruct->ClockType) & RCC_CLOCKTYPE_PCLK1) == RCC_CLOCKTYPE_PCLK1)
 800339c:	687b      	ldr	r3, [r7, #4]
 800339e:	681b      	ldr	r3, [r3, #0]
 80033a0:	f003 0304 	and.w	r3, r3, #4
 80033a4:	2b00      	cmp	r3, #0
 80033a6:	d008      	beq.n	80033ba <HAL_RCC_ClockConfig+0x16e>
  {
    assert_param(IS_RCC_PCLK(RCC_ClkInitStruct->APB1CLKDivider));
    MODIFY_REG(RCC->CFGR, RCC_CFGR_PPRE1, RCC_ClkInitStruct->APB1CLKDivider);
 80033a8:	4b19      	ldr	r3, [pc, #100]	; (8003410 <HAL_RCC_ClockConfig+0x1c4>)
 80033aa:	685b      	ldr	r3, [r3, #4]
 80033ac:	f423 62e0 	bic.w	r2, r3, #1792	; 0x700
 80033b0:	687b      	ldr	r3, [r7, #4]
 80033b2:	68db      	ldr	r3, [r3, #12]
 80033b4:	4916      	ldr	r1, [pc, #88]	; (8003410 <HAL_RCC_ClockConfig+0x1c4>)
 80033b6:	4313      	orrs	r3, r2
 80033b8:	604b      	str	r3, [r1, #4]
  }

  /*-------------------------- PCLK2 Configuration ---------------------------*/
  if (((RCC_ClkInitStruct->ClockType) & RCC_CLOCKTYPE_PCLK2) == RCC_CLOCKTYPE_PCLK2)
 80033ba:	687b      	ldr	r3, [r7, #4]
 80033bc:	681b      	ldr	r3, [r3, #0]
 80033be:	f003 0308 	and.w	r3, r3, #8
 80033c2:	2b00      	cmp	r3, #0
 80033c4:	d009      	beq.n	80033da <HAL_RCC_ClockConfig+0x18e>
  {
    assert_param(IS_RCC_PCLK(RCC_ClkInitStruct->APB2CLKDivider));
    MODIFY_REG(RCC->CFGR, RCC_CFGR_PPRE2, ((RCC_ClkInitStruct->APB2CLKDivider) << 3));
 80033c6:	4b12      	ldr	r3, [pc, #72]	; (8003410 <HAL_RCC_ClockConfig+0x1c4>)
 80033c8:	685b      	ldr	r3, [r3, #4]
 80033ca:	f423 5260 	bic.w	r2, r3, #14336	; 0x3800
 80033ce:	687b      	ldr	r3, [r7, #4]
 80033d0:	691b      	ldr	r3, [r3, #16]
 80033d2:	00db      	lsls	r3, r3, #3
 80033d4:	490e      	ldr	r1, [pc, #56]	; (8003410 <HAL_RCC_ClockConfig+0x1c4>)
 80033d6:	4313      	orrs	r3, r2
 80033d8:	604b      	str	r3, [r1, #4]
  }

  /* Update the SystemCoreClock global variable */
  SystemCoreClock = HAL_RCC_GetSysClockFreq() >> AHBPrescTable[(RCC->CFGR & RCC_CFGR_HPRE) >> RCC_CFGR_HPRE_Pos];
 80033da:	f000 f821 	bl	8003420 <HAL_RCC_GetSysClockFreq>
 80033de:	4602      	mov	r2, r0
 80033e0:	4b0b      	ldr	r3, [pc, #44]	; (8003410 <HAL_RCC_ClockConfig+0x1c4>)
 80033e2:	685b      	ldr	r3, [r3, #4]
 80033e4:	091b      	lsrs	r3, r3, #4
 80033e6:	f003 030f 	and.w	r3, r3, #15
 80033ea:	490a      	ldr	r1, [pc, #40]	; (8003414 <HAL_RCC_ClockConfig+0x1c8>)
 80033ec:	5ccb      	ldrb	r3, [r1, r3]
 80033ee:	fa22 f303 	lsr.w	r3, r2, r3
 80033f2:	4a09      	ldr	r2, [pc, #36]	; (8003418 <HAL_RCC_ClockConfig+0x1cc>)
 80033f4:	6013      	str	r3, [r2, #0]

  /* Configure the source of time base considering new system clocks settings*/
  HAL_InitTick(uwTickPrio);
 80033f6:	4b09      	ldr	r3, [pc, #36]	; (800341c <HAL_RCC_ClockConfig+0x1d0>)
 80033f8:	681b      	ldr	r3, [r3, #0]
 80033fa:	4618      	mov	r0, r3
 80033fc:	f7fe f95e 	bl	80016bc <HAL_InitTick>

  return HAL_OK;
 8003400:	2300      	movs	r3, #0
}
 8003402:	4618      	mov	r0, r3
 8003404:	3710      	adds	r7, #16
 8003406:	46bd      	mov	sp, r7
 8003408:	bd80      	pop	{r7, pc}
 800340a:	bf00      	nop
 800340c:	40022000 	.word	0x40022000
 8003410:	40021000 	.word	0x40021000
 8003414:	080045cc 	.word	0x080045cc
 8003418:	20000060 	.word	0x20000060
 800341c:	20000064 	.word	0x20000064

08003420 <HAL_RCC_GetSysClockFreq>:
  *         right SYSCLK value. Otherwise, any configuration based on this function will be incorrect.
  *
  * @retval SYSCLK frequency
  */
uint32_t HAL_RCC_GetSysClockFreq(void)
{
 8003420:	b490      	push	{r4, r7}
 8003422:	b08a      	sub	sp, #40	; 0x28
 8003424:	af00      	add	r7, sp, #0
#if defined(RCC_CFGR2_PREDIV1SRC)
  const uint8_t aPLLMULFactorTable[14] = {0, 0, 4, 5, 6, 7, 8, 9, 0, 0, 0, 0, 0, 13};
  const uint8_t aPredivFactorTable[16] = {1, 2, 3, 4, 5, 6, 7, 8, 9, 10, 11, 12, 13, 14, 15, 16};
#else
  const uint8_t aPLLMULFactorTable[16] = {2, 3, 4, 5, 6, 7, 8, 9, 10, 11, 12, 13, 14, 15, 16, 16};
 8003426:	4b29      	ldr	r3, [pc, #164]	; (80034cc <HAL_RCC_GetSysClockFreq+0xac>)
 8003428:	1d3c      	adds	r4, r7, #4
 800342a:	cb0f      	ldmia	r3, {r0, r1, r2, r3}
 800342c:	e884 000f 	stmia.w	r4, {r0, r1, r2, r3}
#if defined(RCC_CFGR2_PREDIV1)
  const uint8_t aPredivFactorTable[16] = {1, 2, 3, 4, 5, 6, 7, 8, 9, 10, 11, 12, 13, 14, 15, 16};
#else
  const uint8_t aPredivFactorTable[2] = {1, 2};
 8003430:	f240 2301 	movw	r3, #513	; 0x201
 8003434:	803b      	strh	r3, [r7, #0]
#endif /*RCC_CFGR2_PREDIV1*/

#endif
  uint32_t tmpreg = 0U, prediv = 0U, pllclk = 0U, pllmul = 0U;
 8003436:	2300      	movs	r3, #0
 8003438:	61fb      	str	r3, [r7, #28]
 800343a:	2300      	movs	r3, #0
 800343c:	61bb      	str	r3, [r7, #24]
 800343e:	2300      	movs	r3, #0
 8003440:	627b      	str	r3, [r7, #36]	; 0x24
 8003442:	2300      	movs	r3, #0
 8003444:	617b      	str	r3, [r7, #20]
  uint32_t sysclockfreq = 0U;
 8003446:	2300      	movs	r3, #0
 8003448:	623b      	str	r3, [r7, #32]
#if defined(RCC_CFGR2_PREDIV1SRC)
  uint32_t prediv2 = 0U, pll2mul = 0U;
#endif /*RCC_CFGR2_PREDIV1SRC*/

  tmpreg = RCC->CFGR;
 800344a:	4b21      	ldr	r3, [pc, #132]	; (80034d0 <HAL_RCC_GetSysClockFreq+0xb0>)
 800344c:	685b      	ldr	r3, [r3, #4]
 800344e:	61fb      	str	r3, [r7, #28]

  /* Get SYSCLK source -------------------------------------------------------*/
  switch (tmpreg & RCC_CFGR_SWS)
 8003450:	69fb      	ldr	r3, [r7, #28]
 8003452:	f003 030c 	and.w	r3, r3, #12
 8003456:	2b04      	cmp	r3, #4
 8003458:	d002      	beq.n	8003460 <HAL_RCC_GetSysClockFreq+0x40>
 800345a:	2b08      	cmp	r3, #8
 800345c:	d003      	beq.n	8003466 <HAL_RCC_GetSysClockFreq+0x46>
 800345e:	e02b      	b.n	80034b8 <HAL_RCC_GetSysClockFreq+0x98>
  {
    case RCC_SYSCLKSOURCE_STATUS_HSE:  /* HSE used as system clock */
    {
      sysclockfreq = HSE_VALUE;
 8003460:	4b1c      	ldr	r3, [pc, #112]	; (80034d4 <HAL_RCC_GetSysClockFreq+0xb4>)
 8003462:	623b      	str	r3, [r7, #32]
      break;
 8003464:	e02b      	b.n	80034be <HAL_RCC_GetSysClockFreq+0x9e>
    }
    case RCC_SYSCLKSOURCE_STATUS_PLLCLK:  /* PLL used as system clock */
    {
      pllmul = aPLLMULFactorTable[(uint32_t)(tmpreg & RCC_CFGR_PLLMULL) >> RCC_CFGR_PLLMULL_Pos];
 8003466:	69fb      	ldr	r3, [r7, #28]
 8003468:	0c9b      	lsrs	r3, r3, #18
 800346a:	f003 030f 	and.w	r3, r3, #15
 800346e:	3328      	adds	r3, #40	; 0x28
 8003470:	443b      	add	r3, r7
 8003472:	f813 3c24 	ldrb.w	r3, [r3, #-36]
 8003476:	617b      	str	r3, [r7, #20]
      if ((tmpreg & RCC_CFGR_PLLSRC) != RCC_PLLSOURCE_HSI_DIV2)
 8003478:	69fb      	ldr	r3, [r7, #28]
 800347a:	f403 3380 	and.w	r3, r3, #65536	; 0x10000
 800347e:	2b00      	cmp	r3, #0
 8003480:	d012      	beq.n	80034a8 <HAL_RCC_GetSysClockFreq+0x88>
      {
#if defined(RCC_CFGR2_PREDIV1)
        prediv = aPredivFactorTable[(uint32_t)(RCC->CFGR2 & RCC_CFGR2_PREDIV1) >> RCC_CFGR2_PREDIV1_Pos];
#else
        prediv = aPredivFactorTable[(uint32_t)(RCC->CFGR & RCC_CFGR_PLLXTPRE) >> RCC_CFGR_PLLXTPRE_Pos];
 8003482:	4b13      	ldr	r3, [pc, #76]	; (80034d0 <HAL_RCC_GetSysClockFreq+0xb0>)
 8003484:	685b      	ldr	r3, [r3, #4]
 8003486:	0c5b      	lsrs	r3, r3, #17
 8003488:	f003 0301 	and.w	r3, r3, #1
 800348c:	3328      	adds	r3, #40	; 0x28
 800348e:	443b      	add	r3, r7
 8003490:	f813 3c28 	ldrb.w	r3, [r3, #-40]
 8003494:	61bb      	str	r3, [r7, #24]
        {
          pllclk = pllclk / 2;
        }
#else
        /* HSE used as PLL clock source : PLLCLK = HSE/PREDIV1 * PLLMUL */
        pllclk = (uint32_t)((HSE_VALUE  * pllmul) / prediv);
 8003496:	697b      	ldr	r3, [r7, #20]
 8003498:	4a0e      	ldr	r2, [pc, #56]	; (80034d4 <HAL_RCC_GetSysClockFreq+0xb4>)
 800349a:	fb03 f202 	mul.w	r2, r3, r2
 800349e:	69bb      	ldr	r3, [r7, #24]
 80034a0:	fbb2 f3f3 	udiv	r3, r2, r3
 80034a4:	627b      	str	r3, [r7, #36]	; 0x24
 80034a6:	e004      	b.n	80034b2 <HAL_RCC_GetSysClockFreq+0x92>
#endif /*RCC_CFGR2_PREDIV1SRC*/
      }
      else
      {
        /* HSI used as PLL clock source : PLLCLK = HSI/2 * PLLMUL */
        pllclk = (uint32_t)((HSI_VALUE >> 1) * pllmul);
 80034a8:	697b      	ldr	r3, [r7, #20]
 80034aa:	4a0b      	ldr	r2, [pc, #44]	; (80034d8 <HAL_RCC_GetSysClockFreq+0xb8>)
 80034ac:	fb02 f303 	mul.w	r3, r2, r3
 80034b0:	627b      	str	r3, [r7, #36]	; 0x24
      }
      sysclockfreq = pllclk;
 80034b2:	6a7b      	ldr	r3, [r7, #36]	; 0x24
 80034b4:	623b      	str	r3, [r7, #32]
      break;
 80034b6:	e002      	b.n	80034be <HAL_RCC_GetSysClockFreq+0x9e>
    }
    case RCC_SYSCLKSOURCE_STATUS_HSI:  /* HSI used as system clock source */
    default: /* HSI used as system clock */
    {
      sysclockfreq = HSI_VALUE;
 80034b8:	4b06      	ldr	r3, [pc, #24]	; (80034d4 <HAL_RCC_GetSysClockFreq+0xb4>)
 80034ba:	623b      	str	r3, [r7, #32]
      break;
 80034bc:	bf00      	nop
    }
  }
  return sysclockfreq;
 80034be:	6a3b      	ldr	r3, [r7, #32]
}
 80034c0:	4618      	mov	r0, r3
 80034c2:	3728      	adds	r7, #40	; 0x28
 80034c4:	46bd      	mov	sp, r7
 80034c6:	bc90      	pop	{r4, r7}
 80034c8:	4770      	bx	lr
 80034ca:	bf00      	nop
 80034cc:	080044bc 	.word	0x080044bc
 80034d0:	40021000 	.word	0x40021000
 80034d4:	007a1200 	.word	0x007a1200
 80034d8:	003d0900 	.word	0x003d0900

080034dc <HAL_RCC_GetHCLKFreq>:
  * @note   The SystemCoreClock CMSIS variable is used to store System Clock Frequency
  *         and updated within this function
  * @retval HCLK frequency
  */
uint32_t HAL_RCC_GetHCLKFreq(void)
{
 80034dc:	b480      	push	{r7}
 80034de:	af00      	add	r7, sp, #0
  return SystemCoreClock;
 80034e0:	4b02      	ldr	r3, [pc, #8]	; (80034ec <HAL_RCC_GetHCLKFreq+0x10>)
 80034e2:	681b      	ldr	r3, [r3, #0]
}
 80034e4:	4618      	mov	r0, r3
 80034e6:	46bd      	mov	sp, r7
 80034e8:	bc80      	pop	{r7}
 80034ea:	4770      	bx	lr
 80034ec:	20000060 	.word	0x20000060

080034f0 <HAL_RCC_GetPCLK1Freq>:
  * @note   Each time PCLK1 changes, this function must be called to update the
  *         right PCLK1 value. Otherwise, any configuration based on this function will be incorrect.
  * @retval PCLK1 frequency
  */
uint32_t HAL_RCC_GetPCLK1Freq(void)
{
 80034f0:	b580      	push	{r7, lr}
 80034f2:	af00      	add	r7, sp, #0
  /* Get HCLK source and Compute PCLK1 frequency ---------------------------*/
  return (HAL_RCC_GetHCLKFreq() >> APBPrescTable[(RCC->CFGR & RCC_CFGR_PPRE1) >> RCC_CFGR_PPRE1_Pos]);
 80034f4:	f7ff fff2 	bl	80034dc <HAL_RCC_GetHCLKFreq>
 80034f8:	4602      	mov	r2, r0
 80034fa:	4b05      	ldr	r3, [pc, #20]	; (8003510 <HAL_RCC_GetPCLK1Freq+0x20>)
 80034fc:	685b      	ldr	r3, [r3, #4]
 80034fe:	0a1b      	lsrs	r3, r3, #8
 8003500:	f003 0307 	and.w	r3, r3, #7
 8003504:	4903      	ldr	r1, [pc, #12]	; (8003514 <HAL_RCC_GetPCLK1Freq+0x24>)
 8003506:	5ccb      	ldrb	r3, [r1, r3]
 8003508:	fa22 f303 	lsr.w	r3, r2, r3
}
 800350c:	4618      	mov	r0, r3
 800350e:	bd80      	pop	{r7, pc}
 8003510:	40021000 	.word	0x40021000
 8003514:	080045dc 	.word	0x080045dc

08003518 <HAL_RCC_GetPCLK2Freq>:
  * @note   Each time PCLK2 changes, this function must be called to update the
  *         right PCLK2 value. Otherwise, any configuration based on this function will be incorrect.
  * @retval PCLK2 frequency
  */
uint32_t HAL_RCC_GetPCLK2Freq(void)
{
 8003518:	b580      	push	{r7, lr}
 800351a:	af00      	add	r7, sp, #0
  /* Get HCLK source and Compute PCLK2 frequency ---------------------------*/
  return (HAL_RCC_GetHCLKFreq() >> APBPrescTable[(RCC->CFGR & RCC_CFGR_PPRE2) >> RCC_CFGR_PPRE2_Pos]);
 800351c:	f7ff ffde 	bl	80034dc <HAL_RCC_GetHCLKFreq>
 8003520:	4602      	mov	r2, r0
 8003522:	4b05      	ldr	r3, [pc, #20]	; (8003538 <HAL_RCC_GetPCLK2Freq+0x20>)
 8003524:	685b      	ldr	r3, [r3, #4]
 8003526:	0adb      	lsrs	r3, r3, #11
 8003528:	f003 0307 	and.w	r3, r3, #7
 800352c:	4903      	ldr	r1, [pc, #12]	; (800353c <HAL_RCC_GetPCLK2Freq+0x24>)
 800352e:	5ccb      	ldrb	r3, [r1, r3]
 8003530:	fa22 f303 	lsr.w	r3, r2, r3
}
 8003534:	4618      	mov	r0, r3
 8003536:	bd80      	pop	{r7, pc}
 8003538:	40021000 	.word	0x40021000
 800353c:	080045dc 	.word	0x080045dc

08003540 <RCC_Delay>:
  * @brief  This function provides delay (in milliseconds) based on CPU cycles method.
  * @param  mdelay: specifies the delay time length, in milliseconds.
  * @retval None
  */
static void RCC_Delay(uint32_t mdelay)
{
 8003540:	b480      	push	{r7}
 8003542:	b085      	sub	sp, #20
 8003544:	af00      	add	r7, sp, #0
 8003546:	6078      	str	r0, [r7, #4]
  __IO uint32_t Delay = mdelay * (SystemCoreClock / 8U / 1000U);
 8003548:	4b0a      	ldr	r3, [pc, #40]	; (8003574 <RCC_Delay+0x34>)
 800354a:	681b      	ldr	r3, [r3, #0]
 800354c:	4a0a      	ldr	r2, [pc, #40]	; (8003578 <RCC_Delay+0x38>)
 800354e:	fba2 2303 	umull	r2, r3, r2, r3
 8003552:	0a5b      	lsrs	r3, r3, #9
 8003554:	687a      	ldr	r2, [r7, #4]
 8003556:	fb02 f303 	mul.w	r3, r2, r3
 800355a:	60fb      	str	r3, [r7, #12]
  do
  {
    __NOP();
 800355c:	bf00      	nop
  }
  while (Delay --);
 800355e:	68fb      	ldr	r3, [r7, #12]
 8003560:	1e5a      	subs	r2, r3, #1
 8003562:	60fa      	str	r2, [r7, #12]
 8003564:	2b00      	cmp	r3, #0
 8003566:	d1f9      	bne.n	800355c <RCC_Delay+0x1c>
}
 8003568:	bf00      	nop
 800356a:	bf00      	nop
 800356c:	3714      	adds	r7, #20
 800356e:	46bd      	mov	sp, r7
 8003570:	bc80      	pop	{r7}
 8003572:	4770      	bx	lr
 8003574:	20000060 	.word	0x20000060
 8003578:	10624dd3 	.word	0x10624dd3

0800357c <HAL_USART_Init>:
  * @param  husart Pointer to a USART_HandleTypeDef structure that contains
  *                the configuration information for the specified USART module.
  * @retval HAL status
  */
HAL_StatusTypeDef HAL_USART_Init(USART_HandleTypeDef *husart)
{
 800357c:	b580      	push	{r7, lr}
 800357e:	b082      	sub	sp, #8
 8003580:	af00      	add	r7, sp, #0
 8003582:	6078      	str	r0, [r7, #4]
  /* Check the USART handle allocation */
  if (husart == NULL)
 8003584:	687b      	ldr	r3, [r7, #4]
 8003586:	2b00      	cmp	r3, #0
 8003588:	d101      	bne.n	800358e <HAL_USART_Init+0x12>
  {
    return HAL_ERROR;
 800358a:	2301      	movs	r3, #1
 800358c:	e033      	b.n	80035f6 <HAL_USART_Init+0x7a>
  }

  /* Check the parameters */
  assert_param(IS_USART_INSTANCE(husart->Instance));

  if (husart->State == HAL_USART_STATE_RESET)
 800358e:	687b      	ldr	r3, [r7, #4]
 8003590:	f893 303d 	ldrb.w	r3, [r3, #61]	; 0x3d
 8003594:	b2db      	uxtb	r3, r3
 8003596:	2b00      	cmp	r3, #0
 8003598:	d106      	bne.n	80035a8 <HAL_USART_Init+0x2c>
  {
    /* Allocate lock resource and initialize it */
    husart->Lock = HAL_UNLOCKED;
 800359a:	687b      	ldr	r3, [r7, #4]
 800359c:	2200      	movs	r2, #0
 800359e:	f883 203c 	strb.w	r2, [r3, #60]	; 0x3c

    /* Init the low level hardware */
    husart->MspInitCallback(husart);
#else
    /* Init the low level hardware : GPIO, CLOCK */
    HAL_USART_MspInit(husart);
 80035a2:	6878      	ldr	r0, [r7, #4]
 80035a4:	f7fd ff8c 	bl	80014c0 <HAL_USART_MspInit>
#endif /* USE_HAL_USART_REGISTER_CALLBACKS */
  }

  husart->State = HAL_USART_STATE_BUSY;
 80035a8:	687b      	ldr	r3, [r7, #4]
 80035aa:	2202      	movs	r2, #2
 80035ac:	f883 203d 	strb.w	r2, [r3, #61]	; 0x3d

  /* Set the USART Communication parameters */
  USART_SetConfig(husart);
 80035b0:	6878      	ldr	r0, [r7, #4]
 80035b2:	f000 fb61 	bl	8003c78 <USART_SetConfig>

  /* In USART mode, the following bits must be kept cleared:
     - LINEN bit in the USART_CR2 register
     - HDSEL, SCEN and IREN bits in the USART_CR3 register */
  CLEAR_BIT(husart->Instance->CR2, USART_CR2_LINEN);
 80035b6:	687b      	ldr	r3, [r7, #4]
 80035b8:	681b      	ldr	r3, [r3, #0]
 80035ba:	691a      	ldr	r2, [r3, #16]
 80035bc:	687b      	ldr	r3, [r7, #4]
 80035be:	681b      	ldr	r3, [r3, #0]
 80035c0:	f422 4280 	bic.w	r2, r2, #16384	; 0x4000
 80035c4:	611a      	str	r2, [r3, #16]
  CLEAR_BIT(husart->Instance->CR3, (USART_CR3_SCEN | USART_CR3_HDSEL | USART_CR3_IREN));
 80035c6:	687b      	ldr	r3, [r7, #4]
 80035c8:	681b      	ldr	r3, [r3, #0]
 80035ca:	695a      	ldr	r2, [r3, #20]
 80035cc:	687b      	ldr	r3, [r7, #4]
 80035ce:	681b      	ldr	r3, [r3, #0]
 80035d0:	f022 022a 	bic.w	r2, r2, #42	; 0x2a
 80035d4:	615a      	str	r2, [r3, #20]

  /* Enable the Peripheral */
  __HAL_USART_ENABLE(husart);
 80035d6:	687b      	ldr	r3, [r7, #4]
 80035d8:	681b      	ldr	r3, [r3, #0]
 80035da:	68da      	ldr	r2, [r3, #12]
 80035dc:	687b      	ldr	r3, [r7, #4]
 80035de:	681b      	ldr	r3, [r3, #0]
 80035e0:	f442 5200 	orr.w	r2, r2, #8192	; 0x2000
 80035e4:	60da      	str	r2, [r3, #12]

  /* Initialize the USART state */
  husart->ErrorCode = HAL_USART_ERROR_NONE;
 80035e6:	687b      	ldr	r3, [r7, #4]
 80035e8:	2200      	movs	r2, #0
 80035ea:	641a      	str	r2, [r3, #64]	; 0x40
  husart->State = HAL_USART_STATE_READY;
 80035ec:	687b      	ldr	r3, [r7, #4]
 80035ee:	2201      	movs	r2, #1
 80035f0:	f883 203d 	strb.w	r2, [r3, #61]	; 0x3d

  return HAL_OK;
 80035f4:	2300      	movs	r3, #0
}
 80035f6:	4618      	mov	r0, r3
 80035f8:	3708      	adds	r7, #8
 80035fa:	46bd      	mov	sp, r7
 80035fc:	bd80      	pop	{r7, pc}
	...

08003600 <HAL_USART_IRQHandler>:
  * @param  husart Pointer to a USART_HandleTypeDef structure that contains
  *                the configuration information for the specified USART module.
  * @retval None
  */
void HAL_USART_IRQHandler(USART_HandleTypeDef *husart)
{
 8003600:	b580      	push	{r7, lr}
 8003602:	b088      	sub	sp, #32
 8003604:	af00      	add	r7, sp, #0
 8003606:	6078      	str	r0, [r7, #4]
  uint32_t isrflags = READ_REG(husart->Instance->SR);
 8003608:	687b      	ldr	r3, [r7, #4]
 800360a:	681b      	ldr	r3, [r3, #0]
 800360c:	681b      	ldr	r3, [r3, #0]
 800360e:	61fb      	str	r3, [r7, #28]
  uint32_t cr1its   = READ_REG(husart->Instance->CR1);
 8003610:	687b      	ldr	r3, [r7, #4]
 8003612:	681b      	ldr	r3, [r3, #0]
 8003614:	68db      	ldr	r3, [r3, #12]
 8003616:	61bb      	str	r3, [r7, #24]
  uint32_t cr3its   = READ_REG(husart->Instance->CR3);
 8003618:	687b      	ldr	r3, [r7, #4]
 800361a:	681b      	ldr	r3, [r3, #0]
 800361c:	695b      	ldr	r3, [r3, #20]
 800361e:	617b      	str	r3, [r7, #20]
  uint32_t errorflags = 0x00U;
 8003620:	2300      	movs	r3, #0
 8003622:	613b      	str	r3, [r7, #16]
  uint32_t dmarequest = 0x00U;
 8003624:	2300      	movs	r3, #0
 8003626:	60fb      	str	r3, [r7, #12]

  /* If no error occurs */
  errorflags = (isrflags & (uint32_t)(USART_SR_PE | USART_SR_FE | USART_SR_ORE | USART_SR_NE));
 8003628:	69fb      	ldr	r3, [r7, #28]
 800362a:	f003 030f 	and.w	r3, r3, #15
 800362e:	613b      	str	r3, [r7, #16]
  if (errorflags == RESET)
 8003630:	693b      	ldr	r3, [r7, #16]
 8003632:	2b00      	cmp	r3, #0
 8003634:	d117      	bne.n	8003666 <HAL_USART_IRQHandler+0x66>
  {
    /* USART in mode Receiver -------------------------------------------------*/
    if (((isrflags & USART_SR_RXNE) != RESET) && ((cr1its & USART_CR1_RXNEIE) != RESET))
 8003636:	69fb      	ldr	r3, [r7, #28]
 8003638:	f003 0320 	and.w	r3, r3, #32
 800363c:	2b00      	cmp	r3, #0
 800363e:	d012      	beq.n	8003666 <HAL_USART_IRQHandler+0x66>
 8003640:	69bb      	ldr	r3, [r7, #24]
 8003642:	f003 0320 	and.w	r3, r3, #32
 8003646:	2b00      	cmp	r3, #0
 8003648:	d00d      	beq.n	8003666 <HAL_USART_IRQHandler+0x66>
    {
      if (husart->State == HAL_USART_STATE_BUSY_RX)
 800364a:	687b      	ldr	r3, [r7, #4]
 800364c:	f893 303d 	ldrb.w	r3, [r3, #61]	; 0x3d
 8003650:	b2db      	uxtb	r3, r3
 8003652:	2b22      	cmp	r3, #34	; 0x22
 8003654:	d103      	bne.n	800365e <HAL_USART_IRQHandler+0x5e>
      {
        USART_Receive_IT(husart);
 8003656:	6878      	ldr	r0, [r7, #4]
 8003658:	f000 f9b4 	bl	80039c4 <USART_Receive_IT>
      }
      else
      {
        USART_TransmitReceive_IT(husart);
      }
      return;
 800365c:	e0e9      	b.n	8003832 <HAL_USART_IRQHandler+0x232>
        USART_TransmitReceive_IT(husart);
 800365e:	6878      	ldr	r0, [r7, #4]
 8003660:	f000 fa36 	bl	8003ad0 <USART_TransmitReceive_IT>
      return;
 8003664:	e0e5      	b.n	8003832 <HAL_USART_IRQHandler+0x232>
    }
  }
  /* If some errors occur */
  if ((errorflags != RESET) && (((cr3its & USART_CR3_EIE) != RESET) || ((cr1its & (USART_CR1_RXNEIE | USART_CR1_PEIE)) != RESET)))
 8003666:	693b      	ldr	r3, [r7, #16]
 8003668:	2b00      	cmp	r3, #0
 800366a:	f000 80bb 	beq.w	80037e4 <HAL_USART_IRQHandler+0x1e4>
 800366e:	697b      	ldr	r3, [r7, #20]
 8003670:	f003 0301 	and.w	r3, r3, #1
 8003674:	2b00      	cmp	r3, #0
 8003676:	d105      	bne.n	8003684 <HAL_USART_IRQHandler+0x84>
 8003678:	69bb      	ldr	r3, [r7, #24]
 800367a:	f403 7390 	and.w	r3, r3, #288	; 0x120
 800367e:	2b00      	cmp	r3, #0
 8003680:	f000 80b0 	beq.w	80037e4 <HAL_USART_IRQHandler+0x1e4>
  {
    /* USART parity error interrupt occurred ----------------------------------*/
    if (((isrflags & USART_SR_PE) != RESET) && ((cr1its & USART_CR1_PEIE) != RESET))
 8003684:	69fb      	ldr	r3, [r7, #28]
 8003686:	f003 0301 	and.w	r3, r3, #1
 800368a:	2b00      	cmp	r3, #0
 800368c:	d00a      	beq.n	80036a4 <HAL_USART_IRQHandler+0xa4>
 800368e:	69bb      	ldr	r3, [r7, #24]
 8003690:	f403 7380 	and.w	r3, r3, #256	; 0x100
 8003694:	2b00      	cmp	r3, #0
 8003696:	d005      	beq.n	80036a4 <HAL_USART_IRQHandler+0xa4>
    {
      husart->ErrorCode |= HAL_USART_ERROR_PE;
 8003698:	687b      	ldr	r3, [r7, #4]
 800369a:	6c1b      	ldr	r3, [r3, #64]	; 0x40
 800369c:	f043 0201 	orr.w	r2, r3, #1
 80036a0:	687b      	ldr	r3, [r7, #4]
 80036a2:	641a      	str	r2, [r3, #64]	; 0x40
    }

    /* USART noise error interrupt occurred --------------------------------*/
    if (((isrflags & USART_SR_NE) != RESET) && ((cr3its & USART_CR3_EIE) != RESET))
 80036a4:	69fb      	ldr	r3, [r7, #28]
 80036a6:	f003 0304 	and.w	r3, r3, #4
 80036aa:	2b00      	cmp	r3, #0
 80036ac:	d00a      	beq.n	80036c4 <HAL_USART_IRQHandler+0xc4>
 80036ae:	697b      	ldr	r3, [r7, #20]
 80036b0:	f003 0301 	and.w	r3, r3, #1
 80036b4:	2b00      	cmp	r3, #0
 80036b6:	d005      	beq.n	80036c4 <HAL_USART_IRQHandler+0xc4>
    {
      husart->ErrorCode |= HAL_USART_ERROR_NE;
 80036b8:	687b      	ldr	r3, [r7, #4]
 80036ba:	6c1b      	ldr	r3, [r3, #64]	; 0x40
 80036bc:	f043 0202 	orr.w	r2, r3, #2
 80036c0:	687b      	ldr	r3, [r7, #4]
 80036c2:	641a      	str	r2, [r3, #64]	; 0x40
    }

    /* USART frame error interrupt occurred --------------------------------*/
    if (((isrflags & USART_SR_FE) != RESET) && ((cr3its & USART_CR3_EIE) != RESET))
 80036c4:	69fb      	ldr	r3, [r7, #28]
 80036c6:	f003 0302 	and.w	r3, r3, #2
 80036ca:	2b00      	cmp	r3, #0
 80036cc:	d00a      	beq.n	80036e4 <HAL_USART_IRQHandler+0xe4>
 80036ce:	697b      	ldr	r3, [r7, #20]
 80036d0:	f003 0301 	and.w	r3, r3, #1
 80036d4:	2b00      	cmp	r3, #0
 80036d6:	d005      	beq.n	80036e4 <HAL_USART_IRQHandler+0xe4>
    {
      husart->ErrorCode |= HAL_USART_ERROR_FE;
 80036d8:	687b      	ldr	r3, [r7, #4]
 80036da:	6c1b      	ldr	r3, [r3, #64]	; 0x40
 80036dc:	f043 0204 	orr.w	r2, r3, #4
 80036e0:	687b      	ldr	r3, [r7, #4]
 80036e2:	641a      	str	r2, [r3, #64]	; 0x40
    }

    /* USART Over-Run interrupt occurred -----------------------------------*/
    if (((isrflags & USART_SR_ORE) != RESET) && (((cr1its & USART_CR1_RXNEIE) != RESET) || ((cr3its & USART_CR3_EIE) != RESET)))
 80036e4:	69fb      	ldr	r3, [r7, #28]
 80036e6:	f003 0308 	and.w	r3, r3, #8
 80036ea:	2b00      	cmp	r3, #0
 80036ec:	d00f      	beq.n	800370e <HAL_USART_IRQHandler+0x10e>
 80036ee:	69bb      	ldr	r3, [r7, #24]
 80036f0:	f003 0320 	and.w	r3, r3, #32
 80036f4:	2b00      	cmp	r3, #0
 80036f6:	d104      	bne.n	8003702 <HAL_USART_IRQHandler+0x102>
 80036f8:	697b      	ldr	r3, [r7, #20]
 80036fa:	f003 0301 	and.w	r3, r3, #1
 80036fe:	2b00      	cmp	r3, #0
 8003700:	d005      	beq.n	800370e <HAL_USART_IRQHandler+0x10e>
    {
      husart->ErrorCode |= HAL_USART_ERROR_ORE;
 8003702:	687b      	ldr	r3, [r7, #4]
 8003704:	6c1b      	ldr	r3, [r3, #64]	; 0x40
 8003706:	f043 0208 	orr.w	r2, r3, #8
 800370a:	687b      	ldr	r3, [r7, #4]
 800370c:	641a      	str	r2, [r3, #64]	; 0x40
    }

    if (husart->ErrorCode != HAL_USART_ERROR_NONE)
 800370e:	687b      	ldr	r3, [r7, #4]
 8003710:	6c1b      	ldr	r3, [r3, #64]	; 0x40
 8003712:	2b00      	cmp	r3, #0
 8003714:	f000 808c 	beq.w	8003830 <HAL_USART_IRQHandler+0x230>
    {
      /* USART in mode Receiver -----------------------------------------------*/
      if (((isrflags & USART_SR_RXNE) != RESET) && ((cr1its & USART_CR1_RXNEIE) != RESET))
 8003718:	69fb      	ldr	r3, [r7, #28]
 800371a:	f003 0320 	and.w	r3, r3, #32
 800371e:	2b00      	cmp	r3, #0
 8003720:	d011      	beq.n	8003746 <HAL_USART_IRQHandler+0x146>
 8003722:	69bb      	ldr	r3, [r7, #24]
 8003724:	f003 0320 	and.w	r3, r3, #32
 8003728:	2b00      	cmp	r3, #0
 800372a:	d00c      	beq.n	8003746 <HAL_USART_IRQHandler+0x146>
      {
        if (husart->State == HAL_USART_STATE_BUSY_RX)
 800372c:	687b      	ldr	r3, [r7, #4]
 800372e:	f893 303d 	ldrb.w	r3, [r3, #61]	; 0x3d
 8003732:	b2db      	uxtb	r3, r3
 8003734:	2b22      	cmp	r3, #34	; 0x22
 8003736:	d103      	bne.n	8003740 <HAL_USART_IRQHandler+0x140>
        {
          USART_Receive_IT(husart);
 8003738:	6878      	ldr	r0, [r7, #4]
 800373a:	f000 f943 	bl	80039c4 <USART_Receive_IT>
 800373e:	e002      	b.n	8003746 <HAL_USART_IRQHandler+0x146>
        }
        else
        {
          USART_TransmitReceive_IT(husart);
 8003740:	6878      	ldr	r0, [r7, #4]
 8003742:	f000 f9c5 	bl	8003ad0 <USART_TransmitReceive_IT>
        }
      }
      /* If Overrun error occurs, or if any error occurs in DMA mode reception,
      consider error as blocking */
      dmarequest = HAL_IS_BIT_SET(husart->Instance->CR3, USART_CR3_DMAR);
 8003746:	687b      	ldr	r3, [r7, #4]
 8003748:	681b      	ldr	r3, [r3, #0]
 800374a:	695b      	ldr	r3, [r3, #20]
 800374c:	f003 0340 	and.w	r3, r3, #64	; 0x40
 8003750:	2b00      	cmp	r3, #0
 8003752:	bf14      	ite	ne
 8003754:	2301      	movne	r3, #1
 8003756:	2300      	moveq	r3, #0
 8003758:	b2db      	uxtb	r3, r3
 800375a:	60fb      	str	r3, [r7, #12]
      if (((husart->ErrorCode & HAL_USART_ERROR_ORE) != RESET) || dmarequest)
 800375c:	687b      	ldr	r3, [r7, #4]
 800375e:	6c1b      	ldr	r3, [r3, #64]	; 0x40
 8003760:	f003 0308 	and.w	r3, r3, #8
 8003764:	2b00      	cmp	r3, #0
 8003766:	d102      	bne.n	800376e <HAL_USART_IRQHandler+0x16e>
 8003768:	68fb      	ldr	r3, [r7, #12]
 800376a:	2b00      	cmp	r3, #0
 800376c:	d031      	beq.n	80037d2 <HAL_USART_IRQHandler+0x1d2>
      {
        /* Set the USART state ready to be able to start again the process,
        Disable Rx Interrupts, and disable Rx DMA request, if ongoing */
        USART_EndRxTransfer(husart);
 800376e:	6878      	ldr	r0, [r7, #4]
 8003770:	f000 f888 	bl	8003884 <USART_EndRxTransfer>

        /* Disable the USART DMA Rx request if enabled */
        if (HAL_IS_BIT_SET(husart->Instance->CR3, USART_CR3_DMAR))
 8003774:	687b      	ldr	r3, [r7, #4]
 8003776:	681b      	ldr	r3, [r3, #0]
 8003778:	695b      	ldr	r3, [r3, #20]
 800377a:	f003 0340 	and.w	r3, r3, #64	; 0x40
 800377e:	2b00      	cmp	r3, #0
 8003780:	d023      	beq.n	80037ca <HAL_USART_IRQHandler+0x1ca>
        {
          CLEAR_BIT(husart->Instance->CR3, USART_CR3_DMAR);
 8003782:	687b      	ldr	r3, [r7, #4]
 8003784:	681b      	ldr	r3, [r3, #0]
 8003786:	695a      	ldr	r2, [r3, #20]
 8003788:	687b      	ldr	r3, [r7, #4]
 800378a:	681b      	ldr	r3, [r3, #0]
 800378c:	f022 0240 	bic.w	r2, r2, #64	; 0x40
 8003790:	615a      	str	r2, [r3, #20]

          /* Abort the USART DMA Rx channel */
          if (husart->hdmarx != NULL)
 8003792:	687b      	ldr	r3, [r7, #4]
 8003794:	6b9b      	ldr	r3, [r3, #56]	; 0x38
 8003796:	2b00      	cmp	r3, #0
 8003798:	d013      	beq.n	80037c2 <HAL_USART_IRQHandler+0x1c2>
          {
            /* Set the USART DMA Abort callback :
            will lead to call HAL_USART_ErrorCallback() at end of DMA abort procedure */
            husart->hdmarx->XferAbortCallback = USART_DMAAbortOnError;
 800379a:	687b      	ldr	r3, [r7, #4]
 800379c:	6b9b      	ldr	r3, [r3, #56]	; 0x38
 800379e:	4a26      	ldr	r2, [pc, #152]	; (8003838 <HAL_USART_IRQHandler+0x238>)
 80037a0:	635a      	str	r2, [r3, #52]	; 0x34

            if (HAL_DMA_Abort_IT(husart->hdmarx) != HAL_OK)
 80037a2:	687b      	ldr	r3, [r7, #4]
 80037a4:	6b9b      	ldr	r3, [r3, #56]	; 0x38
 80037a6:	4618      	mov	r0, r3
 80037a8:	f7fe f906 	bl	80019b8 <HAL_DMA_Abort_IT>
 80037ac:	4603      	mov	r3, r0
 80037ae:	2b00      	cmp	r3, #0
 80037b0:	d016      	beq.n	80037e0 <HAL_USART_IRQHandler+0x1e0>
            {
              /* Call Directly XferAbortCallback function in case of error */
              husart->hdmarx->XferAbortCallback(husart->hdmarx);
 80037b2:	687b      	ldr	r3, [r7, #4]
 80037b4:	6b9b      	ldr	r3, [r3, #56]	; 0x38
 80037b6:	6b5b      	ldr	r3, [r3, #52]	; 0x34
 80037b8:	687a      	ldr	r2, [r7, #4]
 80037ba:	6b92      	ldr	r2, [r2, #56]	; 0x38
 80037bc:	4610      	mov	r0, r2
 80037be:	4798      	blx	r3
        if (HAL_IS_BIT_SET(husart->Instance->CR3, USART_CR3_DMAR))
 80037c0:	e00e      	b.n	80037e0 <HAL_USART_IRQHandler+0x1e0>
#if (USE_HAL_USART_REGISTER_CALLBACKS == 1)
            /* Call registered Error Callback */
            husart->ErrorCallback(husart);
#else
            /* Call legacy weak Error Callback */
            HAL_USART_ErrorCallback(husart);
 80037c2:	6878      	ldr	r0, [r7, #4]
 80037c4:	f000 f855 	bl	8003872 <HAL_USART_ErrorCallback>
        if (HAL_IS_BIT_SET(husart->Instance->CR3, USART_CR3_DMAR))
 80037c8:	e00a      	b.n	80037e0 <HAL_USART_IRQHandler+0x1e0>
#if (USE_HAL_USART_REGISTER_CALLBACKS == 1)
          /* Call registered Error Callback */
          husart->ErrorCallback(husart);
#else
          /* Call legacy weak Error Callback */
          HAL_USART_ErrorCallback(husart);
 80037ca:	6878      	ldr	r0, [r7, #4]
 80037cc:	f000 f851 	bl	8003872 <HAL_USART_ErrorCallback>
        if (HAL_IS_BIT_SET(husart->Instance->CR3, USART_CR3_DMAR))
 80037d0:	e006      	b.n	80037e0 <HAL_USART_IRQHandler+0x1e0>
#if (USE_HAL_USART_REGISTER_CALLBACKS == 1)
        /* Call registered Error Callback */
        husart->ErrorCallback(husart);
#else
        /* Call legacy weak Error Callback */
        HAL_USART_ErrorCallback(husart);
 80037d2:	6878      	ldr	r0, [r7, #4]
 80037d4:	f000 f84d 	bl	8003872 <HAL_USART_ErrorCallback>
#endif /* USE_HAL_USART_REGISTER_CALLBACKS */
        husart->ErrorCode = HAL_USART_ERROR_NONE;
 80037d8:	687b      	ldr	r3, [r7, #4]
 80037da:	2200      	movs	r2, #0
 80037dc:	641a      	str	r2, [r3, #64]	; 0x40
      }
    }
    return;
 80037de:	e027      	b.n	8003830 <HAL_USART_IRQHandler+0x230>
        if (HAL_IS_BIT_SET(husart->Instance->CR3, USART_CR3_DMAR))
 80037e0:	bf00      	nop
    return;
 80037e2:	e025      	b.n	8003830 <HAL_USART_IRQHandler+0x230>
  }

  /* USART in mode Transmitter -----------------------------------------------*/
  if (((isrflags & USART_SR_TXE) != RESET) && ((cr1its & USART_CR1_TXEIE) != RESET))
 80037e4:	69fb      	ldr	r3, [r7, #28]
 80037e6:	f003 0380 	and.w	r3, r3, #128	; 0x80
 80037ea:	2b00      	cmp	r3, #0
 80037ec:	d012      	beq.n	8003814 <HAL_USART_IRQHandler+0x214>
 80037ee:	69bb      	ldr	r3, [r7, #24]
 80037f0:	f003 0380 	and.w	r3, r3, #128	; 0x80
 80037f4:	2b00      	cmp	r3, #0
 80037f6:	d00d      	beq.n	8003814 <HAL_USART_IRQHandler+0x214>
  {
    if (husart->State == HAL_USART_STATE_BUSY_TX)
 80037f8:	687b      	ldr	r3, [r7, #4]
 80037fa:	f893 303d 	ldrb.w	r3, [r3, #61]	; 0x3d
 80037fe:	b2db      	uxtb	r3, r3
 8003800:	2b12      	cmp	r3, #18
 8003802:	d103      	bne.n	800380c <HAL_USART_IRQHandler+0x20c>
    {
      USART_Transmit_IT(husart);
 8003804:	6878      	ldr	r0, [r7, #4]
 8003806:	f000 f86e 	bl	80038e6 <USART_Transmit_IT>
    }
    else
    {
      USART_TransmitReceive_IT(husart);
    }
    return;
 800380a:	e012      	b.n	8003832 <HAL_USART_IRQHandler+0x232>
      USART_TransmitReceive_IT(husart);
 800380c:	6878      	ldr	r0, [r7, #4]
 800380e:	f000 f95f 	bl	8003ad0 <USART_TransmitReceive_IT>
    return;
 8003812:	e00e      	b.n	8003832 <HAL_USART_IRQHandler+0x232>
  }

  /* USART in mode Transmitter (transmission end) ----------------------------*/
  if (((isrflags & USART_SR_TC) != RESET) && ((cr1its & USART_CR1_TCIE) != RESET))
 8003814:	69fb      	ldr	r3, [r7, #28]
 8003816:	f003 0340 	and.w	r3, r3, #64	; 0x40
 800381a:	2b00      	cmp	r3, #0
 800381c:	d009      	beq.n	8003832 <HAL_USART_IRQHandler+0x232>
 800381e:	69bb      	ldr	r3, [r7, #24]
 8003820:	f003 0340 	and.w	r3, r3, #64	; 0x40
 8003824:	2b00      	cmp	r3, #0
 8003826:	d004      	beq.n	8003832 <HAL_USART_IRQHandler+0x232>
  {
    USART_EndTransmit_IT(husart);
 8003828:	6878      	ldr	r0, [r7, #4]
 800382a:	f000 f8ab 	bl	8003984 <USART_EndTransmit_IT>
    return;
 800382e:	e000      	b.n	8003832 <HAL_USART_IRQHandler+0x232>
    return;
 8003830:	bf00      	nop
  }
}
 8003832:	3720      	adds	r7, #32
 8003834:	46bd      	mov	sp, r7
 8003836:	bd80      	pop	{r7, pc}
 8003838:	080038bf 	.word	0x080038bf

0800383c <HAL_USART_TxCpltCallback>:
  * @param  husart Pointer to a USART_HandleTypeDef structure that contains
  *                the configuration information for the specified USART module.
  * @retval None
  */
__weak void HAL_USART_TxCpltCallback(USART_HandleTypeDef *husart)
{
 800383c:	b480      	push	{r7}
 800383e:	b083      	sub	sp, #12
 8003840:	af00      	add	r7, sp, #0
 8003842:	6078      	str	r0, [r7, #4]
  /* Prevent unused argument(s) compilation warning */
  UNUSED(husart);
  /* NOTE: This function should not be modified, when the callback is needed,
           the HAL_USART_TxCpltCallback could be implemented in the user file
   */
}
 8003844:	bf00      	nop
 8003846:	370c      	adds	r7, #12
 8003848:	46bd      	mov	sp, r7
 800384a:	bc80      	pop	{r7}
 800384c:	4770      	bx	lr

0800384e <HAL_USART_RxCpltCallback>:
  * @param  husart Pointer to a USART_HandleTypeDef structure that contains
  *                the configuration information for the specified USART module.
  * @retval None
  */
__weak void HAL_USART_RxCpltCallback(USART_HandleTypeDef *husart)
{
 800384e:	b480      	push	{r7}
 8003850:	b083      	sub	sp, #12
 8003852:	af00      	add	r7, sp, #0
 8003854:	6078      	str	r0, [r7, #4]
  /* Prevent unused argument(s) compilation warning */
  UNUSED(husart);
  /* NOTE: This function should not be modified, when the callback is needed,
           the HAL_USART_RxCpltCallback could be implemented in the user file
   */
}
 8003856:	bf00      	nop
 8003858:	370c      	adds	r7, #12
 800385a:	46bd      	mov	sp, r7
 800385c:	bc80      	pop	{r7}
 800385e:	4770      	bx	lr

08003860 <HAL_USART_TxRxCpltCallback>:
  * @param  husart Pointer to a USART_HandleTypeDef structure that contains
  *                the configuration information for the specified USART module.
  * @retval None
  */
__weak void HAL_USART_TxRxCpltCallback(USART_HandleTypeDef *husart)
{
 8003860:	b480      	push	{r7}
 8003862:	b083      	sub	sp, #12
 8003864:	af00      	add	r7, sp, #0
 8003866:	6078      	str	r0, [r7, #4]
  /* Prevent unused argument(s) compilation warning */
  UNUSED(husart);
  /* NOTE: This function should not be modified, when the callback is needed,
           the HAL_USART_TxRxCpltCallback could be implemented in the user file
   */
}
 8003868:	bf00      	nop
 800386a:	370c      	adds	r7, #12
 800386c:	46bd      	mov	sp, r7
 800386e:	bc80      	pop	{r7}
 8003870:	4770      	bx	lr

08003872 <HAL_USART_ErrorCallback>:
  * @param  husart Pointer to a USART_HandleTypeDef structure that contains
  *                the configuration information for the specified USART module.
  * @retval None
  */
__weak void HAL_USART_ErrorCallback(USART_HandleTypeDef *husart)
{
 8003872:	b480      	push	{r7}
 8003874:	b083      	sub	sp, #12
 8003876:	af00      	add	r7, sp, #0
 8003878:	6078      	str	r0, [r7, #4]
  /* Prevent unused argument(s) compilation warning */
  UNUSED(husart);
  /* NOTE: This function should not be modified, when the callback is needed,
           the HAL_USART_ErrorCallback could be implemented in the user file
   */
}
 800387a:	bf00      	nop
 800387c:	370c      	adds	r7, #12
 800387e:	46bd      	mov	sp, r7
 8003880:	bc80      	pop	{r7}
 8003882:	4770      	bx	lr

08003884 <USART_EndRxTransfer>:
  * @brief  End ongoing Rx transfer on USART peripheral (following error detection or Reception completion).
  * @param  husart USART handle.
  * @retval None
  */
static void USART_EndRxTransfer(USART_HandleTypeDef *husart)
{
 8003884:	b480      	push	{r7}
 8003886:	b083      	sub	sp, #12
 8003888:	af00      	add	r7, sp, #0
 800388a:	6078      	str	r0, [r7, #4]
  /* Disable RXNE, PE and ERR interrupts */
  CLEAR_BIT(husart->Instance->CR1, (USART_CR1_RXNEIE | USART_CR1_PEIE));
 800388c:	687b      	ldr	r3, [r7, #4]
 800388e:	681b      	ldr	r3, [r3, #0]
 8003890:	68da      	ldr	r2, [r3, #12]
 8003892:	687b      	ldr	r3, [r7, #4]
 8003894:	681b      	ldr	r3, [r3, #0]
 8003896:	f422 7290 	bic.w	r2, r2, #288	; 0x120
 800389a:	60da      	str	r2, [r3, #12]
  CLEAR_BIT(husart->Instance->CR3, USART_CR3_EIE);
 800389c:	687b      	ldr	r3, [r7, #4]
 800389e:	681b      	ldr	r3, [r3, #0]
 80038a0:	695a      	ldr	r2, [r3, #20]
 80038a2:	687b      	ldr	r3, [r7, #4]
 80038a4:	681b      	ldr	r3, [r3, #0]
 80038a6:	f022 0201 	bic.w	r2, r2, #1
 80038aa:	615a      	str	r2, [r3, #20]

  /* At end of Rx process, restore husart->State to Ready */
  husart->State = HAL_USART_STATE_READY;
 80038ac:	687b      	ldr	r3, [r7, #4]
 80038ae:	2201      	movs	r2, #1
 80038b0:	f883 203d 	strb.w	r2, [r3, #61]	; 0x3d
}
 80038b4:	bf00      	nop
 80038b6:	370c      	adds	r7, #12
 80038b8:	46bd      	mov	sp, r7
 80038ba:	bc80      	pop	{r7}
 80038bc:	4770      	bx	lr

080038be <USART_DMAAbortOnError>:
  *         (To be called at end of DMA Abort procedure following error occurrence).
  * @param  hdma DMA handle.
  * @retval None
  */
static void USART_DMAAbortOnError(DMA_HandleTypeDef *hdma)
{
 80038be:	b580      	push	{r7, lr}
 80038c0:	b084      	sub	sp, #16
 80038c2:	af00      	add	r7, sp, #0
 80038c4:	6078      	str	r0, [r7, #4]
  USART_HandleTypeDef *husart = (USART_HandleTypeDef *)((DMA_HandleTypeDef *)hdma)->Parent;
 80038c6:	687b      	ldr	r3, [r7, #4]
 80038c8:	6a5b      	ldr	r3, [r3, #36]	; 0x24
 80038ca:	60fb      	str	r3, [r7, #12]
  husart->RxXferCount = 0x00U;
 80038cc:	68fb      	ldr	r3, [r7, #12]
 80038ce:	2200      	movs	r2, #0
 80038d0:	865a      	strh	r2, [r3, #50]	; 0x32
  husart->TxXferCount = 0x00U;
 80038d2:	68fb      	ldr	r3, [r7, #12]
 80038d4:	2200      	movs	r2, #0
 80038d6:	855a      	strh	r2, [r3, #42]	; 0x2a
#if (USE_HAL_USART_REGISTER_CALLBACKS == 1)
  /* Call registered Error Callback */
  husart->ErrorCallback(husart);
#else
  /* Call legacy weak Error Callback */
  HAL_USART_ErrorCallback(husart);
 80038d8:	68f8      	ldr	r0, [r7, #12]
 80038da:	f7ff ffca 	bl	8003872 <HAL_USART_ErrorCallback>
#endif /* USE_HAL_USART_REGISTER_CALLBACKS */
}
 80038de:	bf00      	nop
 80038e0:	3710      	adds	r7, #16
 80038e2:	46bd      	mov	sp, r7
 80038e4:	bd80      	pop	{r7, pc}

080038e6 <USART_Transmit_IT>:
  *                the configuration information for the specified USART module.
  * @retval HAL status
  * @note   The USART errors are not managed to avoid the overrun error.
  */
static HAL_StatusTypeDef USART_Transmit_IT(USART_HandleTypeDef *husart)
{
 80038e6:	b480      	push	{r7}
 80038e8:	b085      	sub	sp, #20
 80038ea:	af00      	add	r7, sp, #0
 80038ec:	6078      	str	r0, [r7, #4]
  uint16_t *tmp;

  if (husart->State == HAL_USART_STATE_BUSY_TX)
 80038ee:	687b      	ldr	r3, [r7, #4]
 80038f0:	f893 303d 	ldrb.w	r3, [r3, #61]	; 0x3d
 80038f4:	b2db      	uxtb	r3, r3
 80038f6:	2b12      	cmp	r3, #18
 80038f8:	d13e      	bne.n	8003978 <USART_Transmit_IT+0x92>
  {
    if ((husart->Init.WordLength == USART_WORDLENGTH_9B) && (husart->Init.Parity == USART_PARITY_NONE))
 80038fa:	687b      	ldr	r3, [r7, #4]
 80038fc:	689b      	ldr	r3, [r3, #8]
 80038fe:	f5b3 5f80 	cmp.w	r3, #4096	; 0x1000
 8003902:	d114      	bne.n	800392e <USART_Transmit_IT+0x48>
 8003904:	687b      	ldr	r3, [r7, #4]
 8003906:	691b      	ldr	r3, [r3, #16]
 8003908:	2b00      	cmp	r3, #0
 800390a:	d110      	bne.n	800392e <USART_Transmit_IT+0x48>
    {
      tmp = (uint16_t *) husart->pTxBuffPtr;
 800390c:	687b      	ldr	r3, [r7, #4]
 800390e:	6a5b      	ldr	r3, [r3, #36]	; 0x24
 8003910:	60fb      	str	r3, [r7, #12]
      husart->Instance->DR = (uint16_t)(*tmp & (uint16_t)0x01FF);
 8003912:	68fb      	ldr	r3, [r7, #12]
 8003914:	881b      	ldrh	r3, [r3, #0]
 8003916:	461a      	mov	r2, r3
 8003918:	687b      	ldr	r3, [r7, #4]
 800391a:	681b      	ldr	r3, [r3, #0]
 800391c:	f3c2 0208 	ubfx	r2, r2, #0, #9
 8003920:	605a      	str	r2, [r3, #4]
      husart->pTxBuffPtr += 2U;
 8003922:	687b      	ldr	r3, [r7, #4]
 8003924:	6a5b      	ldr	r3, [r3, #36]	; 0x24
 8003926:	1c9a      	adds	r2, r3, #2
 8003928:	687b      	ldr	r3, [r7, #4]
 800392a:	625a      	str	r2, [r3, #36]	; 0x24
 800392c:	e008      	b.n	8003940 <USART_Transmit_IT+0x5a>
    }
    else
    {
      husart->Instance->DR = (uint8_t)(*husart->pTxBuffPtr++ & (uint8_t)0x00FF);
 800392e:	687b      	ldr	r3, [r7, #4]
 8003930:	6a5b      	ldr	r3, [r3, #36]	; 0x24
 8003932:	1c59      	adds	r1, r3, #1
 8003934:	687a      	ldr	r2, [r7, #4]
 8003936:	6251      	str	r1, [r2, #36]	; 0x24
 8003938:	781a      	ldrb	r2, [r3, #0]
 800393a:	687b      	ldr	r3, [r7, #4]
 800393c:	681b      	ldr	r3, [r3, #0]
 800393e:	605a      	str	r2, [r3, #4]
    }

    if (--husart->TxXferCount == 0U)
 8003940:	687b      	ldr	r3, [r7, #4]
 8003942:	8d5b      	ldrh	r3, [r3, #42]	; 0x2a
 8003944:	b29b      	uxth	r3, r3
 8003946:	3b01      	subs	r3, #1
 8003948:	b29b      	uxth	r3, r3
 800394a:	687a      	ldr	r2, [r7, #4]
 800394c:	4619      	mov	r1, r3
 800394e:	8551      	strh	r1, [r2, #42]	; 0x2a
 8003950:	2b00      	cmp	r3, #0
 8003952:	d10f      	bne.n	8003974 <USART_Transmit_IT+0x8e>
    {
      /* Disable the USART Transmit data register empty Interrupt */
      CLEAR_BIT(husart->Instance->CR1, USART_CR1_TXEIE);
 8003954:	687b      	ldr	r3, [r7, #4]
 8003956:	681b      	ldr	r3, [r3, #0]
 8003958:	68da      	ldr	r2, [r3, #12]
 800395a:	687b      	ldr	r3, [r7, #4]
 800395c:	681b      	ldr	r3, [r3, #0]
 800395e:	f022 0280 	bic.w	r2, r2, #128	; 0x80
 8003962:	60da      	str	r2, [r3, #12]

      /* Enable the USART Transmit Complete Interrupt */
      SET_BIT(husart->Instance->CR1, USART_CR1_TCIE);
 8003964:	687b      	ldr	r3, [r7, #4]
 8003966:	681b      	ldr	r3, [r3, #0]
 8003968:	68da      	ldr	r2, [r3, #12]
 800396a:	687b      	ldr	r3, [r7, #4]
 800396c:	681b      	ldr	r3, [r3, #0]
 800396e:	f042 0240 	orr.w	r2, r2, #64	; 0x40
 8003972:	60da      	str	r2, [r3, #12]
    }
    return HAL_OK;
 8003974:	2300      	movs	r3, #0
 8003976:	e000      	b.n	800397a <USART_Transmit_IT+0x94>
  }
  else
  {
    return HAL_BUSY;
 8003978:	2302      	movs	r3, #2
  }
}
 800397a:	4618      	mov	r0, r3
 800397c:	3714      	adds	r7, #20
 800397e:	46bd      	mov	sp, r7
 8003980:	bc80      	pop	{r7}
 8003982:	4770      	bx	lr

08003984 <USART_EndTransmit_IT>:
  * @param  husart Pointer to a USART_HandleTypeDef structure that contains
  *                the configuration information for the specified USART module.
  * @retval HAL status
  */
static HAL_StatusTypeDef USART_EndTransmit_IT(USART_HandleTypeDef *husart)
{
 8003984:	b580      	push	{r7, lr}
 8003986:	b082      	sub	sp, #8
 8003988:	af00      	add	r7, sp, #0
 800398a:	6078      	str	r0, [r7, #4]
  /* Disable the USART Transmit Complete Interrupt */
  CLEAR_BIT(husart->Instance->CR1, USART_CR1_TCIE);
 800398c:	687b      	ldr	r3, [r7, #4]
 800398e:	681b      	ldr	r3, [r3, #0]
 8003990:	68da      	ldr	r2, [r3, #12]
 8003992:	687b      	ldr	r3, [r7, #4]
 8003994:	681b      	ldr	r3, [r3, #0]
 8003996:	f022 0240 	bic.w	r2, r2, #64	; 0x40
 800399a:	60da      	str	r2, [r3, #12]

  /* Disable the USART Error Interrupt: (Frame error, noise error, overrun error) */
  CLEAR_BIT(husart->Instance->CR3, USART_CR3_EIE);
 800399c:	687b      	ldr	r3, [r7, #4]
 800399e:	681b      	ldr	r3, [r3, #0]
 80039a0:	695a      	ldr	r2, [r3, #20]
 80039a2:	687b      	ldr	r3, [r7, #4]
 80039a4:	681b      	ldr	r3, [r3, #0]
 80039a6:	f022 0201 	bic.w	r2, r2, #1
 80039aa:	615a      	str	r2, [r3, #20]

  husart->State = HAL_USART_STATE_READY;
 80039ac:	687b      	ldr	r3, [r7, #4]
 80039ae:	2201      	movs	r2, #1
 80039b0:	f883 203d 	strb.w	r2, [r3, #61]	; 0x3d
#if (USE_HAL_USART_REGISTER_CALLBACKS == 1)
  /* Call registered Tx Complete Callback */
  husart->TxCpltCallback(husart);
#else
  /* Call legacy weak Tx Complete Callback */
  HAL_USART_TxCpltCallback(husart);
 80039b4:	6878      	ldr	r0, [r7, #4]
 80039b6:	f7ff ff41 	bl	800383c <HAL_USART_TxCpltCallback>
#endif /* USE_HAL_USART_REGISTER_CALLBACKS */

  return HAL_OK;
 80039ba:	2300      	movs	r3, #0
}
 80039bc:	4618      	mov	r0, r3
 80039be:	3708      	adds	r7, #8
 80039c0:	46bd      	mov	sp, r7
 80039c2:	bd80      	pop	{r7, pc}

080039c4 <USART_Receive_IT>:
  * @param  husart Pointer to a USART_HandleTypeDef structure that contains
  *                the configuration information for the specified USART module.
  * @retval HAL status
  */
static HAL_StatusTypeDef USART_Receive_IT(USART_HandleTypeDef *husart)
{
 80039c4:	b580      	push	{r7, lr}
 80039c6:	b084      	sub	sp, #16
 80039c8:	af00      	add	r7, sp, #0
 80039ca:	6078      	str	r0, [r7, #4]
  uint8_t  *pdata8bits;
  uint16_t *pdata16bits;

  if (husart->State == HAL_USART_STATE_BUSY_RX)
 80039cc:	687b      	ldr	r3, [r7, #4]
 80039ce:	f893 303d 	ldrb.w	r3, [r3, #61]	; 0x3d
 80039d2:	b2db      	uxtb	r3, r3
 80039d4:	2b22      	cmp	r3, #34	; 0x22
 80039d6:	d176      	bne.n	8003ac6 <USART_Receive_IT+0x102>
  {
    if ((husart->Init.WordLength == USART_WORDLENGTH_9B) && (husart->Init.Parity == USART_PARITY_NONE))
 80039d8:	687b      	ldr	r3, [r7, #4]
 80039da:	689b      	ldr	r3, [r3, #8]
 80039dc:	f5b3 5f80 	cmp.w	r3, #4096	; 0x1000
 80039e0:	d117      	bne.n	8003a12 <USART_Receive_IT+0x4e>
 80039e2:	687b      	ldr	r3, [r7, #4]
 80039e4:	691b      	ldr	r3, [r3, #16]
 80039e6:	2b00      	cmp	r3, #0
 80039e8:	d113      	bne.n	8003a12 <USART_Receive_IT+0x4e>
    {
      pdata8bits  = NULL;
 80039ea:	2300      	movs	r3, #0
 80039ec:	60fb      	str	r3, [r7, #12]
      pdata16bits = (uint16_t *) husart->pRxBuffPtr;
 80039ee:	687b      	ldr	r3, [r7, #4]
 80039f0:	6adb      	ldr	r3, [r3, #44]	; 0x2c
 80039f2:	60bb      	str	r3, [r7, #8]
      *pdata16bits = (uint16_t)(husart->Instance->DR & (uint16_t)0x01FF);
 80039f4:	687b      	ldr	r3, [r7, #4]
 80039f6:	681b      	ldr	r3, [r3, #0]
 80039f8:	685b      	ldr	r3, [r3, #4]
 80039fa:	b29b      	uxth	r3, r3
 80039fc:	f3c3 0308 	ubfx	r3, r3, #0, #9
 8003a00:	b29a      	uxth	r2, r3
 8003a02:	68bb      	ldr	r3, [r7, #8]
 8003a04:	801a      	strh	r2, [r3, #0]
      husart->pRxBuffPtr += 2U;
 8003a06:	687b      	ldr	r3, [r7, #4]
 8003a08:	6adb      	ldr	r3, [r3, #44]	; 0x2c
 8003a0a:	1c9a      	adds	r2, r3, #2
 8003a0c:	687b      	ldr	r3, [r7, #4]
 8003a0e:	62da      	str	r2, [r3, #44]	; 0x2c
 8003a10:	e026      	b.n	8003a60 <USART_Receive_IT+0x9c>
    }
    else
    {
      pdata8bits = (uint8_t *) husart->pRxBuffPtr;
 8003a12:	687b      	ldr	r3, [r7, #4]
 8003a14:	6adb      	ldr	r3, [r3, #44]	; 0x2c
 8003a16:	60fb      	str	r3, [r7, #12]
      pdata16bits  = NULL;
 8003a18:	2300      	movs	r3, #0
 8003a1a:	60bb      	str	r3, [r7, #8]

      if ((husart->Init.WordLength == USART_WORDLENGTH_9B) || ((husart->Init.WordLength == USART_WORDLENGTH_8B) && (husart->Init.Parity == USART_PARITY_NONE)))
 8003a1c:	687b      	ldr	r3, [r7, #4]
 8003a1e:	689b      	ldr	r3, [r3, #8]
 8003a20:	f5b3 5f80 	cmp.w	r3, #4096	; 0x1000
 8003a24:	d007      	beq.n	8003a36 <USART_Receive_IT+0x72>
 8003a26:	687b      	ldr	r3, [r7, #4]
 8003a28:	689b      	ldr	r3, [r3, #8]
 8003a2a:	2b00      	cmp	r3, #0
 8003a2c:	d10a      	bne.n	8003a44 <USART_Receive_IT+0x80>
 8003a2e:	687b      	ldr	r3, [r7, #4]
 8003a30:	691b      	ldr	r3, [r3, #16]
 8003a32:	2b00      	cmp	r3, #0
 8003a34:	d106      	bne.n	8003a44 <USART_Receive_IT+0x80>
      {
        *pdata8bits = (uint8_t)(husart->Instance->DR & (uint8_t)0x00FF);
 8003a36:	687b      	ldr	r3, [r7, #4]
 8003a38:	681b      	ldr	r3, [r3, #0]
 8003a3a:	685b      	ldr	r3, [r3, #4]
 8003a3c:	b2da      	uxtb	r2, r3
 8003a3e:	68fb      	ldr	r3, [r7, #12]
 8003a40:	701a      	strb	r2, [r3, #0]
 8003a42:	e008      	b.n	8003a56 <USART_Receive_IT+0x92>
      }
      else
      {
        *pdata8bits = (uint8_t)(husart->Instance->DR & (uint8_t)0x007F);
 8003a44:	687b      	ldr	r3, [r7, #4]
 8003a46:	681b      	ldr	r3, [r3, #0]
 8003a48:	685b      	ldr	r3, [r3, #4]
 8003a4a:	b2db      	uxtb	r3, r3
 8003a4c:	f003 037f 	and.w	r3, r3, #127	; 0x7f
 8003a50:	b2da      	uxtb	r2, r3
 8003a52:	68fb      	ldr	r3, [r7, #12]
 8003a54:	701a      	strb	r2, [r3, #0]
      }

      husart->pRxBuffPtr += 1U;
 8003a56:	687b      	ldr	r3, [r7, #4]
 8003a58:	6adb      	ldr	r3, [r3, #44]	; 0x2c
 8003a5a:	1c5a      	adds	r2, r3, #1
 8003a5c:	687b      	ldr	r3, [r7, #4]
 8003a5e:	62da      	str	r2, [r3, #44]	; 0x2c
    }

    husart->RxXferCount--;
 8003a60:	687b      	ldr	r3, [r7, #4]
 8003a62:	8e5b      	ldrh	r3, [r3, #50]	; 0x32
 8003a64:	b29b      	uxth	r3, r3
 8003a66:	3b01      	subs	r3, #1
 8003a68:	b29a      	uxth	r2, r3
 8003a6a:	687b      	ldr	r3, [r7, #4]
 8003a6c:	865a      	strh	r2, [r3, #50]	; 0x32

    if (husart->RxXferCount == 0U)
 8003a6e:	687b      	ldr	r3, [r7, #4]
 8003a70:	8e5b      	ldrh	r3, [r3, #50]	; 0x32
 8003a72:	b29b      	uxth	r3, r3
 8003a74:	2b00      	cmp	r3, #0
 8003a76:	d120      	bne.n	8003aba <USART_Receive_IT+0xf6>
    {
      /* Disable the USART RXNE Interrupt */
      CLEAR_BIT(husart->Instance->CR1, USART_CR1_RXNEIE);
 8003a78:	687b      	ldr	r3, [r7, #4]
 8003a7a:	681b      	ldr	r3, [r3, #0]
 8003a7c:	68da      	ldr	r2, [r3, #12]
 8003a7e:	687b      	ldr	r3, [r7, #4]
 8003a80:	681b      	ldr	r3, [r3, #0]
 8003a82:	f022 0220 	bic.w	r2, r2, #32
 8003a86:	60da      	str	r2, [r3, #12]

      /* Disable the USART Parity Error Interrupt */
      CLEAR_BIT(husart->Instance->CR1, USART_CR1_PEIE);
 8003a88:	687b      	ldr	r3, [r7, #4]
 8003a8a:	681b      	ldr	r3, [r3, #0]
 8003a8c:	68da      	ldr	r2, [r3, #12]
 8003a8e:	687b      	ldr	r3, [r7, #4]
 8003a90:	681b      	ldr	r3, [r3, #0]
 8003a92:	f422 7280 	bic.w	r2, r2, #256	; 0x100
 8003a96:	60da      	str	r2, [r3, #12]

      /* Disable the USART Error Interrupt: (Frame error, noise error, overrun error) */
      CLEAR_BIT(husart->Instance->CR3, USART_CR3_EIE);
 8003a98:	687b      	ldr	r3, [r7, #4]
 8003a9a:	681b      	ldr	r3, [r3, #0]
 8003a9c:	695a      	ldr	r2, [r3, #20]
 8003a9e:	687b      	ldr	r3, [r7, #4]
 8003aa0:	681b      	ldr	r3, [r3, #0]
 8003aa2:	f022 0201 	bic.w	r2, r2, #1
 8003aa6:	615a      	str	r2, [r3, #20]

      husart->State = HAL_USART_STATE_READY;
 8003aa8:	687b      	ldr	r3, [r7, #4]
 8003aaa:	2201      	movs	r2, #1
 8003aac:	f883 203d 	strb.w	r2, [r3, #61]	; 0x3d
#if (USE_HAL_USART_REGISTER_CALLBACKS == 1)
      /* Call registered Rx Complete Callback */
      husart->RxCpltCallback(husart);
#else
      /* Call legacy weak Rx Complete Callback */
      HAL_USART_RxCpltCallback(husart);
 8003ab0:	6878      	ldr	r0, [r7, #4]
 8003ab2:	f7ff fecc 	bl	800384e <HAL_USART_RxCpltCallback>
#endif /* USE_HAL_USART_REGISTER_CALLBACKS */

      return HAL_OK;
 8003ab6:	2300      	movs	r3, #0
 8003ab8:	e006      	b.n	8003ac8 <USART_Receive_IT+0x104>
    else
    {
      /* Send dummy byte in order to generate the clock for the slave to send the next data.
      * Whatever the frame length (7, 8 or 9-bit long), the same dummy value
      * can be written for all the cases. */
      husart->Instance->DR = (DUMMY_DATA & (uint16_t)0x0FF);
 8003aba:	687b      	ldr	r3, [r7, #4]
 8003abc:	681b      	ldr	r3, [r3, #0]
 8003abe:	22ff      	movs	r2, #255	; 0xff
 8003ac0:	605a      	str	r2, [r3, #4]
    }
    return HAL_OK;
 8003ac2:	2300      	movs	r3, #0
 8003ac4:	e000      	b.n	8003ac8 <USART_Receive_IT+0x104>
  }
  else
  {
    return HAL_BUSY;
 8003ac6:	2302      	movs	r3, #2
  }
}
 8003ac8:	4618      	mov	r0, r3
 8003aca:	3710      	adds	r7, #16
 8003acc:	46bd      	mov	sp, r7
 8003ace:	bd80      	pop	{r7, pc}

08003ad0 <USART_TransmitReceive_IT>:
  * @param  husart Pointer to a USART_HandleTypeDef structure that contains
  *                the configuration information for the specified USART module.
  * @retval HAL status
  */
static HAL_StatusTypeDef USART_TransmitReceive_IT(USART_HandleTypeDef *husart)
{
 8003ad0:	b580      	push	{r7, lr}
 8003ad2:	b084      	sub	sp, #16
 8003ad4:	af00      	add	r7, sp, #0
 8003ad6:	6078      	str	r0, [r7, #4]
  uint8_t  *pdata8bits;
  uint16_t *pdata16bits;

  if (husart->State == HAL_USART_STATE_BUSY_TX_RX)
 8003ad8:	687b      	ldr	r3, [r7, #4]
 8003ada:	f893 303d 	ldrb.w	r3, [r3, #61]	; 0x3d
 8003ade:	b2db      	uxtb	r3, r3
 8003ae0:	2b32      	cmp	r3, #50	; 0x32
 8003ae2:	f040 80c4 	bne.w	8003c6e <USART_TransmitReceive_IT+0x19e>
  {
    if (husart->TxXferCount != 0x00U)
 8003ae6:	687b      	ldr	r3, [r7, #4]
 8003ae8:	8d5b      	ldrh	r3, [r3, #42]	; 0x2a
 8003aea:	b29b      	uxth	r3, r3
 8003aec:	2b00      	cmp	r3, #0
 8003aee:	d03f      	beq.n	8003b70 <USART_TransmitReceive_IT+0xa0>
    {
      if (__HAL_USART_GET_FLAG(husart, USART_FLAG_TXE) != RESET)
 8003af0:	687b      	ldr	r3, [r7, #4]
 8003af2:	681b      	ldr	r3, [r3, #0]
 8003af4:	681b      	ldr	r3, [r3, #0]
 8003af6:	f003 0380 	and.w	r3, r3, #128	; 0x80
 8003afa:	2b80      	cmp	r3, #128	; 0x80
 8003afc:	d138      	bne.n	8003b70 <USART_TransmitReceive_IT+0xa0>
      {
        if ((husart->Init.WordLength == USART_WORDLENGTH_9B) && (husart->Init.Parity == USART_PARITY_NONE))
 8003afe:	687b      	ldr	r3, [r7, #4]
 8003b00:	689b      	ldr	r3, [r3, #8]
 8003b02:	f5b3 5f80 	cmp.w	r3, #4096	; 0x1000
 8003b06:	d116      	bne.n	8003b36 <USART_TransmitReceive_IT+0x66>
 8003b08:	687b      	ldr	r3, [r7, #4]
 8003b0a:	691b      	ldr	r3, [r3, #16]
 8003b0c:	2b00      	cmp	r3, #0
 8003b0e:	d112      	bne.n	8003b36 <USART_TransmitReceive_IT+0x66>
        {
          pdata8bits  = NULL;
 8003b10:	2300      	movs	r3, #0
 8003b12:	60fb      	str	r3, [r7, #12]
          pdata16bits = (uint16_t *) husart->pTxBuffPtr;
 8003b14:	687b      	ldr	r3, [r7, #4]
 8003b16:	6a5b      	ldr	r3, [r3, #36]	; 0x24
 8003b18:	60bb      	str	r3, [r7, #8]
          husart->Instance->DR = (uint16_t)(*pdata16bits & (uint16_t)0x01FF);
 8003b1a:	68bb      	ldr	r3, [r7, #8]
 8003b1c:	881b      	ldrh	r3, [r3, #0]
 8003b1e:	461a      	mov	r2, r3
 8003b20:	687b      	ldr	r3, [r7, #4]
 8003b22:	681b      	ldr	r3, [r3, #0]
 8003b24:	f3c2 0208 	ubfx	r2, r2, #0, #9
 8003b28:	605a      	str	r2, [r3, #4]
          husart->pTxBuffPtr += 2U;
 8003b2a:	687b      	ldr	r3, [r7, #4]
 8003b2c:	6a5b      	ldr	r3, [r3, #36]	; 0x24
 8003b2e:	1c9a      	adds	r2, r3, #2
 8003b30:	687b      	ldr	r3, [r7, #4]
 8003b32:	625a      	str	r2, [r3, #36]	; 0x24
 8003b34:	e008      	b.n	8003b48 <USART_TransmitReceive_IT+0x78>
        }
        else
        {
          husart->Instance->DR = (uint8_t)(*husart->pTxBuffPtr++ & (uint8_t)0x00FF);
 8003b36:	687b      	ldr	r3, [r7, #4]
 8003b38:	6a5b      	ldr	r3, [r3, #36]	; 0x24
 8003b3a:	1c59      	adds	r1, r3, #1
 8003b3c:	687a      	ldr	r2, [r7, #4]
 8003b3e:	6251      	str	r1, [r2, #36]	; 0x24
 8003b40:	781a      	ldrb	r2, [r3, #0]
 8003b42:	687b      	ldr	r3, [r7, #4]
 8003b44:	681b      	ldr	r3, [r3, #0]
 8003b46:	605a      	str	r2, [r3, #4]
        }

        husart->TxXferCount--;
 8003b48:	687b      	ldr	r3, [r7, #4]
 8003b4a:	8d5b      	ldrh	r3, [r3, #42]	; 0x2a
 8003b4c:	b29b      	uxth	r3, r3
 8003b4e:	3b01      	subs	r3, #1
 8003b50:	b29a      	uxth	r2, r3
 8003b52:	687b      	ldr	r3, [r7, #4]
 8003b54:	855a      	strh	r2, [r3, #42]	; 0x2a

        /* Check the latest data transmitted */
        if (husart->TxXferCount == 0U)
 8003b56:	687b      	ldr	r3, [r7, #4]
 8003b58:	8d5b      	ldrh	r3, [r3, #42]	; 0x2a
 8003b5a:	b29b      	uxth	r3, r3
 8003b5c:	2b00      	cmp	r3, #0
 8003b5e:	d107      	bne.n	8003b70 <USART_TransmitReceive_IT+0xa0>
        {
          CLEAR_BIT(husart->Instance->CR1, USART_CR1_TXEIE);
 8003b60:	687b      	ldr	r3, [r7, #4]
 8003b62:	681b      	ldr	r3, [r3, #0]
 8003b64:	68da      	ldr	r2, [r3, #12]
 8003b66:	687b      	ldr	r3, [r7, #4]
 8003b68:	681b      	ldr	r3, [r3, #0]
 8003b6a:	f022 0280 	bic.w	r2, r2, #128	; 0x80
 8003b6e:	60da      	str	r2, [r3, #12]
        }
      }
    }

    if (husart->RxXferCount != 0x00U)
 8003b70:	687b      	ldr	r3, [r7, #4]
 8003b72:	8e5b      	ldrh	r3, [r3, #50]	; 0x32
 8003b74:	b29b      	uxth	r3, r3
 8003b76:	2b00      	cmp	r3, #0
 8003b78:	d051      	beq.n	8003c1e <USART_TransmitReceive_IT+0x14e>
    {
      if (__HAL_USART_GET_FLAG(husart, USART_FLAG_RXNE) != RESET)
 8003b7a:	687b      	ldr	r3, [r7, #4]
 8003b7c:	681b      	ldr	r3, [r3, #0]
 8003b7e:	681b      	ldr	r3, [r3, #0]
 8003b80:	f003 0320 	and.w	r3, r3, #32
 8003b84:	2b20      	cmp	r3, #32
 8003b86:	d14a      	bne.n	8003c1e <USART_TransmitReceive_IT+0x14e>
      {
        if ((husart->Init.WordLength == USART_WORDLENGTH_9B) && (husart->Init.Parity == USART_PARITY_NONE))
 8003b88:	687b      	ldr	r3, [r7, #4]
 8003b8a:	689b      	ldr	r3, [r3, #8]
 8003b8c:	f5b3 5f80 	cmp.w	r3, #4096	; 0x1000
 8003b90:	d117      	bne.n	8003bc2 <USART_TransmitReceive_IT+0xf2>
 8003b92:	687b      	ldr	r3, [r7, #4]
 8003b94:	691b      	ldr	r3, [r3, #16]
 8003b96:	2b00      	cmp	r3, #0
 8003b98:	d113      	bne.n	8003bc2 <USART_TransmitReceive_IT+0xf2>
        {
           pdata8bits  = NULL;
 8003b9a:	2300      	movs	r3, #0
 8003b9c:	60fb      	str	r3, [r7, #12]
           pdata16bits = (uint16_t *) husart->pRxBuffPtr;
 8003b9e:	687b      	ldr	r3, [r7, #4]
 8003ba0:	6adb      	ldr	r3, [r3, #44]	; 0x2c
 8003ba2:	60bb      	str	r3, [r7, #8]
           *pdata16bits = (uint16_t)(husart->Instance->DR & (uint16_t)0x01FF);
 8003ba4:	687b      	ldr	r3, [r7, #4]
 8003ba6:	681b      	ldr	r3, [r3, #0]
 8003ba8:	685b      	ldr	r3, [r3, #4]
 8003baa:	b29b      	uxth	r3, r3
 8003bac:	f3c3 0308 	ubfx	r3, r3, #0, #9
 8003bb0:	b29a      	uxth	r2, r3
 8003bb2:	68bb      	ldr	r3, [r7, #8]
 8003bb4:	801a      	strh	r2, [r3, #0]
           husart->pRxBuffPtr += 2U;
 8003bb6:	687b      	ldr	r3, [r7, #4]
 8003bb8:	6adb      	ldr	r3, [r3, #44]	; 0x2c
 8003bba:	1c9a      	adds	r2, r3, #2
 8003bbc:	687b      	ldr	r3, [r7, #4]
 8003bbe:	62da      	str	r2, [r3, #44]	; 0x2c
 8003bc0:	e026      	b.n	8003c10 <USART_TransmitReceive_IT+0x140>
        }
        else
        {
          pdata8bits = (uint8_t *) husart->pRxBuffPtr;
 8003bc2:	687b      	ldr	r3, [r7, #4]
 8003bc4:	6adb      	ldr	r3, [r3, #44]	; 0x2c
 8003bc6:	60fb      	str	r3, [r7, #12]
          pdata16bits  = NULL;
 8003bc8:	2300      	movs	r3, #0
 8003bca:	60bb      	str	r3, [r7, #8]
          if ((husart->Init.WordLength == USART_WORDLENGTH_9B) || ((husart->Init.WordLength == USART_WORDLENGTH_8B) && (husart->Init.Parity == USART_PARITY_NONE)))
 8003bcc:	687b      	ldr	r3, [r7, #4]
 8003bce:	689b      	ldr	r3, [r3, #8]
 8003bd0:	f5b3 5f80 	cmp.w	r3, #4096	; 0x1000
 8003bd4:	d007      	beq.n	8003be6 <USART_TransmitReceive_IT+0x116>
 8003bd6:	687b      	ldr	r3, [r7, #4]
 8003bd8:	689b      	ldr	r3, [r3, #8]
 8003bda:	2b00      	cmp	r3, #0
 8003bdc:	d10a      	bne.n	8003bf4 <USART_TransmitReceive_IT+0x124>
 8003bde:	687b      	ldr	r3, [r7, #4]
 8003be0:	691b      	ldr	r3, [r3, #16]
 8003be2:	2b00      	cmp	r3, #0
 8003be4:	d106      	bne.n	8003bf4 <USART_TransmitReceive_IT+0x124>
          {
            *pdata8bits = (uint8_t)(husart->Instance->DR & (uint8_t)0x00FF);
 8003be6:	687b      	ldr	r3, [r7, #4]
 8003be8:	681b      	ldr	r3, [r3, #0]
 8003bea:	685b      	ldr	r3, [r3, #4]
 8003bec:	b2da      	uxtb	r2, r3
 8003bee:	68fb      	ldr	r3, [r7, #12]
 8003bf0:	701a      	strb	r2, [r3, #0]
 8003bf2:	e008      	b.n	8003c06 <USART_TransmitReceive_IT+0x136>
          }
          else
          {
            *pdata8bits = (uint8_t)(husart->Instance->DR & (uint8_t)0x007F);
 8003bf4:	687b      	ldr	r3, [r7, #4]
 8003bf6:	681b      	ldr	r3, [r3, #0]
 8003bf8:	685b      	ldr	r3, [r3, #4]
 8003bfa:	b2db      	uxtb	r3, r3
 8003bfc:	f003 037f 	and.w	r3, r3, #127	; 0x7f
 8003c00:	b2da      	uxtb	r2, r3
 8003c02:	68fb      	ldr	r3, [r7, #12]
 8003c04:	701a      	strb	r2, [r3, #0]
          }
          husart->pRxBuffPtr += 1U;
 8003c06:	687b      	ldr	r3, [r7, #4]
 8003c08:	6adb      	ldr	r3, [r3, #44]	; 0x2c
 8003c0a:	1c5a      	adds	r2, r3, #1
 8003c0c:	687b      	ldr	r3, [r7, #4]
 8003c0e:	62da      	str	r2, [r3, #44]	; 0x2c
        }

        husart->RxXferCount--;
 8003c10:	687b      	ldr	r3, [r7, #4]
 8003c12:	8e5b      	ldrh	r3, [r3, #50]	; 0x32
 8003c14:	b29b      	uxth	r3, r3
 8003c16:	3b01      	subs	r3, #1
 8003c18:	b29a      	uxth	r2, r3
 8003c1a:	687b      	ldr	r3, [r7, #4]
 8003c1c:	865a      	strh	r2, [r3, #50]	; 0x32
      }
    }

    /* Check the latest data received */
    if (husart->RxXferCount == 0U)
 8003c1e:	687b      	ldr	r3, [r7, #4]
 8003c20:	8e5b      	ldrh	r3, [r3, #50]	; 0x32
 8003c22:	b29b      	uxth	r3, r3
 8003c24:	2b00      	cmp	r3, #0
 8003c26:	d120      	bne.n	8003c6a <USART_TransmitReceive_IT+0x19a>
    {
      /* Disable the USART RXNE Interrupt */
      CLEAR_BIT(husart->Instance->CR1, USART_CR1_RXNEIE);
 8003c28:	687b      	ldr	r3, [r7, #4]
 8003c2a:	681b      	ldr	r3, [r3, #0]
 8003c2c:	68da      	ldr	r2, [r3, #12]
 8003c2e:	687b      	ldr	r3, [r7, #4]
 8003c30:	681b      	ldr	r3, [r3, #0]
 8003c32:	f022 0220 	bic.w	r2, r2, #32
 8003c36:	60da      	str	r2, [r3, #12]

      /* Disable the USART Parity Error Interrupt */
      CLEAR_BIT(husart->Instance->CR1, USART_CR1_PEIE);
 8003c38:	687b      	ldr	r3, [r7, #4]
 8003c3a:	681b      	ldr	r3, [r3, #0]
 8003c3c:	68da      	ldr	r2, [r3, #12]
 8003c3e:	687b      	ldr	r3, [r7, #4]
 8003c40:	681b      	ldr	r3, [r3, #0]
 8003c42:	f422 7280 	bic.w	r2, r2, #256	; 0x100
 8003c46:	60da      	str	r2, [r3, #12]

      /* Disable the USART Error Interrupt: (Frame error, noise error, overrun error) */
      CLEAR_BIT(husart->Instance->CR3, USART_CR3_EIE);
 8003c48:	687b      	ldr	r3, [r7, #4]
 8003c4a:	681b      	ldr	r3, [r3, #0]
 8003c4c:	695a      	ldr	r2, [r3, #20]
 8003c4e:	687b      	ldr	r3, [r7, #4]
 8003c50:	681b      	ldr	r3, [r3, #0]
 8003c52:	f022 0201 	bic.w	r2, r2, #1
 8003c56:	615a      	str	r2, [r3, #20]

      husart->State = HAL_USART_STATE_READY;
 8003c58:	687b      	ldr	r3, [r7, #4]
 8003c5a:	2201      	movs	r2, #1
 8003c5c:	f883 203d 	strb.w	r2, [r3, #61]	; 0x3d
#if (USE_HAL_USART_REGISTER_CALLBACKS == 1)
      /* Call registered Tx Rx Complete Callback */
      husart->TxRxCpltCallback(husart);
#else
      /* Call legacy weak Tx Rx Complete Callback */
      HAL_USART_TxRxCpltCallback(husart);
 8003c60:	6878      	ldr	r0, [r7, #4]
 8003c62:	f7ff fdfd 	bl	8003860 <HAL_USART_TxRxCpltCallback>
#endif /* USE_HAL_USART_REGISTER_CALLBACKS */

      return HAL_OK;
 8003c66:	2300      	movs	r3, #0
 8003c68:	e002      	b.n	8003c70 <USART_TransmitReceive_IT+0x1a0>
    }

    return HAL_OK;
 8003c6a:	2300      	movs	r3, #0
 8003c6c:	e000      	b.n	8003c70 <USART_TransmitReceive_IT+0x1a0>
  }
  else
  {
    return HAL_BUSY;
 8003c6e:	2302      	movs	r3, #2
  }
}
 8003c70:	4618      	mov	r0, r3
 8003c72:	3710      	adds	r7, #16
 8003c74:	46bd      	mov	sp, r7
 8003c76:	bd80      	pop	{r7, pc}

08003c78 <USART_SetConfig>:
  * @param  husart Pointer to a USART_HandleTypeDef structure that contains
  *                the configuration information for the specified USART module.
  * @retval None
  */
static void USART_SetConfig(USART_HandleTypeDef *husart)
{
 8003c78:	b580      	push	{r7, lr}
 8003c7a:	b084      	sub	sp, #16
 8003c7c:	af00      	add	r7, sp, #0
 8003c7e:	6078      	str	r0, [r7, #4]
  uint32_t tmpreg = 0x00U;
 8003c80:	2300      	movs	r3, #0
 8003c82:	60fb      	str	r3, [r7, #12]
  assert_param(IS_USART_PARITY(husart->Init.Parity));
  assert_param(IS_USART_MODE(husart->Init.Mode));

  /* The LBCL, CPOL and CPHA bits have to be selected when both the transmitter and the
     receiver are disabled (TE=RE=0) to ensure that the clock pulses function correctly. */
  CLEAR_BIT(husart->Instance->CR1, (USART_CR1_TE | USART_CR1_RE));
 8003c84:	687b      	ldr	r3, [r7, #4]
 8003c86:	681b      	ldr	r3, [r3, #0]
 8003c88:	68da      	ldr	r2, [r3, #12]
 8003c8a:	687b      	ldr	r3, [r7, #4]
 8003c8c:	681b      	ldr	r3, [r3, #0]
 8003c8e:	f022 020c 	bic.w	r2, r2, #12
 8003c92:	60da      	str	r2, [r3, #12]

  /*---------------------------- USART CR2 Configuration ---------------------*/
  tmpreg = husart->Instance->CR2;
 8003c94:	687b      	ldr	r3, [r7, #4]
 8003c96:	681b      	ldr	r3, [r3, #0]
 8003c98:	691b      	ldr	r3, [r3, #16]
 8003c9a:	60fb      	str	r3, [r7, #12]
  /* Clear CLKEN, CPOL, CPHA and LBCL bits */
  tmpreg &= (uint32_t)~((uint32_t)(USART_CR2_CPHA | USART_CR2_CPOL | USART_CR2_CLKEN | USART_CR2_LBCL | USART_CR2_STOP));
 8003c9c:	68fb      	ldr	r3, [r7, #12]
 8003c9e:	f423 537c 	bic.w	r3, r3, #16128	; 0x3f00
 8003ca2:	60fb      	str	r3, [r7, #12]
  /* Configure the USART Clock, CPOL, CPHA and LastBit -----------------------*/
  /* Set CPOL bit according to husart->Init.CLKPolarity value */
  /* Set CPHA bit according to husart->Init.CLKPhase value */
  /* Set LBCL bit according to husart->Init.CLKLastBit value */
  /* Set Stop Bits: Set STOP[13:12] bits according to husart->Init.StopBits value */
  tmpreg |= (uint32_t)(USART_CLOCK_ENABLE | husart->Init.CLKPolarity |
 8003ca4:	687b      	ldr	r3, [r7, #4]
 8003ca6:	699a      	ldr	r2, [r3, #24]
                       husart->Init.CLKPhase | husart->Init.CLKLastBit | husart->Init.StopBits);
 8003ca8:	687b      	ldr	r3, [r7, #4]
 8003caa:	69db      	ldr	r3, [r3, #28]
  tmpreg |= (uint32_t)(USART_CLOCK_ENABLE | husart->Init.CLKPolarity |
 8003cac:	431a      	orrs	r2, r3
                       husart->Init.CLKPhase | husart->Init.CLKLastBit | husart->Init.StopBits);
 8003cae:	687b      	ldr	r3, [r7, #4]
 8003cb0:	6a1b      	ldr	r3, [r3, #32]
 8003cb2:	431a      	orrs	r2, r3
 8003cb4:	687b      	ldr	r3, [r7, #4]
 8003cb6:	68db      	ldr	r3, [r3, #12]
  tmpreg |= (uint32_t)(USART_CLOCK_ENABLE | husart->Init.CLKPolarity |
 8003cb8:	431a      	orrs	r2, r3
 8003cba:	68fb      	ldr	r3, [r7, #12]
 8003cbc:	4313      	orrs	r3, r2
 8003cbe:	f443 6300 	orr.w	r3, r3, #2048	; 0x800
 8003cc2:	60fb      	str	r3, [r7, #12]
  /* Write to USART CR2 */
  WRITE_REG(husart->Instance->CR2, (uint32_t)tmpreg);
 8003cc4:	687b      	ldr	r3, [r7, #4]
 8003cc6:	681b      	ldr	r3, [r3, #0]
 8003cc8:	68fa      	ldr	r2, [r7, #12]
 8003cca:	611a      	str	r2, [r3, #16]

  /*-------------------------- USART CR1 Configuration -----------------------*/
  tmpreg = husart->Instance->CR1;
 8003ccc:	687b      	ldr	r3, [r7, #4]
 8003cce:	681b      	ldr	r3, [r3, #0]
 8003cd0:	68db      	ldr	r3, [r3, #12]
 8003cd2:	60fb      	str	r3, [r7, #12]

  /* Clear M, PCE, PS, TE and RE bits */
  tmpreg &= (uint32_t)~((uint32_t)(USART_CR1_M | USART_CR1_PCE | USART_CR1_PS | USART_CR1_TE | USART_CR1_RE));
 8003cd4:	68fb      	ldr	r3, [r7, #12]
 8003cd6:	f423 53b0 	bic.w	r3, r3, #5632	; 0x1600
 8003cda:	f023 030c 	bic.w	r3, r3, #12
 8003cde:	60fb      	str	r3, [r7, #12]
  /* Configure the USART Word Length, Parity and mode:
     Set the M bits according to husart->Init.WordLength value
     Set PCE and PS bits according to husart->Init.Parity value
     Set TE and RE bits according to husart->Init.Mode value
   */
  tmpreg |= (uint32_t)husart->Init.WordLength | husart->Init.Parity | husart->Init.Mode;
 8003ce0:	687b      	ldr	r3, [r7, #4]
 8003ce2:	689a      	ldr	r2, [r3, #8]
 8003ce4:	687b      	ldr	r3, [r7, #4]
 8003ce6:	691b      	ldr	r3, [r3, #16]
 8003ce8:	431a      	orrs	r2, r3
 8003cea:	687b      	ldr	r3, [r7, #4]
 8003cec:	695b      	ldr	r3, [r3, #20]
 8003cee:	4313      	orrs	r3, r2
 8003cf0:	68fa      	ldr	r2, [r7, #12]
 8003cf2:	4313      	orrs	r3, r2
 8003cf4:	60fb      	str	r3, [r7, #12]

  /* Write to USART CR1 */
  WRITE_REG(husart->Instance->CR1, (uint32_t)tmpreg);
 8003cf6:	687b      	ldr	r3, [r7, #4]
 8003cf8:	681b      	ldr	r3, [r3, #0]
 8003cfa:	68fa      	ldr	r2, [r7, #12]
 8003cfc:	60da      	str	r2, [r3, #12]

  /*-------------------------- USART CR3 Configuration -----------------------*/
  /* Clear CTSE and RTSE bits */
  CLEAR_BIT(husart->Instance->CR3, (USART_CR3_RTSE | USART_CR3_CTSE));
 8003cfe:	687b      	ldr	r3, [r7, #4]
 8003d00:	681b      	ldr	r3, [r3, #0]
 8003d02:	695a      	ldr	r2, [r3, #20]
 8003d04:	687b      	ldr	r3, [r7, #4]
 8003d06:	681b      	ldr	r3, [r3, #0]
 8003d08:	f422 7240 	bic.w	r2, r2, #768	; 0x300
 8003d0c:	615a      	str	r2, [r3, #20]

  /*-------------------------- USART BRR Configuration -----------------------*/
  if((husart->Instance == USART1))
 8003d0e:	687b      	ldr	r3, [r7, #4]
 8003d10:	681b      	ldr	r3, [r3, #0]
 8003d12:	4a53      	ldr	r2, [pc, #332]	; (8003e60 <USART_SetConfig+0x1e8>)
 8003d14:	4293      	cmp	r3, r2
 8003d16:	d14f      	bne.n	8003db8 <USART_SetConfig+0x140>
  {
    pclk = HAL_RCC_GetPCLK2Freq();
 8003d18:	f7ff fbfe 	bl	8003518 <HAL_RCC_GetPCLK2Freq>
 8003d1c:	60b8      	str	r0, [r7, #8]
    husart->Instance->BRR = USART_BRR(pclk, husart->Init.BaudRate);
 8003d1e:	68ba      	ldr	r2, [r7, #8]
 8003d20:	4613      	mov	r3, r2
 8003d22:	009b      	lsls	r3, r3, #2
 8003d24:	4413      	add	r3, r2
 8003d26:	009a      	lsls	r2, r3, #2
 8003d28:	441a      	add	r2, r3
 8003d2a:	687b      	ldr	r3, [r7, #4]
 8003d2c:	685b      	ldr	r3, [r3, #4]
 8003d2e:	009b      	lsls	r3, r3, #2
 8003d30:	fbb2 f3f3 	udiv	r3, r2, r3
 8003d34:	4a4b      	ldr	r2, [pc, #300]	; (8003e64 <USART_SetConfig+0x1ec>)
 8003d36:	fba2 2303 	umull	r2, r3, r2, r3
 8003d3a:	095b      	lsrs	r3, r3, #5
 8003d3c:	0119      	lsls	r1, r3, #4
 8003d3e:	68ba      	ldr	r2, [r7, #8]
 8003d40:	4613      	mov	r3, r2
 8003d42:	009b      	lsls	r3, r3, #2
 8003d44:	4413      	add	r3, r2
 8003d46:	009a      	lsls	r2, r3, #2
 8003d48:	441a      	add	r2, r3
 8003d4a:	687b      	ldr	r3, [r7, #4]
 8003d4c:	685b      	ldr	r3, [r3, #4]
 8003d4e:	009b      	lsls	r3, r3, #2
 8003d50:	fbb2 f2f3 	udiv	r2, r2, r3
 8003d54:	4b43      	ldr	r3, [pc, #268]	; (8003e64 <USART_SetConfig+0x1ec>)
 8003d56:	fba3 0302 	umull	r0, r3, r3, r2
 8003d5a:	095b      	lsrs	r3, r3, #5
 8003d5c:	2064      	movs	r0, #100	; 0x64
 8003d5e:	fb00 f303 	mul.w	r3, r0, r3
 8003d62:	1ad3      	subs	r3, r2, r3
 8003d64:	011b      	lsls	r3, r3, #4
 8003d66:	3332      	adds	r3, #50	; 0x32
 8003d68:	4a3e      	ldr	r2, [pc, #248]	; (8003e64 <USART_SetConfig+0x1ec>)
 8003d6a:	fba2 2303 	umull	r2, r3, r2, r3
 8003d6e:	095b      	lsrs	r3, r3, #5
 8003d70:	005b      	lsls	r3, r3, #1
 8003d72:	f403 73f0 	and.w	r3, r3, #480	; 0x1e0
 8003d76:	4419      	add	r1, r3
 8003d78:	68ba      	ldr	r2, [r7, #8]
 8003d7a:	4613      	mov	r3, r2
 8003d7c:	009b      	lsls	r3, r3, #2
 8003d7e:	4413      	add	r3, r2
 8003d80:	009a      	lsls	r2, r3, #2
 8003d82:	441a      	add	r2, r3
 8003d84:	687b      	ldr	r3, [r7, #4]
 8003d86:	685b      	ldr	r3, [r3, #4]
 8003d88:	009b      	lsls	r3, r3, #2
 8003d8a:	fbb2 f2f3 	udiv	r2, r2, r3
 8003d8e:	4b35      	ldr	r3, [pc, #212]	; (8003e64 <USART_SetConfig+0x1ec>)
 8003d90:	fba3 0302 	umull	r0, r3, r3, r2
 8003d94:	095b      	lsrs	r3, r3, #5
 8003d96:	2064      	movs	r0, #100	; 0x64
 8003d98:	fb00 f303 	mul.w	r3, r0, r3
 8003d9c:	1ad3      	subs	r3, r2, r3
 8003d9e:	011b      	lsls	r3, r3, #4
 8003da0:	3332      	adds	r3, #50	; 0x32
 8003da2:	4a30      	ldr	r2, [pc, #192]	; (8003e64 <USART_SetConfig+0x1ec>)
 8003da4:	fba2 2303 	umull	r2, r3, r2, r3
 8003da8:	095b      	lsrs	r3, r3, #5
 8003daa:	f003 020f 	and.w	r2, r3, #15
 8003dae:	687b      	ldr	r3, [r7, #4]
 8003db0:	681b      	ldr	r3, [r3, #0]
 8003db2:	440a      	add	r2, r1
 8003db4:	609a      	str	r2, [r3, #8]
  else
  {
    pclk = HAL_RCC_GetPCLK1Freq();
    husart->Instance->BRR = USART_BRR(pclk, husart->Init.BaudRate);
  }
}
 8003db6:	e04e      	b.n	8003e56 <USART_SetConfig+0x1de>
    pclk = HAL_RCC_GetPCLK1Freq();
 8003db8:	f7ff fb9a 	bl	80034f0 <HAL_RCC_GetPCLK1Freq>
 8003dbc:	60b8      	str	r0, [r7, #8]
    husart->Instance->BRR = USART_BRR(pclk, husart->Init.BaudRate);
 8003dbe:	68ba      	ldr	r2, [r7, #8]
 8003dc0:	4613      	mov	r3, r2
 8003dc2:	009b      	lsls	r3, r3, #2
 8003dc4:	4413      	add	r3, r2
 8003dc6:	009a      	lsls	r2, r3, #2
 8003dc8:	441a      	add	r2, r3
 8003dca:	687b      	ldr	r3, [r7, #4]
 8003dcc:	685b      	ldr	r3, [r3, #4]
 8003dce:	009b      	lsls	r3, r3, #2
 8003dd0:	fbb2 f3f3 	udiv	r3, r2, r3
 8003dd4:	4a23      	ldr	r2, [pc, #140]	; (8003e64 <USART_SetConfig+0x1ec>)
 8003dd6:	fba2 2303 	umull	r2, r3, r2, r3
 8003dda:	095b      	lsrs	r3, r3, #5
 8003ddc:	0119      	lsls	r1, r3, #4
 8003dde:	68ba      	ldr	r2, [r7, #8]
 8003de0:	4613      	mov	r3, r2
 8003de2:	009b      	lsls	r3, r3, #2
 8003de4:	4413      	add	r3, r2
 8003de6:	009a      	lsls	r2, r3, #2
 8003de8:	441a      	add	r2, r3
 8003dea:	687b      	ldr	r3, [r7, #4]
 8003dec:	685b      	ldr	r3, [r3, #4]
 8003dee:	009b      	lsls	r3, r3, #2
 8003df0:	fbb2 f2f3 	udiv	r2, r2, r3
 8003df4:	4b1b      	ldr	r3, [pc, #108]	; (8003e64 <USART_SetConfig+0x1ec>)
 8003df6:	fba3 0302 	umull	r0, r3, r3, r2
 8003dfa:	095b      	lsrs	r3, r3, #5
 8003dfc:	2064      	movs	r0, #100	; 0x64
 8003dfe:	fb00 f303 	mul.w	r3, r0, r3
 8003e02:	1ad3      	subs	r3, r2, r3
 8003e04:	011b      	lsls	r3, r3, #4
 8003e06:	3332      	adds	r3, #50	; 0x32
 8003e08:	4a16      	ldr	r2, [pc, #88]	; (8003e64 <USART_SetConfig+0x1ec>)
 8003e0a:	fba2 2303 	umull	r2, r3, r2, r3
 8003e0e:	095b      	lsrs	r3, r3, #5
 8003e10:	005b      	lsls	r3, r3, #1
 8003e12:	f403 73f0 	and.w	r3, r3, #480	; 0x1e0
 8003e16:	4419      	add	r1, r3
 8003e18:	68ba      	ldr	r2, [r7, #8]
 8003e1a:	4613      	mov	r3, r2
 8003e1c:	009b      	lsls	r3, r3, #2
 8003e1e:	4413      	add	r3, r2
 8003e20:	009a      	lsls	r2, r3, #2
 8003e22:	441a      	add	r2, r3
 8003e24:	687b      	ldr	r3, [r7, #4]
 8003e26:	685b      	ldr	r3, [r3, #4]
 8003e28:	009b      	lsls	r3, r3, #2
 8003e2a:	fbb2 f2f3 	udiv	r2, r2, r3
 8003e2e:	4b0d      	ldr	r3, [pc, #52]	; (8003e64 <USART_SetConfig+0x1ec>)
 8003e30:	fba3 0302 	umull	r0, r3, r3, r2
 8003e34:	095b      	lsrs	r3, r3, #5
 8003e36:	2064      	movs	r0, #100	; 0x64
 8003e38:	fb00 f303 	mul.w	r3, r0, r3
 8003e3c:	1ad3      	subs	r3, r2, r3
 8003e3e:	011b      	lsls	r3, r3, #4
 8003e40:	3332      	adds	r3, #50	; 0x32
 8003e42:	4a08      	ldr	r2, [pc, #32]	; (8003e64 <USART_SetConfig+0x1ec>)
 8003e44:	fba2 2303 	umull	r2, r3, r2, r3
 8003e48:	095b      	lsrs	r3, r3, #5
 8003e4a:	f003 020f 	and.w	r2, r3, #15
 8003e4e:	687b      	ldr	r3, [r7, #4]
 8003e50:	681b      	ldr	r3, [r3, #0]
 8003e52:	440a      	add	r2, r1
 8003e54:	609a      	str	r2, [r3, #8]
}
 8003e56:	bf00      	nop
 8003e58:	3710      	adds	r7, #16
 8003e5a:	46bd      	mov	sp, r7
 8003e5c:	bd80      	pop	{r7, pc}
 8003e5e:	bf00      	nop
 8003e60:	40013800 	.word	0x40013800
 8003e64:	51eb851f 	.word	0x51eb851f

08003e68 <__errno>:
 8003e68:	4b01      	ldr	r3, [pc, #4]	; (8003e70 <__errno+0x8>)
 8003e6a:	6818      	ldr	r0, [r3, #0]
 8003e6c:	4770      	bx	lr
 8003e6e:	bf00      	nop
 8003e70:	2000006c 	.word	0x2000006c

08003e74 <__libc_init_array>:
 8003e74:	b570      	push	{r4, r5, r6, lr}
 8003e76:	2600      	movs	r6, #0
 8003e78:	4d0c      	ldr	r5, [pc, #48]	; (8003eac <__libc_init_array+0x38>)
 8003e7a:	4c0d      	ldr	r4, [pc, #52]	; (8003eb0 <__libc_init_array+0x3c>)
 8003e7c:	1b64      	subs	r4, r4, r5
 8003e7e:	10a4      	asrs	r4, r4, #2
 8003e80:	42a6      	cmp	r6, r4
 8003e82:	d109      	bne.n	8003e98 <__libc_init_array+0x24>
 8003e84:	f000 f93a 	bl	80040fc <_init>
 8003e88:	2600      	movs	r6, #0
 8003e8a:	4d0a      	ldr	r5, [pc, #40]	; (8003eb4 <__libc_init_array+0x40>)
 8003e8c:	4c0a      	ldr	r4, [pc, #40]	; (8003eb8 <__libc_init_array+0x44>)
 8003e8e:	1b64      	subs	r4, r4, r5
 8003e90:	10a4      	asrs	r4, r4, #2
 8003e92:	42a6      	cmp	r6, r4
 8003e94:	d105      	bne.n	8003ea2 <__libc_init_array+0x2e>
 8003e96:	bd70      	pop	{r4, r5, r6, pc}
 8003e98:	f855 3b04 	ldr.w	r3, [r5], #4
 8003e9c:	4798      	blx	r3
 8003e9e:	3601      	adds	r6, #1
 8003ea0:	e7ee      	b.n	8003e80 <__libc_init_array+0xc>
 8003ea2:	f855 3b04 	ldr.w	r3, [r5], #4
 8003ea6:	4798      	blx	r3
 8003ea8:	3601      	adds	r6, #1
 8003eaa:	e7f2      	b.n	8003e92 <__libc_init_array+0x1e>
 8003eac:	080045e4 	.word	0x080045e4
 8003eb0:	080045e4 	.word	0x080045e4
 8003eb4:	080045e4 	.word	0x080045e4
 8003eb8:	080045e8 	.word	0x080045e8

08003ebc <malloc>:
 8003ebc:	4b02      	ldr	r3, [pc, #8]	; (8003ec8 <malloc+0xc>)
 8003ebe:	4601      	mov	r1, r0
 8003ec0:	6818      	ldr	r0, [r3, #0]
 8003ec2:	f000 b889 	b.w	8003fd8 <_malloc_r>
 8003ec6:	bf00      	nop
 8003ec8:	2000006c 	.word	0x2000006c

08003ecc <free>:
 8003ecc:	4b02      	ldr	r3, [pc, #8]	; (8003ed8 <free+0xc>)
 8003ece:	4601      	mov	r1, r0
 8003ed0:	6818      	ldr	r0, [r3, #0]
 8003ed2:	f000 b819 	b.w	8003f08 <_free_r>
 8003ed6:	bf00      	nop
 8003ed8:	2000006c 	.word	0x2000006c

08003edc <memcpy>:
 8003edc:	440a      	add	r2, r1
 8003ede:	4291      	cmp	r1, r2
 8003ee0:	f100 33ff 	add.w	r3, r0, #4294967295	; 0xffffffff
 8003ee4:	d100      	bne.n	8003ee8 <memcpy+0xc>
 8003ee6:	4770      	bx	lr
 8003ee8:	b510      	push	{r4, lr}
 8003eea:	f811 4b01 	ldrb.w	r4, [r1], #1
 8003eee:	4291      	cmp	r1, r2
 8003ef0:	f803 4f01 	strb.w	r4, [r3, #1]!
 8003ef4:	d1f9      	bne.n	8003eea <memcpy+0xe>
 8003ef6:	bd10      	pop	{r4, pc}

08003ef8 <memset>:
 8003ef8:	4603      	mov	r3, r0
 8003efa:	4402      	add	r2, r0
 8003efc:	4293      	cmp	r3, r2
 8003efe:	d100      	bne.n	8003f02 <memset+0xa>
 8003f00:	4770      	bx	lr
 8003f02:	f803 1b01 	strb.w	r1, [r3], #1
 8003f06:	e7f9      	b.n	8003efc <memset+0x4>

08003f08 <_free_r>:
 8003f08:	b538      	push	{r3, r4, r5, lr}
 8003f0a:	4605      	mov	r5, r0
 8003f0c:	2900      	cmp	r1, #0
 8003f0e:	d040      	beq.n	8003f92 <_free_r+0x8a>
 8003f10:	f851 3c04 	ldr.w	r3, [r1, #-4]
 8003f14:	1f0c      	subs	r4, r1, #4
 8003f16:	2b00      	cmp	r3, #0
 8003f18:	bfb8      	it	lt
 8003f1a:	18e4      	addlt	r4, r4, r3
 8003f1c:	f000 f8e0 	bl	80040e0 <__malloc_lock>
 8003f20:	4a1c      	ldr	r2, [pc, #112]	; (8003f94 <_free_r+0x8c>)
 8003f22:	6813      	ldr	r3, [r2, #0]
 8003f24:	b933      	cbnz	r3, 8003f34 <_free_r+0x2c>
 8003f26:	6063      	str	r3, [r4, #4]
 8003f28:	6014      	str	r4, [r2, #0]
 8003f2a:	4628      	mov	r0, r5
 8003f2c:	e8bd 4038 	ldmia.w	sp!, {r3, r4, r5, lr}
 8003f30:	f000 b8dc 	b.w	80040ec <__malloc_unlock>
 8003f34:	42a3      	cmp	r3, r4
 8003f36:	d908      	bls.n	8003f4a <_free_r+0x42>
 8003f38:	6820      	ldr	r0, [r4, #0]
 8003f3a:	1821      	adds	r1, r4, r0
 8003f3c:	428b      	cmp	r3, r1
 8003f3e:	bf01      	itttt	eq
 8003f40:	6819      	ldreq	r1, [r3, #0]
 8003f42:	685b      	ldreq	r3, [r3, #4]
 8003f44:	1809      	addeq	r1, r1, r0
 8003f46:	6021      	streq	r1, [r4, #0]
 8003f48:	e7ed      	b.n	8003f26 <_free_r+0x1e>
 8003f4a:	461a      	mov	r2, r3
 8003f4c:	685b      	ldr	r3, [r3, #4]
 8003f4e:	b10b      	cbz	r3, 8003f54 <_free_r+0x4c>
 8003f50:	42a3      	cmp	r3, r4
 8003f52:	d9fa      	bls.n	8003f4a <_free_r+0x42>
 8003f54:	6811      	ldr	r1, [r2, #0]
 8003f56:	1850      	adds	r0, r2, r1
 8003f58:	42a0      	cmp	r0, r4
 8003f5a:	d10b      	bne.n	8003f74 <_free_r+0x6c>
 8003f5c:	6820      	ldr	r0, [r4, #0]
 8003f5e:	4401      	add	r1, r0
 8003f60:	1850      	adds	r0, r2, r1
 8003f62:	4283      	cmp	r3, r0
 8003f64:	6011      	str	r1, [r2, #0]
 8003f66:	d1e0      	bne.n	8003f2a <_free_r+0x22>
 8003f68:	6818      	ldr	r0, [r3, #0]
 8003f6a:	685b      	ldr	r3, [r3, #4]
 8003f6c:	4401      	add	r1, r0
 8003f6e:	6011      	str	r1, [r2, #0]
 8003f70:	6053      	str	r3, [r2, #4]
 8003f72:	e7da      	b.n	8003f2a <_free_r+0x22>
 8003f74:	d902      	bls.n	8003f7c <_free_r+0x74>
 8003f76:	230c      	movs	r3, #12
 8003f78:	602b      	str	r3, [r5, #0]
 8003f7a:	e7d6      	b.n	8003f2a <_free_r+0x22>
 8003f7c:	6820      	ldr	r0, [r4, #0]
 8003f7e:	1821      	adds	r1, r4, r0
 8003f80:	428b      	cmp	r3, r1
 8003f82:	bf01      	itttt	eq
 8003f84:	6819      	ldreq	r1, [r3, #0]
 8003f86:	685b      	ldreq	r3, [r3, #4]
 8003f88:	1809      	addeq	r1, r1, r0
 8003f8a:	6021      	streq	r1, [r4, #0]
 8003f8c:	6063      	str	r3, [r4, #4]
 8003f8e:	6054      	str	r4, [r2, #4]
 8003f90:	e7cb      	b.n	8003f2a <_free_r+0x22>
 8003f92:	bd38      	pop	{r3, r4, r5, pc}
 8003f94:	2000018c 	.word	0x2000018c

08003f98 <sbrk_aligned>:
 8003f98:	b570      	push	{r4, r5, r6, lr}
 8003f9a:	4e0e      	ldr	r6, [pc, #56]	; (8003fd4 <sbrk_aligned+0x3c>)
 8003f9c:	460c      	mov	r4, r1
 8003f9e:	6831      	ldr	r1, [r6, #0]
 8003fa0:	4605      	mov	r5, r0
 8003fa2:	b911      	cbnz	r1, 8003faa <sbrk_aligned+0x12>
 8003fa4:	f000 f88c 	bl	80040c0 <_sbrk_r>
 8003fa8:	6030      	str	r0, [r6, #0]
 8003faa:	4621      	mov	r1, r4
 8003fac:	4628      	mov	r0, r5
 8003fae:	f000 f887 	bl	80040c0 <_sbrk_r>
 8003fb2:	1c43      	adds	r3, r0, #1
 8003fb4:	d00a      	beq.n	8003fcc <sbrk_aligned+0x34>
 8003fb6:	1cc4      	adds	r4, r0, #3
 8003fb8:	f024 0403 	bic.w	r4, r4, #3
 8003fbc:	42a0      	cmp	r0, r4
 8003fbe:	d007      	beq.n	8003fd0 <sbrk_aligned+0x38>
 8003fc0:	1a21      	subs	r1, r4, r0
 8003fc2:	4628      	mov	r0, r5
 8003fc4:	f000 f87c 	bl	80040c0 <_sbrk_r>
 8003fc8:	3001      	adds	r0, #1
 8003fca:	d101      	bne.n	8003fd0 <sbrk_aligned+0x38>
 8003fcc:	f04f 34ff 	mov.w	r4, #4294967295	; 0xffffffff
 8003fd0:	4620      	mov	r0, r4
 8003fd2:	bd70      	pop	{r4, r5, r6, pc}
 8003fd4:	20000190 	.word	0x20000190

08003fd8 <_malloc_r>:
 8003fd8:	e92d 41f0 	stmdb	sp!, {r4, r5, r6, r7, r8, lr}
 8003fdc:	1ccd      	adds	r5, r1, #3
 8003fde:	f025 0503 	bic.w	r5, r5, #3
 8003fe2:	3508      	adds	r5, #8
 8003fe4:	2d0c      	cmp	r5, #12
 8003fe6:	bf38      	it	cc
 8003fe8:	250c      	movcc	r5, #12
 8003fea:	2d00      	cmp	r5, #0
 8003fec:	4607      	mov	r7, r0
 8003fee:	db01      	blt.n	8003ff4 <_malloc_r+0x1c>
 8003ff0:	42a9      	cmp	r1, r5
 8003ff2:	d905      	bls.n	8004000 <_malloc_r+0x28>
 8003ff4:	230c      	movs	r3, #12
 8003ff6:	2600      	movs	r6, #0
 8003ff8:	603b      	str	r3, [r7, #0]
 8003ffa:	4630      	mov	r0, r6
 8003ffc:	e8bd 81f0 	ldmia.w	sp!, {r4, r5, r6, r7, r8, pc}
 8004000:	4e2e      	ldr	r6, [pc, #184]	; (80040bc <_malloc_r+0xe4>)
 8004002:	f000 f86d 	bl	80040e0 <__malloc_lock>
 8004006:	6833      	ldr	r3, [r6, #0]
 8004008:	461c      	mov	r4, r3
 800400a:	bb34      	cbnz	r4, 800405a <_malloc_r+0x82>
 800400c:	4629      	mov	r1, r5
 800400e:	4638      	mov	r0, r7
 8004010:	f7ff ffc2 	bl	8003f98 <sbrk_aligned>
 8004014:	1c43      	adds	r3, r0, #1
 8004016:	4604      	mov	r4, r0
 8004018:	d14d      	bne.n	80040b6 <_malloc_r+0xde>
 800401a:	6834      	ldr	r4, [r6, #0]
 800401c:	4626      	mov	r6, r4
 800401e:	2e00      	cmp	r6, #0
 8004020:	d140      	bne.n	80040a4 <_malloc_r+0xcc>
 8004022:	6823      	ldr	r3, [r4, #0]
 8004024:	4631      	mov	r1, r6
 8004026:	4638      	mov	r0, r7
 8004028:	eb04 0803 	add.w	r8, r4, r3
 800402c:	f000 f848 	bl	80040c0 <_sbrk_r>
 8004030:	4580      	cmp	r8, r0
 8004032:	d13a      	bne.n	80040aa <_malloc_r+0xd2>
 8004034:	6821      	ldr	r1, [r4, #0]
 8004036:	3503      	adds	r5, #3
 8004038:	1a6d      	subs	r5, r5, r1
 800403a:	f025 0503 	bic.w	r5, r5, #3
 800403e:	3508      	adds	r5, #8
 8004040:	2d0c      	cmp	r5, #12
 8004042:	bf38      	it	cc
 8004044:	250c      	movcc	r5, #12
 8004046:	4638      	mov	r0, r7
 8004048:	4629      	mov	r1, r5
 800404a:	f7ff ffa5 	bl	8003f98 <sbrk_aligned>
 800404e:	3001      	adds	r0, #1
 8004050:	d02b      	beq.n	80040aa <_malloc_r+0xd2>
 8004052:	6823      	ldr	r3, [r4, #0]
 8004054:	442b      	add	r3, r5
 8004056:	6023      	str	r3, [r4, #0]
 8004058:	e00e      	b.n	8004078 <_malloc_r+0xa0>
 800405a:	6822      	ldr	r2, [r4, #0]
 800405c:	1b52      	subs	r2, r2, r5
 800405e:	d41e      	bmi.n	800409e <_malloc_r+0xc6>
 8004060:	2a0b      	cmp	r2, #11
 8004062:	d916      	bls.n	8004092 <_malloc_r+0xba>
 8004064:	1961      	adds	r1, r4, r5
 8004066:	42a3      	cmp	r3, r4
 8004068:	6025      	str	r5, [r4, #0]
 800406a:	bf18      	it	ne
 800406c:	6059      	strne	r1, [r3, #4]
 800406e:	6863      	ldr	r3, [r4, #4]
 8004070:	bf08      	it	eq
 8004072:	6031      	streq	r1, [r6, #0]
 8004074:	5162      	str	r2, [r4, r5]
 8004076:	604b      	str	r3, [r1, #4]
 8004078:	4638      	mov	r0, r7
 800407a:	f104 060b 	add.w	r6, r4, #11
 800407e:	f000 f835 	bl	80040ec <__malloc_unlock>
 8004082:	f026 0607 	bic.w	r6, r6, #7
 8004086:	1d23      	adds	r3, r4, #4
 8004088:	1af2      	subs	r2, r6, r3
 800408a:	d0b6      	beq.n	8003ffa <_malloc_r+0x22>
 800408c:	1b9b      	subs	r3, r3, r6
 800408e:	50a3      	str	r3, [r4, r2]
 8004090:	e7b3      	b.n	8003ffa <_malloc_r+0x22>
 8004092:	6862      	ldr	r2, [r4, #4]
 8004094:	42a3      	cmp	r3, r4
 8004096:	bf0c      	ite	eq
 8004098:	6032      	streq	r2, [r6, #0]
 800409a:	605a      	strne	r2, [r3, #4]
 800409c:	e7ec      	b.n	8004078 <_malloc_r+0xa0>
 800409e:	4623      	mov	r3, r4
 80040a0:	6864      	ldr	r4, [r4, #4]
 80040a2:	e7b2      	b.n	800400a <_malloc_r+0x32>
 80040a4:	4634      	mov	r4, r6
 80040a6:	6876      	ldr	r6, [r6, #4]
 80040a8:	e7b9      	b.n	800401e <_malloc_r+0x46>
 80040aa:	230c      	movs	r3, #12
 80040ac:	4638      	mov	r0, r7
 80040ae:	603b      	str	r3, [r7, #0]
 80040b0:	f000 f81c 	bl	80040ec <__malloc_unlock>
 80040b4:	e7a1      	b.n	8003ffa <_malloc_r+0x22>
 80040b6:	6025      	str	r5, [r4, #0]
 80040b8:	e7de      	b.n	8004078 <_malloc_r+0xa0>
 80040ba:	bf00      	nop
 80040bc:	2000018c 	.word	0x2000018c

080040c0 <_sbrk_r>:
 80040c0:	b538      	push	{r3, r4, r5, lr}
 80040c2:	2300      	movs	r3, #0
 80040c4:	4d05      	ldr	r5, [pc, #20]	; (80040dc <_sbrk_r+0x1c>)
 80040c6:	4604      	mov	r4, r0
 80040c8:	4608      	mov	r0, r1
 80040ca:	602b      	str	r3, [r5, #0]
 80040cc:	f7fd fa7e 	bl	80015cc <_sbrk>
 80040d0:	1c43      	adds	r3, r0, #1
 80040d2:	d102      	bne.n	80040da <_sbrk_r+0x1a>
 80040d4:	682b      	ldr	r3, [r5, #0]
 80040d6:	b103      	cbz	r3, 80040da <_sbrk_r+0x1a>
 80040d8:	6023      	str	r3, [r4, #0]
 80040da:	bd38      	pop	{r3, r4, r5, pc}
 80040dc:	20000194 	.word	0x20000194

080040e0 <__malloc_lock>:
 80040e0:	4801      	ldr	r0, [pc, #4]	; (80040e8 <__malloc_lock+0x8>)
 80040e2:	f000 b809 	b.w	80040f8 <__retarget_lock_acquire_recursive>
 80040e6:	bf00      	nop
 80040e8:	20000198 	.word	0x20000198

080040ec <__malloc_unlock>:
 80040ec:	4801      	ldr	r0, [pc, #4]	; (80040f4 <__malloc_unlock+0x8>)
 80040ee:	f000 b804 	b.w	80040fa <__retarget_lock_release_recursive>
 80040f2:	bf00      	nop
 80040f4:	20000198 	.word	0x20000198

080040f8 <__retarget_lock_acquire_recursive>:
 80040f8:	4770      	bx	lr

080040fa <__retarget_lock_release_recursive>:
 80040fa:	4770      	bx	lr

080040fc <_init>:
 80040fc:	b5f8      	push	{r3, r4, r5, r6, r7, lr}
 80040fe:	bf00      	nop
 8004100:	bcf8      	pop	{r3, r4, r5, r6, r7}
 8004102:	bc08      	pop	{r3}
 8004104:	469e      	mov	lr, r3
 8004106:	4770      	bx	lr

08004108 <_fini>:
 8004108:	b5f8      	push	{r3, r4, r5, r6, r7, lr}
 800410a:	bf00      	nop
 800410c:	bcf8      	pop	{r3, r4, r5, r6, r7}
 800410e:	bc08      	pop	{r3}
 8004110:	469e      	mov	lr, r3
 8004112:	4770      	bx	lr
