
Encrypt_M3.elf:     file format elf32-littlearm

Sections:
Idx Name          Size      VMA       LMA       File off  Algn
  0 .isr_vector   0000010c  08000000  08000000  00010000  2**0
                  CONTENTS, ALLOC, LOAD, READONLY, DATA
  1 .text         000032ec  0800010c  0800010c  0001010c  2**2
                  CONTENTS, ALLOC, LOAD, READONLY, CODE
  2 .rodata       00000094  080033f8  080033f8  000133f8  2**2
                  CONTENTS, ALLOC, LOAD, READONLY, DATA
  3 .ARM.extab    00000000  0800348c  0800348c  0002000c  2**0
                  CONTENTS
  4 .ARM          00000000  0800348c  0800348c  0002000c  2**0
                  CONTENTS
  5 .preinit_array 00000000  0800348c  0800348c  0002000c  2**0
                  CONTENTS, ALLOC, LOAD, DATA
  6 .init_array   00000004  0800348c  0800348c  0001348c  2**2
                  CONTENTS, ALLOC, LOAD, DATA
  7 .fini_array   00000004  08003490  08003490  00013490  2**2
                  CONTENTS, ALLOC, LOAD, DATA
  8 .data         0000000c  20000000  08003494  00020000  2**2
                  CONTENTS, ALLOC, LOAD, DATA
  9 .bss          000000b8  2000000c  080034a0  0002000c  2**2
                  ALLOC
 10 ._user_heap_stack 00000604  200000c4  080034a0  000200c4  2**0
                  ALLOC
 11 .ARM.attributes 00000029  00000000  00000000  0002000c  2**0
                  CONTENTS, READONLY
 12 .comment      00000043  00000000  00000000  00020035  2**0
                  CONTENTS, READONLY
 13 .debug_info   00008bd8  00000000  00000000  00020078  2**0
                  CONTENTS, READONLY, DEBUGGING, OCTETS
 14 .debug_abbrev 000019cd  00000000  00000000  00028c50  2**0
                  CONTENTS, READONLY, DEBUGGING, OCTETS
 15 .debug_aranges 00000938  00000000  00000000  0002a620  2**3
                  CONTENTS, READONLY, DEBUGGING, OCTETS
 16 .debug_rnglists 0000072a  00000000  00000000  0002af58  2**0
                  CONTENTS, READONLY, DEBUGGING, OCTETS
 17 .debug_macro  00016713  00000000  00000000  0002b682  2**0
                  CONTENTS, READONLY, DEBUGGING, OCTETS
 18 .debug_line   0000b989  00000000  00000000  00041d95  2**0
                  CONTENTS, READONLY, DEBUGGING, OCTETS
 19 .debug_str    0008091c  00000000  00000000  0004d71e  2**0
                  CONTENTS, READONLY, DEBUGGING, OCTETS
 20 .debug_frame  000025a4  00000000  00000000  000ce03c  2**2
                  CONTENTS, READONLY, DEBUGGING, OCTETS
 21 .debug_line_str 0000006e  00000000  00000000  000d05e0  2**0
                  CONTENTS, READONLY, DEBUGGING, OCTETS

Disassembly of section .text:

0800010c <__do_global_dtors_aux>:
 800010c:	b510      	push	{r4, lr}
 800010e:	4c05      	ldr	r4, [pc, #20]	; (8000124 <__do_global_dtors_aux+0x18>)
 8000110:	7823      	ldrb	r3, [r4, #0]
 8000112:	b933      	cbnz	r3, 8000122 <__do_global_dtors_aux+0x16>
 8000114:	4b04      	ldr	r3, [pc, #16]	; (8000128 <__do_global_dtors_aux+0x1c>)
 8000116:	b113      	cbz	r3, 800011e <__do_global_dtors_aux+0x12>
 8000118:	4804      	ldr	r0, [pc, #16]	; (800012c <__do_global_dtors_aux+0x20>)
 800011a:	f3af 8000 	nop.w
 800011e:	2301      	movs	r3, #1
 8000120:	7023      	strb	r3, [r4, #0]
 8000122:	bd10      	pop	{r4, pc}
 8000124:	2000000c 	.word	0x2000000c
 8000128:	00000000 	.word	0x00000000
 800012c:	080033e0 	.word	0x080033e0

08000130 <frame_dummy>:
 8000130:	b508      	push	{r3, lr}
 8000132:	4b03      	ldr	r3, [pc, #12]	; (8000140 <frame_dummy+0x10>)
 8000134:	b11b      	cbz	r3, 800013e <frame_dummy+0xe>
 8000136:	4903      	ldr	r1, [pc, #12]	; (8000144 <frame_dummy+0x14>)
 8000138:	4803      	ldr	r0, [pc, #12]	; (8000148 <frame_dummy+0x18>)
 800013a:	f3af 8000 	nop.w
 800013e:	bd08      	pop	{r3, pc}
 8000140:	00000000 	.word	0x00000000
 8000144:	20000010 	.word	0x20000010
 8000148:	080033e0 	.word	0x080033e0

0800014c <atCRC>:

uint8_t CRC_LSB = 0x00;
uint8_t CRC_MSB = 0x00;

void atCRC(uint8_t *data, uint8_t size)
{
 800014c:	b480      	push	{r7}
 800014e:	b087      	sub	sp, #28
 8000150:	af00      	add	r7, sp, #0
 8000152:	6078      	str	r0, [r7, #4]
 8000154:	460b      	mov	r3, r1
 8000156:	70fb      	strb	r3, [r7, #3]
    uint8_t counter;
    uint16_t crc_register = 0;
 8000158:	2300      	movs	r3, #0
 800015a:	82bb      	strh	r3, [r7, #20]
    uint16_t polynom = 0x8005;
 800015c:	f248 0305 	movw	r3, #32773	; 0x8005
 8000160:	823b      	strh	r3, [r7, #16]
    uint8_t shift_register;
    uint8_t data_bit, crc_bit;

    for (counter = 1; counter < (size - 2); counter++)
 8000162:	2301      	movs	r3, #1
 8000164:	75fb      	strb	r3, [r7, #23]
 8000166:	e027      	b.n	80001b8 <atCRC+0x6c>
    {
        for (shift_register = 0x01; shift_register > 0x00; shift_register <<= 1)
 8000168:	2301      	movs	r3, #1
 800016a:	74fb      	strb	r3, [r7, #19]
 800016c:	e01e      	b.n	80001ac <atCRC+0x60>
        {
            data_bit = (data[counter] & shift_register) ? 1 : 0;
 800016e:	7dfb      	ldrb	r3, [r7, #23]
 8000170:	687a      	ldr	r2, [r7, #4]
 8000172:	4413      	add	r3, r2
 8000174:	781a      	ldrb	r2, [r3, #0]
 8000176:	7cfb      	ldrb	r3, [r7, #19]
 8000178:	4013      	ands	r3, r2
 800017a:	b2db      	uxtb	r3, r3
 800017c:	2b00      	cmp	r3, #0
 800017e:	bf14      	ite	ne
 8000180:	2301      	movne	r3, #1
 8000182:	2300      	moveq	r3, #0
 8000184:	b2db      	uxtb	r3, r3
 8000186:	73fb      	strb	r3, [r7, #15]
            crc_bit = crc_register >> 15;
 8000188:	8abb      	ldrh	r3, [r7, #20]
 800018a:	0bdb      	lsrs	r3, r3, #15
 800018c:	b29b      	uxth	r3, r3
 800018e:	73bb      	strb	r3, [r7, #14]
            crc_register <<= 1;
 8000190:	8abb      	ldrh	r3, [r7, #20]
 8000192:	005b      	lsls	r3, r3, #1
 8000194:	82bb      	strh	r3, [r7, #20]
            if (data_bit != crc_bit)
 8000196:	7bfa      	ldrb	r2, [r7, #15]
 8000198:	7bbb      	ldrb	r3, [r7, #14]
 800019a:	429a      	cmp	r2, r3
 800019c:	d003      	beq.n	80001a6 <atCRC+0x5a>
            {
                crc_register ^= polynom;
 800019e:	8aba      	ldrh	r2, [r7, #20]
 80001a0:	8a3b      	ldrh	r3, [r7, #16]
 80001a2:	4053      	eors	r3, r2
 80001a4:	82bb      	strh	r3, [r7, #20]
        for (shift_register = 0x01; shift_register > 0x00; shift_register <<= 1)
 80001a6:	7cfb      	ldrb	r3, [r7, #19]
 80001a8:	005b      	lsls	r3, r3, #1
 80001aa:	74fb      	strb	r3, [r7, #19]
 80001ac:	7cfb      	ldrb	r3, [r7, #19]
 80001ae:	2b00      	cmp	r3, #0
 80001b0:	d1dd      	bne.n	800016e <atCRC+0x22>
    for (counter = 1; counter < (size - 2); counter++)
 80001b2:	7dfb      	ldrb	r3, [r7, #23]
 80001b4:	3301      	adds	r3, #1
 80001b6:	75fb      	strb	r3, [r7, #23]
 80001b8:	7dfa      	ldrb	r2, [r7, #23]
 80001ba:	78fb      	ldrb	r3, [r7, #3]
 80001bc:	3b02      	subs	r3, #2
 80001be:	429a      	cmp	r2, r3
 80001c0:	dbd2      	blt.n	8000168 <atCRC+0x1c>
            }
        }
    }
    data[size - 2] = (uint8_t)(crc_register & 0x00FF);
 80001c2:	78fb      	ldrb	r3, [r7, #3]
 80001c4:	3b02      	subs	r3, #2
 80001c6:	687a      	ldr	r2, [r7, #4]
 80001c8:	4413      	add	r3, r2
 80001ca:	8aba      	ldrh	r2, [r7, #20]
 80001cc:	b2d2      	uxtb	r2, r2
 80001ce:	701a      	strb	r2, [r3, #0]
    data[size - 1] = (uint8_t)(crc_register >> 8);
 80001d0:	8abb      	ldrh	r3, [r7, #20]
 80001d2:	0a1b      	lsrs	r3, r3, #8
 80001d4:	b299      	uxth	r1, r3
 80001d6:	78fb      	ldrb	r3, [r7, #3]
 80001d8:	3b01      	subs	r3, #1
 80001da:	687a      	ldr	r2, [r7, #4]
 80001dc:	4413      	add	r3, r2
 80001de:	b2ca      	uxtb	r2, r1
 80001e0:	701a      	strb	r2, [r3, #0]
}
 80001e2:	bf00      	nop
 80001e4:	371c      	adds	r7, #28
 80001e6:	46bd      	mov	sp, r7
 80001e8:	bc80      	pop	{r7}
 80001ea:	4770      	bx	lr

080001ec <WakeUp>:


void WakeUp(uint8_t *receiv){
 80001ec:	b580      	push	{r7, lr}
 80001ee:	b086      	sub	sp, #24
 80001f0:	af02      	add	r7, sp, #8
 80001f2:	6078      	str	r0, [r7, #4]

	uint8_t data = 0;
 80001f4:	2300      	movs	r3, #0
 80001f6:	73fb      	strb	r3, [r7, #15]

	HAL_I2C_Master_Receive(&hi2c2, 0xFE, &data, sizeof(data), 1000);
 80001f8:	f107 020f 	add.w	r2, r7, #15
 80001fc:	f44f 737a 	mov.w	r3, #1000	; 0x3e8
 8000200:	9300      	str	r3, [sp, #0]
 8000202:	2301      	movs	r3, #1
 8000204:	21fe      	movs	r1, #254	; 0xfe
 8000206:	4818      	ldr	r0, [pc, #96]	; (8000268 <WakeUp+0x7c>)
 8000208:	f001 faa2 	bl	8001750 <HAL_I2C_Master_Receive>
	HAL_Delay(5); // 2.5 ms para acordar; 45 ms para entrar em sleep
 800020c:	2005      	movs	r0, #5
 800020e:	f000 fd31 	bl	8000c74 <HAL_Delay>
	// first read: 0 byte read - should receive an ACK

	HAL_I2C_Master_Receive(&hi2c2, I2C_ADDRESS, &data, 1, 1000);
 8000212:	f107 020f 	add.w	r2, r7, #15
 8000216:	f44f 737a 	mov.w	r3, #1000	; 0x3e8
 800021a:	9300      	str	r3, [sp, #0]
 800021c:	2301      	movs	r3, #1
 800021e:	21c8      	movs	r1, #200	; 0xc8
 8000220:	4811      	ldr	r0, [pc, #68]	; (8000268 <WakeUp+0x7c>)
 8000222:	f001 fa95 	bl	8001750 <HAL_I2C_Master_Receive>
	HAL_Delay(5);
 8000226:	2005      	movs	r0, #5
 8000228:	f000 fd24 	bl	8000c74 <HAL_Delay>

	// Read 88bytes
	HAL_I2C_Master_Transmit(&hi2c2, I2C_ADDRESS, &data, sizeof(data), 1000);	// Send 1 byte
 800022c:	f107 020f 	add.w	r2, r7, #15
 8000230:	f44f 737a 	mov.w	r3, #1000	; 0x3e8
 8000234:	9300      	str	r3, [sp, #0]
 8000236:	2301      	movs	r3, #1
 8000238:	21c8      	movs	r1, #200	; 0xc8
 800023a:	480b      	ldr	r0, [pc, #44]	; (8000268 <WakeUp+0x7c>)
 800023c:	f001 f98a 	bl	8001554 <HAL_I2C_Master_Transmit>
	HAL_Delay(5);
 8000240:	2005      	movs	r0, #5
 8000242:	f000 fd17 	bl	8000c74 <HAL_Delay>
	HAL_I2C_Master_Receive(&hi2c2, I2C_ADDRESS, receiv, 4, 1000); 		    	// Receiv: 0x04, 0x11, 0x33, 0x43.
 8000246:	f44f 737a 	mov.w	r3, #1000	; 0x3e8
 800024a:	9300      	str	r3, [sp, #0]
 800024c:	2304      	movs	r3, #4
 800024e:	687a      	ldr	r2, [r7, #4]
 8000250:	21c8      	movs	r1, #200	; 0xc8
 8000252:	4805      	ldr	r0, [pc, #20]	; (8000268 <WakeUp+0x7c>)
 8000254:	f001 fa7c 	bl	8001750 <HAL_I2C_Master_Receive>
	HAL_Delay(5);
 8000258:	2005      	movs	r0, #5
 800025a:	f000 fd0b 	bl	8000c74 <HAL_Delay>
}
 800025e:	bf00      	nop
 8000260:	3710      	adds	r7, #16
 8000262:	46bd      	mov	sp, r7
 8000264:	bd80      	pop	{r7, pc}
 8000266:	bf00      	nop
 8000268:	20000028 	.word	0x20000028

0800026c <ReadConfig>:


void ReadConfig(uint8_t *data, uint16_t size, uint8_t *receiv) {
 800026c:	b580      	push	{r7, lr}
 800026e:	b086      	sub	sp, #24
 8000270:	af02      	add	r7, sp, #8
 8000272:	60f8      	str	r0, [r7, #12]
 8000274:	460b      	mov	r3, r1
 8000276:	607a      	str	r2, [r7, #4]
 8000278:	817b      	strh	r3, [r7, #10]

	HAL_I2C_Master_Transmit(&hi2c2, I2C_ADDRESS, data, 8, 1000); 		    // Send read command
 800027a:	f44f 737a 	mov.w	r3, #1000	; 0x3e8
 800027e:	9300      	str	r3, [sp, #0]
 8000280:	2308      	movs	r3, #8
 8000282:	68fa      	ldr	r2, [r7, #12]
 8000284:	21c8      	movs	r1, #200	; 0xc8
 8000286:	480b      	ldr	r0, [pc, #44]	; (80002b4 <ReadConfig+0x48>)
 8000288:	f001 f964 	bl	8001554 <HAL_I2C_Master_Transmit>
	HAL_Delay(5);
 800028c:	2005      	movs	r0, #5
 800028e:	f000 fcf1 	bl	8000c74 <HAL_Delay>
	HAL_I2C_Master_Receive(&hi2c2, I2C_ADDRESS, receiv, size, 1000); 	    // Receive: data packet size, 0x01 0x23..., CRC_LSB, CRC_MSB
 8000292:	897b      	ldrh	r3, [r7, #10]
 8000294:	f44f 727a 	mov.w	r2, #1000	; 0x3e8
 8000298:	9200      	str	r2, [sp, #0]
 800029a:	687a      	ldr	r2, [r7, #4]
 800029c:	21c8      	movs	r1, #200	; 0xc8
 800029e:	4805      	ldr	r0, [pc, #20]	; (80002b4 <ReadConfig+0x48>)
 80002a0:	f001 fa56 	bl	8001750 <HAL_I2C_Master_Receive>
	HAL_Delay(5);
 80002a4:	2005      	movs	r0, #5
 80002a6:	f000 fce5 	bl	8000c74 <HAL_Delay>
}
 80002aa:	bf00      	nop
 80002ac:	3710      	adds	r7, #16
 80002ae:	46bd      	mov	sp, r7
 80002b0:	bd80      	pop	{r7, pc}
 80002b2:	bf00      	nop
 80002b4:	20000028 	.word	0x20000028

080002b8 <ReadDataZone>:
	HAL_I2C_Master_Transmit(&hi2c2, I2C_ADDRESS, blockConfig, sizeof(blockConfig), 1000);
	HAL_Delay(5);
}


void ReadDataZone(uint8_t *data, uint16_t size, uint8_t *receiv) {
 80002b8:	b580      	push	{r7, lr}
 80002ba:	b086      	sub	sp, #24
 80002bc:	af02      	add	r7, sp, #8
 80002be:	60f8      	str	r0, [r7, #12]
 80002c0:	460b      	mov	r3, r1
 80002c2:	607a      	str	r2, [r7, #4]
 80002c4:	817b      	strh	r3, [r7, #10]

	HAL_I2C_Master_Transmit(&hi2c2, I2C_ADDRESS, data, 8, 1000);
 80002c6:	f44f 737a 	mov.w	r3, #1000	; 0x3e8
 80002ca:	9300      	str	r3, [sp, #0]
 80002cc:	2308      	movs	r3, #8
 80002ce:	68fa      	ldr	r2, [r7, #12]
 80002d0:	21c8      	movs	r1, #200	; 0xc8
 80002d2:	480b      	ldr	r0, [pc, #44]	; (8000300 <ReadDataZone+0x48>)
 80002d4:	f001 f93e 	bl	8001554 <HAL_I2C_Master_Transmit>
	HAL_Delay(5);
 80002d8:	2005      	movs	r0, #5
 80002da:	f000 fccb 	bl	8000c74 <HAL_Delay>
	HAL_I2C_Master_Receive(&hi2c2, I2C_ADDRESS, receiv, size, 1000);
 80002de:	897b      	ldrh	r3, [r7, #10]
 80002e0:	f44f 727a 	mov.w	r2, #1000	; 0x3e8
 80002e4:	9200      	str	r2, [sp, #0]
 80002e6:	687a      	ldr	r2, [r7, #4]
 80002e8:	21c8      	movs	r1, #200	; 0xc8
 80002ea:	4805      	ldr	r0, [pc, #20]	; (8000300 <ReadDataZone+0x48>)
 80002ec:	f001 fa30 	bl	8001750 <HAL_I2C_Master_Receive>
	HAL_Delay(5);
 80002f0:	2005      	movs	r0, #5
 80002f2:	f000 fcbf 	bl	8000c74 <HAL_Delay>
}
 80002f6:	bf00      	nop
 80002f8:	3710      	adds	r7, #16
 80002fa:	46bd      	mov	sp, r7
 80002fc:	bd80      	pop	{r7, pc}
 80002fe:	bf00      	nop
 8000300:	20000028 	.word	0x20000028

08000304 <CommandNonce>:


void CommandNonce(uint8_t *NumIn, uint16_t size, uint8_t *receiv){ //OK
 8000304:	b580      	push	{r7, lr}
 8000306:	b08e      	sub	sp, #56	; 0x38
 8000308:	af02      	add	r7, sp, #8
 800030a:	60f8      	str	r0, [r7, #12]
 800030c:	460b      	mov	r3, r1
 800030e:	607a      	str	r2, [r7, #4]
 8000310:	817b      	strh	r3, [r7, #10]

	// NONCE command: {COMMAND, COUNT, OPCODE, Param1_mode, 0x00, 0x00, NumIn[20], CRC_LSB, CRC_MSB}
	uint8_t noncecommand[28];

	for(uint8_t i = 0; i <= 20; i++){
 8000312:	2300      	movs	r3, #0
 8000314:	f887 302f 	strb.w	r3, [r7, #47]	; 0x2f
 8000318:	e010      	b.n	800033c <CommandNonce+0x38>
		 noncecommand[6 + i] = NumIn[i];
 800031a:	f897 302f 	ldrb.w	r3, [r7, #47]	; 0x2f
 800031e:	68fa      	ldr	r2, [r7, #12]
 8000320:	441a      	add	r2, r3
 8000322:	f897 302f 	ldrb.w	r3, [r7, #47]	; 0x2f
 8000326:	3306      	adds	r3, #6
 8000328:	7812      	ldrb	r2, [r2, #0]
 800032a:	3330      	adds	r3, #48	; 0x30
 800032c:	443b      	add	r3, r7
 800032e:	f803 2c20 	strb.w	r2, [r3, #-32]
	for(uint8_t i = 0; i <= 20; i++){
 8000332:	f897 302f 	ldrb.w	r3, [r7, #47]	; 0x2f
 8000336:	3301      	adds	r3, #1
 8000338:	f887 302f 	strb.w	r3, [r7, #47]	; 0x2f
 800033c:	f897 302f 	ldrb.w	r3, [r7, #47]	; 0x2f
 8000340:	2b14      	cmp	r3, #20
 8000342:	d9ea      	bls.n	800031a <CommandNonce+0x16>
	}

    noncecommand[0] = COMMAND;
 8000344:	2303      	movs	r3, #3
 8000346:	743b      	strb	r3, [r7, #16]
    noncecommand[1] = SIZE_WRITE_NONCE;
 8000348:	231b      	movs	r3, #27
 800034a:	747b      	strb	r3, [r7, #17]
    noncecommand[2] = COMMAND_NONCE;
 800034c:	2316      	movs	r3, #22
 800034e:	74bb      	strb	r3, [r7, #18]
    noncecommand[3] = NONCE_MODE0;
 8000350:	2300      	movs	r3, #0
 8000352:	74fb      	strb	r3, [r7, #19]
    noncecommand[4] = 0x00;
 8000354:	2300      	movs	r3, #0
 8000356:	753b      	strb	r3, [r7, #20]
    noncecommand[5] = 0x00;
 8000358:	2300      	movs	r3, #0
 800035a:	757b      	strb	r3, [r7, #21]
    noncecommand[sizeof(noncecommand) - 2] = 0x00;
 800035c:	2300      	movs	r3, #0
 800035e:	f887 302a 	strb.w	r3, [r7, #42]	; 0x2a
    noncecommand[sizeof(noncecommand) - 1] = 0x00;
 8000362:	2300      	movs	r3, #0
 8000364:	f887 302b 	strb.w	r3, [r7, #43]	; 0x2b

	atCRC(noncecommand,sizeof(noncecommand));
 8000368:	f107 0310 	add.w	r3, r7, #16
 800036c:	211c      	movs	r1, #28
 800036e:	4618      	mov	r0, r3
 8000370:	f7ff feec 	bl	800014c <atCRC>

	HAL_I2C_Master_Transmit(&hi2c2, I2C_ADDRESS, noncecommand, sizeof(noncecommand), 1000);
 8000374:	f107 0210 	add.w	r2, r7, #16
 8000378:	f44f 737a 	mov.w	r3, #1000	; 0x3e8
 800037c:	9300      	str	r3, [sp, #0]
 800037e:	231c      	movs	r3, #28
 8000380:	21c8      	movs	r1, #200	; 0xc8
 8000382:	480b      	ldr	r0, [pc, #44]	; (80003b0 <CommandNonce+0xac>)
 8000384:	f001 f8e6 	bl	8001554 <HAL_I2C_Master_Transmit>
	HAL_Delay(50);
 8000388:	2032      	movs	r0, #50	; 0x32
 800038a:	f000 fc73 	bl	8000c74 <HAL_Delay>
	HAL_I2C_Master_Receive(&hi2c2, I2C_ADDRESS, receiv, size, 1000);
 800038e:	897b      	ldrh	r3, [r7, #10]
 8000390:	f44f 727a 	mov.w	r2, #1000	; 0x3e8
 8000394:	9200      	str	r2, [sp, #0]
 8000396:	687a      	ldr	r2, [r7, #4]
 8000398:	21c8      	movs	r1, #200	; 0xc8
 800039a:	4805      	ldr	r0, [pc, #20]	; (80003b0 <CommandNonce+0xac>)
 800039c:	f001 f9d8 	bl	8001750 <HAL_I2C_Master_Receive>
	HAL_Delay(10);
 80003a0:	200a      	movs	r0, #10
 80003a2:	f000 fc67 	bl	8000c74 <HAL_Delay>
}
 80003a6:	bf00      	nop
 80003a8:	3730      	adds	r7, #48	; 0x30
 80003aa:	46bd      	mov	sp, r7
 80003ac:	bd80      	pop	{r7, pc}
 80003ae:	bf00      	nop
 80003b0:	20000028 	.word	0x20000028

080003b4 <GendigCommand>:


void GendigCommand(uint8_t SlotID_LSB, uint8_t SlotID_MSB, uint8_t size, uint8_t *receiv){
 80003b4:	b580      	push	{r7, lr}
 80003b6:	b086      	sub	sp, #24
 80003b8:	af02      	add	r7, sp, #8
 80003ba:	603b      	str	r3, [r7, #0]
 80003bc:	4603      	mov	r3, r0
 80003be:	71fb      	strb	r3, [r7, #7]
 80003c0:	460b      	mov	r3, r1
 80003c2:	71bb      	strb	r3, [r7, #6]
 80003c4:	4613      	mov	r3, r2
 80003c6:	717b      	strb	r3, [r7, #5]

	// GENDIG command: {COMMAND, COUNT, OPCODE, ZONE_DATA, SLOTID_LSB, SLOTID_MSB, CRC_LSB, CRC_MSB}
	uint8_t GenDig[] = {COMMAND, SIZE_WRITE_GENDIG, COMMAND_GENDIG, ZONE_DATA, SlotID_LSB, SlotID_MSB, /*0x33, 0xe8*/ 0x00, 0x00};
 80003c8:	2303      	movs	r3, #3
 80003ca:	723b      	strb	r3, [r7, #8]
 80003cc:	2307      	movs	r3, #7
 80003ce:	727b      	strb	r3, [r7, #9]
 80003d0:	2315      	movs	r3, #21
 80003d2:	72bb      	strb	r3, [r7, #10]
 80003d4:	2302      	movs	r3, #2
 80003d6:	72fb      	strb	r3, [r7, #11]
 80003d8:	79fb      	ldrb	r3, [r7, #7]
 80003da:	733b      	strb	r3, [r7, #12]
 80003dc:	79bb      	ldrb	r3, [r7, #6]
 80003de:	737b      	strb	r3, [r7, #13]
 80003e0:	2300      	movs	r3, #0
 80003e2:	73bb      	strb	r3, [r7, #14]
 80003e4:	2300      	movs	r3, #0
 80003e6:	73fb      	strb	r3, [r7, #15]
	atCRC(GenDig,sizeof(GenDig));
 80003e8:	f107 0308 	add.w	r3, r7, #8
 80003ec:	2108      	movs	r1, #8
 80003ee:	4618      	mov	r0, r3
 80003f0:	f7ff feac 	bl	800014c <atCRC>

	HAL_I2C_Master_Transmit(&hi2c2, I2C_ADDRESS, GenDig, sizeof(GenDig), 1000);
 80003f4:	f107 0208 	add.w	r2, r7, #8
 80003f8:	f44f 737a 	mov.w	r3, #1000	; 0x3e8
 80003fc:	9300      	str	r3, [sp, #0]
 80003fe:	2308      	movs	r3, #8
 8000400:	21c8      	movs	r1, #200	; 0xc8
 8000402:	480b      	ldr	r0, [pc, #44]	; (8000430 <GendigCommand+0x7c>)
 8000404:	f001 f8a6 	bl	8001554 <HAL_I2C_Master_Transmit>
	HAL_Delay(50);
 8000408:	2032      	movs	r0, #50	; 0x32
 800040a:	f000 fc33 	bl	8000c74 <HAL_Delay>
	HAL_I2C_Master_Receive(&hi2c2, I2C_ADDRESS, receiv, size, 1000);
 800040e:	797b      	ldrb	r3, [r7, #5]
 8000410:	b29b      	uxth	r3, r3
 8000412:	f44f 727a 	mov.w	r2, #1000	; 0x3e8
 8000416:	9200      	str	r2, [sp, #0]
 8000418:	683a      	ldr	r2, [r7, #0]
 800041a:	21c8      	movs	r1, #200	; 0xc8
 800041c:	4804      	ldr	r0, [pc, #16]	; (8000430 <GendigCommand+0x7c>)
 800041e:	f001 f997 	bl	8001750 <HAL_I2C_Master_Receive>
	HAL_Delay(5);
 8000422:	2005      	movs	r0, #5
 8000424:	f000 fc26 	bl	8000c74 <HAL_Delay>
}
 8000428:	bf00      	nop
 800042a:	3710      	adds	r7, #16
 800042c:	46bd      	mov	sp, r7
 800042e:	bd80      	pop	{r7, pc}
 8000430:	20000028 	.word	0x20000028

08000434 <ReadEncript>:
	HAL_I2C_Master_Receive(&hi2c2, I2C_ADDRESS, receive, size_out, 1000);
	HAL_Delay(5);
}


void ReadEncript(uint8_t *data, uint16_t size, uint8_t *receiv){
 8000434:	b580      	push	{r7, lr}
 8000436:	b086      	sub	sp, #24
 8000438:	af02      	add	r7, sp, #8
 800043a:	60f8      	str	r0, [r7, #12]
 800043c:	460b      	mov	r3, r1
 800043e:	607a      	str	r2, [r7, #4]
 8000440:	817b      	strh	r3, [r7, #10]

	// Read Encript
	HAL_I2C_Master_Transmit(&hi2c2, I2C_ADDRESS, data, 8, 1000); // Send read encript command
 8000442:	f44f 737a 	mov.w	r3, #1000	; 0x3e8
 8000446:	9300      	str	r3, [sp, #0]
 8000448:	2308      	movs	r3, #8
 800044a:	68fa      	ldr	r2, [r7, #12]
 800044c:	21c8      	movs	r1, #200	; 0xc8
 800044e:	480b      	ldr	r0, [pc, #44]	; (800047c <ReadEncript+0x48>)
 8000450:	f001 f880 	bl	8001554 <HAL_I2C_Master_Transmit>
	HAL_Delay(5);
 8000454:	2005      	movs	r0, #5
 8000456:	f000 fc0d 	bl	8000c74 <HAL_Delay>
	HAL_I2C_Master_Receive(&hi2c2, I2C_ADDRESS, receiv, size, 1000);
 800045a:	897b      	ldrh	r3, [r7, #10]
 800045c:	f44f 727a 	mov.w	r2, #1000	; 0x3e8
 8000460:	9200      	str	r2, [sp, #0]
 8000462:	687a      	ldr	r2, [r7, #4]
 8000464:	21c8      	movs	r1, #200	; 0xc8
 8000466:	4805      	ldr	r0, [pc, #20]	; (800047c <ReadEncript+0x48>)
 8000468:	f001 f972 	bl	8001750 <HAL_I2C_Master_Receive>
	HAL_Delay(5);
 800046c:	2005      	movs	r0, #5
 800046e:	f000 fc01 	bl	8000c74 <HAL_Delay>
}
 8000472:	bf00      	nop
 8000474:	3710      	adds	r7, #16
 8000476:	46bd      	mov	sp, r7
 8000478:	bd80      	pop	{r7, pc}
 800047a:	bf00      	nop
 800047c:	20000028 	.word	0x20000028

08000480 <main>:
/**
  * @brief  The application entry point.
  * @retval int
  */
int main(void)
{
 8000480:	b5b0      	push	{r4, r5, r7, lr}
 8000482:	b0ec      	sub	sp, #432	; 0x1b0
 8000484:	af00      	add	r7, sp, #0

  /* MCU Configuration--------------------------------------------------------*/

  /* Reset of all peripherals, Initializes the Flash interface and the Systick. */

	HAL_Init();
 8000486:	f000 fb93 	bl	8000bb0 <HAL_Init>
  /* USER CODE BEGIN Init */

  /* USER CODE END Init */

  /* Configure the system clock */
  SystemClock_Config();
 800048a:	f000 f98d 	bl	80007a8 <SystemClock_Config>
  /* USER CODE BEGIN SysInit */

  /* USER CODE END SysInit */

  /* Initialize all configured peripherals */
  MX_GPIO_Init();
 800048e:	f000 fa2b 	bl	80008e8 <MX_GPIO_Init>
  MX_USART1_Init();
 8000492:	f000 f9fd 	bl	8000890 <MX_USART1_Init>
  MX_I2C2_Init();
 8000496:	f000 f9cd 	bl	8000834 <MX_I2C2_Init>
  /* USER CODE BEGIN 2 */

  // read configuration zone: {COMMAND, COUNT, OPCODE, ZONE, ADDRESS_1, ADDRESS_2, CRC_LSB, CRC_MSB}
  uint8_t readCommand0[8] = {0x03, 0x07, 0x02, 0x80, 0x00, 0x00, 0x09, 0xAD};
 800049a:	4ab7      	ldr	r2, [pc, #732]	; (8000778 <main+0x2f8>)
 800049c:	f507 73d4 	add.w	r3, r7, #424	; 0x1a8
 80004a0:	e892 0003 	ldmia.w	r2, {r0, r1}
 80004a4:	e883 0003 	stmia.w	r3, {r0, r1}
  uint8_t readCommand1[8] = {0x03, 0x07, 0x02, 0x80, 0x08, 0x00, 0x0a, 0x4d};
 80004a8:	4ab4      	ldr	r2, [pc, #720]	; (800077c <main+0x2fc>)
 80004aa:	f507 73d0 	add.w	r3, r7, #416	; 0x1a0
 80004ae:	e892 0003 	ldmia.w	r2, {r0, r1}
 80004b2:	e883 0003 	stmia.w	r3, {r0, r1}
  uint8_t readCommand2[8] = {0x03, 0x07, 0x02, 0x00, 0x10, 0x00, 0x1d, 0x9d};
 80004b6:	4ab2      	ldr	r2, [pc, #712]	; (8000780 <main+0x300>)
 80004b8:	f507 73cc 	add.w	r3, r7, #408	; 0x198
 80004bc:	e892 0003 	ldmia.w	r2, {r0, r1}
 80004c0:	e883 0003 	stmia.w	r3, {r0, r1}
  uint8_t readCommand3[8] = {0x03, 0x07, 0x02, 0x00, 0x11, 0x00, 0x14, 0x1d};
 80004c4:	4aaf      	ldr	r2, [pc, #700]	; (8000784 <main+0x304>)
 80004c6:	f507 73c8 	add.w	r3, r7, #400	; 0x190
 80004ca:	e892 0003 	ldmia.w	r2, {r0, r1}
 80004ce:	e883 0003 	stmia.w	r3, {r0, r1}
  uint8_t readCommand4[8] = {0x03, 0x07, 0x02, 0x00, 0x12, 0x00, 0x1b, 0x1d};
 80004d2:	4aad      	ldr	r2, [pc, #692]	; (8000788 <main+0x308>)
 80004d4:	f507 73c4 	add.w	r3, r7, #392	; 0x188
 80004d8:	e892 0003 	ldmia.w	r2, {r0, r1}
 80004dc:	e883 0003 	stmia.w	r3, {r0, r1}
  uint8_t readCommand5[8] = {0x03, 0x07, 0x02, 0x00, 0x13, 0x00, 0x12, 0x9d};
 80004e0:	4aaa      	ldr	r2, [pc, #680]	; (800078c <main+0x30c>)
 80004e2:	f507 73c0 	add.w	r3, r7, #384	; 0x180
 80004e6:	e892 0003 	ldmia.w	r2, {r0, r1}
 80004ea:	e883 0003 	stmia.w	r3, {r0, r1}
  uint8_t readCommand6[8] = {0x03, 0x07, 0x02, 0x00, 0x14, 0x00, 0x1e, 0xdd};
 80004ee:	4aa8      	ldr	r2, [pc, #672]	; (8000790 <main+0x310>)
 80004f0:	f507 73bc 	add.w	r3, r7, #376	; 0x178
 80004f4:	e892 0003 	ldmia.w	r2, {r0, r1}
 80004f8:	e883 0003 	stmia.w	r3, {r0, r1}
  uint8_t readCommand7[8] = {0x03, 0x07, 0x02, 0x00, 0x15, 0x00, 0x17, 0x5d};
 80004fc:	4aa5      	ldr	r2, [pc, #660]	; (8000794 <main+0x314>)
 80004fe:	f507 73b8 	add.w	r3, r7, #368	; 0x170
 8000502:	e892 0003 	ldmia.w	r2, {r0, r1}
 8000506:	e883 0003 	stmia.w	r3, {r0, r1}

  uint8_t readMASTERKEY[8] = {0x03, 0x07, 0x02, 0x82, 0x70, 0x00, 0x09, 0x8c};
 800050a:	4aa3      	ldr	r2, [pc, #652]	; (8000798 <main+0x318>)
 800050c:	f507 73b4 	add.w	r3, r7, #360	; 0x168
 8000510:	e892 0003 	ldmia.w	r2, {r0, r1}
 8000514:	e883 0003 	stmia.w	r3, {r0, r1}
  uint8_t readDATA0[8] = {0x03, 0x07, 0x02, 0x82, 0x10, 0x00, 0x09, 0x98};
 8000518:	4aa0      	ldr	r2, [pc, #640]	; (800079c <main+0x31c>)
 800051a:	f507 73b0 	add.w	r3, r7, #352	; 0x160
 800051e:	e892 0003 	ldmia.w	r2, {r0, r1}
 8000522:	e883 0003 	stmia.w	r3, {r0, r1}
  uint8_t readDATA2[8] = {0x03, 0x07, 0x02, 0x82, 0x50, 0x00, 0x0a, 0x14};
 8000526:	4a9e      	ldr	r2, [pc, #632]	; (80007a0 <main+0x320>)
 8000528:	f507 73ac 	add.w	r3, r7, #344	; 0x158
 800052c:	e892 0003 	ldmia.w	r2, {r0, r1}
 8000530:	e883 0003 	stmia.w	r3, {r0, r1}

  uint8_t temp_nonce[] = {};

  uint8_t receiv_MASTERKEY[35] = {0};
 8000534:	2300      	movs	r3, #0
 8000536:	f8c7 3134 	str.w	r3, [r7, #308]	; 0x134
 800053a:	f507 739c 	add.w	r3, r7, #312	; 0x138
 800053e:	221f      	movs	r2, #31
 8000540:	2100      	movs	r1, #0
 8000542:	4618      	mov	r0, r3
 8000544:	f002 ff20 	bl	8003388 <memset>


  // NONCE
  uint8_t NumIn[20]= {0x01, 0x02, 0x03, 0x04, 0x05, 0x06, 0x07, 0x08, 0x09, 0x00,
 8000548:	4b96      	ldr	r3, [pc, #600]	; (80007a4 <main+0x324>)
 800054a:	f507 7490 	add.w	r4, r7, #288	; 0x120
 800054e:	461d      	mov	r5, r3
 8000550:	cd0f      	ldmia	r5!, {r0, r1, r2, r3}
 8000552:	c40f      	stmia	r4!, {r0, r1, r2, r3}
 8000554:	682b      	ldr	r3, [r5, #0]
 8000556:	6023      	str	r3, [r4, #0]
		  	  	  	  0x01, 0x02, 0x03, 0x04, 0x05, 0x06, 0x07, 0x08, 0x09, 0x00};
  uint8_t nonce_receiv[35] = {0};
 8000558:	2300      	movs	r3, #0
 800055a:	f8c7 30fc 	str.w	r3, [r7, #252]	; 0xfc
 800055e:	f507 7380 	add.w	r3, r7, #256	; 0x100
 8000562:	221f      	movs	r2, #31
 8000564:	2100      	movs	r1, #0
 8000566:	4618      	mov	r0, r3
 8000568:	f002 ff0e 	bl	8003388 <memset>
  uint8_t tempnonce[35] = {0};
 800056c:	2300      	movs	r3, #0
 800056e:	f8c7 30d8 	str.w	r3, [r7, #216]	; 0xd8
 8000572:	f107 03dc 	add.w	r3, r7, #220	; 0xdc
 8000576:	221f      	movs	r2, #31
 8000578:	2100      	movs	r1, #0
 800057a:	4618      	mov	r0, r3
 800057c:	f002 ff04 	bl	8003388 <memset>


  // SHA-256
  uint8_t sha_init[1] = {0};
 8000580:	2300      	movs	r3, #0
 8000582:	f887 30d4 	strb.w	r3, [r7, #212]	; 0xd4
  uint8_t SHA_receiv[35] = {0};
 8000586:	f507 73d8 	add.w	r3, r7, #432	; 0x1b0
 800058a:	f5a3 7380 	sub.w	r3, r3, #256	; 0x100
 800058e:	2200      	movs	r2, #0
 8000590:	601a      	str	r2, [r3, #0]
 8000592:	3304      	adds	r3, #4
 8000594:	221f      	movs	r2, #31
 8000596:	2100      	movs	r1, #0
 8000598:	4618      	mov	r0, r3
 800059a:	f002 fef5 	bl	8003388 <memset>

  // GENDIG
  uint8_t gendig_receiv[4] = {0};
 800059e:	f507 73d8 	add.w	r3, r7, #432	; 0x1b0
 80005a2:	f5a3 7382 	sub.w	r3, r3, #260	; 0x104
 80005a6:	2200      	movs	r2, #0
 80005a8:	601a      	str	r2, [r3, #0]

  uint8_t receiv_DATA2[35] = {0};
 80005aa:	f507 73d8 	add.w	r3, r7, #432	; 0x1b0
 80005ae:	f5a3 7394 	sub.w	r3, r3, #296	; 0x128
 80005b2:	2200      	movs	r2, #0
 80005b4:	601a      	str	r2, [r3, #0]
 80005b6:	3304      	adds	r3, #4
 80005b8:	221f      	movs	r2, #31
 80005ba:	2100      	movs	r1, #0
 80005bc:	4618      	mov	r0, r3
 80005be:	f002 fee3 	bl	8003388 <memset>


  uint8_t read_byte[4];
  uint8_t receiv_ack[1] = {0};
 80005c2:	f507 73d8 	add.w	r3, r7, #432	; 0x1b0
 80005c6:	f5a3 7398 	sub.w	r3, r3, #304	; 0x130
 80005ca:	2200      	movs	r2, #0
 80005cc:	701a      	strb	r2, [r3, #0]

  //uint8_t read_config[32] = {0};
  uint8_t read_config0[35] = {0};
 80005ce:	f507 73d8 	add.w	r3, r7, #432	; 0x1b0
 80005d2:	f5a3 73aa 	sub.w	r3, r3, #340	; 0x154
 80005d6:	2200      	movs	r2, #0
 80005d8:	601a      	str	r2, [r3, #0]
 80005da:	3304      	adds	r3, #4
 80005dc:	221f      	movs	r2, #31
 80005de:	2100      	movs	r1, #0
 80005e0:	4618      	mov	r0, r3
 80005e2:	f002 fed1 	bl	8003388 <memset>
  uint8_t read_config1[35] = {0};
 80005e6:	f507 73d8 	add.w	r3, r7, #432	; 0x1b0
 80005ea:	f5a3 73bc 	sub.w	r3, r3, #376	; 0x178
 80005ee:	2200      	movs	r2, #0
 80005f0:	601a      	str	r2, [r3, #0]
 80005f2:	3304      	adds	r3, #4
 80005f4:	221f      	movs	r2, #31
 80005f6:	2100      	movs	r1, #0
 80005f8:	4618      	mov	r0, r3
 80005fa:	f002 fec5 	bl	8003388 <memset>
  uint8_t read_config2[7] = {0};
 80005fe:	f507 73d8 	add.w	r3, r7, #432	; 0x1b0
 8000602:	f5a3 73c0 	sub.w	r3, r3, #384	; 0x180
 8000606:	2200      	movs	r2, #0
 8000608:	601a      	str	r2, [r3, #0]
 800060a:	3304      	adds	r3, #4
 800060c:	2100      	movs	r1, #0
 800060e:	460a      	mov	r2, r1
 8000610:	801a      	strh	r2, [r3, #0]
 8000612:	460a      	mov	r2, r1
 8000614:	709a      	strb	r2, [r3, #2]
  uint8_t read_config3[7] = {0};
 8000616:	f507 73d8 	add.w	r3, r7, #432	; 0x1b0
 800061a:	f5a3 73c4 	sub.w	r3, r3, #392	; 0x188
 800061e:	2200      	movs	r2, #0
 8000620:	601a      	str	r2, [r3, #0]
 8000622:	3304      	adds	r3, #4
 8000624:	2100      	movs	r1, #0
 8000626:	460a      	mov	r2, r1
 8000628:	801a      	strh	r2, [r3, #0]
 800062a:	460a      	mov	r2, r1
 800062c:	709a      	strb	r2, [r3, #2]
  uint8_t read_config4[7] = {0};
 800062e:	f507 73d8 	add.w	r3, r7, #432	; 0x1b0
 8000632:	f5a3 73c8 	sub.w	r3, r3, #400	; 0x190
 8000636:	2200      	movs	r2, #0
 8000638:	601a      	str	r2, [r3, #0]
 800063a:	3304      	adds	r3, #4
 800063c:	2100      	movs	r1, #0
 800063e:	460a      	mov	r2, r1
 8000640:	801a      	strh	r2, [r3, #0]
 8000642:	460a      	mov	r2, r1
 8000644:	709a      	strb	r2, [r3, #2]
  uint8_t read_config5[7] = {0};
 8000646:	f507 73d8 	add.w	r3, r7, #432	; 0x1b0
 800064a:	f5a3 73cc 	sub.w	r3, r3, #408	; 0x198
 800064e:	2200      	movs	r2, #0
 8000650:	601a      	str	r2, [r3, #0]
 8000652:	3304      	adds	r3, #4
 8000654:	2100      	movs	r1, #0
 8000656:	460a      	mov	r2, r1
 8000658:	801a      	strh	r2, [r3, #0]
 800065a:	460a      	mov	r2, r1
 800065c:	709a      	strb	r2, [r3, #2]
  uint8_t read_config6[7] = {0};
 800065e:	f507 73d8 	add.w	r3, r7, #432	; 0x1b0
 8000662:	f5a3 73d0 	sub.w	r3, r3, #416	; 0x1a0
 8000666:	2200      	movs	r2, #0
 8000668:	601a      	str	r2, [r3, #0]
 800066a:	3304      	adds	r3, #4
 800066c:	2100      	movs	r1, #0
 800066e:	460a      	mov	r2, r1
 8000670:	801a      	strh	r2, [r3, #0]
 8000672:	460a      	mov	r2, r1
 8000674:	709a      	strb	r2, [r3, #2]
  uint8_t read_config7[7] = {0};
 8000676:	f507 73d8 	add.w	r3, r7, #432	; 0x1b0
 800067a:	f5a3 73d4 	sub.w	r3, r3, #424	; 0x1a8
 800067e:	2200      	movs	r2, #0
 8000680:	601a      	str	r2, [r3, #0]
 8000682:	3304      	adds	r3, #4
 8000684:	2100      	movs	r1, #0
 8000686:	460a      	mov	r2, r1
 8000688:	801a      	strh	r2, [r3, #0]
 800068a:	460a      	mov	r2, r1
 800068c:	709a      	strb	r2, [r3, #2]
  uint8_t read_config8[7] = {0};
 800068e:	f507 73d8 	add.w	r3, r7, #432	; 0x1b0
 8000692:	f5a3 73d8 	sub.w	r3, r3, #432	; 0x1b0
 8000696:	2200      	movs	r2, #0
 8000698:	601a      	str	r2, [r3, #0]
 800069a:	3304      	adds	r3, #4
 800069c:	2100      	movs	r1, #0
 800069e:	460a      	mov	r2, r1
 80006a0:	801a      	strh	r2, [r3, #0]
 80006a2:	460a      	mov	r2, r1
 80006a4:	709a      	strb	r2, [r3, #2]

  /* Infinite loop */
  /* USER CODE BEGIN WHILE */
  while (1)
  {
	  WakeUp(read_byte);
 80006a6:	f107 0384 	add.w	r3, r7, #132	; 0x84
 80006aa:	4618      	mov	r0, r3
 80006ac:	f7ff fd9e 	bl	80001ec <WakeUp>
	 // BlockConfigZone(receiv_ack);
	  //WriteDataZone();
	  //WriteOTPZone();
	  //BlockDataZone();

	  ReadConfig(readCommand0, 35, read_config0);
 80006b0:	f107 025c 	add.w	r2, r7, #92	; 0x5c
 80006b4:	f507 73d4 	add.w	r3, r7, #424	; 0x1a8
 80006b8:	2123      	movs	r1, #35	; 0x23
 80006ba:	4618      	mov	r0, r3
 80006bc:	f7ff fdd6 	bl	800026c <ReadConfig>
	  ReadConfig(readCommand1, 35, read_config1);
 80006c0:	f107 0238 	add.w	r2, r7, #56	; 0x38
 80006c4:	f507 73d0 	add.w	r3, r7, #416	; 0x1a0
 80006c8:	2123      	movs	r1, #35	; 0x23
 80006ca:	4618      	mov	r0, r3
 80006cc:	f7ff fdce 	bl	800026c <ReadConfig>
	  ReadConfig(readCommand2, 7, read_config2);
 80006d0:	f107 0230 	add.w	r2, r7, #48	; 0x30
 80006d4:	f507 73cc 	add.w	r3, r7, #408	; 0x198
 80006d8:	2107      	movs	r1, #7
 80006da:	4618      	mov	r0, r3
 80006dc:	f7ff fdc6 	bl	800026c <ReadConfig>
	  ReadConfig(readCommand3, 7, read_config3);
 80006e0:	f107 0228 	add.w	r2, r7, #40	; 0x28
 80006e4:	f507 73c8 	add.w	r3, r7, #400	; 0x190
 80006e8:	2107      	movs	r1, #7
 80006ea:	4618      	mov	r0, r3
 80006ec:	f7ff fdbe 	bl	800026c <ReadConfig>
	  ReadConfig(readCommand4, 7, read_config4);
 80006f0:	f107 0220 	add.w	r2, r7, #32
 80006f4:	f507 73c4 	add.w	r3, r7, #392	; 0x188
 80006f8:	2107      	movs	r1, #7
 80006fa:	4618      	mov	r0, r3
 80006fc:	f7ff fdb6 	bl	800026c <ReadConfig>
	  ReadConfig(readCommand5, 7, read_config5);
 8000700:	f107 0218 	add.w	r2, r7, #24
 8000704:	f507 73c0 	add.w	r3, r7, #384	; 0x180
 8000708:	2107      	movs	r1, #7
 800070a:	4618      	mov	r0, r3
 800070c:	f7ff fdae 	bl	800026c <ReadConfig>
	  ReadConfig(readCommand6, 7, read_config6);
 8000710:	f107 0210 	add.w	r2, r7, #16
 8000714:	f507 73bc 	add.w	r3, r7, #376	; 0x178
 8000718:	2107      	movs	r1, #7
 800071a:	4618      	mov	r0, r3
 800071c:	f7ff fda6 	bl	800026c <ReadConfig>
	  ReadConfig(readCommand7, 7, read_config7);
 8000720:	f107 0208 	add.w	r2, r7, #8
 8000724:	f507 73b8 	add.w	r3, r7, #368	; 0x170
 8000728:	2107      	movs	r1, #7
 800072a:	4618      	mov	r0, r3
 800072c:	f7ff fd9e 	bl	800026c <ReadConfig>

	  ReadDataZone(readMASTERKEY, 35, receiv_MASTERKEY);
 8000730:	f507 729a 	add.w	r2, r7, #308	; 0x134
 8000734:	f507 73b4 	add.w	r3, r7, #360	; 0x168
 8000738:	2123      	movs	r1, #35	; 0x23
 800073a:	4618      	mov	r0, r3
 800073c:	f7ff fdbc 	bl	80002b8 <ReadDataZone>
	  CommandNonce(NumIn, 35, nonce_receiv);
 8000740:	f107 02fc 	add.w	r2, r7, #252	; 0xfc
 8000744:	f507 7390 	add.w	r3, r7, #288	; 0x120
 8000748:	2123      	movs	r1, #35	; 0x23
 800074a:	4618      	mov	r0, r3
 800074c:	f7ff fdda 	bl	8000304 <CommandNonce>
	  //TempKeyGen(nonce_receiv, NumIn, 0, 55, 35, tempnonce);
	  GendigCommand(0x08, 0x00, 4, gendig_receiv);
 8000750:	f107 03ac 	add.w	r3, r7, #172	; 0xac
 8000754:	2204      	movs	r2, #4
 8000756:	2100      	movs	r1, #0
 8000758:	2008      	movs	r0, #8
 800075a:	f7ff fe2b 	bl	80003b4 <GendigCommand>

	  //SHACommandInit(1, sha_init);
	  //SHACommandCompute(35, SHA_receiv);

	  ReadEncript(readDATA2, 35, receiv_DATA2);
 800075e:	f107 0288 	add.w	r2, r7, #136	; 0x88
 8000762:	f507 73ac 	add.w	r3, r7, #344	; 0x158
 8000766:	2123      	movs	r1, #35	; 0x23
 8000768:	4618      	mov	r0, r3
 800076a:	f7ff fe63 	bl	8000434 <ReadEncript>

	  HAL_Delay(10);
 800076e:	200a      	movs	r0, #10
 8000770:	f000 fa80 	bl	8000c74 <HAL_Delay>
	  WakeUp(read_byte);
 8000774:	e797      	b.n	80006a6 <main+0x226>
 8000776:	bf00      	nop
 8000778:	080033f8 	.word	0x080033f8
 800077c:	08003400 	.word	0x08003400
 8000780:	08003408 	.word	0x08003408
 8000784:	08003410 	.word	0x08003410
 8000788:	08003418 	.word	0x08003418
 800078c:	08003420 	.word	0x08003420
 8000790:	08003428 	.word	0x08003428
 8000794:	08003430 	.word	0x08003430
 8000798:	08003438 	.word	0x08003438
 800079c:	08003440 	.word	0x08003440
 80007a0:	08003448 	.word	0x08003448
 80007a4:	08003450 	.word	0x08003450

080007a8 <SystemClock_Config>:
/**
  * @brief System Clock Configuration
  * @retval None
  */
void SystemClock_Config(void)
{
 80007a8:	b580      	push	{r7, lr}
 80007aa:	b090      	sub	sp, #64	; 0x40
 80007ac:	af00      	add	r7, sp, #0
  RCC_OscInitTypeDef RCC_OscInitStruct = {0};
 80007ae:	f107 0318 	add.w	r3, r7, #24
 80007b2:	2228      	movs	r2, #40	; 0x28
 80007b4:	2100      	movs	r1, #0
 80007b6:	4618      	mov	r0, r3
 80007b8:	f002 fde6 	bl	8003388 <memset>
  RCC_ClkInitTypeDef RCC_ClkInitStruct = {0};
 80007bc:	1d3b      	adds	r3, r7, #4
 80007be:	2200      	movs	r2, #0
 80007c0:	601a      	str	r2, [r3, #0]
 80007c2:	605a      	str	r2, [r3, #4]
 80007c4:	609a      	str	r2, [r3, #8]
 80007c6:	60da      	str	r2, [r3, #12]
 80007c8:	611a      	str	r2, [r3, #16]

  /** Initializes the RCC Oscillators according to the specified parameters
  * in the RCC_OscInitTypeDef structure.
  */
  RCC_OscInitStruct.OscillatorType = RCC_OSCILLATORTYPE_HSE;
 80007ca:	2301      	movs	r3, #1
 80007cc:	61bb      	str	r3, [r7, #24]
  RCC_OscInitStruct.HSEState = RCC_HSE_ON;
 80007ce:	f44f 3380 	mov.w	r3, #65536	; 0x10000
 80007d2:	61fb      	str	r3, [r7, #28]
  RCC_OscInitStruct.HSEPredivValue = RCC_HSE_PREDIV_DIV1;
 80007d4:	2300      	movs	r3, #0
 80007d6:	623b      	str	r3, [r7, #32]
  RCC_OscInitStruct.HSIState = RCC_HSI_ON;
 80007d8:	2301      	movs	r3, #1
 80007da:	62bb      	str	r3, [r7, #40]	; 0x28
  RCC_OscInitStruct.PLL.PLLState = RCC_PLL_ON;
 80007dc:	2302      	movs	r3, #2
 80007de:	637b      	str	r3, [r7, #52]	; 0x34
  RCC_OscInitStruct.PLL.PLLSource = RCC_PLLSOURCE_HSE;
 80007e0:	f44f 3380 	mov.w	r3, #65536	; 0x10000
 80007e4:	63bb      	str	r3, [r7, #56]	; 0x38
  RCC_OscInitStruct.PLL.PLLMUL = RCC_PLL_MUL9;
 80007e6:	f44f 13e0 	mov.w	r3, #1835008	; 0x1c0000
 80007ea:	63fb      	str	r3, [r7, #60]	; 0x3c
  if (HAL_RCC_OscConfig(&RCC_OscInitStruct) != HAL_OK)
 80007ec:	f107 0318 	add.w	r3, r7, #24
 80007f0:	4618      	mov	r0, r3
 80007f2:	f001 fd39 	bl	8002268 <HAL_RCC_OscConfig>
 80007f6:	4603      	mov	r3, r0
 80007f8:	2b00      	cmp	r3, #0
 80007fa:	d001      	beq.n	8000800 <SystemClock_Config+0x58>
  {
    Error_Handler();
 80007fc:	f000 f8ae 	bl	800095c <Error_Handler>
  }

  /** Initializes the CPU, AHB and APB buses clocks
  */
  RCC_ClkInitStruct.ClockType = RCC_CLOCKTYPE_HCLK|RCC_CLOCKTYPE_SYSCLK
 8000800:	230f      	movs	r3, #15
 8000802:	607b      	str	r3, [r7, #4]
                              |RCC_CLOCKTYPE_PCLK1|RCC_CLOCKTYPE_PCLK2;
  RCC_ClkInitStruct.SYSCLKSource = RCC_SYSCLKSOURCE_PLLCLK;
 8000804:	2302      	movs	r3, #2
 8000806:	60bb      	str	r3, [r7, #8]
  RCC_ClkInitStruct.AHBCLKDivider = RCC_SYSCLK_DIV1;
 8000808:	2300      	movs	r3, #0
 800080a:	60fb      	str	r3, [r7, #12]
  RCC_ClkInitStruct.APB1CLKDivider = RCC_HCLK_DIV2;
 800080c:	f44f 6380 	mov.w	r3, #1024	; 0x400
 8000810:	613b      	str	r3, [r7, #16]
  RCC_ClkInitStruct.APB2CLKDivider = RCC_HCLK_DIV1;
 8000812:	2300      	movs	r3, #0
 8000814:	617b      	str	r3, [r7, #20]

  if (HAL_RCC_ClockConfig(&RCC_ClkInitStruct, FLASH_LATENCY_2) != HAL_OK)
 8000816:	1d3b      	adds	r3, r7, #4
 8000818:	2102      	movs	r1, #2
 800081a:	4618      	mov	r0, r3
 800081c:	f001 ffa6 	bl	800276c <HAL_RCC_ClockConfig>
 8000820:	4603      	mov	r3, r0
 8000822:	2b00      	cmp	r3, #0
 8000824:	d001      	beq.n	800082a <SystemClock_Config+0x82>
  {
    Error_Handler();
 8000826:	f000 f899 	bl	800095c <Error_Handler>
  }
}
 800082a:	bf00      	nop
 800082c:	3740      	adds	r7, #64	; 0x40
 800082e:	46bd      	mov	sp, r7
 8000830:	bd80      	pop	{r7, pc}
	...

08000834 <MX_I2C2_Init>:
  * @brief I2C2 Initialization Function
  * @param None
  * @retval None
  */
static void MX_I2C2_Init(void)
{
 8000834:	b580      	push	{r7, lr}
 8000836:	af00      	add	r7, sp, #0
  /* USER CODE END I2C2_Init 0 */

  /* USER CODE BEGIN I2C2_Init 1 */

  /* USER CODE END I2C2_Init 1 */
  hi2c2.Instance = I2C2;
 8000838:	4b12      	ldr	r3, [pc, #72]	; (8000884 <MX_I2C2_Init+0x50>)
 800083a:	4a13      	ldr	r2, [pc, #76]	; (8000888 <MX_I2C2_Init+0x54>)
 800083c:	601a      	str	r2, [r3, #0]
  hi2c2.Init.ClockSpeed = 100000;
 800083e:	4b11      	ldr	r3, [pc, #68]	; (8000884 <MX_I2C2_Init+0x50>)
 8000840:	4a12      	ldr	r2, [pc, #72]	; (800088c <MX_I2C2_Init+0x58>)
 8000842:	605a      	str	r2, [r3, #4]
  hi2c2.Init.DutyCycle = I2C_DUTYCYCLE_2;
 8000844:	4b0f      	ldr	r3, [pc, #60]	; (8000884 <MX_I2C2_Init+0x50>)
 8000846:	2200      	movs	r2, #0
 8000848:	609a      	str	r2, [r3, #8]
  hi2c2.Init.OwnAddress1 = 0;
 800084a:	4b0e      	ldr	r3, [pc, #56]	; (8000884 <MX_I2C2_Init+0x50>)
 800084c:	2200      	movs	r2, #0
 800084e:	60da      	str	r2, [r3, #12]
  hi2c2.Init.AddressingMode = I2C_ADDRESSINGMODE_7BIT;
 8000850:	4b0c      	ldr	r3, [pc, #48]	; (8000884 <MX_I2C2_Init+0x50>)
 8000852:	f44f 4280 	mov.w	r2, #16384	; 0x4000
 8000856:	611a      	str	r2, [r3, #16]
  hi2c2.Init.DualAddressMode = I2C_DUALADDRESS_DISABLE;
 8000858:	4b0a      	ldr	r3, [pc, #40]	; (8000884 <MX_I2C2_Init+0x50>)
 800085a:	2200      	movs	r2, #0
 800085c:	615a      	str	r2, [r3, #20]
  hi2c2.Init.OwnAddress2 = 0;
 800085e:	4b09      	ldr	r3, [pc, #36]	; (8000884 <MX_I2C2_Init+0x50>)
 8000860:	2200      	movs	r2, #0
 8000862:	619a      	str	r2, [r3, #24]
  hi2c2.Init.GeneralCallMode = I2C_GENERALCALL_DISABLE;
 8000864:	4b07      	ldr	r3, [pc, #28]	; (8000884 <MX_I2C2_Init+0x50>)
 8000866:	2200      	movs	r2, #0
 8000868:	61da      	str	r2, [r3, #28]
  hi2c2.Init.NoStretchMode = I2C_NOSTRETCH_DISABLE;
 800086a:	4b06      	ldr	r3, [pc, #24]	; (8000884 <MX_I2C2_Init+0x50>)
 800086c:	2200      	movs	r2, #0
 800086e:	621a      	str	r2, [r3, #32]
  if (HAL_I2C_Init(&hi2c2) != HAL_OK)
 8000870:	4804      	ldr	r0, [pc, #16]	; (8000884 <MX_I2C2_Init+0x50>)
 8000872:	f000 fd2b 	bl	80012cc <HAL_I2C_Init>
 8000876:	4603      	mov	r3, r0
 8000878:	2b00      	cmp	r3, #0
 800087a:	d001      	beq.n	8000880 <MX_I2C2_Init+0x4c>
  {
    Error_Handler();
 800087c:	f000 f86e 	bl	800095c <Error_Handler>
  }
  /* USER CODE BEGIN I2C2_Init 2 */

  /* USER CODE END I2C2_Init 2 */

}
 8000880:	bf00      	nop
 8000882:	bd80      	pop	{r7, pc}
 8000884:	20000028 	.word	0x20000028
 8000888:	40005800 	.word	0x40005800
 800088c:	000186a0 	.word	0x000186a0

08000890 <MX_USART1_Init>:
  * @brief USART1 Initialization Function
  * @param None
  * @retval None
  */
static void MX_USART1_Init(void)
{
 8000890:	b580      	push	{r7, lr}
 8000892:	af00      	add	r7, sp, #0
  /* USER CODE END USART1_Init 0 */

  /* USER CODE BEGIN USART1_Init 1 */

  /* USER CODE END USART1_Init 1 */
  husart1.Instance = USART1;
 8000894:	4b12      	ldr	r3, [pc, #72]	; (80008e0 <MX_USART1_Init+0x50>)
 8000896:	4a13      	ldr	r2, [pc, #76]	; (80008e4 <MX_USART1_Init+0x54>)
 8000898:	601a      	str	r2, [r3, #0]
  husart1.Init.BaudRate = 115200;
 800089a:	4b11      	ldr	r3, [pc, #68]	; (80008e0 <MX_USART1_Init+0x50>)
 800089c:	f44f 32e1 	mov.w	r2, #115200	; 0x1c200
 80008a0:	605a      	str	r2, [r3, #4]
  husart1.Init.WordLength = USART_WORDLENGTH_8B;
 80008a2:	4b0f      	ldr	r3, [pc, #60]	; (80008e0 <MX_USART1_Init+0x50>)
 80008a4:	2200      	movs	r2, #0
 80008a6:	609a      	str	r2, [r3, #8]
  husart1.Init.StopBits = USART_STOPBITS_1;
 80008a8:	4b0d      	ldr	r3, [pc, #52]	; (80008e0 <MX_USART1_Init+0x50>)
 80008aa:	2200      	movs	r2, #0
 80008ac:	60da      	str	r2, [r3, #12]
  husart1.Init.Parity = USART_PARITY_NONE;
 80008ae:	4b0c      	ldr	r3, [pc, #48]	; (80008e0 <MX_USART1_Init+0x50>)
 80008b0:	2200      	movs	r2, #0
 80008b2:	611a      	str	r2, [r3, #16]
  husart1.Init.Mode = USART_MODE_TX_RX;
 80008b4:	4b0a      	ldr	r3, [pc, #40]	; (80008e0 <MX_USART1_Init+0x50>)
 80008b6:	220c      	movs	r2, #12
 80008b8:	615a      	str	r2, [r3, #20]
  husart1.Init.CLKPolarity = USART_POLARITY_LOW;
 80008ba:	4b09      	ldr	r3, [pc, #36]	; (80008e0 <MX_USART1_Init+0x50>)
 80008bc:	2200      	movs	r2, #0
 80008be:	619a      	str	r2, [r3, #24]
  husart1.Init.CLKPhase = USART_PHASE_1EDGE;
 80008c0:	4b07      	ldr	r3, [pc, #28]	; (80008e0 <MX_USART1_Init+0x50>)
 80008c2:	2200      	movs	r2, #0
 80008c4:	61da      	str	r2, [r3, #28]
  husart1.Init.CLKLastBit = USART_LASTBIT_DISABLE;
 80008c6:	4b06      	ldr	r3, [pc, #24]	; (80008e0 <MX_USART1_Init+0x50>)
 80008c8:	2200      	movs	r2, #0
 80008ca:	621a      	str	r2, [r3, #32]
  if (HAL_USART_Init(&husart1) != HAL_OK)
 80008cc:	4804      	ldr	r0, [pc, #16]	; (80008e0 <MX_USART1_Init+0x50>)
 80008ce:	f002 f8e5 	bl	8002a9c <HAL_USART_Init>
 80008d2:	4603      	mov	r3, r0
 80008d4:	2b00      	cmp	r3, #0
 80008d6:	d001      	beq.n	80008dc <MX_USART1_Init+0x4c>
  {
    Error_Handler();
 80008d8:	f000 f840 	bl	800095c <Error_Handler>
  }
  /* USER CODE BEGIN USART1_Init 2 */

  /* USER CODE END USART1_Init 2 */

}
 80008dc:	bf00      	nop
 80008de:	bd80      	pop	{r7, pc}
 80008e0:	2000007c 	.word	0x2000007c
 80008e4:	40013800 	.word	0x40013800

080008e8 <MX_GPIO_Init>:
  * @brief GPIO Initialization Function
  * @param None
  * @retval None
  */
static void MX_GPIO_Init(void)
{
 80008e8:	b480      	push	{r7}
 80008ea:	b085      	sub	sp, #20
 80008ec:	af00      	add	r7, sp, #0

  /* GPIO Ports Clock Enable */
  __HAL_RCC_GPIOC_CLK_ENABLE();
 80008ee:	4b1a      	ldr	r3, [pc, #104]	; (8000958 <MX_GPIO_Init+0x70>)
 80008f0:	699b      	ldr	r3, [r3, #24]
 80008f2:	4a19      	ldr	r2, [pc, #100]	; (8000958 <MX_GPIO_Init+0x70>)
 80008f4:	f043 0310 	orr.w	r3, r3, #16
 80008f8:	6193      	str	r3, [r2, #24]
 80008fa:	4b17      	ldr	r3, [pc, #92]	; (8000958 <MX_GPIO_Init+0x70>)
 80008fc:	699b      	ldr	r3, [r3, #24]
 80008fe:	f003 0310 	and.w	r3, r3, #16
 8000902:	60fb      	str	r3, [r7, #12]
 8000904:	68fb      	ldr	r3, [r7, #12]
  __HAL_RCC_GPIOD_CLK_ENABLE();
 8000906:	4b14      	ldr	r3, [pc, #80]	; (8000958 <MX_GPIO_Init+0x70>)
 8000908:	699b      	ldr	r3, [r3, #24]
 800090a:	4a13      	ldr	r2, [pc, #76]	; (8000958 <MX_GPIO_Init+0x70>)
 800090c:	f043 0320 	orr.w	r3, r3, #32
 8000910:	6193      	str	r3, [r2, #24]
 8000912:	4b11      	ldr	r3, [pc, #68]	; (8000958 <MX_GPIO_Init+0x70>)
 8000914:	699b      	ldr	r3, [r3, #24]
 8000916:	f003 0320 	and.w	r3, r3, #32
 800091a:	60bb      	str	r3, [r7, #8]
 800091c:	68bb      	ldr	r3, [r7, #8]
  __HAL_RCC_GPIOB_CLK_ENABLE();
 800091e:	4b0e      	ldr	r3, [pc, #56]	; (8000958 <MX_GPIO_Init+0x70>)
 8000920:	699b      	ldr	r3, [r3, #24]
 8000922:	4a0d      	ldr	r2, [pc, #52]	; (8000958 <MX_GPIO_Init+0x70>)
 8000924:	f043 0308 	orr.w	r3, r3, #8
 8000928:	6193      	str	r3, [r2, #24]
 800092a:	4b0b      	ldr	r3, [pc, #44]	; (8000958 <MX_GPIO_Init+0x70>)
 800092c:	699b      	ldr	r3, [r3, #24]
 800092e:	f003 0308 	and.w	r3, r3, #8
 8000932:	607b      	str	r3, [r7, #4]
 8000934:	687b      	ldr	r3, [r7, #4]
  __HAL_RCC_GPIOA_CLK_ENABLE();
 8000936:	4b08      	ldr	r3, [pc, #32]	; (8000958 <MX_GPIO_Init+0x70>)
 8000938:	699b      	ldr	r3, [r3, #24]
 800093a:	4a07      	ldr	r2, [pc, #28]	; (8000958 <MX_GPIO_Init+0x70>)
 800093c:	f043 0304 	orr.w	r3, r3, #4
 8000940:	6193      	str	r3, [r2, #24]
 8000942:	4b05      	ldr	r3, [pc, #20]	; (8000958 <MX_GPIO_Init+0x70>)
 8000944:	699b      	ldr	r3, [r3, #24]
 8000946:	f003 0304 	and.w	r3, r3, #4
 800094a:	603b      	str	r3, [r7, #0]
 800094c:	683b      	ldr	r3, [r7, #0]

}
 800094e:	bf00      	nop
 8000950:	3714      	adds	r7, #20
 8000952:	46bd      	mov	sp, r7
 8000954:	bc80      	pop	{r7}
 8000956:	4770      	bx	lr
 8000958:	40021000 	.word	0x40021000

0800095c <Error_Handler>:
/**
  * @brief  This function is executed in case of error occurrence.
  * @retval None
  */
void Error_Handler(void)
{
 800095c:	b480      	push	{r7}
 800095e:	af00      	add	r7, sp, #0
  \details Disables IRQ interrupts by setting the I-bit in the CPSR.
           Can only be executed in Privileged modes.
 */
__STATIC_FORCEINLINE void __disable_irq(void)
{
  __ASM volatile ("cpsid i" : : : "memory");
 8000960:	b672      	cpsid	i
}
 8000962:	bf00      	nop
  /* USER CODE BEGIN Error_Handler_Debug */
  /* User can add his own implementation to report the HAL error return state */
  __disable_irq();
  while (1)
 8000964:	e7fe      	b.n	8000964 <Error_Handler+0x8>
	...

08000968 <HAL_MspInit>:
/* USER CODE END 0 */
/**
  * Initializes the Global MSP.
  */
void HAL_MspInit(void)
{
 8000968:	b480      	push	{r7}
 800096a:	b085      	sub	sp, #20
 800096c:	af00      	add	r7, sp, #0
  /* USER CODE BEGIN MspInit 0 */

  /* USER CODE END MspInit 0 */

  __HAL_RCC_AFIO_CLK_ENABLE();
 800096e:	4b15      	ldr	r3, [pc, #84]	; (80009c4 <HAL_MspInit+0x5c>)
 8000970:	699b      	ldr	r3, [r3, #24]
 8000972:	4a14      	ldr	r2, [pc, #80]	; (80009c4 <HAL_MspInit+0x5c>)
 8000974:	f043 0301 	orr.w	r3, r3, #1
 8000978:	6193      	str	r3, [r2, #24]
 800097a:	4b12      	ldr	r3, [pc, #72]	; (80009c4 <HAL_MspInit+0x5c>)
 800097c:	699b      	ldr	r3, [r3, #24]
 800097e:	f003 0301 	and.w	r3, r3, #1
 8000982:	60bb      	str	r3, [r7, #8]
 8000984:	68bb      	ldr	r3, [r7, #8]
  __HAL_RCC_PWR_CLK_ENABLE();
 8000986:	4b0f      	ldr	r3, [pc, #60]	; (80009c4 <HAL_MspInit+0x5c>)
 8000988:	69db      	ldr	r3, [r3, #28]
 800098a:	4a0e      	ldr	r2, [pc, #56]	; (80009c4 <HAL_MspInit+0x5c>)
 800098c:	f043 5380 	orr.w	r3, r3, #268435456	; 0x10000000
 8000990:	61d3      	str	r3, [r2, #28]
 8000992:	4b0c      	ldr	r3, [pc, #48]	; (80009c4 <HAL_MspInit+0x5c>)
 8000994:	69db      	ldr	r3, [r3, #28]
 8000996:	f003 5380 	and.w	r3, r3, #268435456	; 0x10000000
 800099a:	607b      	str	r3, [r7, #4]
 800099c:	687b      	ldr	r3, [r7, #4]

  /* System interrupt init*/

  /** NOJTAG: JTAG-DP Disabled and SW-DP Enabled
  */
  __HAL_AFIO_REMAP_SWJ_NOJTAG();
 800099e:	4b0a      	ldr	r3, [pc, #40]	; (80009c8 <HAL_MspInit+0x60>)
 80009a0:	685b      	ldr	r3, [r3, #4]
 80009a2:	60fb      	str	r3, [r7, #12]
 80009a4:	68fb      	ldr	r3, [r7, #12]
 80009a6:	f023 63e0 	bic.w	r3, r3, #117440512	; 0x7000000
 80009aa:	60fb      	str	r3, [r7, #12]
 80009ac:	68fb      	ldr	r3, [r7, #12]
 80009ae:	f043 7300 	orr.w	r3, r3, #33554432	; 0x2000000
 80009b2:	60fb      	str	r3, [r7, #12]
 80009b4:	4a04      	ldr	r2, [pc, #16]	; (80009c8 <HAL_MspInit+0x60>)
 80009b6:	68fb      	ldr	r3, [r7, #12]
 80009b8:	6053      	str	r3, [r2, #4]

  /* USER CODE BEGIN MspInit 1 */

  /* USER CODE END MspInit 1 */
}
 80009ba:	bf00      	nop
 80009bc:	3714      	adds	r7, #20
 80009be:	46bd      	mov	sp, r7
 80009c0:	bc80      	pop	{r7}
 80009c2:	4770      	bx	lr
 80009c4:	40021000 	.word	0x40021000
 80009c8:	40010000 	.word	0x40010000

080009cc <HAL_I2C_MspInit>:
* This function configures the hardware resources used in this example
* @param hi2c: I2C handle pointer
* @retval None
*/
void HAL_I2C_MspInit(I2C_HandleTypeDef* hi2c)
{
 80009cc:	b580      	push	{r7, lr}
 80009ce:	b088      	sub	sp, #32
 80009d0:	af00      	add	r7, sp, #0
 80009d2:	6078      	str	r0, [r7, #4]
  GPIO_InitTypeDef GPIO_InitStruct = {0};
 80009d4:	f107 0310 	add.w	r3, r7, #16
 80009d8:	2200      	movs	r2, #0
 80009da:	601a      	str	r2, [r3, #0]
 80009dc:	605a      	str	r2, [r3, #4]
 80009de:	609a      	str	r2, [r3, #8]
 80009e0:	60da      	str	r2, [r3, #12]
  if(hi2c->Instance==I2C2)
 80009e2:	687b      	ldr	r3, [r7, #4]
 80009e4:	681b      	ldr	r3, [r3, #0]
 80009e6:	4a16      	ldr	r2, [pc, #88]	; (8000a40 <HAL_I2C_MspInit+0x74>)
 80009e8:	4293      	cmp	r3, r2
 80009ea:	d124      	bne.n	8000a36 <HAL_I2C_MspInit+0x6a>
  {
  /* USER CODE BEGIN I2C2_MspInit 0 */

  /* USER CODE END I2C2_MspInit 0 */

    __HAL_RCC_GPIOB_CLK_ENABLE();
 80009ec:	4b15      	ldr	r3, [pc, #84]	; (8000a44 <HAL_I2C_MspInit+0x78>)
 80009ee:	699b      	ldr	r3, [r3, #24]
 80009f0:	4a14      	ldr	r2, [pc, #80]	; (8000a44 <HAL_I2C_MspInit+0x78>)
 80009f2:	f043 0308 	orr.w	r3, r3, #8
 80009f6:	6193      	str	r3, [r2, #24]
 80009f8:	4b12      	ldr	r3, [pc, #72]	; (8000a44 <HAL_I2C_MspInit+0x78>)
 80009fa:	699b      	ldr	r3, [r3, #24]
 80009fc:	f003 0308 	and.w	r3, r3, #8
 8000a00:	60fb      	str	r3, [r7, #12]
 8000a02:	68fb      	ldr	r3, [r7, #12]
    /**I2C2 GPIO Configuration
    PB10     ------> I2C2_SCL
    PB11     ------> I2C2_SDA
    */
    GPIO_InitStruct.Pin = GPIO_PIN_10|GPIO_PIN_11;
 8000a04:	f44f 6340 	mov.w	r3, #3072	; 0xc00
 8000a08:	613b      	str	r3, [r7, #16]
    GPIO_InitStruct.Mode = GPIO_MODE_AF_OD;
 8000a0a:	2312      	movs	r3, #18
 8000a0c:	617b      	str	r3, [r7, #20]
    GPIO_InitStruct.Speed = GPIO_SPEED_FREQ_HIGH;
 8000a0e:	2303      	movs	r3, #3
 8000a10:	61fb      	str	r3, [r7, #28]
    HAL_GPIO_Init(GPIOB, &GPIO_InitStruct);
 8000a12:	f107 0310 	add.w	r3, r7, #16
 8000a16:	4619      	mov	r1, r3
 8000a18:	480b      	ldr	r0, [pc, #44]	; (8000a48 <HAL_I2C_MspInit+0x7c>)
 8000a1a:	f000 fad3 	bl	8000fc4 <HAL_GPIO_Init>

    /* Peripheral clock enable */
    __HAL_RCC_I2C2_CLK_ENABLE();
 8000a1e:	4b09      	ldr	r3, [pc, #36]	; (8000a44 <HAL_I2C_MspInit+0x78>)
 8000a20:	69db      	ldr	r3, [r3, #28]
 8000a22:	4a08      	ldr	r2, [pc, #32]	; (8000a44 <HAL_I2C_MspInit+0x78>)
 8000a24:	f443 0380 	orr.w	r3, r3, #4194304	; 0x400000
 8000a28:	61d3      	str	r3, [r2, #28]
 8000a2a:	4b06      	ldr	r3, [pc, #24]	; (8000a44 <HAL_I2C_MspInit+0x78>)
 8000a2c:	69db      	ldr	r3, [r3, #28]
 8000a2e:	f403 0380 	and.w	r3, r3, #4194304	; 0x400000
 8000a32:	60bb      	str	r3, [r7, #8]
 8000a34:	68bb      	ldr	r3, [r7, #8]
  /* USER CODE BEGIN I2C2_MspInit 1 */

  /* USER CODE END I2C2_MspInit 1 */
  }

}
 8000a36:	bf00      	nop
 8000a38:	3720      	adds	r7, #32
 8000a3a:	46bd      	mov	sp, r7
 8000a3c:	bd80      	pop	{r7, pc}
 8000a3e:	bf00      	nop
 8000a40:	40005800 	.word	0x40005800
 8000a44:	40021000 	.word	0x40021000
 8000a48:	40010c00 	.word	0x40010c00

08000a4c <HAL_USART_MspInit>:
* This function configures the hardware resources used in this example
* @param husart: USART handle pointer
* @retval None
*/
void HAL_USART_MspInit(USART_HandleTypeDef* husart)
{
 8000a4c:	b580      	push	{r7, lr}
 8000a4e:	b088      	sub	sp, #32
 8000a50:	af00      	add	r7, sp, #0
 8000a52:	6078      	str	r0, [r7, #4]
  GPIO_InitTypeDef GPIO_InitStruct = {0};
 8000a54:	f107 0310 	add.w	r3, r7, #16
 8000a58:	2200      	movs	r2, #0
 8000a5a:	601a      	str	r2, [r3, #0]
 8000a5c:	605a      	str	r2, [r3, #4]
 8000a5e:	609a      	str	r2, [r3, #8]
 8000a60:	60da      	str	r2, [r3, #12]
  if(husart->Instance==USART1)
 8000a62:	687b      	ldr	r3, [r7, #4]
 8000a64:	681b      	ldr	r3, [r3, #0]
 8000a66:	4a20      	ldr	r2, [pc, #128]	; (8000ae8 <HAL_USART_MspInit+0x9c>)
 8000a68:	4293      	cmp	r3, r2
 8000a6a:	d139      	bne.n	8000ae0 <HAL_USART_MspInit+0x94>
  {
  /* USER CODE BEGIN USART1_MspInit 0 */

  /* USER CODE END USART1_MspInit 0 */
    /* Peripheral clock enable */
    __HAL_RCC_USART1_CLK_ENABLE();
 8000a6c:	4b1f      	ldr	r3, [pc, #124]	; (8000aec <HAL_USART_MspInit+0xa0>)
 8000a6e:	699b      	ldr	r3, [r3, #24]
 8000a70:	4a1e      	ldr	r2, [pc, #120]	; (8000aec <HAL_USART_MspInit+0xa0>)
 8000a72:	f443 4380 	orr.w	r3, r3, #16384	; 0x4000
 8000a76:	6193      	str	r3, [r2, #24]
 8000a78:	4b1c      	ldr	r3, [pc, #112]	; (8000aec <HAL_USART_MspInit+0xa0>)
 8000a7a:	699b      	ldr	r3, [r3, #24]
 8000a7c:	f403 4380 	and.w	r3, r3, #16384	; 0x4000
 8000a80:	60fb      	str	r3, [r7, #12]
 8000a82:	68fb      	ldr	r3, [r7, #12]

    __HAL_RCC_GPIOA_CLK_ENABLE();
 8000a84:	4b19      	ldr	r3, [pc, #100]	; (8000aec <HAL_USART_MspInit+0xa0>)
 8000a86:	699b      	ldr	r3, [r3, #24]
 8000a88:	4a18      	ldr	r2, [pc, #96]	; (8000aec <HAL_USART_MspInit+0xa0>)
 8000a8a:	f043 0304 	orr.w	r3, r3, #4
 8000a8e:	6193      	str	r3, [r2, #24]
 8000a90:	4b16      	ldr	r3, [pc, #88]	; (8000aec <HAL_USART_MspInit+0xa0>)
 8000a92:	699b      	ldr	r3, [r3, #24]
 8000a94:	f003 0304 	and.w	r3, r3, #4
 8000a98:	60bb      	str	r3, [r7, #8]
 8000a9a:	68bb      	ldr	r3, [r7, #8]
    /**USART1 GPIO Configuration
    PA8     ------> USART1_CK
    PA9     ------> USART1_TX
    PA10     ------> USART1_RX
    */
    GPIO_InitStruct.Pin = GPIO_PIN_8|GPIO_PIN_9;
 8000a9c:	f44f 7340 	mov.w	r3, #768	; 0x300
 8000aa0:	613b      	str	r3, [r7, #16]
    GPIO_InitStruct.Mode = GPIO_MODE_AF_PP;
 8000aa2:	2302      	movs	r3, #2
 8000aa4:	617b      	str	r3, [r7, #20]
    GPIO_InitStruct.Speed = GPIO_SPEED_FREQ_HIGH;
 8000aa6:	2303      	movs	r3, #3
 8000aa8:	61fb      	str	r3, [r7, #28]
    HAL_GPIO_Init(GPIOA, &GPIO_InitStruct);
 8000aaa:	f107 0310 	add.w	r3, r7, #16
 8000aae:	4619      	mov	r1, r3
 8000ab0:	480f      	ldr	r0, [pc, #60]	; (8000af0 <HAL_USART_MspInit+0xa4>)
 8000ab2:	f000 fa87 	bl	8000fc4 <HAL_GPIO_Init>

    GPIO_InitStruct.Pin = GPIO_PIN_10;
 8000ab6:	f44f 6380 	mov.w	r3, #1024	; 0x400
 8000aba:	613b      	str	r3, [r7, #16]
    GPIO_InitStruct.Mode = GPIO_MODE_INPUT;
 8000abc:	2300      	movs	r3, #0
 8000abe:	617b      	str	r3, [r7, #20]
    GPIO_InitStruct.Pull = GPIO_NOPULL;
 8000ac0:	2300      	movs	r3, #0
 8000ac2:	61bb      	str	r3, [r7, #24]
    HAL_GPIO_Init(GPIOA, &GPIO_InitStruct);
 8000ac4:	f107 0310 	add.w	r3, r7, #16
 8000ac8:	4619      	mov	r1, r3
 8000aca:	4809      	ldr	r0, [pc, #36]	; (8000af0 <HAL_USART_MspInit+0xa4>)
 8000acc:	f000 fa7a 	bl	8000fc4 <HAL_GPIO_Init>

    /* USART1 interrupt Init */
    HAL_NVIC_SetPriority(USART1_IRQn, 0, 0);
 8000ad0:	2200      	movs	r2, #0
 8000ad2:	2100      	movs	r1, #0
 8000ad4:	2025      	movs	r0, #37	; 0x25
 8000ad6:	f000 f9c8 	bl	8000e6a <HAL_NVIC_SetPriority>
    HAL_NVIC_EnableIRQ(USART1_IRQn);
 8000ada:	2025      	movs	r0, #37	; 0x25
 8000adc:	f000 f9e1 	bl	8000ea2 <HAL_NVIC_EnableIRQ>
  /* USER CODE BEGIN USART1_MspInit 1 */

  /* USER CODE END USART1_MspInit 1 */
  }

}
 8000ae0:	bf00      	nop
 8000ae2:	3720      	adds	r7, #32
 8000ae4:	46bd      	mov	sp, r7
 8000ae6:	bd80      	pop	{r7, pc}
 8000ae8:	40013800 	.word	0x40013800
 8000aec:	40021000 	.word	0x40021000
 8000af0:	40010800 	.word	0x40010800

08000af4 <NMI_Handler>:
/******************************************************************************/
/**
  * @brief This function handles Non maskable interrupt.
  */
void NMI_Handler(void)
{
 8000af4:	b480      	push	{r7}
 8000af6:	af00      	add	r7, sp, #0
  /* USER CODE BEGIN NonMaskableInt_IRQn 0 */

  /* USER CODE END NonMaskableInt_IRQn 0 */
  /* USER CODE BEGIN NonMaskableInt_IRQn 1 */
  while (1)
 8000af8:	e7fe      	b.n	8000af8 <NMI_Handler+0x4>

08000afa <HardFault_Handler>:

/**
  * @brief This function handles Hard fault interrupt.
  */
void HardFault_Handler(void)
{
 8000afa:	b480      	push	{r7}
 8000afc:	af00      	add	r7, sp, #0
  /* USER CODE BEGIN HardFault_IRQn 0 */

  /* USER CODE END HardFault_IRQn 0 */
  while (1)
 8000afe:	e7fe      	b.n	8000afe <HardFault_Handler+0x4>

08000b00 <MemManage_Handler>:

/**
  * @brief This function handles Memory management fault.
  */
void MemManage_Handler(void)
{
 8000b00:	b480      	push	{r7}
 8000b02:	af00      	add	r7, sp, #0
  /* USER CODE BEGIN MemoryManagement_IRQn 0 */

  /* USER CODE END MemoryManagement_IRQn 0 */
  while (1)
 8000b04:	e7fe      	b.n	8000b04 <MemManage_Handler+0x4>

08000b06 <BusFault_Handler>:

/**
  * @brief This function handles Prefetch fault, memory access fault.
  */
void BusFault_Handler(void)
{
 8000b06:	b480      	push	{r7}
 8000b08:	af00      	add	r7, sp, #0
  /* USER CODE BEGIN BusFault_IRQn 0 */

  /* USER CODE END BusFault_IRQn 0 */
  while (1)
 8000b0a:	e7fe      	b.n	8000b0a <BusFault_Handler+0x4>

08000b0c <UsageFault_Handler>:

/**
  * @brief This function handles Undefined instruction or illegal state.
  */
void UsageFault_Handler(void)
{
 8000b0c:	b480      	push	{r7}
 8000b0e:	af00      	add	r7, sp, #0
  /* USER CODE BEGIN UsageFault_IRQn 0 */

  /* USER CODE END UsageFault_IRQn 0 */
  while (1)
 8000b10:	e7fe      	b.n	8000b10 <UsageFault_Handler+0x4>

08000b12 <SVC_Handler>:

/**
  * @brief This function handles System service call via SWI instruction.
  */
void SVC_Handler(void)
{
 8000b12:	b480      	push	{r7}
 8000b14:	af00      	add	r7, sp, #0

  /* USER CODE END SVCall_IRQn 0 */
  /* USER CODE BEGIN SVCall_IRQn 1 */

  /* USER CODE END SVCall_IRQn 1 */
}
 8000b16:	bf00      	nop
 8000b18:	46bd      	mov	sp, r7
 8000b1a:	bc80      	pop	{r7}
 8000b1c:	4770      	bx	lr

08000b1e <DebugMon_Handler>:

/**
  * @brief This function handles Debug monitor.
  */
void DebugMon_Handler(void)
{
 8000b1e:	b480      	push	{r7}
 8000b20:	af00      	add	r7, sp, #0

  /* USER CODE END DebugMonitor_IRQn 0 */
  /* USER CODE BEGIN DebugMonitor_IRQn 1 */

  /* USER CODE END DebugMonitor_IRQn 1 */
}
 8000b22:	bf00      	nop
 8000b24:	46bd      	mov	sp, r7
 8000b26:	bc80      	pop	{r7}
 8000b28:	4770      	bx	lr

08000b2a <PendSV_Handler>:

/**
  * @brief This function handles Pendable request for system service.
  */
void PendSV_Handler(void)
{
 8000b2a:	b480      	push	{r7}
 8000b2c:	af00      	add	r7, sp, #0

  /* USER CODE END PendSV_IRQn 0 */
  /* USER CODE BEGIN PendSV_IRQn 1 */

  /* USER CODE END PendSV_IRQn 1 */
}
 8000b2e:	bf00      	nop
 8000b30:	46bd      	mov	sp, r7
 8000b32:	bc80      	pop	{r7}
 8000b34:	4770      	bx	lr

08000b36 <SysTick_Handler>:

/**
  * @brief This function handles System tick timer.
  */
void SysTick_Handler(void)
{
 8000b36:	b580      	push	{r7, lr}
 8000b38:	af00      	add	r7, sp, #0
  /* USER CODE BEGIN SysTick_IRQn 0 */

  /* USER CODE END SysTick_IRQn 0 */
  HAL_IncTick();
 8000b3a:	f000 f87f 	bl	8000c3c <HAL_IncTick>
  /* USER CODE BEGIN SysTick_IRQn 1 */

  /* USER CODE END SysTick_IRQn 1 */
}
 8000b3e:	bf00      	nop
 8000b40:	bd80      	pop	{r7, pc}
	...

08000b44 <USART1_IRQHandler>:

/**
  * @brief This function handles USART1 global interrupt.
  */
void USART1_IRQHandler(void)
{
 8000b44:	b580      	push	{r7, lr}
 8000b46:	af00      	add	r7, sp, #0
  /* USER CODE BEGIN USART1_IRQn 0 */

  /* USER CODE END USART1_IRQn 0 */
  HAL_USART_IRQHandler(&husart1);
 8000b48:	4802      	ldr	r0, [pc, #8]	; (8000b54 <USART1_IRQHandler+0x10>)
 8000b4a:	f001 ffe9 	bl	8002b20 <HAL_USART_IRQHandler>
  /* USER CODE BEGIN USART1_IRQn 1 */

  /* USER CODE END USART1_IRQn 1 */
}
 8000b4e:	bf00      	nop
 8000b50:	bd80      	pop	{r7, pc}
 8000b52:	bf00      	nop
 8000b54:	2000007c 	.word	0x2000007c

08000b58 <SystemInit>:
  * @note   This function should be used only after reset.
  * @param  None
  * @retval None
  */
void SystemInit (void)
{
 8000b58:	b480      	push	{r7}
 8000b5a:	af00      	add	r7, sp, #0

  /* Configure the Vector Table location -------------------------------------*/
#if defined(USER_VECT_TAB_ADDRESS)
  SCB->VTOR = VECT_TAB_BASE_ADDRESS | VECT_TAB_OFFSET; /* Vector Table Relocation in Internal SRAM. */
#endif /* USER_VECT_TAB_ADDRESS */
}
 8000b5c:	bf00      	nop
 8000b5e:	46bd      	mov	sp, r7
 8000b60:	bc80      	pop	{r7}
 8000b62:	4770      	bx	lr

08000b64 <Reset_Handler>:
  .weak Reset_Handler
  .type Reset_Handler, %function
Reset_Handler:

/* Copy the data segment initializers from flash to SRAM */
  ldr r0, =_sdata
 8000b64:	480c      	ldr	r0, [pc, #48]	; (8000b98 <LoopFillZerobss+0x12>)
  ldr r1, =_edata
 8000b66:	490d      	ldr	r1, [pc, #52]	; (8000b9c <LoopFillZerobss+0x16>)
  ldr r2, =_sidata
 8000b68:	4a0d      	ldr	r2, [pc, #52]	; (8000ba0 <LoopFillZerobss+0x1a>)
  movs r3, #0
 8000b6a:	2300      	movs	r3, #0
  b LoopCopyDataInit
 8000b6c:	e002      	b.n	8000b74 <LoopCopyDataInit>

08000b6e <CopyDataInit>:

CopyDataInit:
  ldr r4, [r2, r3]
 8000b6e:	58d4      	ldr	r4, [r2, r3]
  str r4, [r0, r3]
 8000b70:	50c4      	str	r4, [r0, r3]
  adds r3, r3, #4
 8000b72:	3304      	adds	r3, #4

08000b74 <LoopCopyDataInit>:

LoopCopyDataInit:
  adds r4, r0, r3
 8000b74:	18c4      	adds	r4, r0, r3
  cmp r4, r1
 8000b76:	428c      	cmp	r4, r1
  bcc CopyDataInit
 8000b78:	d3f9      	bcc.n	8000b6e <CopyDataInit>
  
/* Zero fill the bss segment. */
  ldr r2, =_sbss
 8000b7a:	4a0a      	ldr	r2, [pc, #40]	; (8000ba4 <LoopFillZerobss+0x1e>)
  ldr r4, =_ebss
 8000b7c:	4c0a      	ldr	r4, [pc, #40]	; (8000ba8 <LoopFillZerobss+0x22>)
  movs r3, #0
 8000b7e:	2300      	movs	r3, #0
  b LoopFillZerobss
 8000b80:	e001      	b.n	8000b86 <LoopFillZerobss>

08000b82 <FillZerobss>:

FillZerobss:
  str  r3, [r2]
 8000b82:	6013      	str	r3, [r2, #0]
  adds r2, r2, #4
 8000b84:	3204      	adds	r2, #4

08000b86 <LoopFillZerobss>:

LoopFillZerobss:
  cmp r2, r4
 8000b86:	42a2      	cmp	r2, r4
  bcc FillZerobss
 8000b88:	d3fb      	bcc.n	8000b82 <FillZerobss>

/* Call the clock system intitialization function.*/
    bl  SystemInit
 8000b8a:	f7ff ffe5 	bl	8000b58 <SystemInit>
/* Call static constructors */
    bl __libc_init_array
 8000b8e:	f002 fc03 	bl	8003398 <__libc_init_array>
/* Call the application's entry point.*/
  bl main
 8000b92:	f7ff fc75 	bl	8000480 <main>
  bx lr
 8000b96:	4770      	bx	lr
  ldr r0, =_sdata
 8000b98:	20000000 	.word	0x20000000
  ldr r1, =_edata
 8000b9c:	2000000c 	.word	0x2000000c
  ldr r2, =_sidata
 8000ba0:	08003494 	.word	0x08003494
  ldr r2, =_sbss
 8000ba4:	2000000c 	.word	0x2000000c
  ldr r4, =_ebss
 8000ba8:	200000c4 	.word	0x200000c4

08000bac <ADC1_2_IRQHandler>:
 * @retval : None
*/
    .section .text.Default_Handler,"ax",%progbits
Default_Handler:
Infinite_Loop:
  b Infinite_Loop
 8000bac:	e7fe      	b.n	8000bac <ADC1_2_IRQHandler>
	...

08000bb0 <HAL_Init>:
  *         need to ensure that the SysTick time base is always set to 1 millisecond
  *         to have correct HAL operation.
  * @retval HAL status
  */
HAL_StatusTypeDef HAL_Init(void)
{
 8000bb0:	b580      	push	{r7, lr}
 8000bb2:	af00      	add	r7, sp, #0
    defined(STM32F102x6) || defined(STM32F102xB) || \
    defined(STM32F103x6) || defined(STM32F103xB) || defined(STM32F103xE) || defined(STM32F103xG) || \
    defined(STM32F105xC) || defined(STM32F107xC)

  /* Prefetch buffer is not available on value line devices */
  __HAL_FLASH_PREFETCH_BUFFER_ENABLE();
 8000bb4:	4b08      	ldr	r3, [pc, #32]	; (8000bd8 <HAL_Init+0x28>)
 8000bb6:	681b      	ldr	r3, [r3, #0]
 8000bb8:	4a07      	ldr	r2, [pc, #28]	; (8000bd8 <HAL_Init+0x28>)
 8000bba:	f043 0310 	orr.w	r3, r3, #16
 8000bbe:	6013      	str	r3, [r2, #0]
#endif
#endif /* PREFETCH_ENABLE */

  /* Set Interrupt Group Priority */
  HAL_NVIC_SetPriorityGrouping(NVIC_PRIORITYGROUP_4);
 8000bc0:	2003      	movs	r0, #3
 8000bc2:	f000 f947 	bl	8000e54 <HAL_NVIC_SetPriorityGrouping>

  /* Use systick as time base source and configure 1ms tick (default clock after Reset is HSI) */
  HAL_InitTick(TICK_INT_PRIORITY);
 8000bc6:	200f      	movs	r0, #15
 8000bc8:	f000 f808 	bl	8000bdc <HAL_InitTick>

  /* Init the low level hardware */
  HAL_MspInit();
 8000bcc:	f7ff fecc 	bl	8000968 <HAL_MspInit>

  /* Return function status */
  return HAL_OK;
 8000bd0:	2300      	movs	r3, #0
}
 8000bd2:	4618      	mov	r0, r3
 8000bd4:	bd80      	pop	{r7, pc}
 8000bd6:	bf00      	nop
 8000bd8:	40022000 	.word	0x40022000

08000bdc <HAL_InitTick>:
  *       implementation  in user file.
  * @param TickPriority Tick interrupt priority.
  * @retval HAL status
  */
__weak HAL_StatusTypeDef HAL_InitTick(uint32_t TickPriority)
{
 8000bdc:	b580      	push	{r7, lr}
 8000bde:	b082      	sub	sp, #8
 8000be0:	af00      	add	r7, sp, #0
 8000be2:	6078      	str	r0, [r7, #4]
  /* Configure the SysTick to have interrupt in 1ms time basis*/
  if (HAL_SYSTICK_Config(SystemCoreClock / (1000U / uwTickFreq)) > 0U)
 8000be4:	4b12      	ldr	r3, [pc, #72]	; (8000c30 <HAL_InitTick+0x54>)
 8000be6:	681a      	ldr	r2, [r3, #0]
 8000be8:	4b12      	ldr	r3, [pc, #72]	; (8000c34 <HAL_InitTick+0x58>)
 8000bea:	781b      	ldrb	r3, [r3, #0]
 8000bec:	4619      	mov	r1, r3
 8000bee:	f44f 737a 	mov.w	r3, #1000	; 0x3e8
 8000bf2:	fbb3 f3f1 	udiv	r3, r3, r1
 8000bf6:	fbb2 f3f3 	udiv	r3, r2, r3
 8000bfa:	4618      	mov	r0, r3
 8000bfc:	f000 f95f 	bl	8000ebe <HAL_SYSTICK_Config>
 8000c00:	4603      	mov	r3, r0
 8000c02:	2b00      	cmp	r3, #0
 8000c04:	d001      	beq.n	8000c0a <HAL_InitTick+0x2e>
  {
    return HAL_ERROR;
 8000c06:	2301      	movs	r3, #1
 8000c08:	e00e      	b.n	8000c28 <HAL_InitTick+0x4c>
  }

  /* Configure the SysTick IRQ priority */
  if (TickPriority < (1UL << __NVIC_PRIO_BITS))
 8000c0a:	687b      	ldr	r3, [r7, #4]
 8000c0c:	2b0f      	cmp	r3, #15
 8000c0e:	d80a      	bhi.n	8000c26 <HAL_InitTick+0x4a>
  {
    HAL_NVIC_SetPriority(SysTick_IRQn, TickPriority, 0U);
 8000c10:	2200      	movs	r2, #0
 8000c12:	6879      	ldr	r1, [r7, #4]
 8000c14:	f04f 30ff 	mov.w	r0, #4294967295
 8000c18:	f000 f927 	bl	8000e6a <HAL_NVIC_SetPriority>
    uwTickPrio = TickPriority;
 8000c1c:	4a06      	ldr	r2, [pc, #24]	; (8000c38 <HAL_InitTick+0x5c>)
 8000c1e:	687b      	ldr	r3, [r7, #4]
 8000c20:	6013      	str	r3, [r2, #0]
  {
    return HAL_ERROR;
  }

  /* Return function status */
  return HAL_OK;
 8000c22:	2300      	movs	r3, #0
 8000c24:	e000      	b.n	8000c28 <HAL_InitTick+0x4c>
    return HAL_ERROR;
 8000c26:	2301      	movs	r3, #1
}
 8000c28:	4618      	mov	r0, r3
 8000c2a:	3708      	adds	r7, #8
 8000c2c:	46bd      	mov	sp, r7
 8000c2e:	bd80      	pop	{r7, pc}
 8000c30:	20000000 	.word	0x20000000
 8000c34:	20000008 	.word	0x20000008
 8000c38:	20000004 	.word	0x20000004

08000c3c <HAL_IncTick>:
  * @note This function is declared as __weak to be overwritten in case of other
  *      implementations in user file.
  * @retval None
  */
__weak void HAL_IncTick(void)
{
 8000c3c:	b480      	push	{r7}
 8000c3e:	af00      	add	r7, sp, #0
  uwTick += uwTickFreq;
 8000c40:	4b05      	ldr	r3, [pc, #20]	; (8000c58 <HAL_IncTick+0x1c>)
 8000c42:	781b      	ldrb	r3, [r3, #0]
 8000c44:	461a      	mov	r2, r3
 8000c46:	4b05      	ldr	r3, [pc, #20]	; (8000c5c <HAL_IncTick+0x20>)
 8000c48:	681b      	ldr	r3, [r3, #0]
 8000c4a:	4413      	add	r3, r2
 8000c4c:	4a03      	ldr	r2, [pc, #12]	; (8000c5c <HAL_IncTick+0x20>)
 8000c4e:	6013      	str	r3, [r2, #0]
}
 8000c50:	bf00      	nop
 8000c52:	46bd      	mov	sp, r7
 8000c54:	bc80      	pop	{r7}
 8000c56:	4770      	bx	lr
 8000c58:	20000008 	.word	0x20000008
 8000c5c:	200000c0 	.word	0x200000c0

08000c60 <HAL_GetTick>:
  * @note  This function is declared as __weak to be overwritten in case of other
  *       implementations in user file.
  * @retval tick value
  */
__weak uint32_t HAL_GetTick(void)
{
 8000c60:	b480      	push	{r7}
 8000c62:	af00      	add	r7, sp, #0
  return uwTick;
 8000c64:	4b02      	ldr	r3, [pc, #8]	; (8000c70 <HAL_GetTick+0x10>)
 8000c66:	681b      	ldr	r3, [r3, #0]
}
 8000c68:	4618      	mov	r0, r3
 8000c6a:	46bd      	mov	sp, r7
 8000c6c:	bc80      	pop	{r7}
 8000c6e:	4770      	bx	lr
 8000c70:	200000c0 	.word	0x200000c0

08000c74 <HAL_Delay>:
  *       implementations in user file.
  * @param Delay specifies the delay time length, in milliseconds.
  * @retval None
  */
__weak void HAL_Delay(uint32_t Delay)
{
 8000c74:	b580      	push	{r7, lr}
 8000c76:	b084      	sub	sp, #16
 8000c78:	af00      	add	r7, sp, #0
 8000c7a:	6078      	str	r0, [r7, #4]
  uint32_t tickstart = HAL_GetTick();
 8000c7c:	f7ff fff0 	bl	8000c60 <HAL_GetTick>
 8000c80:	60b8      	str	r0, [r7, #8]
  uint32_t wait = Delay;
 8000c82:	687b      	ldr	r3, [r7, #4]
 8000c84:	60fb      	str	r3, [r7, #12]

  /* Add a freq to guarantee minimum wait */
  if (wait < HAL_MAX_DELAY)
 8000c86:	68fb      	ldr	r3, [r7, #12]
 8000c88:	f1b3 3fff 	cmp.w	r3, #4294967295
 8000c8c:	d005      	beq.n	8000c9a <HAL_Delay+0x26>
  {
    wait += (uint32_t)(uwTickFreq);
 8000c8e:	4b0a      	ldr	r3, [pc, #40]	; (8000cb8 <HAL_Delay+0x44>)
 8000c90:	781b      	ldrb	r3, [r3, #0]
 8000c92:	461a      	mov	r2, r3
 8000c94:	68fb      	ldr	r3, [r7, #12]
 8000c96:	4413      	add	r3, r2
 8000c98:	60fb      	str	r3, [r7, #12]
  }

  while ((HAL_GetTick() - tickstart) < wait)
 8000c9a:	bf00      	nop
 8000c9c:	f7ff ffe0 	bl	8000c60 <HAL_GetTick>
 8000ca0:	4602      	mov	r2, r0
 8000ca2:	68bb      	ldr	r3, [r7, #8]
 8000ca4:	1ad3      	subs	r3, r2, r3
 8000ca6:	68fa      	ldr	r2, [r7, #12]
 8000ca8:	429a      	cmp	r2, r3
 8000caa:	d8f7      	bhi.n	8000c9c <HAL_Delay+0x28>
  {
  }
}
 8000cac:	bf00      	nop
 8000cae:	bf00      	nop
 8000cb0:	3710      	adds	r7, #16
 8000cb2:	46bd      	mov	sp, r7
 8000cb4:	bd80      	pop	{r7, pc}
 8000cb6:	bf00      	nop
 8000cb8:	20000008 	.word	0x20000008

08000cbc <__NVIC_SetPriorityGrouping>:
           In case of a conflict between priority grouping and available
           priority bits (__NVIC_PRIO_BITS), the smallest possible priority group is set.
  \param [in]      PriorityGroup  Priority grouping field.
 */
__STATIC_INLINE void __NVIC_SetPriorityGrouping(uint32_t PriorityGroup)
{
 8000cbc:	b480      	push	{r7}
 8000cbe:	b085      	sub	sp, #20
 8000cc0:	af00      	add	r7, sp, #0
 8000cc2:	6078      	str	r0, [r7, #4]
  uint32_t reg_value;
  uint32_t PriorityGroupTmp = (PriorityGroup & (uint32_t)0x07UL);             /* only values 0..7 are used          */
 8000cc4:	687b      	ldr	r3, [r7, #4]
 8000cc6:	f003 0307 	and.w	r3, r3, #7
 8000cca:	60fb      	str	r3, [r7, #12]

  reg_value  =  SCB->AIRCR;                                                   /* read old register configuration    */
 8000ccc:	4b0c      	ldr	r3, [pc, #48]	; (8000d00 <__NVIC_SetPriorityGrouping+0x44>)
 8000cce:	68db      	ldr	r3, [r3, #12]
 8000cd0:	60bb      	str	r3, [r7, #8]
  reg_value &= ~((uint32_t)(SCB_AIRCR_VECTKEY_Msk | SCB_AIRCR_PRIGROUP_Msk)); /* clear bits to change               */
 8000cd2:	68ba      	ldr	r2, [r7, #8]
 8000cd4:	f64f 03ff 	movw	r3, #63743	; 0xf8ff
 8000cd8:	4013      	ands	r3, r2
 8000cda:	60bb      	str	r3, [r7, #8]
  reg_value  =  (reg_value                                   |
                ((uint32_t)0x5FAUL << SCB_AIRCR_VECTKEY_Pos) |
                (PriorityGroupTmp << SCB_AIRCR_PRIGROUP_Pos) );               /* Insert write key and priority group */
 8000cdc:	68fb      	ldr	r3, [r7, #12]
 8000cde:	021a      	lsls	r2, r3, #8
                ((uint32_t)0x5FAUL << SCB_AIRCR_VECTKEY_Pos) |
 8000ce0:	68bb      	ldr	r3, [r7, #8]
 8000ce2:	4313      	orrs	r3, r2
  reg_value  =  (reg_value                                   |
 8000ce4:	f043 63bf 	orr.w	r3, r3, #100139008	; 0x5f80000
 8000ce8:	f443 3300 	orr.w	r3, r3, #131072	; 0x20000
 8000cec:	60bb      	str	r3, [r7, #8]
  SCB->AIRCR =  reg_value;
 8000cee:	4a04      	ldr	r2, [pc, #16]	; (8000d00 <__NVIC_SetPriorityGrouping+0x44>)
 8000cf0:	68bb      	ldr	r3, [r7, #8]
 8000cf2:	60d3      	str	r3, [r2, #12]
}
 8000cf4:	bf00      	nop
 8000cf6:	3714      	adds	r7, #20
 8000cf8:	46bd      	mov	sp, r7
 8000cfa:	bc80      	pop	{r7}
 8000cfc:	4770      	bx	lr
 8000cfe:	bf00      	nop
 8000d00:	e000ed00 	.word	0xe000ed00

08000d04 <__NVIC_GetPriorityGrouping>:
  \brief   Get Priority Grouping
  \details Reads the priority grouping field from the NVIC Interrupt Controller.
  \return                Priority grouping field (SCB->AIRCR [10:8] PRIGROUP field).
 */
__STATIC_INLINE uint32_t __NVIC_GetPriorityGrouping(void)
{
 8000d04:	b480      	push	{r7}
 8000d06:	af00      	add	r7, sp, #0
  return ((uint32_t)((SCB->AIRCR & SCB_AIRCR_PRIGROUP_Msk) >> SCB_AIRCR_PRIGROUP_Pos));
 8000d08:	4b04      	ldr	r3, [pc, #16]	; (8000d1c <__NVIC_GetPriorityGrouping+0x18>)
 8000d0a:	68db      	ldr	r3, [r3, #12]
 8000d0c:	0a1b      	lsrs	r3, r3, #8
 8000d0e:	f003 0307 	and.w	r3, r3, #7
}
 8000d12:	4618      	mov	r0, r3
 8000d14:	46bd      	mov	sp, r7
 8000d16:	bc80      	pop	{r7}
 8000d18:	4770      	bx	lr
 8000d1a:	bf00      	nop
 8000d1c:	e000ed00 	.word	0xe000ed00

08000d20 <__NVIC_EnableIRQ>:
  \details Enables a device specific interrupt in the NVIC interrupt controller.
  \param [in]      IRQn  Device specific interrupt number.
  \note    IRQn must not be negative.
 */
__STATIC_INLINE void __NVIC_EnableIRQ(IRQn_Type IRQn)
{
 8000d20:	b480      	push	{r7}
 8000d22:	b083      	sub	sp, #12
 8000d24:	af00      	add	r7, sp, #0
 8000d26:	4603      	mov	r3, r0
 8000d28:	71fb      	strb	r3, [r7, #7]
  if ((int32_t)(IRQn) >= 0)
 8000d2a:	f997 3007 	ldrsb.w	r3, [r7, #7]
 8000d2e:	2b00      	cmp	r3, #0
 8000d30:	db0b      	blt.n	8000d4a <__NVIC_EnableIRQ+0x2a>
  {
    NVIC->ISER[(((uint32_t)IRQn) >> 5UL)] = (uint32_t)(1UL << (((uint32_t)IRQn) & 0x1FUL));
 8000d32:	79fb      	ldrb	r3, [r7, #7]
 8000d34:	f003 021f 	and.w	r2, r3, #31
 8000d38:	4906      	ldr	r1, [pc, #24]	; (8000d54 <__NVIC_EnableIRQ+0x34>)
 8000d3a:	f997 3007 	ldrsb.w	r3, [r7, #7]
 8000d3e:	095b      	lsrs	r3, r3, #5
 8000d40:	2001      	movs	r0, #1
 8000d42:	fa00 f202 	lsl.w	r2, r0, r2
 8000d46:	f841 2023 	str.w	r2, [r1, r3, lsl #2]
  }
}
 8000d4a:	bf00      	nop
 8000d4c:	370c      	adds	r7, #12
 8000d4e:	46bd      	mov	sp, r7
 8000d50:	bc80      	pop	{r7}
 8000d52:	4770      	bx	lr
 8000d54:	e000e100 	.word	0xe000e100

08000d58 <__NVIC_SetPriority>:
  \param [in]      IRQn  Interrupt number.
  \param [in]  priority  Priority to set.
  \note    The priority cannot be set for every processor exception.
 */
__STATIC_INLINE void __NVIC_SetPriority(IRQn_Type IRQn, uint32_t priority)
{
 8000d58:	b480      	push	{r7}
 8000d5a:	b083      	sub	sp, #12
 8000d5c:	af00      	add	r7, sp, #0
 8000d5e:	4603      	mov	r3, r0
 8000d60:	6039      	str	r1, [r7, #0]
 8000d62:	71fb      	strb	r3, [r7, #7]
  if ((int32_t)(IRQn) >= 0)
 8000d64:	f997 3007 	ldrsb.w	r3, [r7, #7]
 8000d68:	2b00      	cmp	r3, #0
 8000d6a:	db0a      	blt.n	8000d82 <__NVIC_SetPriority+0x2a>
  {
    NVIC->IP[((uint32_t)IRQn)]               = (uint8_t)((priority << (8U - __NVIC_PRIO_BITS)) & (uint32_t)0xFFUL);
 8000d6c:	683b      	ldr	r3, [r7, #0]
 8000d6e:	b2da      	uxtb	r2, r3
 8000d70:	490c      	ldr	r1, [pc, #48]	; (8000da4 <__NVIC_SetPriority+0x4c>)
 8000d72:	f997 3007 	ldrsb.w	r3, [r7, #7]
 8000d76:	0112      	lsls	r2, r2, #4
 8000d78:	b2d2      	uxtb	r2, r2
 8000d7a:	440b      	add	r3, r1
 8000d7c:	f883 2300 	strb.w	r2, [r3, #768]	; 0x300
  }
  else
  {
    SCB->SHP[(((uint32_t)IRQn) & 0xFUL)-4UL] = (uint8_t)((priority << (8U - __NVIC_PRIO_BITS)) & (uint32_t)0xFFUL);
  }
}
 8000d80:	e00a      	b.n	8000d98 <__NVIC_SetPriority+0x40>
    SCB->SHP[(((uint32_t)IRQn) & 0xFUL)-4UL] = (uint8_t)((priority << (8U - __NVIC_PRIO_BITS)) & (uint32_t)0xFFUL);
 8000d82:	683b      	ldr	r3, [r7, #0]
 8000d84:	b2da      	uxtb	r2, r3
 8000d86:	4908      	ldr	r1, [pc, #32]	; (8000da8 <__NVIC_SetPriority+0x50>)
 8000d88:	79fb      	ldrb	r3, [r7, #7]
 8000d8a:	f003 030f 	and.w	r3, r3, #15
 8000d8e:	3b04      	subs	r3, #4
 8000d90:	0112      	lsls	r2, r2, #4
 8000d92:	b2d2      	uxtb	r2, r2
 8000d94:	440b      	add	r3, r1
 8000d96:	761a      	strb	r2, [r3, #24]
}
 8000d98:	bf00      	nop
 8000d9a:	370c      	adds	r7, #12
 8000d9c:	46bd      	mov	sp, r7
 8000d9e:	bc80      	pop	{r7}
 8000da0:	4770      	bx	lr
 8000da2:	bf00      	nop
 8000da4:	e000e100 	.word	0xe000e100
 8000da8:	e000ed00 	.word	0xe000ed00

08000dac <NVIC_EncodePriority>:
  \param [in]   PreemptPriority  Preemptive priority value (starting from 0).
  \param [in]       SubPriority  Subpriority value (starting from 0).
  \return                        Encoded priority. Value can be used in the function \ref NVIC_SetPriority().
 */
__STATIC_INLINE uint32_t NVIC_EncodePriority (uint32_t PriorityGroup, uint32_t PreemptPriority, uint32_t SubPriority)
{
 8000dac:	b480      	push	{r7}
 8000dae:	b089      	sub	sp, #36	; 0x24
 8000db0:	af00      	add	r7, sp, #0
 8000db2:	60f8      	str	r0, [r7, #12]
 8000db4:	60b9      	str	r1, [r7, #8]
 8000db6:	607a      	str	r2, [r7, #4]
  uint32_t PriorityGroupTmp = (PriorityGroup & (uint32_t)0x07UL);   /* only values 0..7 are used          */
 8000db8:	68fb      	ldr	r3, [r7, #12]
 8000dba:	f003 0307 	and.w	r3, r3, #7
 8000dbe:	61fb      	str	r3, [r7, #28]
  uint32_t PreemptPriorityBits;
  uint32_t SubPriorityBits;

  PreemptPriorityBits = ((7UL - PriorityGroupTmp) > (uint32_t)(__NVIC_PRIO_BITS)) ? (uint32_t)(__NVIC_PRIO_BITS) : (uint32_t)(7UL - PriorityGroupTmp);
 8000dc0:	69fb      	ldr	r3, [r7, #28]
 8000dc2:	f1c3 0307 	rsb	r3, r3, #7
 8000dc6:	2b04      	cmp	r3, #4
 8000dc8:	bf28      	it	cs
 8000dca:	2304      	movcs	r3, #4
 8000dcc:	61bb      	str	r3, [r7, #24]
  SubPriorityBits     = ((PriorityGroupTmp + (uint32_t)(__NVIC_PRIO_BITS)) < (uint32_t)7UL) ? (uint32_t)0UL : (uint32_t)((PriorityGroupTmp - 7UL) + (uint32_t)(__NVIC_PRIO_BITS));
 8000dce:	69fb      	ldr	r3, [r7, #28]
 8000dd0:	3304      	adds	r3, #4
 8000dd2:	2b06      	cmp	r3, #6
 8000dd4:	d902      	bls.n	8000ddc <NVIC_EncodePriority+0x30>
 8000dd6:	69fb      	ldr	r3, [r7, #28]
 8000dd8:	3b03      	subs	r3, #3
 8000dda:	e000      	b.n	8000dde <NVIC_EncodePriority+0x32>
 8000ddc:	2300      	movs	r3, #0
 8000dde:	617b      	str	r3, [r7, #20]

  return (
           ((PreemptPriority & (uint32_t)((1UL << (PreemptPriorityBits)) - 1UL)) << SubPriorityBits) |
 8000de0:	f04f 32ff 	mov.w	r2, #4294967295
 8000de4:	69bb      	ldr	r3, [r7, #24]
 8000de6:	fa02 f303 	lsl.w	r3, r2, r3
 8000dea:	43da      	mvns	r2, r3
 8000dec:	68bb      	ldr	r3, [r7, #8]
 8000dee:	401a      	ands	r2, r3
 8000df0:	697b      	ldr	r3, [r7, #20]
 8000df2:	409a      	lsls	r2, r3
           ((SubPriority     & (uint32_t)((1UL << (SubPriorityBits    )) - 1UL)))
 8000df4:	f04f 31ff 	mov.w	r1, #4294967295
 8000df8:	697b      	ldr	r3, [r7, #20]
 8000dfa:	fa01 f303 	lsl.w	r3, r1, r3
 8000dfe:	43d9      	mvns	r1, r3
 8000e00:	687b      	ldr	r3, [r7, #4]
 8000e02:	400b      	ands	r3, r1
           ((PreemptPriority & (uint32_t)((1UL << (PreemptPriorityBits)) - 1UL)) << SubPriorityBits) |
 8000e04:	4313      	orrs	r3, r2
         );
}
 8000e06:	4618      	mov	r0, r3
 8000e08:	3724      	adds	r7, #36	; 0x24
 8000e0a:	46bd      	mov	sp, r7
 8000e0c:	bc80      	pop	{r7}
 8000e0e:	4770      	bx	lr

08000e10 <SysTick_Config>:
  \note    When the variable <b>__Vendor_SysTickConfig</b> is set to 1, then the
           function <b>SysTick_Config</b> is not included. In this case, the file <b><i>device</i>.h</b>
           must contain a vendor-specific implementation of this function.
 */
__STATIC_INLINE uint32_t SysTick_Config(uint32_t ticks)
{
 8000e10:	b580      	push	{r7, lr}
 8000e12:	b082      	sub	sp, #8
 8000e14:	af00      	add	r7, sp, #0
 8000e16:	6078      	str	r0, [r7, #4]
  if ((ticks - 1UL) > SysTick_LOAD_RELOAD_Msk)
 8000e18:	687b      	ldr	r3, [r7, #4]
 8000e1a:	3b01      	subs	r3, #1
 8000e1c:	f1b3 7f80 	cmp.w	r3, #16777216	; 0x1000000
 8000e20:	d301      	bcc.n	8000e26 <SysTick_Config+0x16>
  {
    return (1UL);                                                   /* Reload value impossible */
 8000e22:	2301      	movs	r3, #1
 8000e24:	e00f      	b.n	8000e46 <SysTick_Config+0x36>
  }

  SysTick->LOAD  = (uint32_t)(ticks - 1UL);                         /* set reload register */
 8000e26:	4a0a      	ldr	r2, [pc, #40]	; (8000e50 <SysTick_Config+0x40>)
 8000e28:	687b      	ldr	r3, [r7, #4]
 8000e2a:	3b01      	subs	r3, #1
 8000e2c:	6053      	str	r3, [r2, #4]
  NVIC_SetPriority (SysTick_IRQn, (1UL << __NVIC_PRIO_BITS) - 1UL); /* set Priority for Systick Interrupt */
 8000e2e:	210f      	movs	r1, #15
 8000e30:	f04f 30ff 	mov.w	r0, #4294967295
 8000e34:	f7ff ff90 	bl	8000d58 <__NVIC_SetPriority>
  SysTick->VAL   = 0UL;                                             /* Load the SysTick Counter Value */
 8000e38:	4b05      	ldr	r3, [pc, #20]	; (8000e50 <SysTick_Config+0x40>)
 8000e3a:	2200      	movs	r2, #0
 8000e3c:	609a      	str	r2, [r3, #8]
  SysTick->CTRL  = SysTick_CTRL_CLKSOURCE_Msk |
 8000e3e:	4b04      	ldr	r3, [pc, #16]	; (8000e50 <SysTick_Config+0x40>)
 8000e40:	2207      	movs	r2, #7
 8000e42:	601a      	str	r2, [r3, #0]
                   SysTick_CTRL_TICKINT_Msk   |
                   SysTick_CTRL_ENABLE_Msk;                         /* Enable SysTick IRQ and SysTick Timer */
  return (0UL);                                                     /* Function successful */
 8000e44:	2300      	movs	r3, #0
}
 8000e46:	4618      	mov	r0, r3
 8000e48:	3708      	adds	r7, #8
 8000e4a:	46bd      	mov	sp, r7
 8000e4c:	bd80      	pop	{r7, pc}
 8000e4e:	bf00      	nop
 8000e50:	e000e010 	.word	0xe000e010

08000e54 <HAL_NVIC_SetPriorityGrouping>:
  * @note   When the NVIC_PriorityGroup_0 is selected, IRQ preemption is no more possible. 
  *         The pending IRQ priority will be managed only by the subpriority. 
  * @retval None
  */
void HAL_NVIC_SetPriorityGrouping(uint32_t PriorityGroup)
{
 8000e54:	b580      	push	{r7, lr}
 8000e56:	b082      	sub	sp, #8
 8000e58:	af00      	add	r7, sp, #0
 8000e5a:	6078      	str	r0, [r7, #4]
  /* Check the parameters */
  assert_param(IS_NVIC_PRIORITY_GROUP(PriorityGroup));
  
  /* Set the PRIGROUP[10:8] bits according to the PriorityGroup parameter value */
  NVIC_SetPriorityGrouping(PriorityGroup);
 8000e5c:	6878      	ldr	r0, [r7, #4]
 8000e5e:	f7ff ff2d 	bl	8000cbc <__NVIC_SetPriorityGrouping>
}
 8000e62:	bf00      	nop
 8000e64:	3708      	adds	r7, #8
 8000e66:	46bd      	mov	sp, r7
 8000e68:	bd80      	pop	{r7, pc}

08000e6a <HAL_NVIC_SetPriority>:
  *         This parameter can be a value between 0 and 15
  *         A lower priority value indicates a higher priority.          
  * @retval None
  */
void HAL_NVIC_SetPriority(IRQn_Type IRQn, uint32_t PreemptPriority, uint32_t SubPriority)
{ 
 8000e6a:	b580      	push	{r7, lr}
 8000e6c:	b086      	sub	sp, #24
 8000e6e:	af00      	add	r7, sp, #0
 8000e70:	4603      	mov	r3, r0
 8000e72:	60b9      	str	r1, [r7, #8]
 8000e74:	607a      	str	r2, [r7, #4]
 8000e76:	73fb      	strb	r3, [r7, #15]
  uint32_t prioritygroup = 0x00U;
 8000e78:	2300      	movs	r3, #0
 8000e7a:	617b      	str	r3, [r7, #20]
  
  /* Check the parameters */
  assert_param(IS_NVIC_SUB_PRIORITY(SubPriority));
  assert_param(IS_NVIC_PREEMPTION_PRIORITY(PreemptPriority));
  
  prioritygroup = NVIC_GetPriorityGrouping();
 8000e7c:	f7ff ff42 	bl	8000d04 <__NVIC_GetPriorityGrouping>
 8000e80:	6178      	str	r0, [r7, #20]
  
  NVIC_SetPriority(IRQn, NVIC_EncodePriority(prioritygroup, PreemptPriority, SubPriority));
 8000e82:	687a      	ldr	r2, [r7, #4]
 8000e84:	68b9      	ldr	r1, [r7, #8]
 8000e86:	6978      	ldr	r0, [r7, #20]
 8000e88:	f7ff ff90 	bl	8000dac <NVIC_EncodePriority>
 8000e8c:	4602      	mov	r2, r0
 8000e8e:	f997 300f 	ldrsb.w	r3, [r7, #15]
 8000e92:	4611      	mov	r1, r2
 8000e94:	4618      	mov	r0, r3
 8000e96:	f7ff ff5f 	bl	8000d58 <__NVIC_SetPriority>
}
 8000e9a:	bf00      	nop
 8000e9c:	3718      	adds	r7, #24
 8000e9e:	46bd      	mov	sp, r7
 8000ea0:	bd80      	pop	{r7, pc}

08000ea2 <HAL_NVIC_EnableIRQ>:
  *         This parameter can be an enumerator of IRQn_Type enumeration
  *         (For the complete STM32 Devices IRQ Channels list, please refer to the appropriate CMSIS device file (stm32f10xxx.h))
  * @retval None
  */
void HAL_NVIC_EnableIRQ(IRQn_Type IRQn)
{
 8000ea2:	b580      	push	{r7, lr}
 8000ea4:	b082      	sub	sp, #8
 8000ea6:	af00      	add	r7, sp, #0
 8000ea8:	4603      	mov	r3, r0
 8000eaa:	71fb      	strb	r3, [r7, #7]
  /* Check the parameters */
  assert_param(IS_NVIC_DEVICE_IRQ(IRQn));

  /* Enable interrupt */
  NVIC_EnableIRQ(IRQn);
 8000eac:	f997 3007 	ldrsb.w	r3, [r7, #7]
 8000eb0:	4618      	mov	r0, r3
 8000eb2:	f7ff ff35 	bl	8000d20 <__NVIC_EnableIRQ>
}
 8000eb6:	bf00      	nop
 8000eb8:	3708      	adds	r7, #8
 8000eba:	46bd      	mov	sp, r7
 8000ebc:	bd80      	pop	{r7, pc}

08000ebe <HAL_SYSTICK_Config>:
  * @param  TicksNumb: Specifies the ticks Number of ticks between two interrupts.
  * @retval status:  - 0  Function succeeded.
  *                  - 1  Function failed.
  */
uint32_t HAL_SYSTICK_Config(uint32_t TicksNumb)
{
 8000ebe:	b580      	push	{r7, lr}
 8000ec0:	b082      	sub	sp, #8
 8000ec2:	af00      	add	r7, sp, #0
 8000ec4:	6078      	str	r0, [r7, #4]
   return SysTick_Config(TicksNumb);
 8000ec6:	6878      	ldr	r0, [r7, #4]
 8000ec8:	f7ff ffa2 	bl	8000e10 <SysTick_Config>
 8000ecc:	4603      	mov	r3, r0
}
 8000ece:	4618      	mov	r0, r3
 8000ed0:	3708      	adds	r7, #8
 8000ed2:	46bd      	mov	sp, r7
 8000ed4:	bd80      	pop	{r7, pc}
	...

08000ed8 <HAL_DMA_Abort_IT>:
  * @param  hdma  : pointer to a DMA_HandleTypeDef structure that contains
  *                 the configuration information for the specified DMA Channel.
  * @retval HAL status
  */
HAL_StatusTypeDef HAL_DMA_Abort_IT(DMA_HandleTypeDef *hdma)
{  
 8000ed8:	b580      	push	{r7, lr}
 8000eda:	b084      	sub	sp, #16
 8000edc:	af00      	add	r7, sp, #0
 8000ede:	6078      	str	r0, [r7, #4]
  HAL_StatusTypeDef status = HAL_OK;
 8000ee0:	2300      	movs	r3, #0
 8000ee2:	73fb      	strb	r3, [r7, #15]
  
  if(HAL_DMA_STATE_BUSY != hdma->State)
 8000ee4:	687b      	ldr	r3, [r7, #4]
 8000ee6:	f893 3021 	ldrb.w	r3, [r3, #33]	; 0x21
 8000eea:	2b02      	cmp	r3, #2
 8000eec:	d005      	beq.n	8000efa <HAL_DMA_Abort_IT+0x22>
  {
    /* no transfer ongoing */
    hdma->ErrorCode = HAL_DMA_ERROR_NO_XFER;
 8000eee:	687b      	ldr	r3, [r7, #4]
 8000ef0:	2204      	movs	r2, #4
 8000ef2:	639a      	str	r2, [r3, #56]	; 0x38
        
    status = HAL_ERROR;
 8000ef4:	2301      	movs	r3, #1
 8000ef6:	73fb      	strb	r3, [r7, #15]
 8000ef8:	e051      	b.n	8000f9e <HAL_DMA_Abort_IT+0xc6>
  }
  else
  { 
    /* Disable DMA IT */
    __HAL_DMA_DISABLE_IT(hdma, (DMA_IT_TC | DMA_IT_HT | DMA_IT_TE));
 8000efa:	687b      	ldr	r3, [r7, #4]
 8000efc:	681b      	ldr	r3, [r3, #0]
 8000efe:	681a      	ldr	r2, [r3, #0]
 8000f00:	687b      	ldr	r3, [r7, #4]
 8000f02:	681b      	ldr	r3, [r3, #0]
 8000f04:	f022 020e 	bic.w	r2, r2, #14
 8000f08:	601a      	str	r2, [r3, #0]

    /* Disable the channel */
    __HAL_DMA_DISABLE(hdma);
 8000f0a:	687b      	ldr	r3, [r7, #4]
 8000f0c:	681b      	ldr	r3, [r3, #0]
 8000f0e:	681a      	ldr	r2, [r3, #0]
 8000f10:	687b      	ldr	r3, [r7, #4]
 8000f12:	681b      	ldr	r3, [r3, #0]
 8000f14:	f022 0201 	bic.w	r2, r2, #1
 8000f18:	601a      	str	r2, [r3, #0]

    /* Clear all flags */
    __HAL_DMA_CLEAR_FLAG(hdma, __HAL_DMA_GET_GI_FLAG_INDEX(hdma));
 8000f1a:	687b      	ldr	r3, [r7, #4]
 8000f1c:	681b      	ldr	r3, [r3, #0]
 8000f1e:	4a22      	ldr	r2, [pc, #136]	; (8000fa8 <HAL_DMA_Abort_IT+0xd0>)
 8000f20:	4293      	cmp	r3, r2
 8000f22:	d029      	beq.n	8000f78 <HAL_DMA_Abort_IT+0xa0>
 8000f24:	687b      	ldr	r3, [r7, #4]
 8000f26:	681b      	ldr	r3, [r3, #0]
 8000f28:	4a20      	ldr	r2, [pc, #128]	; (8000fac <HAL_DMA_Abort_IT+0xd4>)
 8000f2a:	4293      	cmp	r3, r2
 8000f2c:	d022      	beq.n	8000f74 <HAL_DMA_Abort_IT+0x9c>
 8000f2e:	687b      	ldr	r3, [r7, #4]
 8000f30:	681b      	ldr	r3, [r3, #0]
 8000f32:	4a1f      	ldr	r2, [pc, #124]	; (8000fb0 <HAL_DMA_Abort_IT+0xd8>)
 8000f34:	4293      	cmp	r3, r2
 8000f36:	d01a      	beq.n	8000f6e <HAL_DMA_Abort_IT+0x96>
 8000f38:	687b      	ldr	r3, [r7, #4]
 8000f3a:	681b      	ldr	r3, [r3, #0]
 8000f3c:	4a1d      	ldr	r2, [pc, #116]	; (8000fb4 <HAL_DMA_Abort_IT+0xdc>)
 8000f3e:	4293      	cmp	r3, r2
 8000f40:	d012      	beq.n	8000f68 <HAL_DMA_Abort_IT+0x90>
 8000f42:	687b      	ldr	r3, [r7, #4]
 8000f44:	681b      	ldr	r3, [r3, #0]
 8000f46:	4a1c      	ldr	r2, [pc, #112]	; (8000fb8 <HAL_DMA_Abort_IT+0xe0>)
 8000f48:	4293      	cmp	r3, r2
 8000f4a:	d00a      	beq.n	8000f62 <HAL_DMA_Abort_IT+0x8a>
 8000f4c:	687b      	ldr	r3, [r7, #4]
 8000f4e:	681b      	ldr	r3, [r3, #0]
 8000f50:	4a1a      	ldr	r2, [pc, #104]	; (8000fbc <HAL_DMA_Abort_IT+0xe4>)
 8000f52:	4293      	cmp	r3, r2
 8000f54:	d102      	bne.n	8000f5c <HAL_DMA_Abort_IT+0x84>
 8000f56:	f44f 1380 	mov.w	r3, #1048576	; 0x100000
 8000f5a:	e00e      	b.n	8000f7a <HAL_DMA_Abort_IT+0xa2>
 8000f5c:	f04f 7380 	mov.w	r3, #16777216	; 0x1000000
 8000f60:	e00b      	b.n	8000f7a <HAL_DMA_Abort_IT+0xa2>
 8000f62:	f44f 3380 	mov.w	r3, #65536	; 0x10000
 8000f66:	e008      	b.n	8000f7a <HAL_DMA_Abort_IT+0xa2>
 8000f68:	f44f 5380 	mov.w	r3, #4096	; 0x1000
 8000f6c:	e005      	b.n	8000f7a <HAL_DMA_Abort_IT+0xa2>
 8000f6e:	f44f 7380 	mov.w	r3, #256	; 0x100
 8000f72:	e002      	b.n	8000f7a <HAL_DMA_Abort_IT+0xa2>
 8000f74:	2310      	movs	r3, #16
 8000f76:	e000      	b.n	8000f7a <HAL_DMA_Abort_IT+0xa2>
 8000f78:	2301      	movs	r3, #1
 8000f7a:	4a11      	ldr	r2, [pc, #68]	; (8000fc0 <HAL_DMA_Abort_IT+0xe8>)
 8000f7c:	6053      	str	r3, [r2, #4]

    /* Change the DMA state */
    hdma->State = HAL_DMA_STATE_READY;
 8000f7e:	687b      	ldr	r3, [r7, #4]
 8000f80:	2201      	movs	r2, #1
 8000f82:	f883 2021 	strb.w	r2, [r3, #33]	; 0x21

    /* Process Unlocked */
    __HAL_UNLOCK(hdma);
 8000f86:	687b      	ldr	r3, [r7, #4]
 8000f88:	2200      	movs	r2, #0
 8000f8a:	f883 2020 	strb.w	r2, [r3, #32]

    /* Call User Abort callback */
    if(hdma->XferAbortCallback != NULL)
 8000f8e:	687b      	ldr	r3, [r7, #4]
 8000f90:	6b5b      	ldr	r3, [r3, #52]	; 0x34
 8000f92:	2b00      	cmp	r3, #0
 8000f94:	d003      	beq.n	8000f9e <HAL_DMA_Abort_IT+0xc6>
    {
      hdma->XferAbortCallback(hdma);
 8000f96:	687b      	ldr	r3, [r7, #4]
 8000f98:	6b5b      	ldr	r3, [r3, #52]	; 0x34
 8000f9a:	6878      	ldr	r0, [r7, #4]
 8000f9c:	4798      	blx	r3
    } 
  }
  return status;
 8000f9e:	7bfb      	ldrb	r3, [r7, #15]
}
 8000fa0:	4618      	mov	r0, r3
 8000fa2:	3710      	adds	r7, #16
 8000fa4:	46bd      	mov	sp, r7
 8000fa6:	bd80      	pop	{r7, pc}
 8000fa8:	40020008 	.word	0x40020008
 8000fac:	4002001c 	.word	0x4002001c
 8000fb0:	40020030 	.word	0x40020030
 8000fb4:	40020044 	.word	0x40020044
 8000fb8:	40020058 	.word	0x40020058
 8000fbc:	4002006c 	.word	0x4002006c
 8000fc0:	40020000 	.word	0x40020000

08000fc4 <HAL_GPIO_Init>:
  * @param  GPIO_Init: pointer to a GPIO_InitTypeDef structure that contains
  *         the configuration information for the specified GPIO peripheral.
  * @retval None
  */
void HAL_GPIO_Init(GPIO_TypeDef  *GPIOx, GPIO_InitTypeDef *GPIO_Init)
{
 8000fc4:	b480      	push	{r7}
 8000fc6:	b08b      	sub	sp, #44	; 0x2c
 8000fc8:	af00      	add	r7, sp, #0
 8000fca:	6078      	str	r0, [r7, #4]
 8000fcc:	6039      	str	r1, [r7, #0]
  uint32_t position = 0x00u;
 8000fce:	2300      	movs	r3, #0
 8000fd0:	627b      	str	r3, [r7, #36]	; 0x24
  uint32_t ioposition;
  uint32_t iocurrent;
  uint32_t temp;
  uint32_t config = 0x00u;
 8000fd2:	2300      	movs	r3, #0
 8000fd4:	623b      	str	r3, [r7, #32]
  assert_param(IS_GPIO_ALL_INSTANCE(GPIOx));
  assert_param(IS_GPIO_PIN(GPIO_Init->Pin));
  assert_param(IS_GPIO_MODE(GPIO_Init->Mode));

  /* Configure the port pins */
  while (((GPIO_Init->Pin) >> position) != 0x00u)
 8000fd6:	e169      	b.n	80012ac <HAL_GPIO_Init+0x2e8>
  {
    /* Get the IO position */
    ioposition = (0x01uL << position);
 8000fd8:	2201      	movs	r2, #1
 8000fda:	6a7b      	ldr	r3, [r7, #36]	; 0x24
 8000fdc:	fa02 f303 	lsl.w	r3, r2, r3
 8000fe0:	61fb      	str	r3, [r7, #28]

    /* Get the current IO position */
    iocurrent = (uint32_t)(GPIO_Init->Pin) & ioposition;
 8000fe2:	683b      	ldr	r3, [r7, #0]
 8000fe4:	681b      	ldr	r3, [r3, #0]
 8000fe6:	69fa      	ldr	r2, [r7, #28]
 8000fe8:	4013      	ands	r3, r2
 8000fea:	61bb      	str	r3, [r7, #24]

    if (iocurrent == ioposition)
 8000fec:	69ba      	ldr	r2, [r7, #24]
 8000fee:	69fb      	ldr	r3, [r7, #28]
 8000ff0:	429a      	cmp	r2, r3
 8000ff2:	f040 8158 	bne.w	80012a6 <HAL_GPIO_Init+0x2e2>
    {
      /* Check the Alternate function parameters */
      assert_param(IS_GPIO_AF_INSTANCE(GPIOx));

      /* Based on the required mode, filling config variable with MODEy[1:0] and CNFy[3:2] corresponding bits */
      switch (GPIO_Init->Mode)
 8000ff6:	683b      	ldr	r3, [r7, #0]
 8000ff8:	685b      	ldr	r3, [r3, #4]
 8000ffa:	4a9a      	ldr	r2, [pc, #616]	; (8001264 <HAL_GPIO_Init+0x2a0>)
 8000ffc:	4293      	cmp	r3, r2
 8000ffe:	d05e      	beq.n	80010be <HAL_GPIO_Init+0xfa>
 8001000:	4a98      	ldr	r2, [pc, #608]	; (8001264 <HAL_GPIO_Init+0x2a0>)
 8001002:	4293      	cmp	r3, r2
 8001004:	d875      	bhi.n	80010f2 <HAL_GPIO_Init+0x12e>
 8001006:	4a98      	ldr	r2, [pc, #608]	; (8001268 <HAL_GPIO_Init+0x2a4>)
 8001008:	4293      	cmp	r3, r2
 800100a:	d058      	beq.n	80010be <HAL_GPIO_Init+0xfa>
 800100c:	4a96      	ldr	r2, [pc, #600]	; (8001268 <HAL_GPIO_Init+0x2a4>)
 800100e:	4293      	cmp	r3, r2
 8001010:	d86f      	bhi.n	80010f2 <HAL_GPIO_Init+0x12e>
 8001012:	4a96      	ldr	r2, [pc, #600]	; (800126c <HAL_GPIO_Init+0x2a8>)
 8001014:	4293      	cmp	r3, r2
 8001016:	d052      	beq.n	80010be <HAL_GPIO_Init+0xfa>
 8001018:	4a94      	ldr	r2, [pc, #592]	; (800126c <HAL_GPIO_Init+0x2a8>)
 800101a:	4293      	cmp	r3, r2
 800101c:	d869      	bhi.n	80010f2 <HAL_GPIO_Init+0x12e>
 800101e:	4a94      	ldr	r2, [pc, #592]	; (8001270 <HAL_GPIO_Init+0x2ac>)
 8001020:	4293      	cmp	r3, r2
 8001022:	d04c      	beq.n	80010be <HAL_GPIO_Init+0xfa>
 8001024:	4a92      	ldr	r2, [pc, #584]	; (8001270 <HAL_GPIO_Init+0x2ac>)
 8001026:	4293      	cmp	r3, r2
 8001028:	d863      	bhi.n	80010f2 <HAL_GPIO_Init+0x12e>
 800102a:	4a92      	ldr	r2, [pc, #584]	; (8001274 <HAL_GPIO_Init+0x2b0>)
 800102c:	4293      	cmp	r3, r2
 800102e:	d046      	beq.n	80010be <HAL_GPIO_Init+0xfa>
 8001030:	4a90      	ldr	r2, [pc, #576]	; (8001274 <HAL_GPIO_Init+0x2b0>)
 8001032:	4293      	cmp	r3, r2
 8001034:	d85d      	bhi.n	80010f2 <HAL_GPIO_Init+0x12e>
 8001036:	2b12      	cmp	r3, #18
 8001038:	d82a      	bhi.n	8001090 <HAL_GPIO_Init+0xcc>
 800103a:	2b12      	cmp	r3, #18
 800103c:	d859      	bhi.n	80010f2 <HAL_GPIO_Init+0x12e>
 800103e:	a201      	add	r2, pc, #4	; (adr r2, 8001044 <HAL_GPIO_Init+0x80>)
 8001040:	f852 f023 	ldr.w	pc, [r2, r3, lsl #2]
 8001044:	080010bf 	.word	0x080010bf
 8001048:	08001099 	.word	0x08001099
 800104c:	080010ab 	.word	0x080010ab
 8001050:	080010ed 	.word	0x080010ed
 8001054:	080010f3 	.word	0x080010f3
 8001058:	080010f3 	.word	0x080010f3
 800105c:	080010f3 	.word	0x080010f3
 8001060:	080010f3 	.word	0x080010f3
 8001064:	080010f3 	.word	0x080010f3
 8001068:	080010f3 	.word	0x080010f3
 800106c:	080010f3 	.word	0x080010f3
 8001070:	080010f3 	.word	0x080010f3
 8001074:	080010f3 	.word	0x080010f3
 8001078:	080010f3 	.word	0x080010f3
 800107c:	080010f3 	.word	0x080010f3
 8001080:	080010f3 	.word	0x080010f3
 8001084:	080010f3 	.word	0x080010f3
 8001088:	080010a1 	.word	0x080010a1
 800108c:	080010b5 	.word	0x080010b5
 8001090:	4a79      	ldr	r2, [pc, #484]	; (8001278 <HAL_GPIO_Init+0x2b4>)
 8001092:	4293      	cmp	r3, r2
 8001094:	d013      	beq.n	80010be <HAL_GPIO_Init+0xfa>
          config = GPIO_CR_MODE_INPUT + GPIO_CR_CNF_ANALOG;
          break;

        /* Parameters are checked with assert_param */
        default:
          break;
 8001096:	e02c      	b.n	80010f2 <HAL_GPIO_Init+0x12e>
          config = GPIO_Init->Speed + GPIO_CR_CNF_GP_OUTPUT_PP;
 8001098:	683b      	ldr	r3, [r7, #0]
 800109a:	68db      	ldr	r3, [r3, #12]
 800109c:	623b      	str	r3, [r7, #32]
          break;
 800109e:	e029      	b.n	80010f4 <HAL_GPIO_Init+0x130>
          config = GPIO_Init->Speed + GPIO_CR_CNF_GP_OUTPUT_OD;
 80010a0:	683b      	ldr	r3, [r7, #0]
 80010a2:	68db      	ldr	r3, [r3, #12]
 80010a4:	3304      	adds	r3, #4
 80010a6:	623b      	str	r3, [r7, #32]
          break;
 80010a8:	e024      	b.n	80010f4 <HAL_GPIO_Init+0x130>
          config = GPIO_Init->Speed + GPIO_CR_CNF_AF_OUTPUT_PP;
 80010aa:	683b      	ldr	r3, [r7, #0]
 80010ac:	68db      	ldr	r3, [r3, #12]
 80010ae:	3308      	adds	r3, #8
 80010b0:	623b      	str	r3, [r7, #32]
          break;
 80010b2:	e01f      	b.n	80010f4 <HAL_GPIO_Init+0x130>
          config = GPIO_Init->Speed + GPIO_CR_CNF_AF_OUTPUT_OD;
 80010b4:	683b      	ldr	r3, [r7, #0]
 80010b6:	68db      	ldr	r3, [r3, #12]
 80010b8:	330c      	adds	r3, #12
 80010ba:	623b      	str	r3, [r7, #32]
          break;
 80010bc:	e01a      	b.n	80010f4 <HAL_GPIO_Init+0x130>
          if (GPIO_Init->Pull == GPIO_NOPULL)
 80010be:	683b      	ldr	r3, [r7, #0]
 80010c0:	689b      	ldr	r3, [r3, #8]
 80010c2:	2b00      	cmp	r3, #0
 80010c4:	d102      	bne.n	80010cc <HAL_GPIO_Init+0x108>
            config = GPIO_CR_MODE_INPUT + GPIO_CR_CNF_INPUT_FLOATING;
 80010c6:	2304      	movs	r3, #4
 80010c8:	623b      	str	r3, [r7, #32]
          break;
 80010ca:	e013      	b.n	80010f4 <HAL_GPIO_Init+0x130>
          else if (GPIO_Init->Pull == GPIO_PULLUP)
 80010cc:	683b      	ldr	r3, [r7, #0]
 80010ce:	689b      	ldr	r3, [r3, #8]
 80010d0:	2b01      	cmp	r3, #1
 80010d2:	d105      	bne.n	80010e0 <HAL_GPIO_Init+0x11c>
            config = GPIO_CR_MODE_INPUT + GPIO_CR_CNF_INPUT_PU_PD;
 80010d4:	2308      	movs	r3, #8
 80010d6:	623b      	str	r3, [r7, #32]
            GPIOx->BSRR = ioposition;
 80010d8:	687b      	ldr	r3, [r7, #4]
 80010da:	69fa      	ldr	r2, [r7, #28]
 80010dc:	611a      	str	r2, [r3, #16]
          break;
 80010de:	e009      	b.n	80010f4 <HAL_GPIO_Init+0x130>
            config = GPIO_CR_MODE_INPUT + GPIO_CR_CNF_INPUT_PU_PD;
 80010e0:	2308      	movs	r3, #8
 80010e2:	623b      	str	r3, [r7, #32]
            GPIOx->BRR = ioposition;
 80010e4:	687b      	ldr	r3, [r7, #4]
 80010e6:	69fa      	ldr	r2, [r7, #28]
 80010e8:	615a      	str	r2, [r3, #20]
          break;
 80010ea:	e003      	b.n	80010f4 <HAL_GPIO_Init+0x130>
          config = GPIO_CR_MODE_INPUT + GPIO_CR_CNF_ANALOG;
 80010ec:	2300      	movs	r3, #0
 80010ee:	623b      	str	r3, [r7, #32]
          break;
 80010f0:	e000      	b.n	80010f4 <HAL_GPIO_Init+0x130>
          break;
 80010f2:	bf00      	nop
      }

      /* Check if the current bit belongs to first half or last half of the pin count number
       in order to address CRH or CRL register*/
      configregister = (iocurrent < GPIO_PIN_8) ? &GPIOx->CRL     : &GPIOx->CRH;
 80010f4:	69bb      	ldr	r3, [r7, #24]
 80010f6:	2bff      	cmp	r3, #255	; 0xff
 80010f8:	d801      	bhi.n	80010fe <HAL_GPIO_Init+0x13a>
 80010fa:	687b      	ldr	r3, [r7, #4]
 80010fc:	e001      	b.n	8001102 <HAL_GPIO_Init+0x13e>
 80010fe:	687b      	ldr	r3, [r7, #4]
 8001100:	3304      	adds	r3, #4
 8001102:	617b      	str	r3, [r7, #20]
      registeroffset = (iocurrent < GPIO_PIN_8) ? (position << 2u) : ((position - 8u) << 2u);
 8001104:	69bb      	ldr	r3, [r7, #24]
 8001106:	2bff      	cmp	r3, #255	; 0xff
 8001108:	d802      	bhi.n	8001110 <HAL_GPIO_Init+0x14c>
 800110a:	6a7b      	ldr	r3, [r7, #36]	; 0x24
 800110c:	009b      	lsls	r3, r3, #2
 800110e:	e002      	b.n	8001116 <HAL_GPIO_Init+0x152>
 8001110:	6a7b      	ldr	r3, [r7, #36]	; 0x24
 8001112:	3b08      	subs	r3, #8
 8001114:	009b      	lsls	r3, r3, #2
 8001116:	613b      	str	r3, [r7, #16]

      /* Apply the new configuration of the pin to the register */
      MODIFY_REG((*configregister), ((GPIO_CRL_MODE0 | GPIO_CRL_CNF0) << registeroffset), (config << registeroffset));
 8001118:	697b      	ldr	r3, [r7, #20]
 800111a:	681a      	ldr	r2, [r3, #0]
 800111c:	210f      	movs	r1, #15
 800111e:	693b      	ldr	r3, [r7, #16]
 8001120:	fa01 f303 	lsl.w	r3, r1, r3
 8001124:	43db      	mvns	r3, r3
 8001126:	401a      	ands	r2, r3
 8001128:	6a39      	ldr	r1, [r7, #32]
 800112a:	693b      	ldr	r3, [r7, #16]
 800112c:	fa01 f303 	lsl.w	r3, r1, r3
 8001130:	431a      	orrs	r2, r3
 8001132:	697b      	ldr	r3, [r7, #20]
 8001134:	601a      	str	r2, [r3, #0]

      /*--------------------- EXTI Mode Configuration ------------------------*/
      /* Configure the External Interrupt or event for the current IO */
      if ((GPIO_Init->Mode & EXTI_MODE) == EXTI_MODE)
 8001136:	683b      	ldr	r3, [r7, #0]
 8001138:	685b      	ldr	r3, [r3, #4]
 800113a:	f003 5380 	and.w	r3, r3, #268435456	; 0x10000000
 800113e:	2b00      	cmp	r3, #0
 8001140:	f000 80b1 	beq.w	80012a6 <HAL_GPIO_Init+0x2e2>
      {
        /* Enable AFIO Clock */
        __HAL_RCC_AFIO_CLK_ENABLE();
 8001144:	4b4d      	ldr	r3, [pc, #308]	; (800127c <HAL_GPIO_Init+0x2b8>)
 8001146:	699b      	ldr	r3, [r3, #24]
 8001148:	4a4c      	ldr	r2, [pc, #304]	; (800127c <HAL_GPIO_Init+0x2b8>)
 800114a:	f043 0301 	orr.w	r3, r3, #1
 800114e:	6193      	str	r3, [r2, #24]
 8001150:	4b4a      	ldr	r3, [pc, #296]	; (800127c <HAL_GPIO_Init+0x2b8>)
 8001152:	699b      	ldr	r3, [r3, #24]
 8001154:	f003 0301 	and.w	r3, r3, #1
 8001158:	60bb      	str	r3, [r7, #8]
 800115a:	68bb      	ldr	r3, [r7, #8]
        temp = AFIO->EXTICR[position >> 2u];
 800115c:	4a48      	ldr	r2, [pc, #288]	; (8001280 <HAL_GPIO_Init+0x2bc>)
 800115e:	6a7b      	ldr	r3, [r7, #36]	; 0x24
 8001160:	089b      	lsrs	r3, r3, #2
 8001162:	3302      	adds	r3, #2
 8001164:	f852 3023 	ldr.w	r3, [r2, r3, lsl #2]
 8001168:	60fb      	str	r3, [r7, #12]
        CLEAR_BIT(temp, (0x0Fu) << (4u * (position & 0x03u)));
 800116a:	6a7b      	ldr	r3, [r7, #36]	; 0x24
 800116c:	f003 0303 	and.w	r3, r3, #3
 8001170:	009b      	lsls	r3, r3, #2
 8001172:	220f      	movs	r2, #15
 8001174:	fa02 f303 	lsl.w	r3, r2, r3
 8001178:	43db      	mvns	r3, r3
 800117a:	68fa      	ldr	r2, [r7, #12]
 800117c:	4013      	ands	r3, r2
 800117e:	60fb      	str	r3, [r7, #12]
        SET_BIT(temp, (GPIO_GET_INDEX(GPIOx)) << (4u * (position & 0x03u)));
 8001180:	687b      	ldr	r3, [r7, #4]
 8001182:	4a40      	ldr	r2, [pc, #256]	; (8001284 <HAL_GPIO_Init+0x2c0>)
 8001184:	4293      	cmp	r3, r2
 8001186:	d013      	beq.n	80011b0 <HAL_GPIO_Init+0x1ec>
 8001188:	687b      	ldr	r3, [r7, #4]
 800118a:	4a3f      	ldr	r2, [pc, #252]	; (8001288 <HAL_GPIO_Init+0x2c4>)
 800118c:	4293      	cmp	r3, r2
 800118e:	d00d      	beq.n	80011ac <HAL_GPIO_Init+0x1e8>
 8001190:	687b      	ldr	r3, [r7, #4]
 8001192:	4a3e      	ldr	r2, [pc, #248]	; (800128c <HAL_GPIO_Init+0x2c8>)
 8001194:	4293      	cmp	r3, r2
 8001196:	d007      	beq.n	80011a8 <HAL_GPIO_Init+0x1e4>
 8001198:	687b      	ldr	r3, [r7, #4]
 800119a:	4a3d      	ldr	r2, [pc, #244]	; (8001290 <HAL_GPIO_Init+0x2cc>)
 800119c:	4293      	cmp	r3, r2
 800119e:	d101      	bne.n	80011a4 <HAL_GPIO_Init+0x1e0>
 80011a0:	2303      	movs	r3, #3
 80011a2:	e006      	b.n	80011b2 <HAL_GPIO_Init+0x1ee>
 80011a4:	2304      	movs	r3, #4
 80011a6:	e004      	b.n	80011b2 <HAL_GPIO_Init+0x1ee>
 80011a8:	2302      	movs	r3, #2
 80011aa:	e002      	b.n	80011b2 <HAL_GPIO_Init+0x1ee>
 80011ac:	2301      	movs	r3, #1
 80011ae:	e000      	b.n	80011b2 <HAL_GPIO_Init+0x1ee>
 80011b0:	2300      	movs	r3, #0
 80011b2:	6a7a      	ldr	r2, [r7, #36]	; 0x24
 80011b4:	f002 0203 	and.w	r2, r2, #3
 80011b8:	0092      	lsls	r2, r2, #2
 80011ba:	4093      	lsls	r3, r2
 80011bc:	68fa      	ldr	r2, [r7, #12]
 80011be:	4313      	orrs	r3, r2
 80011c0:	60fb      	str	r3, [r7, #12]
        AFIO->EXTICR[position >> 2u] = temp;
 80011c2:	492f      	ldr	r1, [pc, #188]	; (8001280 <HAL_GPIO_Init+0x2bc>)
 80011c4:	6a7b      	ldr	r3, [r7, #36]	; 0x24
 80011c6:	089b      	lsrs	r3, r3, #2
 80011c8:	3302      	adds	r3, #2
 80011ca:	68fa      	ldr	r2, [r7, #12]
 80011cc:	f841 2023 	str.w	r2, [r1, r3, lsl #2]


        /* Configure the interrupt mask */
        if ((GPIO_Init->Mode & GPIO_MODE_IT) == GPIO_MODE_IT)
 80011d0:	683b      	ldr	r3, [r7, #0]
 80011d2:	685b      	ldr	r3, [r3, #4]
 80011d4:	f403 3380 	and.w	r3, r3, #65536	; 0x10000
 80011d8:	2b00      	cmp	r3, #0
 80011da:	d006      	beq.n	80011ea <HAL_GPIO_Init+0x226>
        {
          SET_BIT(EXTI->IMR, iocurrent);
 80011dc:	4b2d      	ldr	r3, [pc, #180]	; (8001294 <HAL_GPIO_Init+0x2d0>)
 80011de:	681a      	ldr	r2, [r3, #0]
 80011e0:	492c      	ldr	r1, [pc, #176]	; (8001294 <HAL_GPIO_Init+0x2d0>)
 80011e2:	69bb      	ldr	r3, [r7, #24]
 80011e4:	4313      	orrs	r3, r2
 80011e6:	600b      	str	r3, [r1, #0]
 80011e8:	e006      	b.n	80011f8 <HAL_GPIO_Init+0x234>
        }
        else
        {
          CLEAR_BIT(EXTI->IMR, iocurrent);
 80011ea:	4b2a      	ldr	r3, [pc, #168]	; (8001294 <HAL_GPIO_Init+0x2d0>)
 80011ec:	681a      	ldr	r2, [r3, #0]
 80011ee:	69bb      	ldr	r3, [r7, #24]
 80011f0:	43db      	mvns	r3, r3
 80011f2:	4928      	ldr	r1, [pc, #160]	; (8001294 <HAL_GPIO_Init+0x2d0>)
 80011f4:	4013      	ands	r3, r2
 80011f6:	600b      	str	r3, [r1, #0]
        }

        /* Configure the event mask */
        if ((GPIO_Init->Mode & GPIO_MODE_EVT) == GPIO_MODE_EVT)
 80011f8:	683b      	ldr	r3, [r7, #0]
 80011fa:	685b      	ldr	r3, [r3, #4]
 80011fc:	f403 3300 	and.w	r3, r3, #131072	; 0x20000
 8001200:	2b00      	cmp	r3, #0
 8001202:	d006      	beq.n	8001212 <HAL_GPIO_Init+0x24e>
        {
          SET_BIT(EXTI->EMR, iocurrent);
 8001204:	4b23      	ldr	r3, [pc, #140]	; (8001294 <HAL_GPIO_Init+0x2d0>)
 8001206:	685a      	ldr	r2, [r3, #4]
 8001208:	4922      	ldr	r1, [pc, #136]	; (8001294 <HAL_GPIO_Init+0x2d0>)
 800120a:	69bb      	ldr	r3, [r7, #24]
 800120c:	4313      	orrs	r3, r2
 800120e:	604b      	str	r3, [r1, #4]
 8001210:	e006      	b.n	8001220 <HAL_GPIO_Init+0x25c>
        }
        else
        {
          CLEAR_BIT(EXTI->EMR, iocurrent);
 8001212:	4b20      	ldr	r3, [pc, #128]	; (8001294 <HAL_GPIO_Init+0x2d0>)
 8001214:	685a      	ldr	r2, [r3, #4]
 8001216:	69bb      	ldr	r3, [r7, #24]
 8001218:	43db      	mvns	r3, r3
 800121a:	491e      	ldr	r1, [pc, #120]	; (8001294 <HAL_GPIO_Init+0x2d0>)
 800121c:	4013      	ands	r3, r2
 800121e:	604b      	str	r3, [r1, #4]
        }

        /* Enable or disable the rising trigger */
        if ((GPIO_Init->Mode & RISING_EDGE) == RISING_EDGE)
 8001220:	683b      	ldr	r3, [r7, #0]
 8001222:	685b      	ldr	r3, [r3, #4]
 8001224:	f403 1380 	and.w	r3, r3, #1048576	; 0x100000
 8001228:	2b00      	cmp	r3, #0
 800122a:	d006      	beq.n	800123a <HAL_GPIO_Init+0x276>
        {
          SET_BIT(EXTI->RTSR, iocurrent);
 800122c:	4b19      	ldr	r3, [pc, #100]	; (8001294 <HAL_GPIO_Init+0x2d0>)
 800122e:	689a      	ldr	r2, [r3, #8]
 8001230:	4918      	ldr	r1, [pc, #96]	; (8001294 <HAL_GPIO_Init+0x2d0>)
 8001232:	69bb      	ldr	r3, [r7, #24]
 8001234:	4313      	orrs	r3, r2
 8001236:	608b      	str	r3, [r1, #8]
 8001238:	e006      	b.n	8001248 <HAL_GPIO_Init+0x284>
        }
        else
        {
          CLEAR_BIT(EXTI->RTSR, iocurrent);
 800123a:	4b16      	ldr	r3, [pc, #88]	; (8001294 <HAL_GPIO_Init+0x2d0>)
 800123c:	689a      	ldr	r2, [r3, #8]
 800123e:	69bb      	ldr	r3, [r7, #24]
 8001240:	43db      	mvns	r3, r3
 8001242:	4914      	ldr	r1, [pc, #80]	; (8001294 <HAL_GPIO_Init+0x2d0>)
 8001244:	4013      	ands	r3, r2
 8001246:	608b      	str	r3, [r1, #8]
        }

        /* Enable or disable the falling trigger */
        if ((GPIO_Init->Mode & FALLING_EDGE) == FALLING_EDGE)
 8001248:	683b      	ldr	r3, [r7, #0]
 800124a:	685b      	ldr	r3, [r3, #4]
 800124c:	f403 1300 	and.w	r3, r3, #2097152	; 0x200000
 8001250:	2b00      	cmp	r3, #0
 8001252:	d021      	beq.n	8001298 <HAL_GPIO_Init+0x2d4>
        {
          SET_BIT(EXTI->FTSR, iocurrent);
 8001254:	4b0f      	ldr	r3, [pc, #60]	; (8001294 <HAL_GPIO_Init+0x2d0>)
 8001256:	68da      	ldr	r2, [r3, #12]
 8001258:	490e      	ldr	r1, [pc, #56]	; (8001294 <HAL_GPIO_Init+0x2d0>)
 800125a:	69bb      	ldr	r3, [r7, #24]
 800125c:	4313      	orrs	r3, r2
 800125e:	60cb      	str	r3, [r1, #12]
 8001260:	e021      	b.n	80012a6 <HAL_GPIO_Init+0x2e2>
 8001262:	bf00      	nop
 8001264:	10320000 	.word	0x10320000
 8001268:	10310000 	.word	0x10310000
 800126c:	10220000 	.word	0x10220000
 8001270:	10210000 	.word	0x10210000
 8001274:	10120000 	.word	0x10120000
 8001278:	10110000 	.word	0x10110000
 800127c:	40021000 	.word	0x40021000
 8001280:	40010000 	.word	0x40010000
 8001284:	40010800 	.word	0x40010800
 8001288:	40010c00 	.word	0x40010c00
 800128c:	40011000 	.word	0x40011000
 8001290:	40011400 	.word	0x40011400
 8001294:	40010400 	.word	0x40010400
        }
        else
        {
          CLEAR_BIT(EXTI->FTSR, iocurrent);
 8001298:	4b0b      	ldr	r3, [pc, #44]	; (80012c8 <HAL_GPIO_Init+0x304>)
 800129a:	68da      	ldr	r2, [r3, #12]
 800129c:	69bb      	ldr	r3, [r7, #24]
 800129e:	43db      	mvns	r3, r3
 80012a0:	4909      	ldr	r1, [pc, #36]	; (80012c8 <HAL_GPIO_Init+0x304>)
 80012a2:	4013      	ands	r3, r2
 80012a4:	60cb      	str	r3, [r1, #12]
        }
      }
    }

	position++;
 80012a6:	6a7b      	ldr	r3, [r7, #36]	; 0x24
 80012a8:	3301      	adds	r3, #1
 80012aa:	627b      	str	r3, [r7, #36]	; 0x24
  while (((GPIO_Init->Pin) >> position) != 0x00u)
 80012ac:	683b      	ldr	r3, [r7, #0]
 80012ae:	681a      	ldr	r2, [r3, #0]
 80012b0:	6a7b      	ldr	r3, [r7, #36]	; 0x24
 80012b2:	fa22 f303 	lsr.w	r3, r2, r3
 80012b6:	2b00      	cmp	r3, #0
 80012b8:	f47f ae8e 	bne.w	8000fd8 <HAL_GPIO_Init+0x14>
  }
}
 80012bc:	bf00      	nop
 80012be:	bf00      	nop
 80012c0:	372c      	adds	r7, #44	; 0x2c
 80012c2:	46bd      	mov	sp, r7
 80012c4:	bc80      	pop	{r7}
 80012c6:	4770      	bx	lr
 80012c8:	40010400 	.word	0x40010400

080012cc <HAL_I2C_Init>:
  * @param  hi2c Pointer to a I2C_HandleTypeDef structure that contains
  *                the configuration information for the specified I2C.
  * @retval HAL status
  */
HAL_StatusTypeDef HAL_I2C_Init(I2C_HandleTypeDef *hi2c)
{
 80012cc:	b580      	push	{r7, lr}
 80012ce:	b084      	sub	sp, #16
 80012d0:	af00      	add	r7, sp, #0
 80012d2:	6078      	str	r0, [r7, #4]
  uint32_t freqrange;
  uint32_t pclk1;

  /* Check the I2C handle allocation */
  if (hi2c == NULL)
 80012d4:	687b      	ldr	r3, [r7, #4]
 80012d6:	2b00      	cmp	r3, #0
 80012d8:	d101      	bne.n	80012de <HAL_I2C_Init+0x12>
  {
    return HAL_ERROR;
 80012da:	2301      	movs	r3, #1
 80012dc:	e12b      	b.n	8001536 <HAL_I2C_Init+0x26a>
  assert_param(IS_I2C_DUAL_ADDRESS(hi2c->Init.DualAddressMode));
  assert_param(IS_I2C_OWN_ADDRESS2(hi2c->Init.OwnAddress2));
  assert_param(IS_I2C_GENERAL_CALL(hi2c->Init.GeneralCallMode));
  assert_param(IS_I2C_NO_STRETCH(hi2c->Init.NoStretchMode));

  if (hi2c->State == HAL_I2C_STATE_RESET)
 80012de:	687b      	ldr	r3, [r7, #4]
 80012e0:	f893 303d 	ldrb.w	r3, [r3, #61]	; 0x3d
 80012e4:	b2db      	uxtb	r3, r3
 80012e6:	2b00      	cmp	r3, #0
 80012e8:	d106      	bne.n	80012f8 <HAL_I2C_Init+0x2c>
  {
    /* Allocate lock resource and initialize it */
    hi2c->Lock = HAL_UNLOCKED;
 80012ea:	687b      	ldr	r3, [r7, #4]
 80012ec:	2200      	movs	r2, #0
 80012ee:	f883 203c 	strb.w	r2, [r3, #60]	; 0x3c

    /* Init the low level hardware : GPIO, CLOCK, NVIC */
    hi2c->MspInitCallback(hi2c);
#else
    /* Init the low level hardware : GPIO, CLOCK, NVIC */
    HAL_I2C_MspInit(hi2c);
 80012f2:	6878      	ldr	r0, [r7, #4]
 80012f4:	f7ff fb6a 	bl	80009cc <HAL_I2C_MspInit>
#endif /* USE_HAL_I2C_REGISTER_CALLBACKS */
  }

  hi2c->State = HAL_I2C_STATE_BUSY;
 80012f8:	687b      	ldr	r3, [r7, #4]
 80012fa:	2224      	movs	r2, #36	; 0x24
 80012fc:	f883 203d 	strb.w	r2, [r3, #61]	; 0x3d

  /* Disable the selected I2C peripheral */
  __HAL_I2C_DISABLE(hi2c);
 8001300:	687b      	ldr	r3, [r7, #4]
 8001302:	681b      	ldr	r3, [r3, #0]
 8001304:	681a      	ldr	r2, [r3, #0]
 8001306:	687b      	ldr	r3, [r7, #4]
 8001308:	681b      	ldr	r3, [r3, #0]
 800130a:	f022 0201 	bic.w	r2, r2, #1
 800130e:	601a      	str	r2, [r3, #0]

  /*Reset I2C*/
  hi2c->Instance->CR1 |= I2C_CR1_SWRST;
 8001310:	687b      	ldr	r3, [r7, #4]
 8001312:	681b      	ldr	r3, [r3, #0]
 8001314:	681a      	ldr	r2, [r3, #0]
 8001316:	687b      	ldr	r3, [r7, #4]
 8001318:	681b      	ldr	r3, [r3, #0]
 800131a:	f442 4200 	orr.w	r2, r2, #32768	; 0x8000
 800131e:	601a      	str	r2, [r3, #0]
  hi2c->Instance->CR1 &= ~I2C_CR1_SWRST;
 8001320:	687b      	ldr	r3, [r7, #4]
 8001322:	681b      	ldr	r3, [r3, #0]
 8001324:	681a      	ldr	r2, [r3, #0]
 8001326:	687b      	ldr	r3, [r7, #4]
 8001328:	681b      	ldr	r3, [r3, #0]
 800132a:	f422 4200 	bic.w	r2, r2, #32768	; 0x8000
 800132e:	601a      	str	r2, [r3, #0]

  /* Get PCLK1 frequency */
  pclk1 = HAL_RCC_GetPCLK1Freq();
 8001330:	f001 fb6e 	bl	8002a10 <HAL_RCC_GetPCLK1Freq>
 8001334:	60f8      	str	r0, [r7, #12]

  /* Check the minimum allowed PCLK1 frequency */
  if (I2C_MIN_PCLK_FREQ(pclk1, hi2c->Init.ClockSpeed) == 1U)
 8001336:	687b      	ldr	r3, [r7, #4]
 8001338:	685b      	ldr	r3, [r3, #4]
 800133a:	4a81      	ldr	r2, [pc, #516]	; (8001540 <HAL_I2C_Init+0x274>)
 800133c:	4293      	cmp	r3, r2
 800133e:	d807      	bhi.n	8001350 <HAL_I2C_Init+0x84>
 8001340:	68fb      	ldr	r3, [r7, #12]
 8001342:	4a80      	ldr	r2, [pc, #512]	; (8001544 <HAL_I2C_Init+0x278>)
 8001344:	4293      	cmp	r3, r2
 8001346:	bf94      	ite	ls
 8001348:	2301      	movls	r3, #1
 800134a:	2300      	movhi	r3, #0
 800134c:	b2db      	uxtb	r3, r3
 800134e:	e006      	b.n	800135e <HAL_I2C_Init+0x92>
 8001350:	68fb      	ldr	r3, [r7, #12]
 8001352:	4a7d      	ldr	r2, [pc, #500]	; (8001548 <HAL_I2C_Init+0x27c>)
 8001354:	4293      	cmp	r3, r2
 8001356:	bf94      	ite	ls
 8001358:	2301      	movls	r3, #1
 800135a:	2300      	movhi	r3, #0
 800135c:	b2db      	uxtb	r3, r3
 800135e:	2b00      	cmp	r3, #0
 8001360:	d001      	beq.n	8001366 <HAL_I2C_Init+0x9a>
  {
    return HAL_ERROR;
 8001362:	2301      	movs	r3, #1
 8001364:	e0e7      	b.n	8001536 <HAL_I2C_Init+0x26a>
  }

  /* Calculate frequency range */
  freqrange = I2C_FREQRANGE(pclk1);
 8001366:	68fb      	ldr	r3, [r7, #12]
 8001368:	4a78      	ldr	r2, [pc, #480]	; (800154c <HAL_I2C_Init+0x280>)
 800136a:	fba2 2303 	umull	r2, r3, r2, r3
 800136e:	0c9b      	lsrs	r3, r3, #18
 8001370:	60bb      	str	r3, [r7, #8]

  /*---------------------------- I2Cx CR2 Configuration ----------------------*/
  /* Configure I2Cx: Frequency range */
  MODIFY_REG(hi2c->Instance->CR2, I2C_CR2_FREQ, freqrange);
 8001372:	687b      	ldr	r3, [r7, #4]
 8001374:	681b      	ldr	r3, [r3, #0]
 8001376:	685b      	ldr	r3, [r3, #4]
 8001378:	f023 013f 	bic.w	r1, r3, #63	; 0x3f
 800137c:	687b      	ldr	r3, [r7, #4]
 800137e:	681b      	ldr	r3, [r3, #0]
 8001380:	68ba      	ldr	r2, [r7, #8]
 8001382:	430a      	orrs	r2, r1
 8001384:	605a      	str	r2, [r3, #4]

  /*---------------------------- I2Cx TRISE Configuration --------------------*/
  /* Configure I2Cx: Rise Time */
  MODIFY_REG(hi2c->Instance->TRISE, I2C_TRISE_TRISE, I2C_RISE_TIME(freqrange, hi2c->Init.ClockSpeed));
 8001386:	687b      	ldr	r3, [r7, #4]
 8001388:	681b      	ldr	r3, [r3, #0]
 800138a:	6a1b      	ldr	r3, [r3, #32]
 800138c:	f023 013f 	bic.w	r1, r3, #63	; 0x3f
 8001390:	687b      	ldr	r3, [r7, #4]
 8001392:	685b      	ldr	r3, [r3, #4]
 8001394:	4a6a      	ldr	r2, [pc, #424]	; (8001540 <HAL_I2C_Init+0x274>)
 8001396:	4293      	cmp	r3, r2
 8001398:	d802      	bhi.n	80013a0 <HAL_I2C_Init+0xd4>
 800139a:	68bb      	ldr	r3, [r7, #8]
 800139c:	3301      	adds	r3, #1
 800139e:	e009      	b.n	80013b4 <HAL_I2C_Init+0xe8>
 80013a0:	68bb      	ldr	r3, [r7, #8]
 80013a2:	f44f 7296 	mov.w	r2, #300	; 0x12c
 80013a6:	fb02 f303 	mul.w	r3, r2, r3
 80013aa:	4a69      	ldr	r2, [pc, #420]	; (8001550 <HAL_I2C_Init+0x284>)
 80013ac:	fba2 2303 	umull	r2, r3, r2, r3
 80013b0:	099b      	lsrs	r3, r3, #6
 80013b2:	3301      	adds	r3, #1
 80013b4:	687a      	ldr	r2, [r7, #4]
 80013b6:	6812      	ldr	r2, [r2, #0]
 80013b8:	430b      	orrs	r3, r1
 80013ba:	6213      	str	r3, [r2, #32]

  /*---------------------------- I2Cx CCR Configuration ----------------------*/
  /* Configure I2Cx: Speed */
  MODIFY_REG(hi2c->Instance->CCR, (I2C_CCR_FS | I2C_CCR_DUTY | I2C_CCR_CCR), I2C_SPEED(pclk1, hi2c->Init.ClockSpeed, hi2c->Init.DutyCycle));
 80013bc:	687b      	ldr	r3, [r7, #4]
 80013be:	681b      	ldr	r3, [r3, #0]
 80013c0:	69db      	ldr	r3, [r3, #28]
 80013c2:	f423 424f 	bic.w	r2, r3, #52992	; 0xcf00
 80013c6:	f022 02ff 	bic.w	r2, r2, #255	; 0xff
 80013ca:	687b      	ldr	r3, [r7, #4]
 80013cc:	685b      	ldr	r3, [r3, #4]
 80013ce:	495c      	ldr	r1, [pc, #368]	; (8001540 <HAL_I2C_Init+0x274>)
 80013d0:	428b      	cmp	r3, r1
 80013d2:	d819      	bhi.n	8001408 <HAL_I2C_Init+0x13c>
 80013d4:	68fb      	ldr	r3, [r7, #12]
 80013d6:	1e59      	subs	r1, r3, #1
 80013d8:	687b      	ldr	r3, [r7, #4]
 80013da:	685b      	ldr	r3, [r3, #4]
 80013dc:	005b      	lsls	r3, r3, #1
 80013de:	fbb1 f3f3 	udiv	r3, r1, r3
 80013e2:	1c59      	adds	r1, r3, #1
 80013e4:	f640 73fc 	movw	r3, #4092	; 0xffc
 80013e8:	400b      	ands	r3, r1
 80013ea:	2b00      	cmp	r3, #0
 80013ec:	d00a      	beq.n	8001404 <HAL_I2C_Init+0x138>
 80013ee:	68fb      	ldr	r3, [r7, #12]
 80013f0:	1e59      	subs	r1, r3, #1
 80013f2:	687b      	ldr	r3, [r7, #4]
 80013f4:	685b      	ldr	r3, [r3, #4]
 80013f6:	005b      	lsls	r3, r3, #1
 80013f8:	fbb1 f3f3 	udiv	r3, r1, r3
 80013fc:	3301      	adds	r3, #1
 80013fe:	f3c3 030b 	ubfx	r3, r3, #0, #12
 8001402:	e051      	b.n	80014a8 <HAL_I2C_Init+0x1dc>
 8001404:	2304      	movs	r3, #4
 8001406:	e04f      	b.n	80014a8 <HAL_I2C_Init+0x1dc>
 8001408:	687b      	ldr	r3, [r7, #4]
 800140a:	689b      	ldr	r3, [r3, #8]
 800140c:	2b00      	cmp	r3, #0
 800140e:	d111      	bne.n	8001434 <HAL_I2C_Init+0x168>
 8001410:	68fb      	ldr	r3, [r7, #12]
 8001412:	1e58      	subs	r0, r3, #1
 8001414:	687b      	ldr	r3, [r7, #4]
 8001416:	6859      	ldr	r1, [r3, #4]
 8001418:	460b      	mov	r3, r1
 800141a:	005b      	lsls	r3, r3, #1
 800141c:	440b      	add	r3, r1
 800141e:	fbb0 f3f3 	udiv	r3, r0, r3
 8001422:	3301      	adds	r3, #1
 8001424:	f3c3 030b 	ubfx	r3, r3, #0, #12
 8001428:	2b00      	cmp	r3, #0
 800142a:	bf0c      	ite	eq
 800142c:	2301      	moveq	r3, #1
 800142e:	2300      	movne	r3, #0
 8001430:	b2db      	uxtb	r3, r3
 8001432:	e012      	b.n	800145a <HAL_I2C_Init+0x18e>
 8001434:	68fb      	ldr	r3, [r7, #12]
 8001436:	1e58      	subs	r0, r3, #1
 8001438:	687b      	ldr	r3, [r7, #4]
 800143a:	6859      	ldr	r1, [r3, #4]
 800143c:	460b      	mov	r3, r1
 800143e:	009b      	lsls	r3, r3, #2
 8001440:	440b      	add	r3, r1
 8001442:	0099      	lsls	r1, r3, #2
 8001444:	440b      	add	r3, r1
 8001446:	fbb0 f3f3 	udiv	r3, r0, r3
 800144a:	3301      	adds	r3, #1
 800144c:	f3c3 030b 	ubfx	r3, r3, #0, #12
 8001450:	2b00      	cmp	r3, #0
 8001452:	bf0c      	ite	eq
 8001454:	2301      	moveq	r3, #1
 8001456:	2300      	movne	r3, #0
 8001458:	b2db      	uxtb	r3, r3
 800145a:	2b00      	cmp	r3, #0
 800145c:	d001      	beq.n	8001462 <HAL_I2C_Init+0x196>
 800145e:	2301      	movs	r3, #1
 8001460:	e022      	b.n	80014a8 <HAL_I2C_Init+0x1dc>
 8001462:	687b      	ldr	r3, [r7, #4]
 8001464:	689b      	ldr	r3, [r3, #8]
 8001466:	2b00      	cmp	r3, #0
 8001468:	d10e      	bne.n	8001488 <HAL_I2C_Init+0x1bc>
 800146a:	68fb      	ldr	r3, [r7, #12]
 800146c:	1e58      	subs	r0, r3, #1
 800146e:	687b      	ldr	r3, [r7, #4]
 8001470:	6859      	ldr	r1, [r3, #4]
 8001472:	460b      	mov	r3, r1
 8001474:	005b      	lsls	r3, r3, #1
 8001476:	440b      	add	r3, r1
 8001478:	fbb0 f3f3 	udiv	r3, r0, r3
 800147c:	3301      	adds	r3, #1
 800147e:	f3c3 030b 	ubfx	r3, r3, #0, #12
 8001482:	f443 4300 	orr.w	r3, r3, #32768	; 0x8000
 8001486:	e00f      	b.n	80014a8 <HAL_I2C_Init+0x1dc>
 8001488:	68fb      	ldr	r3, [r7, #12]
 800148a:	1e58      	subs	r0, r3, #1
 800148c:	687b      	ldr	r3, [r7, #4]
 800148e:	6859      	ldr	r1, [r3, #4]
 8001490:	460b      	mov	r3, r1
 8001492:	009b      	lsls	r3, r3, #2
 8001494:	440b      	add	r3, r1
 8001496:	0099      	lsls	r1, r3, #2
 8001498:	440b      	add	r3, r1
 800149a:	fbb0 f3f3 	udiv	r3, r0, r3
 800149e:	3301      	adds	r3, #1
 80014a0:	f3c3 030b 	ubfx	r3, r3, #0, #12
 80014a4:	f443 4340 	orr.w	r3, r3, #49152	; 0xc000
 80014a8:	6879      	ldr	r1, [r7, #4]
 80014aa:	6809      	ldr	r1, [r1, #0]
 80014ac:	4313      	orrs	r3, r2
 80014ae:	61cb      	str	r3, [r1, #28]

  /*---------------------------- I2Cx CR1 Configuration ----------------------*/
  /* Configure I2Cx: Generalcall and NoStretch mode */
  MODIFY_REG(hi2c->Instance->CR1, (I2C_CR1_ENGC | I2C_CR1_NOSTRETCH), (hi2c->Init.GeneralCallMode | hi2c->Init.NoStretchMode));
 80014b0:	687b      	ldr	r3, [r7, #4]
 80014b2:	681b      	ldr	r3, [r3, #0]
 80014b4:	681b      	ldr	r3, [r3, #0]
 80014b6:	f023 01c0 	bic.w	r1, r3, #192	; 0xc0
 80014ba:	687b      	ldr	r3, [r7, #4]
 80014bc:	69da      	ldr	r2, [r3, #28]
 80014be:	687b      	ldr	r3, [r7, #4]
 80014c0:	6a1b      	ldr	r3, [r3, #32]
 80014c2:	431a      	orrs	r2, r3
 80014c4:	687b      	ldr	r3, [r7, #4]
 80014c6:	681b      	ldr	r3, [r3, #0]
 80014c8:	430a      	orrs	r2, r1
 80014ca:	601a      	str	r2, [r3, #0]

  /*---------------------------- I2Cx OAR1 Configuration ---------------------*/
  /* Configure I2Cx: Own Address1 and addressing mode */
  MODIFY_REG(hi2c->Instance->OAR1, (I2C_OAR1_ADDMODE | I2C_OAR1_ADD8_9 | I2C_OAR1_ADD1_7 | I2C_OAR1_ADD0), (hi2c->Init.AddressingMode | hi2c->Init.OwnAddress1));
 80014cc:	687b      	ldr	r3, [r7, #4]
 80014ce:	681b      	ldr	r3, [r3, #0]
 80014d0:	689b      	ldr	r3, [r3, #8]
 80014d2:	f423 4303 	bic.w	r3, r3, #33536	; 0x8300
 80014d6:	f023 03ff 	bic.w	r3, r3, #255	; 0xff
 80014da:	687a      	ldr	r2, [r7, #4]
 80014dc:	6911      	ldr	r1, [r2, #16]
 80014de:	687a      	ldr	r2, [r7, #4]
 80014e0:	68d2      	ldr	r2, [r2, #12]
 80014e2:	4311      	orrs	r1, r2
 80014e4:	687a      	ldr	r2, [r7, #4]
 80014e6:	6812      	ldr	r2, [r2, #0]
 80014e8:	430b      	orrs	r3, r1
 80014ea:	6093      	str	r3, [r2, #8]

  /*---------------------------- I2Cx OAR2 Configuration ---------------------*/
  /* Configure I2Cx: Dual mode and Own Address2 */
  MODIFY_REG(hi2c->Instance->OAR2, (I2C_OAR2_ENDUAL | I2C_OAR2_ADD2), (hi2c->Init.DualAddressMode | hi2c->Init.OwnAddress2));
 80014ec:	687b      	ldr	r3, [r7, #4]
 80014ee:	681b      	ldr	r3, [r3, #0]
 80014f0:	68db      	ldr	r3, [r3, #12]
 80014f2:	f023 01ff 	bic.w	r1, r3, #255	; 0xff
 80014f6:	687b      	ldr	r3, [r7, #4]
 80014f8:	695a      	ldr	r2, [r3, #20]
 80014fa:	687b      	ldr	r3, [r7, #4]
 80014fc:	699b      	ldr	r3, [r3, #24]
 80014fe:	431a      	orrs	r2, r3
 8001500:	687b      	ldr	r3, [r7, #4]
 8001502:	681b      	ldr	r3, [r3, #0]
 8001504:	430a      	orrs	r2, r1
 8001506:	60da      	str	r2, [r3, #12]

  /* Enable the selected I2C peripheral */
  __HAL_I2C_ENABLE(hi2c);
 8001508:	687b      	ldr	r3, [r7, #4]
 800150a:	681b      	ldr	r3, [r3, #0]
 800150c:	681a      	ldr	r2, [r3, #0]
 800150e:	687b      	ldr	r3, [r7, #4]
 8001510:	681b      	ldr	r3, [r3, #0]
 8001512:	f042 0201 	orr.w	r2, r2, #1
 8001516:	601a      	str	r2, [r3, #0]

  hi2c->ErrorCode = HAL_I2C_ERROR_NONE;
 8001518:	687b      	ldr	r3, [r7, #4]
 800151a:	2200      	movs	r2, #0
 800151c:	641a      	str	r2, [r3, #64]	; 0x40
  hi2c->State = HAL_I2C_STATE_READY;
 800151e:	687b      	ldr	r3, [r7, #4]
 8001520:	2220      	movs	r2, #32
 8001522:	f883 203d 	strb.w	r2, [r3, #61]	; 0x3d
  hi2c->PreviousState = I2C_STATE_NONE;
 8001526:	687b      	ldr	r3, [r7, #4]
 8001528:	2200      	movs	r2, #0
 800152a:	631a      	str	r2, [r3, #48]	; 0x30
  hi2c->Mode = HAL_I2C_MODE_NONE;
 800152c:	687b      	ldr	r3, [r7, #4]
 800152e:	2200      	movs	r2, #0
 8001530:	f883 203e 	strb.w	r2, [r3, #62]	; 0x3e

  return HAL_OK;
 8001534:	2300      	movs	r3, #0
}
 8001536:	4618      	mov	r0, r3
 8001538:	3710      	adds	r7, #16
 800153a:	46bd      	mov	sp, r7
 800153c:	bd80      	pop	{r7, pc}
 800153e:	bf00      	nop
 8001540:	000186a0 	.word	0x000186a0
 8001544:	001e847f 	.word	0x001e847f
 8001548:	003d08ff 	.word	0x003d08ff
 800154c:	431bde83 	.word	0x431bde83
 8001550:	10624dd3 	.word	0x10624dd3

08001554 <HAL_I2C_Master_Transmit>:
  * @param  Size Amount of data to be sent
  * @param  Timeout Timeout duration
  * @retval HAL status
  */
HAL_StatusTypeDef HAL_I2C_Master_Transmit(I2C_HandleTypeDef *hi2c, uint16_t DevAddress, uint8_t *pData, uint16_t Size, uint32_t Timeout)
{
 8001554:	b580      	push	{r7, lr}
 8001556:	b088      	sub	sp, #32
 8001558:	af02      	add	r7, sp, #8
 800155a:	60f8      	str	r0, [r7, #12]
 800155c:	607a      	str	r2, [r7, #4]
 800155e:	461a      	mov	r2, r3
 8001560:	460b      	mov	r3, r1
 8001562:	817b      	strh	r3, [r7, #10]
 8001564:	4613      	mov	r3, r2
 8001566:	813b      	strh	r3, [r7, #8]
  /* Init tickstart for timeout management*/
  uint32_t tickstart = HAL_GetTick();
 8001568:	f7ff fb7a 	bl	8000c60 <HAL_GetTick>
 800156c:	6178      	str	r0, [r7, #20]

  if (hi2c->State == HAL_I2C_STATE_READY)
 800156e:	68fb      	ldr	r3, [r7, #12]
 8001570:	f893 303d 	ldrb.w	r3, [r3, #61]	; 0x3d
 8001574:	b2db      	uxtb	r3, r3
 8001576:	2b20      	cmp	r3, #32
 8001578:	f040 80e0 	bne.w	800173c <HAL_I2C_Master_Transmit+0x1e8>
  {
    /* Wait until BUSY flag is reset */
    if (I2C_WaitOnFlagUntilTimeout(hi2c, I2C_FLAG_BUSY, SET, I2C_TIMEOUT_BUSY_FLAG, tickstart) != HAL_OK)
 800157c:	697b      	ldr	r3, [r7, #20]
 800157e:	9300      	str	r3, [sp, #0]
 8001580:	2319      	movs	r3, #25
 8001582:	2201      	movs	r2, #1
 8001584:	4970      	ldr	r1, [pc, #448]	; (8001748 <HAL_I2C_Master_Transmit+0x1f4>)
 8001586:	68f8      	ldr	r0, [r7, #12]
 8001588:	f000 fc92 	bl	8001eb0 <I2C_WaitOnFlagUntilTimeout>
 800158c:	4603      	mov	r3, r0
 800158e:	2b00      	cmp	r3, #0
 8001590:	d001      	beq.n	8001596 <HAL_I2C_Master_Transmit+0x42>
    {
      return HAL_BUSY;
 8001592:	2302      	movs	r3, #2
 8001594:	e0d3      	b.n	800173e <HAL_I2C_Master_Transmit+0x1ea>
    }

    /* Process Locked */
    __HAL_LOCK(hi2c);
 8001596:	68fb      	ldr	r3, [r7, #12]
 8001598:	f893 303c 	ldrb.w	r3, [r3, #60]	; 0x3c
 800159c:	2b01      	cmp	r3, #1
 800159e:	d101      	bne.n	80015a4 <HAL_I2C_Master_Transmit+0x50>
 80015a0:	2302      	movs	r3, #2
 80015a2:	e0cc      	b.n	800173e <HAL_I2C_Master_Transmit+0x1ea>
 80015a4:	68fb      	ldr	r3, [r7, #12]
 80015a6:	2201      	movs	r2, #1
 80015a8:	f883 203c 	strb.w	r2, [r3, #60]	; 0x3c

    /* Check if the I2C is already enabled */
    if ((hi2c->Instance->CR1 & I2C_CR1_PE) != I2C_CR1_PE)
 80015ac:	68fb      	ldr	r3, [r7, #12]
 80015ae:	681b      	ldr	r3, [r3, #0]
 80015b0:	681b      	ldr	r3, [r3, #0]
 80015b2:	f003 0301 	and.w	r3, r3, #1
 80015b6:	2b01      	cmp	r3, #1
 80015b8:	d007      	beq.n	80015ca <HAL_I2C_Master_Transmit+0x76>
    {
      /* Enable I2C peripheral */
      __HAL_I2C_ENABLE(hi2c);
 80015ba:	68fb      	ldr	r3, [r7, #12]
 80015bc:	681b      	ldr	r3, [r3, #0]
 80015be:	681a      	ldr	r2, [r3, #0]
 80015c0:	68fb      	ldr	r3, [r7, #12]
 80015c2:	681b      	ldr	r3, [r3, #0]
 80015c4:	f042 0201 	orr.w	r2, r2, #1
 80015c8:	601a      	str	r2, [r3, #0]
    }

    /* Disable Pos */
    CLEAR_BIT(hi2c->Instance->CR1, I2C_CR1_POS);
 80015ca:	68fb      	ldr	r3, [r7, #12]
 80015cc:	681b      	ldr	r3, [r3, #0]
 80015ce:	681a      	ldr	r2, [r3, #0]
 80015d0:	68fb      	ldr	r3, [r7, #12]
 80015d2:	681b      	ldr	r3, [r3, #0]
 80015d4:	f422 6200 	bic.w	r2, r2, #2048	; 0x800
 80015d8:	601a      	str	r2, [r3, #0]

    hi2c->State       = HAL_I2C_STATE_BUSY_TX;
 80015da:	68fb      	ldr	r3, [r7, #12]
 80015dc:	2221      	movs	r2, #33	; 0x21
 80015de:	f883 203d 	strb.w	r2, [r3, #61]	; 0x3d
    hi2c->Mode        = HAL_I2C_MODE_MASTER;
 80015e2:	68fb      	ldr	r3, [r7, #12]
 80015e4:	2210      	movs	r2, #16
 80015e6:	f883 203e 	strb.w	r2, [r3, #62]	; 0x3e
    hi2c->ErrorCode   = HAL_I2C_ERROR_NONE;
 80015ea:	68fb      	ldr	r3, [r7, #12]
 80015ec:	2200      	movs	r2, #0
 80015ee:	641a      	str	r2, [r3, #64]	; 0x40

    /* Prepare transfer parameters */
    hi2c->pBuffPtr    = pData;
 80015f0:	68fb      	ldr	r3, [r7, #12]
 80015f2:	687a      	ldr	r2, [r7, #4]
 80015f4:	625a      	str	r2, [r3, #36]	; 0x24
    hi2c->XferCount   = Size;
 80015f6:	68fb      	ldr	r3, [r7, #12]
 80015f8:	893a      	ldrh	r2, [r7, #8]
 80015fa:	855a      	strh	r2, [r3, #42]	; 0x2a
    hi2c->XferSize    = hi2c->XferCount;
 80015fc:	68fb      	ldr	r3, [r7, #12]
 80015fe:	8d5b      	ldrh	r3, [r3, #42]	; 0x2a
 8001600:	b29a      	uxth	r2, r3
 8001602:	68fb      	ldr	r3, [r7, #12]
 8001604:	851a      	strh	r2, [r3, #40]	; 0x28
    hi2c->XferOptions = I2C_NO_OPTION_FRAME;
 8001606:	68fb      	ldr	r3, [r7, #12]
 8001608:	4a50      	ldr	r2, [pc, #320]	; (800174c <HAL_I2C_Master_Transmit+0x1f8>)
 800160a:	62da      	str	r2, [r3, #44]	; 0x2c

    /* Send Slave Address */
    if (I2C_MasterRequestWrite(hi2c, DevAddress, Timeout, tickstart) != HAL_OK)
 800160c:	8979      	ldrh	r1, [r7, #10]
 800160e:	697b      	ldr	r3, [r7, #20]
 8001610:	6a3a      	ldr	r2, [r7, #32]
 8001612:	68f8      	ldr	r0, [r7, #12]
 8001614:	f000 fafc 	bl	8001c10 <I2C_MasterRequestWrite>
 8001618:	4603      	mov	r3, r0
 800161a:	2b00      	cmp	r3, #0
 800161c:	d001      	beq.n	8001622 <HAL_I2C_Master_Transmit+0xce>
    {
      return HAL_ERROR;
 800161e:	2301      	movs	r3, #1
 8001620:	e08d      	b.n	800173e <HAL_I2C_Master_Transmit+0x1ea>
    }

    /* Clear ADDR flag */
    __HAL_I2C_CLEAR_ADDRFLAG(hi2c);
 8001622:	2300      	movs	r3, #0
 8001624:	613b      	str	r3, [r7, #16]
 8001626:	68fb      	ldr	r3, [r7, #12]
 8001628:	681b      	ldr	r3, [r3, #0]
 800162a:	695b      	ldr	r3, [r3, #20]
 800162c:	613b      	str	r3, [r7, #16]
 800162e:	68fb      	ldr	r3, [r7, #12]
 8001630:	681b      	ldr	r3, [r3, #0]
 8001632:	699b      	ldr	r3, [r3, #24]
 8001634:	613b      	str	r3, [r7, #16]
 8001636:	693b      	ldr	r3, [r7, #16]

    while (hi2c->XferSize > 0U)
 8001638:	e066      	b.n	8001708 <HAL_I2C_Master_Transmit+0x1b4>
    {
      /* Wait until TXE flag is set */
      if (I2C_WaitOnTXEFlagUntilTimeout(hi2c, Timeout, tickstart) != HAL_OK)
 800163a:	697a      	ldr	r2, [r7, #20]
 800163c:	6a39      	ldr	r1, [r7, #32]
 800163e:	68f8      	ldr	r0, [r7, #12]
 8001640:	f000 fd0c 	bl	800205c <I2C_WaitOnTXEFlagUntilTimeout>
 8001644:	4603      	mov	r3, r0
 8001646:	2b00      	cmp	r3, #0
 8001648:	d00d      	beq.n	8001666 <HAL_I2C_Master_Transmit+0x112>
      {
        if (hi2c->ErrorCode == HAL_I2C_ERROR_AF)
 800164a:	68fb      	ldr	r3, [r7, #12]
 800164c:	6c1b      	ldr	r3, [r3, #64]	; 0x40
 800164e:	2b04      	cmp	r3, #4
 8001650:	d107      	bne.n	8001662 <HAL_I2C_Master_Transmit+0x10e>
        {
          /* Generate Stop */
          SET_BIT(hi2c->Instance->CR1, I2C_CR1_STOP);
 8001652:	68fb      	ldr	r3, [r7, #12]
 8001654:	681b      	ldr	r3, [r3, #0]
 8001656:	681a      	ldr	r2, [r3, #0]
 8001658:	68fb      	ldr	r3, [r7, #12]
 800165a:	681b      	ldr	r3, [r3, #0]
 800165c:	f442 7200 	orr.w	r2, r2, #512	; 0x200
 8001660:	601a      	str	r2, [r3, #0]
        }
        return HAL_ERROR;
 8001662:	2301      	movs	r3, #1
 8001664:	e06b      	b.n	800173e <HAL_I2C_Master_Transmit+0x1ea>
      }

      /* Write data to DR */
      hi2c->Instance->DR = *hi2c->pBuffPtr;
 8001666:	68fb      	ldr	r3, [r7, #12]
 8001668:	6a5b      	ldr	r3, [r3, #36]	; 0x24
 800166a:	781a      	ldrb	r2, [r3, #0]
 800166c:	68fb      	ldr	r3, [r7, #12]
 800166e:	681b      	ldr	r3, [r3, #0]
 8001670:	611a      	str	r2, [r3, #16]

      /* Increment Buffer pointer */
      hi2c->pBuffPtr++;
 8001672:	68fb      	ldr	r3, [r7, #12]
 8001674:	6a5b      	ldr	r3, [r3, #36]	; 0x24
 8001676:	1c5a      	adds	r2, r3, #1
 8001678:	68fb      	ldr	r3, [r7, #12]
 800167a:	625a      	str	r2, [r3, #36]	; 0x24

      /* Update counter */
      hi2c->XferCount--;
 800167c:	68fb      	ldr	r3, [r7, #12]
 800167e:	8d5b      	ldrh	r3, [r3, #42]	; 0x2a
 8001680:	b29b      	uxth	r3, r3
 8001682:	3b01      	subs	r3, #1
 8001684:	b29a      	uxth	r2, r3
 8001686:	68fb      	ldr	r3, [r7, #12]
 8001688:	855a      	strh	r2, [r3, #42]	; 0x2a
      hi2c->XferSize--;
 800168a:	68fb      	ldr	r3, [r7, #12]
 800168c:	8d1b      	ldrh	r3, [r3, #40]	; 0x28
 800168e:	3b01      	subs	r3, #1
 8001690:	b29a      	uxth	r2, r3
 8001692:	68fb      	ldr	r3, [r7, #12]
 8001694:	851a      	strh	r2, [r3, #40]	; 0x28

      if ((__HAL_I2C_GET_FLAG(hi2c, I2C_FLAG_BTF) == SET) && (hi2c->XferSize != 0U))
 8001696:	68fb      	ldr	r3, [r7, #12]
 8001698:	681b      	ldr	r3, [r3, #0]
 800169a:	695b      	ldr	r3, [r3, #20]
 800169c:	f003 0304 	and.w	r3, r3, #4
 80016a0:	2b04      	cmp	r3, #4
 80016a2:	d11b      	bne.n	80016dc <HAL_I2C_Master_Transmit+0x188>
 80016a4:	68fb      	ldr	r3, [r7, #12]
 80016a6:	8d1b      	ldrh	r3, [r3, #40]	; 0x28
 80016a8:	2b00      	cmp	r3, #0
 80016aa:	d017      	beq.n	80016dc <HAL_I2C_Master_Transmit+0x188>
      {
        /* Write data to DR */
        hi2c->Instance->DR = *hi2c->pBuffPtr;
 80016ac:	68fb      	ldr	r3, [r7, #12]
 80016ae:	6a5b      	ldr	r3, [r3, #36]	; 0x24
 80016b0:	781a      	ldrb	r2, [r3, #0]
 80016b2:	68fb      	ldr	r3, [r7, #12]
 80016b4:	681b      	ldr	r3, [r3, #0]
 80016b6:	611a      	str	r2, [r3, #16]

        /* Increment Buffer pointer */
        hi2c->pBuffPtr++;
 80016b8:	68fb      	ldr	r3, [r7, #12]
 80016ba:	6a5b      	ldr	r3, [r3, #36]	; 0x24
 80016bc:	1c5a      	adds	r2, r3, #1
 80016be:	68fb      	ldr	r3, [r7, #12]
 80016c0:	625a      	str	r2, [r3, #36]	; 0x24

        /* Update counter */
        hi2c->XferCount--;
 80016c2:	68fb      	ldr	r3, [r7, #12]
 80016c4:	8d5b      	ldrh	r3, [r3, #42]	; 0x2a
 80016c6:	b29b      	uxth	r3, r3
 80016c8:	3b01      	subs	r3, #1
 80016ca:	b29a      	uxth	r2, r3
 80016cc:	68fb      	ldr	r3, [r7, #12]
 80016ce:	855a      	strh	r2, [r3, #42]	; 0x2a
        hi2c->XferSize--;
 80016d0:	68fb      	ldr	r3, [r7, #12]
 80016d2:	8d1b      	ldrh	r3, [r3, #40]	; 0x28
 80016d4:	3b01      	subs	r3, #1
 80016d6:	b29a      	uxth	r2, r3
 80016d8:	68fb      	ldr	r3, [r7, #12]
 80016da:	851a      	strh	r2, [r3, #40]	; 0x28
      }

      /* Wait until BTF flag is set */
      if (I2C_WaitOnBTFFlagUntilTimeout(hi2c, Timeout, tickstart) != HAL_OK)
 80016dc:	697a      	ldr	r2, [r7, #20]
 80016de:	6a39      	ldr	r1, [r7, #32]
 80016e0:	68f8      	ldr	r0, [r7, #12]
 80016e2:	f000 fcfc 	bl	80020de <I2C_WaitOnBTFFlagUntilTimeout>
 80016e6:	4603      	mov	r3, r0
 80016e8:	2b00      	cmp	r3, #0
 80016ea:	d00d      	beq.n	8001708 <HAL_I2C_Master_Transmit+0x1b4>
      {
        if (hi2c->ErrorCode == HAL_I2C_ERROR_AF)
 80016ec:	68fb      	ldr	r3, [r7, #12]
 80016ee:	6c1b      	ldr	r3, [r3, #64]	; 0x40
 80016f0:	2b04      	cmp	r3, #4
 80016f2:	d107      	bne.n	8001704 <HAL_I2C_Master_Transmit+0x1b0>
        {
          /* Generate Stop */
          SET_BIT(hi2c->Instance->CR1, I2C_CR1_STOP);
 80016f4:	68fb      	ldr	r3, [r7, #12]
 80016f6:	681b      	ldr	r3, [r3, #0]
 80016f8:	681a      	ldr	r2, [r3, #0]
 80016fa:	68fb      	ldr	r3, [r7, #12]
 80016fc:	681b      	ldr	r3, [r3, #0]
 80016fe:	f442 7200 	orr.w	r2, r2, #512	; 0x200
 8001702:	601a      	str	r2, [r3, #0]
        }
        return HAL_ERROR;
 8001704:	2301      	movs	r3, #1
 8001706:	e01a      	b.n	800173e <HAL_I2C_Master_Transmit+0x1ea>
    while (hi2c->XferSize > 0U)
 8001708:	68fb      	ldr	r3, [r7, #12]
 800170a:	8d1b      	ldrh	r3, [r3, #40]	; 0x28
 800170c:	2b00      	cmp	r3, #0
 800170e:	d194      	bne.n	800163a <HAL_I2C_Master_Transmit+0xe6>
      }
    }

    /* Generate Stop */
    SET_BIT(hi2c->Instance->CR1, I2C_CR1_STOP);
 8001710:	68fb      	ldr	r3, [r7, #12]
 8001712:	681b      	ldr	r3, [r3, #0]
 8001714:	681a      	ldr	r2, [r3, #0]
 8001716:	68fb      	ldr	r3, [r7, #12]
 8001718:	681b      	ldr	r3, [r3, #0]
 800171a:	f442 7200 	orr.w	r2, r2, #512	; 0x200
 800171e:	601a      	str	r2, [r3, #0]

    hi2c->State = HAL_I2C_STATE_READY;
 8001720:	68fb      	ldr	r3, [r7, #12]
 8001722:	2220      	movs	r2, #32
 8001724:	f883 203d 	strb.w	r2, [r3, #61]	; 0x3d
    hi2c->Mode = HAL_I2C_MODE_NONE;
 8001728:	68fb      	ldr	r3, [r7, #12]
 800172a:	2200      	movs	r2, #0
 800172c:	f883 203e 	strb.w	r2, [r3, #62]	; 0x3e

    /* Process Unlocked */
    __HAL_UNLOCK(hi2c);
 8001730:	68fb      	ldr	r3, [r7, #12]
 8001732:	2200      	movs	r2, #0
 8001734:	f883 203c 	strb.w	r2, [r3, #60]	; 0x3c

    return HAL_OK;
 8001738:	2300      	movs	r3, #0
 800173a:	e000      	b.n	800173e <HAL_I2C_Master_Transmit+0x1ea>
  }
  else
  {
    return HAL_BUSY;
 800173c:	2302      	movs	r3, #2
  }
}
 800173e:	4618      	mov	r0, r3
 8001740:	3718      	adds	r7, #24
 8001742:	46bd      	mov	sp, r7
 8001744:	bd80      	pop	{r7, pc}
 8001746:	bf00      	nop
 8001748:	00100002 	.word	0x00100002
 800174c:	ffff0000 	.word	0xffff0000

08001750 <HAL_I2C_Master_Receive>:
  * @param  Size Amount of data to be sent
  * @param  Timeout Timeout duration
  * @retval HAL status
  */
HAL_StatusTypeDef HAL_I2C_Master_Receive(I2C_HandleTypeDef *hi2c, uint16_t DevAddress, uint8_t *pData, uint16_t Size, uint32_t Timeout)
{
 8001750:	b580      	push	{r7, lr}
 8001752:	b08c      	sub	sp, #48	; 0x30
 8001754:	af02      	add	r7, sp, #8
 8001756:	60f8      	str	r0, [r7, #12]
 8001758:	607a      	str	r2, [r7, #4]
 800175a:	461a      	mov	r2, r3
 800175c:	460b      	mov	r3, r1
 800175e:	817b      	strh	r3, [r7, #10]
 8001760:	4613      	mov	r3, r2
 8001762:	813b      	strh	r3, [r7, #8]
  __IO uint32_t count = 0U;
 8001764:	2300      	movs	r3, #0
 8001766:	623b      	str	r3, [r7, #32]

  /* Init tickstart for timeout management*/
  uint32_t tickstart = HAL_GetTick();
 8001768:	f7ff fa7a 	bl	8000c60 <HAL_GetTick>
 800176c:	6278      	str	r0, [r7, #36]	; 0x24

  if (hi2c->State == HAL_I2C_STATE_READY)
 800176e:	68fb      	ldr	r3, [r7, #12]
 8001770:	f893 303d 	ldrb.w	r3, [r3, #61]	; 0x3d
 8001774:	b2db      	uxtb	r3, r3
 8001776:	2b20      	cmp	r3, #32
 8001778:	f040 823f 	bne.w	8001bfa <HAL_I2C_Master_Receive+0x4aa>
  {
    /* Wait until BUSY flag is reset */
    if (I2C_WaitOnFlagUntilTimeout(hi2c, I2C_FLAG_BUSY, SET, I2C_TIMEOUT_BUSY_FLAG, tickstart) != HAL_OK)
 800177c:	6a7b      	ldr	r3, [r7, #36]	; 0x24
 800177e:	9300      	str	r3, [sp, #0]
 8001780:	2319      	movs	r3, #25
 8001782:	2201      	movs	r2, #1
 8001784:	497f      	ldr	r1, [pc, #508]	; (8001984 <HAL_I2C_Master_Receive+0x234>)
 8001786:	68f8      	ldr	r0, [r7, #12]
 8001788:	f000 fb92 	bl	8001eb0 <I2C_WaitOnFlagUntilTimeout>
 800178c:	4603      	mov	r3, r0
 800178e:	2b00      	cmp	r3, #0
 8001790:	d001      	beq.n	8001796 <HAL_I2C_Master_Receive+0x46>
    {
      return HAL_BUSY;
 8001792:	2302      	movs	r3, #2
 8001794:	e232      	b.n	8001bfc <HAL_I2C_Master_Receive+0x4ac>
    }

    /* Process Locked */
    __HAL_LOCK(hi2c);
 8001796:	68fb      	ldr	r3, [r7, #12]
 8001798:	f893 303c 	ldrb.w	r3, [r3, #60]	; 0x3c
 800179c:	2b01      	cmp	r3, #1
 800179e:	d101      	bne.n	80017a4 <HAL_I2C_Master_Receive+0x54>
 80017a0:	2302      	movs	r3, #2
 80017a2:	e22b      	b.n	8001bfc <HAL_I2C_Master_Receive+0x4ac>
 80017a4:	68fb      	ldr	r3, [r7, #12]
 80017a6:	2201      	movs	r2, #1
 80017a8:	f883 203c 	strb.w	r2, [r3, #60]	; 0x3c

    /* Check if the I2C is already enabled */
    if ((hi2c->Instance->CR1 & I2C_CR1_PE) != I2C_CR1_PE)
 80017ac:	68fb      	ldr	r3, [r7, #12]
 80017ae:	681b      	ldr	r3, [r3, #0]
 80017b0:	681b      	ldr	r3, [r3, #0]
 80017b2:	f003 0301 	and.w	r3, r3, #1
 80017b6:	2b01      	cmp	r3, #1
 80017b8:	d007      	beq.n	80017ca <HAL_I2C_Master_Receive+0x7a>
    {
      /* Enable I2C peripheral */
      __HAL_I2C_ENABLE(hi2c);
 80017ba:	68fb      	ldr	r3, [r7, #12]
 80017bc:	681b      	ldr	r3, [r3, #0]
 80017be:	681a      	ldr	r2, [r3, #0]
 80017c0:	68fb      	ldr	r3, [r7, #12]
 80017c2:	681b      	ldr	r3, [r3, #0]
 80017c4:	f042 0201 	orr.w	r2, r2, #1
 80017c8:	601a      	str	r2, [r3, #0]
    }

    /* Disable Pos */
    CLEAR_BIT(hi2c->Instance->CR1, I2C_CR1_POS);
 80017ca:	68fb      	ldr	r3, [r7, #12]
 80017cc:	681b      	ldr	r3, [r3, #0]
 80017ce:	681a      	ldr	r2, [r3, #0]
 80017d0:	68fb      	ldr	r3, [r7, #12]
 80017d2:	681b      	ldr	r3, [r3, #0]
 80017d4:	f422 6200 	bic.w	r2, r2, #2048	; 0x800
 80017d8:	601a      	str	r2, [r3, #0]

    hi2c->State       = HAL_I2C_STATE_BUSY_RX;
 80017da:	68fb      	ldr	r3, [r7, #12]
 80017dc:	2222      	movs	r2, #34	; 0x22
 80017de:	f883 203d 	strb.w	r2, [r3, #61]	; 0x3d
    hi2c->Mode        = HAL_I2C_MODE_MASTER;
 80017e2:	68fb      	ldr	r3, [r7, #12]
 80017e4:	2210      	movs	r2, #16
 80017e6:	f883 203e 	strb.w	r2, [r3, #62]	; 0x3e
    hi2c->ErrorCode   = HAL_I2C_ERROR_NONE;
 80017ea:	68fb      	ldr	r3, [r7, #12]
 80017ec:	2200      	movs	r2, #0
 80017ee:	641a      	str	r2, [r3, #64]	; 0x40

    /* Prepare transfer parameters */
    hi2c->pBuffPtr    = pData;
 80017f0:	68fb      	ldr	r3, [r7, #12]
 80017f2:	687a      	ldr	r2, [r7, #4]
 80017f4:	625a      	str	r2, [r3, #36]	; 0x24
    hi2c->XferCount   = Size;
 80017f6:	68fb      	ldr	r3, [r7, #12]
 80017f8:	893a      	ldrh	r2, [r7, #8]
 80017fa:	855a      	strh	r2, [r3, #42]	; 0x2a
    hi2c->XferSize    = hi2c->XferCount;
 80017fc:	68fb      	ldr	r3, [r7, #12]
 80017fe:	8d5b      	ldrh	r3, [r3, #42]	; 0x2a
 8001800:	b29a      	uxth	r2, r3
 8001802:	68fb      	ldr	r3, [r7, #12]
 8001804:	851a      	strh	r2, [r3, #40]	; 0x28
    hi2c->XferOptions = I2C_NO_OPTION_FRAME;
 8001806:	68fb      	ldr	r3, [r7, #12]
 8001808:	4a5f      	ldr	r2, [pc, #380]	; (8001988 <HAL_I2C_Master_Receive+0x238>)
 800180a:	62da      	str	r2, [r3, #44]	; 0x2c

    /* Send Slave Address */
    if (I2C_MasterRequestRead(hi2c, DevAddress, Timeout, tickstart) != HAL_OK)
 800180c:	8979      	ldrh	r1, [r7, #10]
 800180e:	6a7b      	ldr	r3, [r7, #36]	; 0x24
 8001810:	6b3a      	ldr	r2, [r7, #48]	; 0x30
 8001812:	68f8      	ldr	r0, [r7, #12]
 8001814:	f000 fa7e 	bl	8001d14 <I2C_MasterRequestRead>
 8001818:	4603      	mov	r3, r0
 800181a:	2b00      	cmp	r3, #0
 800181c:	d001      	beq.n	8001822 <HAL_I2C_Master_Receive+0xd2>
    {
      return HAL_ERROR;
 800181e:	2301      	movs	r3, #1
 8001820:	e1ec      	b.n	8001bfc <HAL_I2C_Master_Receive+0x4ac>
    }

    if (hi2c->XferSize == 0U)
 8001822:	68fb      	ldr	r3, [r7, #12]
 8001824:	8d1b      	ldrh	r3, [r3, #40]	; 0x28
 8001826:	2b00      	cmp	r3, #0
 8001828:	d113      	bne.n	8001852 <HAL_I2C_Master_Receive+0x102>
    {
      /* Clear ADDR flag */
      __HAL_I2C_CLEAR_ADDRFLAG(hi2c);
 800182a:	2300      	movs	r3, #0
 800182c:	61fb      	str	r3, [r7, #28]
 800182e:	68fb      	ldr	r3, [r7, #12]
 8001830:	681b      	ldr	r3, [r3, #0]
 8001832:	695b      	ldr	r3, [r3, #20]
 8001834:	61fb      	str	r3, [r7, #28]
 8001836:	68fb      	ldr	r3, [r7, #12]
 8001838:	681b      	ldr	r3, [r3, #0]
 800183a:	699b      	ldr	r3, [r3, #24]
 800183c:	61fb      	str	r3, [r7, #28]
 800183e:	69fb      	ldr	r3, [r7, #28]

      /* Generate Stop */
      SET_BIT(hi2c->Instance->CR1, I2C_CR1_STOP);
 8001840:	68fb      	ldr	r3, [r7, #12]
 8001842:	681b      	ldr	r3, [r3, #0]
 8001844:	681a      	ldr	r2, [r3, #0]
 8001846:	68fb      	ldr	r3, [r7, #12]
 8001848:	681b      	ldr	r3, [r3, #0]
 800184a:	f442 7200 	orr.w	r2, r2, #512	; 0x200
 800184e:	601a      	str	r2, [r3, #0]
 8001850:	e1c0      	b.n	8001bd4 <HAL_I2C_Master_Receive+0x484>
    }
    else if (hi2c->XferSize == 1U)
 8001852:	68fb      	ldr	r3, [r7, #12]
 8001854:	8d1b      	ldrh	r3, [r3, #40]	; 0x28
 8001856:	2b01      	cmp	r3, #1
 8001858:	d11e      	bne.n	8001898 <HAL_I2C_Master_Receive+0x148>
    {
      /* Disable Acknowledge */
      CLEAR_BIT(hi2c->Instance->CR1, I2C_CR1_ACK);
 800185a:	68fb      	ldr	r3, [r7, #12]
 800185c:	681b      	ldr	r3, [r3, #0]
 800185e:	681a      	ldr	r2, [r3, #0]
 8001860:	68fb      	ldr	r3, [r7, #12]
 8001862:	681b      	ldr	r3, [r3, #0]
 8001864:	f422 6280 	bic.w	r2, r2, #1024	; 0x400
 8001868:	601a      	str	r2, [r3, #0]
  __ASM volatile ("cpsid i" : : : "memory");
 800186a:	b672      	cpsid	i
}
 800186c:	bf00      	nop
      /* Disable all active IRQs around ADDR clearing and STOP programming because the EV6_3
      software sequence must complete before the current byte end of transfer */
      __disable_irq();

      /* Clear ADDR flag */
      __HAL_I2C_CLEAR_ADDRFLAG(hi2c);
 800186e:	2300      	movs	r3, #0
 8001870:	61bb      	str	r3, [r7, #24]
 8001872:	68fb      	ldr	r3, [r7, #12]
 8001874:	681b      	ldr	r3, [r3, #0]
 8001876:	695b      	ldr	r3, [r3, #20]
 8001878:	61bb      	str	r3, [r7, #24]
 800187a:	68fb      	ldr	r3, [r7, #12]
 800187c:	681b      	ldr	r3, [r3, #0]
 800187e:	699b      	ldr	r3, [r3, #24]
 8001880:	61bb      	str	r3, [r7, #24]
 8001882:	69bb      	ldr	r3, [r7, #24]

      /* Generate Stop */
      SET_BIT(hi2c->Instance->CR1, I2C_CR1_STOP);
 8001884:	68fb      	ldr	r3, [r7, #12]
 8001886:	681b      	ldr	r3, [r3, #0]
 8001888:	681a      	ldr	r2, [r3, #0]
 800188a:	68fb      	ldr	r3, [r7, #12]
 800188c:	681b      	ldr	r3, [r3, #0]
 800188e:	f442 7200 	orr.w	r2, r2, #512	; 0x200
 8001892:	601a      	str	r2, [r3, #0]
  __ASM volatile ("cpsie i" : : : "memory");
 8001894:	b662      	cpsie	i
}
 8001896:	e035      	b.n	8001904 <HAL_I2C_Master_Receive+0x1b4>

      /* Re-enable IRQs */
      __enable_irq();
    }
    else if (hi2c->XferSize == 2U)
 8001898:	68fb      	ldr	r3, [r7, #12]
 800189a:	8d1b      	ldrh	r3, [r3, #40]	; 0x28
 800189c:	2b02      	cmp	r3, #2
 800189e:	d11e      	bne.n	80018de <HAL_I2C_Master_Receive+0x18e>
    {
      /* Enable Pos */
      SET_BIT(hi2c->Instance->CR1, I2C_CR1_POS);
 80018a0:	68fb      	ldr	r3, [r7, #12]
 80018a2:	681b      	ldr	r3, [r3, #0]
 80018a4:	681a      	ldr	r2, [r3, #0]
 80018a6:	68fb      	ldr	r3, [r7, #12]
 80018a8:	681b      	ldr	r3, [r3, #0]
 80018aa:	f442 6200 	orr.w	r2, r2, #2048	; 0x800
 80018ae:	601a      	str	r2, [r3, #0]
  __ASM volatile ("cpsid i" : : : "memory");
 80018b0:	b672      	cpsid	i
}
 80018b2:	bf00      	nop
      /* Disable all active IRQs around ADDR clearing and STOP programming because the EV6_3
      software sequence must complete before the current byte end of transfer */
      __disable_irq();

      /* Clear ADDR flag */
      __HAL_I2C_CLEAR_ADDRFLAG(hi2c);
 80018b4:	2300      	movs	r3, #0
 80018b6:	617b      	str	r3, [r7, #20]
 80018b8:	68fb      	ldr	r3, [r7, #12]
 80018ba:	681b      	ldr	r3, [r3, #0]
 80018bc:	695b      	ldr	r3, [r3, #20]
 80018be:	617b      	str	r3, [r7, #20]
 80018c0:	68fb      	ldr	r3, [r7, #12]
 80018c2:	681b      	ldr	r3, [r3, #0]
 80018c4:	699b      	ldr	r3, [r3, #24]
 80018c6:	617b      	str	r3, [r7, #20]
 80018c8:	697b      	ldr	r3, [r7, #20]

      /* Disable Acknowledge */
      CLEAR_BIT(hi2c->Instance->CR1, I2C_CR1_ACK);
 80018ca:	68fb      	ldr	r3, [r7, #12]
 80018cc:	681b      	ldr	r3, [r3, #0]
 80018ce:	681a      	ldr	r2, [r3, #0]
 80018d0:	68fb      	ldr	r3, [r7, #12]
 80018d2:	681b      	ldr	r3, [r3, #0]
 80018d4:	f422 6280 	bic.w	r2, r2, #1024	; 0x400
 80018d8:	601a      	str	r2, [r3, #0]
  __ASM volatile ("cpsie i" : : : "memory");
 80018da:	b662      	cpsie	i
}
 80018dc:	e012      	b.n	8001904 <HAL_I2C_Master_Receive+0x1b4>
      __enable_irq();
    }
    else
    {
      /* Enable Acknowledge */
      SET_BIT(hi2c->Instance->CR1, I2C_CR1_ACK);
 80018de:	68fb      	ldr	r3, [r7, #12]
 80018e0:	681b      	ldr	r3, [r3, #0]
 80018e2:	681a      	ldr	r2, [r3, #0]
 80018e4:	68fb      	ldr	r3, [r7, #12]
 80018e6:	681b      	ldr	r3, [r3, #0]
 80018e8:	f442 6280 	orr.w	r2, r2, #1024	; 0x400
 80018ec:	601a      	str	r2, [r3, #0]

      /* Clear ADDR flag */
      __HAL_I2C_CLEAR_ADDRFLAG(hi2c);
 80018ee:	2300      	movs	r3, #0
 80018f0:	613b      	str	r3, [r7, #16]
 80018f2:	68fb      	ldr	r3, [r7, #12]
 80018f4:	681b      	ldr	r3, [r3, #0]
 80018f6:	695b      	ldr	r3, [r3, #20]
 80018f8:	613b      	str	r3, [r7, #16]
 80018fa:	68fb      	ldr	r3, [r7, #12]
 80018fc:	681b      	ldr	r3, [r3, #0]
 80018fe:	699b      	ldr	r3, [r3, #24]
 8001900:	613b      	str	r3, [r7, #16]
 8001902:	693b      	ldr	r3, [r7, #16]
    }

    while (hi2c->XferSize > 0U)
 8001904:	e166      	b.n	8001bd4 <HAL_I2C_Master_Receive+0x484>
    {
      if (hi2c->XferSize <= 3U)
 8001906:	68fb      	ldr	r3, [r7, #12]
 8001908:	8d1b      	ldrh	r3, [r3, #40]	; 0x28
 800190a:	2b03      	cmp	r3, #3
 800190c:	f200 811f 	bhi.w	8001b4e <HAL_I2C_Master_Receive+0x3fe>
      {
        /* One byte */
        if (hi2c->XferSize == 1U)
 8001910:	68fb      	ldr	r3, [r7, #12]
 8001912:	8d1b      	ldrh	r3, [r3, #40]	; 0x28
 8001914:	2b01      	cmp	r3, #1
 8001916:	d123      	bne.n	8001960 <HAL_I2C_Master_Receive+0x210>
        {
          /* Wait until RXNE flag is set */
          if (I2C_WaitOnRXNEFlagUntilTimeout(hi2c, Timeout, tickstart) != HAL_OK)
 8001918:	6a7a      	ldr	r2, [r7, #36]	; 0x24
 800191a:	6b39      	ldr	r1, [r7, #48]	; 0x30
 800191c:	68f8      	ldr	r0, [r7, #12]
 800191e:	f000 fc1f 	bl	8002160 <I2C_WaitOnRXNEFlagUntilTimeout>
 8001922:	4603      	mov	r3, r0
 8001924:	2b00      	cmp	r3, #0
 8001926:	d001      	beq.n	800192c <HAL_I2C_Master_Receive+0x1dc>
          {
            return HAL_ERROR;
 8001928:	2301      	movs	r3, #1
 800192a:	e167      	b.n	8001bfc <HAL_I2C_Master_Receive+0x4ac>
          }

          /* Read data from DR */
          *hi2c->pBuffPtr = (uint8_t)hi2c->Instance->DR;
 800192c:	68fb      	ldr	r3, [r7, #12]
 800192e:	681b      	ldr	r3, [r3, #0]
 8001930:	691a      	ldr	r2, [r3, #16]
 8001932:	68fb      	ldr	r3, [r7, #12]
 8001934:	6a5b      	ldr	r3, [r3, #36]	; 0x24
 8001936:	b2d2      	uxtb	r2, r2
 8001938:	701a      	strb	r2, [r3, #0]

          /* Increment Buffer pointer */
          hi2c->pBuffPtr++;
 800193a:	68fb      	ldr	r3, [r7, #12]
 800193c:	6a5b      	ldr	r3, [r3, #36]	; 0x24
 800193e:	1c5a      	adds	r2, r3, #1
 8001940:	68fb      	ldr	r3, [r7, #12]
 8001942:	625a      	str	r2, [r3, #36]	; 0x24

          /* Update counter */
          hi2c->XferSize--;
 8001944:	68fb      	ldr	r3, [r7, #12]
 8001946:	8d1b      	ldrh	r3, [r3, #40]	; 0x28
 8001948:	3b01      	subs	r3, #1
 800194a:	b29a      	uxth	r2, r3
 800194c:	68fb      	ldr	r3, [r7, #12]
 800194e:	851a      	strh	r2, [r3, #40]	; 0x28
          hi2c->XferCount--;
 8001950:	68fb      	ldr	r3, [r7, #12]
 8001952:	8d5b      	ldrh	r3, [r3, #42]	; 0x2a
 8001954:	b29b      	uxth	r3, r3
 8001956:	3b01      	subs	r3, #1
 8001958:	b29a      	uxth	r2, r3
 800195a:	68fb      	ldr	r3, [r7, #12]
 800195c:	855a      	strh	r2, [r3, #42]	; 0x2a
 800195e:	e139      	b.n	8001bd4 <HAL_I2C_Master_Receive+0x484>
        }
        /* Two bytes */
        else if (hi2c->XferSize == 2U)
 8001960:	68fb      	ldr	r3, [r7, #12]
 8001962:	8d1b      	ldrh	r3, [r3, #40]	; 0x28
 8001964:	2b02      	cmp	r3, #2
 8001966:	d152      	bne.n	8001a0e <HAL_I2C_Master_Receive+0x2be>
        {
          /* Wait until BTF flag is set */
          if (I2C_WaitOnFlagUntilTimeout(hi2c, I2C_FLAG_BTF, RESET, Timeout, tickstart) != HAL_OK)
 8001968:	6a7b      	ldr	r3, [r7, #36]	; 0x24
 800196a:	9300      	str	r3, [sp, #0]
 800196c:	6b3b      	ldr	r3, [r7, #48]	; 0x30
 800196e:	2200      	movs	r2, #0
 8001970:	4906      	ldr	r1, [pc, #24]	; (800198c <HAL_I2C_Master_Receive+0x23c>)
 8001972:	68f8      	ldr	r0, [r7, #12]
 8001974:	f000 fa9c 	bl	8001eb0 <I2C_WaitOnFlagUntilTimeout>
 8001978:	4603      	mov	r3, r0
 800197a:	2b00      	cmp	r3, #0
 800197c:	d008      	beq.n	8001990 <HAL_I2C_Master_Receive+0x240>
          {
            return HAL_ERROR;
 800197e:	2301      	movs	r3, #1
 8001980:	e13c      	b.n	8001bfc <HAL_I2C_Master_Receive+0x4ac>
 8001982:	bf00      	nop
 8001984:	00100002 	.word	0x00100002
 8001988:	ffff0000 	.word	0xffff0000
 800198c:	00010004 	.word	0x00010004
  __ASM volatile ("cpsid i" : : : "memory");
 8001990:	b672      	cpsid	i
}
 8001992:	bf00      	nop
          /* Disable all active IRQs around ADDR clearing and STOP programming because the EV6_3
             software sequence must complete before the current byte end of transfer */
          __disable_irq();

          /* Generate Stop */
          SET_BIT(hi2c->Instance->CR1, I2C_CR1_STOP);
 8001994:	68fb      	ldr	r3, [r7, #12]
 8001996:	681b      	ldr	r3, [r3, #0]
 8001998:	681a      	ldr	r2, [r3, #0]
 800199a:	68fb      	ldr	r3, [r7, #12]
 800199c:	681b      	ldr	r3, [r3, #0]
 800199e:	f442 7200 	orr.w	r2, r2, #512	; 0x200
 80019a2:	601a      	str	r2, [r3, #0]

          /* Read data from DR */
          *hi2c->pBuffPtr = (uint8_t)hi2c->Instance->DR;
 80019a4:	68fb      	ldr	r3, [r7, #12]
 80019a6:	681b      	ldr	r3, [r3, #0]
 80019a8:	691a      	ldr	r2, [r3, #16]
 80019aa:	68fb      	ldr	r3, [r7, #12]
 80019ac:	6a5b      	ldr	r3, [r3, #36]	; 0x24
 80019ae:	b2d2      	uxtb	r2, r2
 80019b0:	701a      	strb	r2, [r3, #0]

          /* Increment Buffer pointer */
          hi2c->pBuffPtr++;
 80019b2:	68fb      	ldr	r3, [r7, #12]
 80019b4:	6a5b      	ldr	r3, [r3, #36]	; 0x24
 80019b6:	1c5a      	adds	r2, r3, #1
 80019b8:	68fb      	ldr	r3, [r7, #12]
 80019ba:	625a      	str	r2, [r3, #36]	; 0x24

          /* Update counter */
          hi2c->XferSize--;
 80019bc:	68fb      	ldr	r3, [r7, #12]
 80019be:	8d1b      	ldrh	r3, [r3, #40]	; 0x28
 80019c0:	3b01      	subs	r3, #1
 80019c2:	b29a      	uxth	r2, r3
 80019c4:	68fb      	ldr	r3, [r7, #12]
 80019c6:	851a      	strh	r2, [r3, #40]	; 0x28
          hi2c->XferCount--;
 80019c8:	68fb      	ldr	r3, [r7, #12]
 80019ca:	8d5b      	ldrh	r3, [r3, #42]	; 0x2a
 80019cc:	b29b      	uxth	r3, r3
 80019ce:	3b01      	subs	r3, #1
 80019d0:	b29a      	uxth	r2, r3
 80019d2:	68fb      	ldr	r3, [r7, #12]
 80019d4:	855a      	strh	r2, [r3, #42]	; 0x2a
  __ASM volatile ("cpsie i" : : : "memory");
 80019d6:	b662      	cpsie	i
}
 80019d8:	bf00      	nop

          /* Re-enable IRQs */
          __enable_irq();

          /* Read data from DR */
          *hi2c->pBuffPtr = (uint8_t)hi2c->Instance->DR;
 80019da:	68fb      	ldr	r3, [r7, #12]
 80019dc:	681b      	ldr	r3, [r3, #0]
 80019de:	691a      	ldr	r2, [r3, #16]
 80019e0:	68fb      	ldr	r3, [r7, #12]
 80019e2:	6a5b      	ldr	r3, [r3, #36]	; 0x24
 80019e4:	b2d2      	uxtb	r2, r2
 80019e6:	701a      	strb	r2, [r3, #0]

          /* Increment Buffer pointer */
          hi2c->pBuffPtr++;
 80019e8:	68fb      	ldr	r3, [r7, #12]
 80019ea:	6a5b      	ldr	r3, [r3, #36]	; 0x24
 80019ec:	1c5a      	adds	r2, r3, #1
 80019ee:	68fb      	ldr	r3, [r7, #12]
 80019f0:	625a      	str	r2, [r3, #36]	; 0x24

          /* Update counter */
          hi2c->XferSize--;
 80019f2:	68fb      	ldr	r3, [r7, #12]
 80019f4:	8d1b      	ldrh	r3, [r3, #40]	; 0x28
 80019f6:	3b01      	subs	r3, #1
 80019f8:	b29a      	uxth	r2, r3
 80019fa:	68fb      	ldr	r3, [r7, #12]
 80019fc:	851a      	strh	r2, [r3, #40]	; 0x28
          hi2c->XferCount--;
 80019fe:	68fb      	ldr	r3, [r7, #12]
 8001a00:	8d5b      	ldrh	r3, [r3, #42]	; 0x2a
 8001a02:	b29b      	uxth	r3, r3
 8001a04:	3b01      	subs	r3, #1
 8001a06:	b29a      	uxth	r2, r3
 8001a08:	68fb      	ldr	r3, [r7, #12]
 8001a0a:	855a      	strh	r2, [r3, #42]	; 0x2a
 8001a0c:	e0e2      	b.n	8001bd4 <HAL_I2C_Master_Receive+0x484>
        }
        /* 3 Last bytes */
        else
        {
          /* Wait until BTF flag is set */
          if (I2C_WaitOnFlagUntilTimeout(hi2c, I2C_FLAG_BTF, RESET, Timeout, tickstart) != HAL_OK)
 8001a0e:	6a7b      	ldr	r3, [r7, #36]	; 0x24
 8001a10:	9300      	str	r3, [sp, #0]
 8001a12:	6b3b      	ldr	r3, [r7, #48]	; 0x30
 8001a14:	2200      	movs	r2, #0
 8001a16:	497b      	ldr	r1, [pc, #492]	; (8001c04 <HAL_I2C_Master_Receive+0x4b4>)
 8001a18:	68f8      	ldr	r0, [r7, #12]
 8001a1a:	f000 fa49 	bl	8001eb0 <I2C_WaitOnFlagUntilTimeout>
 8001a1e:	4603      	mov	r3, r0
 8001a20:	2b00      	cmp	r3, #0
 8001a22:	d001      	beq.n	8001a28 <HAL_I2C_Master_Receive+0x2d8>
          {
            return HAL_ERROR;
 8001a24:	2301      	movs	r3, #1
 8001a26:	e0e9      	b.n	8001bfc <HAL_I2C_Master_Receive+0x4ac>
          }

          /* Disable Acknowledge */
          CLEAR_BIT(hi2c->Instance->CR1, I2C_CR1_ACK);
 8001a28:	68fb      	ldr	r3, [r7, #12]
 8001a2a:	681b      	ldr	r3, [r3, #0]
 8001a2c:	681a      	ldr	r2, [r3, #0]
 8001a2e:	68fb      	ldr	r3, [r7, #12]
 8001a30:	681b      	ldr	r3, [r3, #0]
 8001a32:	f422 6280 	bic.w	r2, r2, #1024	; 0x400
 8001a36:	601a      	str	r2, [r3, #0]
  __ASM volatile ("cpsid i" : : : "memory");
 8001a38:	b672      	cpsid	i
}
 8001a3a:	bf00      	nop
          /* Disable all active IRQs around ADDR clearing and STOP programming because the EV6_3
             software sequence must complete before the current byte end of transfer */
          __disable_irq();

          /* Read data from DR */
          *hi2c->pBuffPtr = (uint8_t)hi2c->Instance->DR;
 8001a3c:	68fb      	ldr	r3, [r7, #12]
 8001a3e:	681b      	ldr	r3, [r3, #0]
 8001a40:	691a      	ldr	r2, [r3, #16]
 8001a42:	68fb      	ldr	r3, [r7, #12]
 8001a44:	6a5b      	ldr	r3, [r3, #36]	; 0x24
 8001a46:	b2d2      	uxtb	r2, r2
 8001a48:	701a      	strb	r2, [r3, #0]

          /* Increment Buffer pointer */
          hi2c->pBuffPtr++;
 8001a4a:	68fb      	ldr	r3, [r7, #12]
 8001a4c:	6a5b      	ldr	r3, [r3, #36]	; 0x24
 8001a4e:	1c5a      	adds	r2, r3, #1
 8001a50:	68fb      	ldr	r3, [r7, #12]
 8001a52:	625a      	str	r2, [r3, #36]	; 0x24

          /* Update counter */
          hi2c->XferSize--;
 8001a54:	68fb      	ldr	r3, [r7, #12]
 8001a56:	8d1b      	ldrh	r3, [r3, #40]	; 0x28
 8001a58:	3b01      	subs	r3, #1
 8001a5a:	b29a      	uxth	r2, r3
 8001a5c:	68fb      	ldr	r3, [r7, #12]
 8001a5e:	851a      	strh	r2, [r3, #40]	; 0x28
          hi2c->XferCount--;
 8001a60:	68fb      	ldr	r3, [r7, #12]
 8001a62:	8d5b      	ldrh	r3, [r3, #42]	; 0x2a
 8001a64:	b29b      	uxth	r3, r3
 8001a66:	3b01      	subs	r3, #1
 8001a68:	b29a      	uxth	r2, r3
 8001a6a:	68fb      	ldr	r3, [r7, #12]
 8001a6c:	855a      	strh	r2, [r3, #42]	; 0x2a

          /* Wait until BTF flag is set */
          count = I2C_TIMEOUT_FLAG * (SystemCoreClock / 25U / 1000U);
 8001a6e:	4b66      	ldr	r3, [pc, #408]	; (8001c08 <HAL_I2C_Master_Receive+0x4b8>)
 8001a70:	681b      	ldr	r3, [r3, #0]
 8001a72:	08db      	lsrs	r3, r3, #3
 8001a74:	4a65      	ldr	r2, [pc, #404]	; (8001c0c <HAL_I2C_Master_Receive+0x4bc>)
 8001a76:	fba2 2303 	umull	r2, r3, r2, r3
 8001a7a:	0a1a      	lsrs	r2, r3, #8
 8001a7c:	4613      	mov	r3, r2
 8001a7e:	009b      	lsls	r3, r3, #2
 8001a80:	4413      	add	r3, r2
 8001a82:	00da      	lsls	r2, r3, #3
 8001a84:	1ad3      	subs	r3, r2, r3
 8001a86:	623b      	str	r3, [r7, #32]
          do
          {
            count--;
 8001a88:	6a3b      	ldr	r3, [r7, #32]
 8001a8a:	3b01      	subs	r3, #1
 8001a8c:	623b      	str	r3, [r7, #32]
            if (count == 0U)
 8001a8e:	6a3b      	ldr	r3, [r7, #32]
 8001a90:	2b00      	cmp	r3, #0
 8001a92:	d118      	bne.n	8001ac6 <HAL_I2C_Master_Receive+0x376>
            {
              hi2c->PreviousState       = I2C_STATE_NONE;
 8001a94:	68fb      	ldr	r3, [r7, #12]
 8001a96:	2200      	movs	r2, #0
 8001a98:	631a      	str	r2, [r3, #48]	; 0x30
              hi2c->State               = HAL_I2C_STATE_READY;
 8001a9a:	68fb      	ldr	r3, [r7, #12]
 8001a9c:	2220      	movs	r2, #32
 8001a9e:	f883 203d 	strb.w	r2, [r3, #61]	; 0x3d
              hi2c->Mode                = HAL_I2C_MODE_NONE;
 8001aa2:	68fb      	ldr	r3, [r7, #12]
 8001aa4:	2200      	movs	r2, #0
 8001aa6:	f883 203e 	strb.w	r2, [r3, #62]	; 0x3e
              hi2c->ErrorCode           |= HAL_I2C_ERROR_TIMEOUT;
 8001aaa:	68fb      	ldr	r3, [r7, #12]
 8001aac:	6c1b      	ldr	r3, [r3, #64]	; 0x40
 8001aae:	f043 0220 	orr.w	r2, r3, #32
 8001ab2:	68fb      	ldr	r3, [r7, #12]
 8001ab4:	641a      	str	r2, [r3, #64]	; 0x40
  __ASM volatile ("cpsie i" : : : "memory");
 8001ab6:	b662      	cpsie	i
}
 8001ab8:	bf00      	nop

              /* Re-enable IRQs */
              __enable_irq();

              /* Process Unlocked */
              __HAL_UNLOCK(hi2c);
 8001aba:	68fb      	ldr	r3, [r7, #12]
 8001abc:	2200      	movs	r2, #0
 8001abe:	f883 203c 	strb.w	r2, [r3, #60]	; 0x3c

              return HAL_ERROR;
 8001ac2:	2301      	movs	r3, #1
 8001ac4:	e09a      	b.n	8001bfc <HAL_I2C_Master_Receive+0x4ac>
            }
          }
          while (__HAL_I2C_GET_FLAG(hi2c, I2C_FLAG_BTF) == RESET);
 8001ac6:	68fb      	ldr	r3, [r7, #12]
 8001ac8:	681b      	ldr	r3, [r3, #0]
 8001aca:	695b      	ldr	r3, [r3, #20]
 8001acc:	f003 0304 	and.w	r3, r3, #4
 8001ad0:	2b04      	cmp	r3, #4
 8001ad2:	d1d9      	bne.n	8001a88 <HAL_I2C_Master_Receive+0x338>

          /* Generate Stop */
          SET_BIT(hi2c->Instance->CR1, I2C_CR1_STOP);
 8001ad4:	68fb      	ldr	r3, [r7, #12]
 8001ad6:	681b      	ldr	r3, [r3, #0]
 8001ad8:	681a      	ldr	r2, [r3, #0]
 8001ada:	68fb      	ldr	r3, [r7, #12]
 8001adc:	681b      	ldr	r3, [r3, #0]
 8001ade:	f442 7200 	orr.w	r2, r2, #512	; 0x200
 8001ae2:	601a      	str	r2, [r3, #0]

          /* Read data from DR */
          *hi2c->pBuffPtr = (uint8_t)hi2c->Instance->DR;
 8001ae4:	68fb      	ldr	r3, [r7, #12]
 8001ae6:	681b      	ldr	r3, [r3, #0]
 8001ae8:	691a      	ldr	r2, [r3, #16]
 8001aea:	68fb      	ldr	r3, [r7, #12]
 8001aec:	6a5b      	ldr	r3, [r3, #36]	; 0x24
 8001aee:	b2d2      	uxtb	r2, r2
 8001af0:	701a      	strb	r2, [r3, #0]

          /* Increment Buffer pointer */
          hi2c->pBuffPtr++;
 8001af2:	68fb      	ldr	r3, [r7, #12]
 8001af4:	6a5b      	ldr	r3, [r3, #36]	; 0x24
 8001af6:	1c5a      	adds	r2, r3, #1
 8001af8:	68fb      	ldr	r3, [r7, #12]
 8001afa:	625a      	str	r2, [r3, #36]	; 0x24

          /* Update counter */
          hi2c->XferSize--;
 8001afc:	68fb      	ldr	r3, [r7, #12]
 8001afe:	8d1b      	ldrh	r3, [r3, #40]	; 0x28
 8001b00:	3b01      	subs	r3, #1
 8001b02:	b29a      	uxth	r2, r3
 8001b04:	68fb      	ldr	r3, [r7, #12]
 8001b06:	851a      	strh	r2, [r3, #40]	; 0x28
          hi2c->XferCount--;
 8001b08:	68fb      	ldr	r3, [r7, #12]
 8001b0a:	8d5b      	ldrh	r3, [r3, #42]	; 0x2a
 8001b0c:	b29b      	uxth	r3, r3
 8001b0e:	3b01      	subs	r3, #1
 8001b10:	b29a      	uxth	r2, r3
 8001b12:	68fb      	ldr	r3, [r7, #12]
 8001b14:	855a      	strh	r2, [r3, #42]	; 0x2a
  __ASM volatile ("cpsie i" : : : "memory");
 8001b16:	b662      	cpsie	i
}
 8001b18:	bf00      	nop

          /* Re-enable IRQs */
          __enable_irq();

          /* Read data from DR */
          *hi2c->pBuffPtr = (uint8_t)hi2c->Instance->DR;
 8001b1a:	68fb      	ldr	r3, [r7, #12]
 8001b1c:	681b      	ldr	r3, [r3, #0]
 8001b1e:	691a      	ldr	r2, [r3, #16]
 8001b20:	68fb      	ldr	r3, [r7, #12]
 8001b22:	6a5b      	ldr	r3, [r3, #36]	; 0x24
 8001b24:	b2d2      	uxtb	r2, r2
 8001b26:	701a      	strb	r2, [r3, #0]

          /* Increment Buffer pointer */
          hi2c->pBuffPtr++;
 8001b28:	68fb      	ldr	r3, [r7, #12]
 8001b2a:	6a5b      	ldr	r3, [r3, #36]	; 0x24
 8001b2c:	1c5a      	adds	r2, r3, #1
 8001b2e:	68fb      	ldr	r3, [r7, #12]
 8001b30:	625a      	str	r2, [r3, #36]	; 0x24

          /* Update counter */
          hi2c->XferSize--;
 8001b32:	68fb      	ldr	r3, [r7, #12]
 8001b34:	8d1b      	ldrh	r3, [r3, #40]	; 0x28
 8001b36:	3b01      	subs	r3, #1
 8001b38:	b29a      	uxth	r2, r3
 8001b3a:	68fb      	ldr	r3, [r7, #12]
 8001b3c:	851a      	strh	r2, [r3, #40]	; 0x28
          hi2c->XferCount--;
 8001b3e:	68fb      	ldr	r3, [r7, #12]
 8001b40:	8d5b      	ldrh	r3, [r3, #42]	; 0x2a
 8001b42:	b29b      	uxth	r3, r3
 8001b44:	3b01      	subs	r3, #1
 8001b46:	b29a      	uxth	r2, r3
 8001b48:	68fb      	ldr	r3, [r7, #12]
 8001b4a:	855a      	strh	r2, [r3, #42]	; 0x2a
 8001b4c:	e042      	b.n	8001bd4 <HAL_I2C_Master_Receive+0x484>
        }
      }
      else
      {
        /* Wait until RXNE flag is set */
        if (I2C_WaitOnRXNEFlagUntilTimeout(hi2c, Timeout, tickstart) != HAL_OK)
 8001b4e:	6a7a      	ldr	r2, [r7, #36]	; 0x24
 8001b50:	6b39      	ldr	r1, [r7, #48]	; 0x30
 8001b52:	68f8      	ldr	r0, [r7, #12]
 8001b54:	f000 fb04 	bl	8002160 <I2C_WaitOnRXNEFlagUntilTimeout>
 8001b58:	4603      	mov	r3, r0
 8001b5a:	2b00      	cmp	r3, #0
 8001b5c:	d001      	beq.n	8001b62 <HAL_I2C_Master_Receive+0x412>
        {
          return HAL_ERROR;
 8001b5e:	2301      	movs	r3, #1
 8001b60:	e04c      	b.n	8001bfc <HAL_I2C_Master_Receive+0x4ac>
        }

        /* Read data from DR */
        *hi2c->pBuffPtr = (uint8_t)hi2c->Instance->DR;
 8001b62:	68fb      	ldr	r3, [r7, #12]
 8001b64:	681b      	ldr	r3, [r3, #0]
 8001b66:	691a      	ldr	r2, [r3, #16]
 8001b68:	68fb      	ldr	r3, [r7, #12]
 8001b6a:	6a5b      	ldr	r3, [r3, #36]	; 0x24
 8001b6c:	b2d2      	uxtb	r2, r2
 8001b6e:	701a      	strb	r2, [r3, #0]

        /* Increment Buffer pointer */
        hi2c->pBuffPtr++;
 8001b70:	68fb      	ldr	r3, [r7, #12]
 8001b72:	6a5b      	ldr	r3, [r3, #36]	; 0x24
 8001b74:	1c5a      	adds	r2, r3, #1
 8001b76:	68fb      	ldr	r3, [r7, #12]
 8001b78:	625a      	str	r2, [r3, #36]	; 0x24

        /* Update counter */
        hi2c->XferSize--;
 8001b7a:	68fb      	ldr	r3, [r7, #12]
 8001b7c:	8d1b      	ldrh	r3, [r3, #40]	; 0x28
 8001b7e:	3b01      	subs	r3, #1
 8001b80:	b29a      	uxth	r2, r3
 8001b82:	68fb      	ldr	r3, [r7, #12]
 8001b84:	851a      	strh	r2, [r3, #40]	; 0x28
        hi2c->XferCount--;
 8001b86:	68fb      	ldr	r3, [r7, #12]
 8001b88:	8d5b      	ldrh	r3, [r3, #42]	; 0x2a
 8001b8a:	b29b      	uxth	r3, r3
 8001b8c:	3b01      	subs	r3, #1
 8001b8e:	b29a      	uxth	r2, r3
 8001b90:	68fb      	ldr	r3, [r7, #12]
 8001b92:	855a      	strh	r2, [r3, #42]	; 0x2a

        if (__HAL_I2C_GET_FLAG(hi2c, I2C_FLAG_BTF) == SET)
 8001b94:	68fb      	ldr	r3, [r7, #12]
 8001b96:	681b      	ldr	r3, [r3, #0]
 8001b98:	695b      	ldr	r3, [r3, #20]
 8001b9a:	f003 0304 	and.w	r3, r3, #4
 8001b9e:	2b04      	cmp	r3, #4
 8001ba0:	d118      	bne.n	8001bd4 <HAL_I2C_Master_Receive+0x484>
        {
          /* Read data from DR */
          *hi2c->pBuffPtr = (uint8_t)hi2c->Instance->DR;
 8001ba2:	68fb      	ldr	r3, [r7, #12]
 8001ba4:	681b      	ldr	r3, [r3, #0]
 8001ba6:	691a      	ldr	r2, [r3, #16]
 8001ba8:	68fb      	ldr	r3, [r7, #12]
 8001baa:	6a5b      	ldr	r3, [r3, #36]	; 0x24
 8001bac:	b2d2      	uxtb	r2, r2
 8001bae:	701a      	strb	r2, [r3, #0]

          /* Increment Buffer pointer */
          hi2c->pBuffPtr++;
 8001bb0:	68fb      	ldr	r3, [r7, #12]
 8001bb2:	6a5b      	ldr	r3, [r3, #36]	; 0x24
 8001bb4:	1c5a      	adds	r2, r3, #1
 8001bb6:	68fb      	ldr	r3, [r7, #12]
 8001bb8:	625a      	str	r2, [r3, #36]	; 0x24

          /* Update counter */
          hi2c->XferSize--;
 8001bba:	68fb      	ldr	r3, [r7, #12]
 8001bbc:	8d1b      	ldrh	r3, [r3, #40]	; 0x28
 8001bbe:	3b01      	subs	r3, #1
 8001bc0:	b29a      	uxth	r2, r3
 8001bc2:	68fb      	ldr	r3, [r7, #12]
 8001bc4:	851a      	strh	r2, [r3, #40]	; 0x28
          hi2c->XferCount--;
 8001bc6:	68fb      	ldr	r3, [r7, #12]
 8001bc8:	8d5b      	ldrh	r3, [r3, #42]	; 0x2a
 8001bca:	b29b      	uxth	r3, r3
 8001bcc:	3b01      	subs	r3, #1
 8001bce:	b29a      	uxth	r2, r3
 8001bd0:	68fb      	ldr	r3, [r7, #12]
 8001bd2:	855a      	strh	r2, [r3, #42]	; 0x2a
    while (hi2c->XferSize > 0U)
 8001bd4:	68fb      	ldr	r3, [r7, #12]
 8001bd6:	8d1b      	ldrh	r3, [r3, #40]	; 0x28
 8001bd8:	2b00      	cmp	r3, #0
 8001bda:	f47f ae94 	bne.w	8001906 <HAL_I2C_Master_Receive+0x1b6>
        }
      }
    }

    hi2c->State = HAL_I2C_STATE_READY;
 8001bde:	68fb      	ldr	r3, [r7, #12]
 8001be0:	2220      	movs	r2, #32
 8001be2:	f883 203d 	strb.w	r2, [r3, #61]	; 0x3d
    hi2c->Mode = HAL_I2C_MODE_NONE;
 8001be6:	68fb      	ldr	r3, [r7, #12]
 8001be8:	2200      	movs	r2, #0
 8001bea:	f883 203e 	strb.w	r2, [r3, #62]	; 0x3e

    /* Process Unlocked */
    __HAL_UNLOCK(hi2c);
 8001bee:	68fb      	ldr	r3, [r7, #12]
 8001bf0:	2200      	movs	r2, #0
 8001bf2:	f883 203c 	strb.w	r2, [r3, #60]	; 0x3c

    return HAL_OK;
 8001bf6:	2300      	movs	r3, #0
 8001bf8:	e000      	b.n	8001bfc <HAL_I2C_Master_Receive+0x4ac>
  }
  else
  {
    return HAL_BUSY;
 8001bfa:	2302      	movs	r3, #2
  }
}
 8001bfc:	4618      	mov	r0, r3
 8001bfe:	3728      	adds	r7, #40	; 0x28
 8001c00:	46bd      	mov	sp, r7
 8001c02:	bd80      	pop	{r7, pc}
 8001c04:	00010004 	.word	0x00010004
 8001c08:	20000000 	.word	0x20000000
 8001c0c:	14f8b589 	.word	0x14f8b589

08001c10 <I2C_MasterRequestWrite>:
  * @param  Timeout Timeout duration
  * @param  Tickstart Tick start value
  * @retval HAL status
  */
static HAL_StatusTypeDef I2C_MasterRequestWrite(I2C_HandleTypeDef *hi2c, uint16_t DevAddress, uint32_t Timeout, uint32_t Tickstart)
{
 8001c10:	b580      	push	{r7, lr}
 8001c12:	b088      	sub	sp, #32
 8001c14:	af02      	add	r7, sp, #8
 8001c16:	60f8      	str	r0, [r7, #12]
 8001c18:	607a      	str	r2, [r7, #4]
 8001c1a:	603b      	str	r3, [r7, #0]
 8001c1c:	460b      	mov	r3, r1
 8001c1e:	817b      	strh	r3, [r7, #10]
  /* Declaration of temporary variable to prevent undefined behavior of volatile usage */
  uint32_t CurrentXferOptions = hi2c->XferOptions;
 8001c20:	68fb      	ldr	r3, [r7, #12]
 8001c22:	6adb      	ldr	r3, [r3, #44]	; 0x2c
 8001c24:	617b      	str	r3, [r7, #20]

  /* Generate Start condition if first transfer */
  if ((CurrentXferOptions == I2C_FIRST_AND_LAST_FRAME) || (CurrentXferOptions == I2C_FIRST_FRAME) || (CurrentXferOptions == I2C_NO_OPTION_FRAME))
 8001c26:	697b      	ldr	r3, [r7, #20]
 8001c28:	2b08      	cmp	r3, #8
 8001c2a:	d006      	beq.n	8001c3a <I2C_MasterRequestWrite+0x2a>
 8001c2c:	697b      	ldr	r3, [r7, #20]
 8001c2e:	2b01      	cmp	r3, #1
 8001c30:	d003      	beq.n	8001c3a <I2C_MasterRequestWrite+0x2a>
 8001c32:	697b      	ldr	r3, [r7, #20]
 8001c34:	f513 3f80 	cmn.w	r3, #65536	; 0x10000
 8001c38:	d108      	bne.n	8001c4c <I2C_MasterRequestWrite+0x3c>
  {
    /* Generate Start */
    SET_BIT(hi2c->Instance->CR1, I2C_CR1_START);
 8001c3a:	68fb      	ldr	r3, [r7, #12]
 8001c3c:	681b      	ldr	r3, [r3, #0]
 8001c3e:	681a      	ldr	r2, [r3, #0]
 8001c40:	68fb      	ldr	r3, [r7, #12]
 8001c42:	681b      	ldr	r3, [r3, #0]
 8001c44:	f442 7280 	orr.w	r2, r2, #256	; 0x100
 8001c48:	601a      	str	r2, [r3, #0]
 8001c4a:	e00b      	b.n	8001c64 <I2C_MasterRequestWrite+0x54>
  }
  else if (hi2c->PreviousState == I2C_STATE_MASTER_BUSY_RX)
 8001c4c:	68fb      	ldr	r3, [r7, #12]
 8001c4e:	6b1b      	ldr	r3, [r3, #48]	; 0x30
 8001c50:	2b12      	cmp	r3, #18
 8001c52:	d107      	bne.n	8001c64 <I2C_MasterRequestWrite+0x54>
  {
    /* Generate ReStart */
    SET_BIT(hi2c->Instance->CR1, I2C_CR1_START);
 8001c54:	68fb      	ldr	r3, [r7, #12]
 8001c56:	681b      	ldr	r3, [r3, #0]
 8001c58:	681a      	ldr	r2, [r3, #0]
 8001c5a:	68fb      	ldr	r3, [r7, #12]
 8001c5c:	681b      	ldr	r3, [r3, #0]
 8001c5e:	f442 7280 	orr.w	r2, r2, #256	; 0x100
 8001c62:	601a      	str	r2, [r3, #0]
  {
    /* Do nothing */
  }

  /* Wait until SB flag is set */
  if (I2C_WaitOnFlagUntilTimeout(hi2c, I2C_FLAG_SB, RESET, Timeout, Tickstart) != HAL_OK)
 8001c64:	683b      	ldr	r3, [r7, #0]
 8001c66:	9300      	str	r3, [sp, #0]
 8001c68:	687b      	ldr	r3, [r7, #4]
 8001c6a:	2200      	movs	r2, #0
 8001c6c:	f04f 1101 	mov.w	r1, #65537	; 0x10001
 8001c70:	68f8      	ldr	r0, [r7, #12]
 8001c72:	f000 f91d 	bl	8001eb0 <I2C_WaitOnFlagUntilTimeout>
 8001c76:	4603      	mov	r3, r0
 8001c78:	2b00      	cmp	r3, #0
 8001c7a:	d00d      	beq.n	8001c98 <I2C_MasterRequestWrite+0x88>
  {
    if (READ_BIT(hi2c->Instance->CR1, I2C_CR1_START) == I2C_CR1_START)
 8001c7c:	68fb      	ldr	r3, [r7, #12]
 8001c7e:	681b      	ldr	r3, [r3, #0]
 8001c80:	681b      	ldr	r3, [r3, #0]
 8001c82:	f403 7380 	and.w	r3, r3, #256	; 0x100
 8001c86:	f5b3 7f80 	cmp.w	r3, #256	; 0x100
 8001c8a:	d103      	bne.n	8001c94 <I2C_MasterRequestWrite+0x84>
    {
      hi2c->ErrorCode = HAL_I2C_WRONG_START;
 8001c8c:	68fb      	ldr	r3, [r7, #12]
 8001c8e:	f44f 7200 	mov.w	r2, #512	; 0x200
 8001c92:	641a      	str	r2, [r3, #64]	; 0x40
    }
    return HAL_TIMEOUT;
 8001c94:	2303      	movs	r3, #3
 8001c96:	e035      	b.n	8001d04 <I2C_MasterRequestWrite+0xf4>
  }

  if (hi2c->Init.AddressingMode == I2C_ADDRESSINGMODE_7BIT)
 8001c98:	68fb      	ldr	r3, [r7, #12]
 8001c9a:	691b      	ldr	r3, [r3, #16]
 8001c9c:	f5b3 4f80 	cmp.w	r3, #16384	; 0x4000
 8001ca0:	d108      	bne.n	8001cb4 <I2C_MasterRequestWrite+0xa4>
  {
    /* Send slave address */
    hi2c->Instance->DR = I2C_7BIT_ADD_WRITE(DevAddress);
 8001ca2:	897b      	ldrh	r3, [r7, #10]
 8001ca4:	b2db      	uxtb	r3, r3
 8001ca6:	461a      	mov	r2, r3
 8001ca8:	68fb      	ldr	r3, [r7, #12]
 8001caa:	681b      	ldr	r3, [r3, #0]
 8001cac:	f002 02fe 	and.w	r2, r2, #254	; 0xfe
 8001cb0:	611a      	str	r2, [r3, #16]
 8001cb2:	e01b      	b.n	8001cec <I2C_MasterRequestWrite+0xdc>
  }
  else
  {
    /* Send header of slave address */
    hi2c->Instance->DR = I2C_10BIT_HEADER_WRITE(DevAddress);
 8001cb4:	897b      	ldrh	r3, [r7, #10]
 8001cb6:	11db      	asrs	r3, r3, #7
 8001cb8:	b2db      	uxtb	r3, r3
 8001cba:	f003 0306 	and.w	r3, r3, #6
 8001cbe:	b2db      	uxtb	r3, r3
 8001cc0:	f063 030f 	orn	r3, r3, #15
 8001cc4:	b2da      	uxtb	r2, r3
 8001cc6:	68fb      	ldr	r3, [r7, #12]
 8001cc8:	681b      	ldr	r3, [r3, #0]
 8001cca:	611a      	str	r2, [r3, #16]

    /* Wait until ADD10 flag is set */
    if (I2C_WaitOnMasterAddressFlagUntilTimeout(hi2c, I2C_FLAG_ADD10, Timeout, Tickstart) != HAL_OK)
 8001ccc:	683b      	ldr	r3, [r7, #0]
 8001cce:	687a      	ldr	r2, [r7, #4]
 8001cd0:	490e      	ldr	r1, [pc, #56]	; (8001d0c <I2C_MasterRequestWrite+0xfc>)
 8001cd2:	68f8      	ldr	r0, [r7, #12]
 8001cd4:	f000 f943 	bl	8001f5e <I2C_WaitOnMasterAddressFlagUntilTimeout>
 8001cd8:	4603      	mov	r3, r0
 8001cda:	2b00      	cmp	r3, #0
 8001cdc:	d001      	beq.n	8001ce2 <I2C_MasterRequestWrite+0xd2>
    {
      return HAL_ERROR;
 8001cde:	2301      	movs	r3, #1
 8001ce0:	e010      	b.n	8001d04 <I2C_MasterRequestWrite+0xf4>
    }

    /* Send slave address */
    hi2c->Instance->DR = I2C_10BIT_ADDRESS(DevAddress);
 8001ce2:	897b      	ldrh	r3, [r7, #10]
 8001ce4:	b2da      	uxtb	r2, r3
 8001ce6:	68fb      	ldr	r3, [r7, #12]
 8001ce8:	681b      	ldr	r3, [r3, #0]
 8001cea:	611a      	str	r2, [r3, #16]
  }

  /* Wait until ADDR flag is set */
  if (I2C_WaitOnMasterAddressFlagUntilTimeout(hi2c, I2C_FLAG_ADDR, Timeout, Tickstart) != HAL_OK)
 8001cec:	683b      	ldr	r3, [r7, #0]
 8001cee:	687a      	ldr	r2, [r7, #4]
 8001cf0:	4907      	ldr	r1, [pc, #28]	; (8001d10 <I2C_MasterRequestWrite+0x100>)
 8001cf2:	68f8      	ldr	r0, [r7, #12]
 8001cf4:	f000 f933 	bl	8001f5e <I2C_WaitOnMasterAddressFlagUntilTimeout>
 8001cf8:	4603      	mov	r3, r0
 8001cfa:	2b00      	cmp	r3, #0
 8001cfc:	d001      	beq.n	8001d02 <I2C_MasterRequestWrite+0xf2>
  {
    return HAL_ERROR;
 8001cfe:	2301      	movs	r3, #1
 8001d00:	e000      	b.n	8001d04 <I2C_MasterRequestWrite+0xf4>
  }

  return HAL_OK;
 8001d02:	2300      	movs	r3, #0
}
 8001d04:	4618      	mov	r0, r3
 8001d06:	3718      	adds	r7, #24
 8001d08:	46bd      	mov	sp, r7
 8001d0a:	bd80      	pop	{r7, pc}
 8001d0c:	00010008 	.word	0x00010008
 8001d10:	00010002 	.word	0x00010002

08001d14 <I2C_MasterRequestRead>:
  * @param  Timeout Timeout duration
  * @param  Tickstart Tick start value
  * @retval HAL status
  */
static HAL_StatusTypeDef I2C_MasterRequestRead(I2C_HandleTypeDef *hi2c, uint16_t DevAddress, uint32_t Timeout, uint32_t Tickstart)
{
 8001d14:	b580      	push	{r7, lr}
 8001d16:	b088      	sub	sp, #32
 8001d18:	af02      	add	r7, sp, #8
 8001d1a:	60f8      	str	r0, [r7, #12]
 8001d1c:	607a      	str	r2, [r7, #4]
 8001d1e:	603b      	str	r3, [r7, #0]
 8001d20:	460b      	mov	r3, r1
 8001d22:	817b      	strh	r3, [r7, #10]
  /* Declaration of temporary variable to prevent undefined behavior of volatile usage */
  uint32_t CurrentXferOptions = hi2c->XferOptions;
 8001d24:	68fb      	ldr	r3, [r7, #12]
 8001d26:	6adb      	ldr	r3, [r3, #44]	; 0x2c
 8001d28:	617b      	str	r3, [r7, #20]

  /* Enable Acknowledge */
  SET_BIT(hi2c->Instance->CR1, I2C_CR1_ACK);
 8001d2a:	68fb      	ldr	r3, [r7, #12]
 8001d2c:	681b      	ldr	r3, [r3, #0]
 8001d2e:	681a      	ldr	r2, [r3, #0]
 8001d30:	68fb      	ldr	r3, [r7, #12]
 8001d32:	681b      	ldr	r3, [r3, #0]
 8001d34:	f442 6280 	orr.w	r2, r2, #1024	; 0x400
 8001d38:	601a      	str	r2, [r3, #0]

  /* Generate Start condition if first transfer */
  if ((CurrentXferOptions == I2C_FIRST_AND_LAST_FRAME) || (CurrentXferOptions == I2C_FIRST_FRAME)  || (CurrentXferOptions == I2C_NO_OPTION_FRAME))
 8001d3a:	697b      	ldr	r3, [r7, #20]
 8001d3c:	2b08      	cmp	r3, #8
 8001d3e:	d006      	beq.n	8001d4e <I2C_MasterRequestRead+0x3a>
 8001d40:	697b      	ldr	r3, [r7, #20]
 8001d42:	2b01      	cmp	r3, #1
 8001d44:	d003      	beq.n	8001d4e <I2C_MasterRequestRead+0x3a>
 8001d46:	697b      	ldr	r3, [r7, #20]
 8001d48:	f513 3f80 	cmn.w	r3, #65536	; 0x10000
 8001d4c:	d108      	bne.n	8001d60 <I2C_MasterRequestRead+0x4c>
  {
    /* Generate Start */
    SET_BIT(hi2c->Instance->CR1, I2C_CR1_START);
 8001d4e:	68fb      	ldr	r3, [r7, #12]
 8001d50:	681b      	ldr	r3, [r3, #0]
 8001d52:	681a      	ldr	r2, [r3, #0]
 8001d54:	68fb      	ldr	r3, [r7, #12]
 8001d56:	681b      	ldr	r3, [r3, #0]
 8001d58:	f442 7280 	orr.w	r2, r2, #256	; 0x100
 8001d5c:	601a      	str	r2, [r3, #0]
 8001d5e:	e00b      	b.n	8001d78 <I2C_MasterRequestRead+0x64>
  }
  else if (hi2c->PreviousState == I2C_STATE_MASTER_BUSY_TX)
 8001d60:	68fb      	ldr	r3, [r7, #12]
 8001d62:	6b1b      	ldr	r3, [r3, #48]	; 0x30
 8001d64:	2b11      	cmp	r3, #17
 8001d66:	d107      	bne.n	8001d78 <I2C_MasterRequestRead+0x64>
  {
    /* Generate ReStart */
    SET_BIT(hi2c->Instance->CR1, I2C_CR1_START);
 8001d68:	68fb      	ldr	r3, [r7, #12]
 8001d6a:	681b      	ldr	r3, [r3, #0]
 8001d6c:	681a      	ldr	r2, [r3, #0]
 8001d6e:	68fb      	ldr	r3, [r7, #12]
 8001d70:	681b      	ldr	r3, [r3, #0]
 8001d72:	f442 7280 	orr.w	r2, r2, #256	; 0x100
 8001d76:	601a      	str	r2, [r3, #0]
  {
    /* Do nothing */
  }

  /* Wait until SB flag is set */
  if (I2C_WaitOnFlagUntilTimeout(hi2c, I2C_FLAG_SB, RESET, Timeout, Tickstart) != HAL_OK)
 8001d78:	683b      	ldr	r3, [r7, #0]
 8001d7a:	9300      	str	r3, [sp, #0]
 8001d7c:	687b      	ldr	r3, [r7, #4]
 8001d7e:	2200      	movs	r2, #0
 8001d80:	f04f 1101 	mov.w	r1, #65537	; 0x10001
 8001d84:	68f8      	ldr	r0, [r7, #12]
 8001d86:	f000 f893 	bl	8001eb0 <I2C_WaitOnFlagUntilTimeout>
 8001d8a:	4603      	mov	r3, r0
 8001d8c:	2b00      	cmp	r3, #0
 8001d8e:	d00d      	beq.n	8001dac <I2C_MasterRequestRead+0x98>
  {
    if (READ_BIT(hi2c->Instance->CR1, I2C_CR1_START) == I2C_CR1_START)
 8001d90:	68fb      	ldr	r3, [r7, #12]
 8001d92:	681b      	ldr	r3, [r3, #0]
 8001d94:	681b      	ldr	r3, [r3, #0]
 8001d96:	f403 7380 	and.w	r3, r3, #256	; 0x100
 8001d9a:	f5b3 7f80 	cmp.w	r3, #256	; 0x100
 8001d9e:	d103      	bne.n	8001da8 <I2C_MasterRequestRead+0x94>
    {
      hi2c->ErrorCode = HAL_I2C_WRONG_START;
 8001da0:	68fb      	ldr	r3, [r7, #12]
 8001da2:	f44f 7200 	mov.w	r2, #512	; 0x200
 8001da6:	641a      	str	r2, [r3, #64]	; 0x40
    }
    return HAL_TIMEOUT;
 8001da8:	2303      	movs	r3, #3
 8001daa:	e079      	b.n	8001ea0 <I2C_MasterRequestRead+0x18c>
  }

  if (hi2c->Init.AddressingMode == I2C_ADDRESSINGMODE_7BIT)
 8001dac:	68fb      	ldr	r3, [r7, #12]
 8001dae:	691b      	ldr	r3, [r3, #16]
 8001db0:	f5b3 4f80 	cmp.w	r3, #16384	; 0x4000
 8001db4:	d108      	bne.n	8001dc8 <I2C_MasterRequestRead+0xb4>
  {
    /* Send slave address */
    hi2c->Instance->DR = I2C_7BIT_ADD_READ(DevAddress);
 8001db6:	897b      	ldrh	r3, [r7, #10]
 8001db8:	b2db      	uxtb	r3, r3
 8001dba:	f043 0301 	orr.w	r3, r3, #1
 8001dbe:	b2da      	uxtb	r2, r3
 8001dc0:	68fb      	ldr	r3, [r7, #12]
 8001dc2:	681b      	ldr	r3, [r3, #0]
 8001dc4:	611a      	str	r2, [r3, #16]
 8001dc6:	e05f      	b.n	8001e88 <I2C_MasterRequestRead+0x174>
  }
  else
  {
    /* Send header of slave address */
    hi2c->Instance->DR = I2C_10BIT_HEADER_WRITE(DevAddress);
 8001dc8:	897b      	ldrh	r3, [r7, #10]
 8001dca:	11db      	asrs	r3, r3, #7
 8001dcc:	b2db      	uxtb	r3, r3
 8001dce:	f003 0306 	and.w	r3, r3, #6
 8001dd2:	b2db      	uxtb	r3, r3
 8001dd4:	f063 030f 	orn	r3, r3, #15
 8001dd8:	b2da      	uxtb	r2, r3
 8001dda:	68fb      	ldr	r3, [r7, #12]
 8001ddc:	681b      	ldr	r3, [r3, #0]
 8001dde:	611a      	str	r2, [r3, #16]

    /* Wait until ADD10 flag is set */
    if (I2C_WaitOnMasterAddressFlagUntilTimeout(hi2c, I2C_FLAG_ADD10, Timeout, Tickstart) != HAL_OK)
 8001de0:	683b      	ldr	r3, [r7, #0]
 8001de2:	687a      	ldr	r2, [r7, #4]
 8001de4:	4930      	ldr	r1, [pc, #192]	; (8001ea8 <I2C_MasterRequestRead+0x194>)
 8001de6:	68f8      	ldr	r0, [r7, #12]
 8001de8:	f000 f8b9 	bl	8001f5e <I2C_WaitOnMasterAddressFlagUntilTimeout>
 8001dec:	4603      	mov	r3, r0
 8001dee:	2b00      	cmp	r3, #0
 8001df0:	d001      	beq.n	8001df6 <I2C_MasterRequestRead+0xe2>
    {
      return HAL_ERROR;
 8001df2:	2301      	movs	r3, #1
 8001df4:	e054      	b.n	8001ea0 <I2C_MasterRequestRead+0x18c>
    }

    /* Send slave address */
    hi2c->Instance->DR = I2C_10BIT_ADDRESS(DevAddress);
 8001df6:	897b      	ldrh	r3, [r7, #10]
 8001df8:	b2da      	uxtb	r2, r3
 8001dfa:	68fb      	ldr	r3, [r7, #12]
 8001dfc:	681b      	ldr	r3, [r3, #0]
 8001dfe:	611a      	str	r2, [r3, #16]

    /* Wait until ADDR flag is set */
    if (I2C_WaitOnMasterAddressFlagUntilTimeout(hi2c, I2C_FLAG_ADDR, Timeout, Tickstart) != HAL_OK)
 8001e00:	683b      	ldr	r3, [r7, #0]
 8001e02:	687a      	ldr	r2, [r7, #4]
 8001e04:	4929      	ldr	r1, [pc, #164]	; (8001eac <I2C_MasterRequestRead+0x198>)
 8001e06:	68f8      	ldr	r0, [r7, #12]
 8001e08:	f000 f8a9 	bl	8001f5e <I2C_WaitOnMasterAddressFlagUntilTimeout>
 8001e0c:	4603      	mov	r3, r0
 8001e0e:	2b00      	cmp	r3, #0
 8001e10:	d001      	beq.n	8001e16 <I2C_MasterRequestRead+0x102>
    {
      return HAL_ERROR;
 8001e12:	2301      	movs	r3, #1
 8001e14:	e044      	b.n	8001ea0 <I2C_MasterRequestRead+0x18c>
    }

    /* Clear ADDR flag */
    __HAL_I2C_CLEAR_ADDRFLAG(hi2c);
 8001e16:	2300      	movs	r3, #0
 8001e18:	613b      	str	r3, [r7, #16]
 8001e1a:	68fb      	ldr	r3, [r7, #12]
 8001e1c:	681b      	ldr	r3, [r3, #0]
 8001e1e:	695b      	ldr	r3, [r3, #20]
 8001e20:	613b      	str	r3, [r7, #16]
 8001e22:	68fb      	ldr	r3, [r7, #12]
 8001e24:	681b      	ldr	r3, [r3, #0]
 8001e26:	699b      	ldr	r3, [r3, #24]
 8001e28:	613b      	str	r3, [r7, #16]
 8001e2a:	693b      	ldr	r3, [r7, #16]

    /* Generate Restart */
    SET_BIT(hi2c->Instance->CR1, I2C_CR1_START);
 8001e2c:	68fb      	ldr	r3, [r7, #12]
 8001e2e:	681b      	ldr	r3, [r3, #0]
 8001e30:	681a      	ldr	r2, [r3, #0]
 8001e32:	68fb      	ldr	r3, [r7, #12]
 8001e34:	681b      	ldr	r3, [r3, #0]
 8001e36:	f442 7280 	orr.w	r2, r2, #256	; 0x100
 8001e3a:	601a      	str	r2, [r3, #0]

    /* Wait until SB flag is set */
    if (I2C_WaitOnFlagUntilTimeout(hi2c, I2C_FLAG_SB, RESET, Timeout, Tickstart) != HAL_OK)
 8001e3c:	683b      	ldr	r3, [r7, #0]
 8001e3e:	9300      	str	r3, [sp, #0]
 8001e40:	687b      	ldr	r3, [r7, #4]
 8001e42:	2200      	movs	r2, #0
 8001e44:	f04f 1101 	mov.w	r1, #65537	; 0x10001
 8001e48:	68f8      	ldr	r0, [r7, #12]
 8001e4a:	f000 f831 	bl	8001eb0 <I2C_WaitOnFlagUntilTimeout>
 8001e4e:	4603      	mov	r3, r0
 8001e50:	2b00      	cmp	r3, #0
 8001e52:	d00d      	beq.n	8001e70 <I2C_MasterRequestRead+0x15c>
    {
      if (READ_BIT(hi2c->Instance->CR1, I2C_CR1_START) == I2C_CR1_START)
 8001e54:	68fb      	ldr	r3, [r7, #12]
 8001e56:	681b      	ldr	r3, [r3, #0]
 8001e58:	681b      	ldr	r3, [r3, #0]
 8001e5a:	f403 7380 	and.w	r3, r3, #256	; 0x100
 8001e5e:	f5b3 7f80 	cmp.w	r3, #256	; 0x100
 8001e62:	d103      	bne.n	8001e6c <I2C_MasterRequestRead+0x158>
      {
        hi2c->ErrorCode = HAL_I2C_WRONG_START;
 8001e64:	68fb      	ldr	r3, [r7, #12]
 8001e66:	f44f 7200 	mov.w	r2, #512	; 0x200
 8001e6a:	641a      	str	r2, [r3, #64]	; 0x40
      }
      return HAL_TIMEOUT;
 8001e6c:	2303      	movs	r3, #3
 8001e6e:	e017      	b.n	8001ea0 <I2C_MasterRequestRead+0x18c>
    }

    /* Send header of slave address */
    hi2c->Instance->DR = I2C_10BIT_HEADER_READ(DevAddress);
 8001e70:	897b      	ldrh	r3, [r7, #10]
 8001e72:	11db      	asrs	r3, r3, #7
 8001e74:	b2db      	uxtb	r3, r3
 8001e76:	f003 0306 	and.w	r3, r3, #6
 8001e7a:	b2db      	uxtb	r3, r3
 8001e7c:	f063 030e 	orn	r3, r3, #14
 8001e80:	b2da      	uxtb	r2, r3
 8001e82:	68fb      	ldr	r3, [r7, #12]
 8001e84:	681b      	ldr	r3, [r3, #0]
 8001e86:	611a      	str	r2, [r3, #16]
  }

  /* Wait until ADDR flag is set */
  if (I2C_WaitOnMasterAddressFlagUntilTimeout(hi2c, I2C_FLAG_ADDR, Timeout, Tickstart) != HAL_OK)
 8001e88:	683b      	ldr	r3, [r7, #0]
 8001e8a:	687a      	ldr	r2, [r7, #4]
 8001e8c:	4907      	ldr	r1, [pc, #28]	; (8001eac <I2C_MasterRequestRead+0x198>)
 8001e8e:	68f8      	ldr	r0, [r7, #12]
 8001e90:	f000 f865 	bl	8001f5e <I2C_WaitOnMasterAddressFlagUntilTimeout>
 8001e94:	4603      	mov	r3, r0
 8001e96:	2b00      	cmp	r3, #0
 8001e98:	d001      	beq.n	8001e9e <I2C_MasterRequestRead+0x18a>
  {
    return HAL_ERROR;
 8001e9a:	2301      	movs	r3, #1
 8001e9c:	e000      	b.n	8001ea0 <I2C_MasterRequestRead+0x18c>
  }

  return HAL_OK;
 8001e9e:	2300      	movs	r3, #0
}
 8001ea0:	4618      	mov	r0, r3
 8001ea2:	3718      	adds	r7, #24
 8001ea4:	46bd      	mov	sp, r7
 8001ea6:	bd80      	pop	{r7, pc}
 8001ea8:	00010008 	.word	0x00010008
 8001eac:	00010002 	.word	0x00010002

08001eb0 <I2C_WaitOnFlagUntilTimeout>:
  * @param  Timeout Timeout duration
  * @param  Tickstart Tick start value
  * @retval HAL status
  */
static HAL_StatusTypeDef I2C_WaitOnFlagUntilTimeout(I2C_HandleTypeDef *hi2c, uint32_t Flag, FlagStatus Status, uint32_t Timeout, uint32_t Tickstart)
{
 8001eb0:	b580      	push	{r7, lr}
 8001eb2:	b084      	sub	sp, #16
 8001eb4:	af00      	add	r7, sp, #0
 8001eb6:	60f8      	str	r0, [r7, #12]
 8001eb8:	60b9      	str	r1, [r7, #8]
 8001eba:	603b      	str	r3, [r7, #0]
 8001ebc:	4613      	mov	r3, r2
 8001ebe:	71fb      	strb	r3, [r7, #7]
  /* Wait until flag is set */
  while (__HAL_I2C_GET_FLAG(hi2c, Flag) == Status)
 8001ec0:	e025      	b.n	8001f0e <I2C_WaitOnFlagUntilTimeout+0x5e>
  {
    /* Check for the Timeout */
    if (Timeout != HAL_MAX_DELAY)
 8001ec2:	683b      	ldr	r3, [r7, #0]
 8001ec4:	f1b3 3fff 	cmp.w	r3, #4294967295
 8001ec8:	d021      	beq.n	8001f0e <I2C_WaitOnFlagUntilTimeout+0x5e>
    {
      if (((HAL_GetTick() - Tickstart) > Timeout) || (Timeout == 0U))
 8001eca:	f7fe fec9 	bl	8000c60 <HAL_GetTick>
 8001ece:	4602      	mov	r2, r0
 8001ed0:	69bb      	ldr	r3, [r7, #24]
 8001ed2:	1ad3      	subs	r3, r2, r3
 8001ed4:	683a      	ldr	r2, [r7, #0]
 8001ed6:	429a      	cmp	r2, r3
 8001ed8:	d302      	bcc.n	8001ee0 <I2C_WaitOnFlagUntilTimeout+0x30>
 8001eda:	683b      	ldr	r3, [r7, #0]
 8001edc:	2b00      	cmp	r3, #0
 8001ede:	d116      	bne.n	8001f0e <I2C_WaitOnFlagUntilTimeout+0x5e>
      {
        hi2c->PreviousState     = I2C_STATE_NONE;
 8001ee0:	68fb      	ldr	r3, [r7, #12]
 8001ee2:	2200      	movs	r2, #0
 8001ee4:	631a      	str	r2, [r3, #48]	; 0x30
        hi2c->State             = HAL_I2C_STATE_READY;
 8001ee6:	68fb      	ldr	r3, [r7, #12]
 8001ee8:	2220      	movs	r2, #32
 8001eea:	f883 203d 	strb.w	r2, [r3, #61]	; 0x3d
        hi2c->Mode              = HAL_I2C_MODE_NONE;
 8001eee:	68fb      	ldr	r3, [r7, #12]
 8001ef0:	2200      	movs	r2, #0
 8001ef2:	f883 203e 	strb.w	r2, [r3, #62]	; 0x3e
        hi2c->ErrorCode         |= HAL_I2C_ERROR_TIMEOUT;
 8001ef6:	68fb      	ldr	r3, [r7, #12]
 8001ef8:	6c1b      	ldr	r3, [r3, #64]	; 0x40
 8001efa:	f043 0220 	orr.w	r2, r3, #32
 8001efe:	68fb      	ldr	r3, [r7, #12]
 8001f00:	641a      	str	r2, [r3, #64]	; 0x40

        /* Process Unlocked */
        __HAL_UNLOCK(hi2c);
 8001f02:	68fb      	ldr	r3, [r7, #12]
 8001f04:	2200      	movs	r2, #0
 8001f06:	f883 203c 	strb.w	r2, [r3, #60]	; 0x3c

        return HAL_ERROR;
 8001f0a:	2301      	movs	r3, #1
 8001f0c:	e023      	b.n	8001f56 <I2C_WaitOnFlagUntilTimeout+0xa6>
  while (__HAL_I2C_GET_FLAG(hi2c, Flag) == Status)
 8001f0e:	68bb      	ldr	r3, [r7, #8]
 8001f10:	0c1b      	lsrs	r3, r3, #16
 8001f12:	b2db      	uxtb	r3, r3
 8001f14:	2b01      	cmp	r3, #1
 8001f16:	d10d      	bne.n	8001f34 <I2C_WaitOnFlagUntilTimeout+0x84>
 8001f18:	68fb      	ldr	r3, [r7, #12]
 8001f1a:	681b      	ldr	r3, [r3, #0]
 8001f1c:	695b      	ldr	r3, [r3, #20]
 8001f1e:	43da      	mvns	r2, r3
 8001f20:	68bb      	ldr	r3, [r7, #8]
 8001f22:	4013      	ands	r3, r2
 8001f24:	b29b      	uxth	r3, r3
 8001f26:	2b00      	cmp	r3, #0
 8001f28:	bf0c      	ite	eq
 8001f2a:	2301      	moveq	r3, #1
 8001f2c:	2300      	movne	r3, #0
 8001f2e:	b2db      	uxtb	r3, r3
 8001f30:	461a      	mov	r2, r3
 8001f32:	e00c      	b.n	8001f4e <I2C_WaitOnFlagUntilTimeout+0x9e>
 8001f34:	68fb      	ldr	r3, [r7, #12]
 8001f36:	681b      	ldr	r3, [r3, #0]
 8001f38:	699b      	ldr	r3, [r3, #24]
 8001f3a:	43da      	mvns	r2, r3
 8001f3c:	68bb      	ldr	r3, [r7, #8]
 8001f3e:	4013      	ands	r3, r2
 8001f40:	b29b      	uxth	r3, r3
 8001f42:	2b00      	cmp	r3, #0
 8001f44:	bf0c      	ite	eq
 8001f46:	2301      	moveq	r3, #1
 8001f48:	2300      	movne	r3, #0
 8001f4a:	b2db      	uxtb	r3, r3
 8001f4c:	461a      	mov	r2, r3
 8001f4e:	79fb      	ldrb	r3, [r7, #7]
 8001f50:	429a      	cmp	r2, r3
 8001f52:	d0b6      	beq.n	8001ec2 <I2C_WaitOnFlagUntilTimeout+0x12>
      }
    }
  }
  return HAL_OK;
 8001f54:	2300      	movs	r3, #0
}
 8001f56:	4618      	mov	r0, r3
 8001f58:	3710      	adds	r7, #16
 8001f5a:	46bd      	mov	sp, r7
 8001f5c:	bd80      	pop	{r7, pc}

08001f5e <I2C_WaitOnMasterAddressFlagUntilTimeout>:
  * @param  Timeout Timeout duration
  * @param  Tickstart Tick start value
  * @retval HAL status
  */
static HAL_StatusTypeDef I2C_WaitOnMasterAddressFlagUntilTimeout(I2C_HandleTypeDef *hi2c, uint32_t Flag, uint32_t Timeout, uint32_t Tickstart)
{
 8001f5e:	b580      	push	{r7, lr}
 8001f60:	b084      	sub	sp, #16
 8001f62:	af00      	add	r7, sp, #0
 8001f64:	60f8      	str	r0, [r7, #12]
 8001f66:	60b9      	str	r1, [r7, #8]
 8001f68:	607a      	str	r2, [r7, #4]
 8001f6a:	603b      	str	r3, [r7, #0]
  while (__HAL_I2C_GET_FLAG(hi2c, Flag) == RESET)
 8001f6c:	e051      	b.n	8002012 <I2C_WaitOnMasterAddressFlagUntilTimeout+0xb4>
  {
    if (__HAL_I2C_GET_FLAG(hi2c, I2C_FLAG_AF) == SET)
 8001f6e:	68fb      	ldr	r3, [r7, #12]
 8001f70:	681b      	ldr	r3, [r3, #0]
 8001f72:	695b      	ldr	r3, [r3, #20]
 8001f74:	f403 6380 	and.w	r3, r3, #1024	; 0x400
 8001f78:	f5b3 6f80 	cmp.w	r3, #1024	; 0x400
 8001f7c:	d123      	bne.n	8001fc6 <I2C_WaitOnMasterAddressFlagUntilTimeout+0x68>
    {
      /* Generate Stop */
      SET_BIT(hi2c->Instance->CR1, I2C_CR1_STOP);
 8001f7e:	68fb      	ldr	r3, [r7, #12]
 8001f80:	681b      	ldr	r3, [r3, #0]
 8001f82:	681a      	ldr	r2, [r3, #0]
 8001f84:	68fb      	ldr	r3, [r7, #12]
 8001f86:	681b      	ldr	r3, [r3, #0]
 8001f88:	f442 7200 	orr.w	r2, r2, #512	; 0x200
 8001f8c:	601a      	str	r2, [r3, #0]

      /* Clear AF Flag */
      __HAL_I2C_CLEAR_FLAG(hi2c, I2C_FLAG_AF);
 8001f8e:	68fb      	ldr	r3, [r7, #12]
 8001f90:	681b      	ldr	r3, [r3, #0]
 8001f92:	f46f 6280 	mvn.w	r2, #1024	; 0x400
 8001f96:	615a      	str	r2, [r3, #20]

      hi2c->PreviousState       = I2C_STATE_NONE;
 8001f98:	68fb      	ldr	r3, [r7, #12]
 8001f9a:	2200      	movs	r2, #0
 8001f9c:	631a      	str	r2, [r3, #48]	; 0x30
      hi2c->State               = HAL_I2C_STATE_READY;
 8001f9e:	68fb      	ldr	r3, [r7, #12]
 8001fa0:	2220      	movs	r2, #32
 8001fa2:	f883 203d 	strb.w	r2, [r3, #61]	; 0x3d
      hi2c->Mode                = HAL_I2C_MODE_NONE;
 8001fa6:	68fb      	ldr	r3, [r7, #12]
 8001fa8:	2200      	movs	r2, #0
 8001faa:	f883 203e 	strb.w	r2, [r3, #62]	; 0x3e
      hi2c->ErrorCode           |= HAL_I2C_ERROR_AF;
 8001fae:	68fb      	ldr	r3, [r7, #12]
 8001fb0:	6c1b      	ldr	r3, [r3, #64]	; 0x40
 8001fb2:	f043 0204 	orr.w	r2, r3, #4
 8001fb6:	68fb      	ldr	r3, [r7, #12]
 8001fb8:	641a      	str	r2, [r3, #64]	; 0x40

      /* Process Unlocked */
      __HAL_UNLOCK(hi2c);
 8001fba:	68fb      	ldr	r3, [r7, #12]
 8001fbc:	2200      	movs	r2, #0
 8001fbe:	f883 203c 	strb.w	r2, [r3, #60]	; 0x3c

      return HAL_ERROR;
 8001fc2:	2301      	movs	r3, #1
 8001fc4:	e046      	b.n	8002054 <I2C_WaitOnMasterAddressFlagUntilTimeout+0xf6>
    }

    /* Check for the Timeout */
    if (Timeout != HAL_MAX_DELAY)
 8001fc6:	687b      	ldr	r3, [r7, #4]
 8001fc8:	f1b3 3fff 	cmp.w	r3, #4294967295
 8001fcc:	d021      	beq.n	8002012 <I2C_WaitOnMasterAddressFlagUntilTimeout+0xb4>
    {
      if (((HAL_GetTick() - Tickstart) > Timeout) || (Timeout == 0U))
 8001fce:	f7fe fe47 	bl	8000c60 <HAL_GetTick>
 8001fd2:	4602      	mov	r2, r0
 8001fd4:	683b      	ldr	r3, [r7, #0]
 8001fd6:	1ad3      	subs	r3, r2, r3
 8001fd8:	687a      	ldr	r2, [r7, #4]
 8001fda:	429a      	cmp	r2, r3
 8001fdc:	d302      	bcc.n	8001fe4 <I2C_WaitOnMasterAddressFlagUntilTimeout+0x86>
 8001fde:	687b      	ldr	r3, [r7, #4]
 8001fe0:	2b00      	cmp	r3, #0
 8001fe2:	d116      	bne.n	8002012 <I2C_WaitOnMasterAddressFlagUntilTimeout+0xb4>
      {
        hi2c->PreviousState       = I2C_STATE_NONE;
 8001fe4:	68fb      	ldr	r3, [r7, #12]
 8001fe6:	2200      	movs	r2, #0
 8001fe8:	631a      	str	r2, [r3, #48]	; 0x30
        hi2c->State               = HAL_I2C_STATE_READY;
 8001fea:	68fb      	ldr	r3, [r7, #12]
 8001fec:	2220      	movs	r2, #32
 8001fee:	f883 203d 	strb.w	r2, [r3, #61]	; 0x3d
        hi2c->Mode                = HAL_I2C_MODE_NONE;
 8001ff2:	68fb      	ldr	r3, [r7, #12]
 8001ff4:	2200      	movs	r2, #0
 8001ff6:	f883 203e 	strb.w	r2, [r3, #62]	; 0x3e
        hi2c->ErrorCode           |= HAL_I2C_ERROR_TIMEOUT;
 8001ffa:	68fb      	ldr	r3, [r7, #12]
 8001ffc:	6c1b      	ldr	r3, [r3, #64]	; 0x40
 8001ffe:	f043 0220 	orr.w	r2, r3, #32
 8002002:	68fb      	ldr	r3, [r7, #12]
 8002004:	641a      	str	r2, [r3, #64]	; 0x40

        /* Process Unlocked */
        __HAL_UNLOCK(hi2c);
 8002006:	68fb      	ldr	r3, [r7, #12]
 8002008:	2200      	movs	r2, #0
 800200a:	f883 203c 	strb.w	r2, [r3, #60]	; 0x3c

        return HAL_ERROR;
 800200e:	2301      	movs	r3, #1
 8002010:	e020      	b.n	8002054 <I2C_WaitOnMasterAddressFlagUntilTimeout+0xf6>
  while (__HAL_I2C_GET_FLAG(hi2c, Flag) == RESET)
 8002012:	68bb      	ldr	r3, [r7, #8]
 8002014:	0c1b      	lsrs	r3, r3, #16
 8002016:	b2db      	uxtb	r3, r3
 8002018:	2b01      	cmp	r3, #1
 800201a:	d10c      	bne.n	8002036 <I2C_WaitOnMasterAddressFlagUntilTimeout+0xd8>
 800201c:	68fb      	ldr	r3, [r7, #12]
 800201e:	681b      	ldr	r3, [r3, #0]
 8002020:	695b      	ldr	r3, [r3, #20]
 8002022:	43da      	mvns	r2, r3
 8002024:	68bb      	ldr	r3, [r7, #8]
 8002026:	4013      	ands	r3, r2
 8002028:	b29b      	uxth	r3, r3
 800202a:	2b00      	cmp	r3, #0
 800202c:	bf14      	ite	ne
 800202e:	2301      	movne	r3, #1
 8002030:	2300      	moveq	r3, #0
 8002032:	b2db      	uxtb	r3, r3
 8002034:	e00b      	b.n	800204e <I2C_WaitOnMasterAddressFlagUntilTimeout+0xf0>
 8002036:	68fb      	ldr	r3, [r7, #12]
 8002038:	681b      	ldr	r3, [r3, #0]
 800203a:	699b      	ldr	r3, [r3, #24]
 800203c:	43da      	mvns	r2, r3
 800203e:	68bb      	ldr	r3, [r7, #8]
 8002040:	4013      	ands	r3, r2
 8002042:	b29b      	uxth	r3, r3
 8002044:	2b00      	cmp	r3, #0
 8002046:	bf14      	ite	ne
 8002048:	2301      	movne	r3, #1
 800204a:	2300      	moveq	r3, #0
 800204c:	b2db      	uxtb	r3, r3
 800204e:	2b00      	cmp	r3, #0
 8002050:	d18d      	bne.n	8001f6e <I2C_WaitOnMasterAddressFlagUntilTimeout+0x10>
      }
    }
  }
  return HAL_OK;
 8002052:	2300      	movs	r3, #0
}
 8002054:	4618      	mov	r0, r3
 8002056:	3710      	adds	r7, #16
 8002058:	46bd      	mov	sp, r7
 800205a:	bd80      	pop	{r7, pc}

0800205c <I2C_WaitOnTXEFlagUntilTimeout>:
  * @param  Timeout Timeout duration
  * @param  Tickstart Tick start value
  * @retval HAL status
  */
static HAL_StatusTypeDef I2C_WaitOnTXEFlagUntilTimeout(I2C_HandleTypeDef *hi2c, uint32_t Timeout, uint32_t Tickstart)
{
 800205c:	b580      	push	{r7, lr}
 800205e:	b084      	sub	sp, #16
 8002060:	af00      	add	r7, sp, #0
 8002062:	60f8      	str	r0, [r7, #12]
 8002064:	60b9      	str	r1, [r7, #8]
 8002066:	607a      	str	r2, [r7, #4]
  while (__HAL_I2C_GET_FLAG(hi2c, I2C_FLAG_TXE) == RESET)
 8002068:	e02d      	b.n	80020c6 <I2C_WaitOnTXEFlagUntilTimeout+0x6a>
  {
    /* Check if a NACK is detected */
    if (I2C_IsAcknowledgeFailed(hi2c) != HAL_OK)
 800206a:	68f8      	ldr	r0, [r7, #12]
 800206c:	f000 f8ce 	bl	800220c <I2C_IsAcknowledgeFailed>
 8002070:	4603      	mov	r3, r0
 8002072:	2b00      	cmp	r3, #0
 8002074:	d001      	beq.n	800207a <I2C_WaitOnTXEFlagUntilTimeout+0x1e>
    {
      return HAL_ERROR;
 8002076:	2301      	movs	r3, #1
 8002078:	e02d      	b.n	80020d6 <I2C_WaitOnTXEFlagUntilTimeout+0x7a>
    }

    /* Check for the Timeout */
    if (Timeout != HAL_MAX_DELAY)
 800207a:	68bb      	ldr	r3, [r7, #8]
 800207c:	f1b3 3fff 	cmp.w	r3, #4294967295
 8002080:	d021      	beq.n	80020c6 <I2C_WaitOnTXEFlagUntilTimeout+0x6a>
    {
      if (((HAL_GetTick() - Tickstart) > Timeout) || (Timeout == 0U))
 8002082:	f7fe fded 	bl	8000c60 <HAL_GetTick>
 8002086:	4602      	mov	r2, r0
 8002088:	687b      	ldr	r3, [r7, #4]
 800208a:	1ad3      	subs	r3, r2, r3
 800208c:	68ba      	ldr	r2, [r7, #8]
 800208e:	429a      	cmp	r2, r3
 8002090:	d302      	bcc.n	8002098 <I2C_WaitOnTXEFlagUntilTimeout+0x3c>
 8002092:	68bb      	ldr	r3, [r7, #8]
 8002094:	2b00      	cmp	r3, #0
 8002096:	d116      	bne.n	80020c6 <I2C_WaitOnTXEFlagUntilTimeout+0x6a>
      {
        hi2c->PreviousState       = I2C_STATE_NONE;
 8002098:	68fb      	ldr	r3, [r7, #12]
 800209a:	2200      	movs	r2, #0
 800209c:	631a      	str	r2, [r3, #48]	; 0x30
        hi2c->State               = HAL_I2C_STATE_READY;
 800209e:	68fb      	ldr	r3, [r7, #12]
 80020a0:	2220      	movs	r2, #32
 80020a2:	f883 203d 	strb.w	r2, [r3, #61]	; 0x3d
        hi2c->Mode                = HAL_I2C_MODE_NONE;
 80020a6:	68fb      	ldr	r3, [r7, #12]
 80020a8:	2200      	movs	r2, #0
 80020aa:	f883 203e 	strb.w	r2, [r3, #62]	; 0x3e
        hi2c->ErrorCode           |= HAL_I2C_ERROR_TIMEOUT;
 80020ae:	68fb      	ldr	r3, [r7, #12]
 80020b0:	6c1b      	ldr	r3, [r3, #64]	; 0x40
 80020b2:	f043 0220 	orr.w	r2, r3, #32
 80020b6:	68fb      	ldr	r3, [r7, #12]
 80020b8:	641a      	str	r2, [r3, #64]	; 0x40

        /* Process Unlocked */
        __HAL_UNLOCK(hi2c);
 80020ba:	68fb      	ldr	r3, [r7, #12]
 80020bc:	2200      	movs	r2, #0
 80020be:	f883 203c 	strb.w	r2, [r3, #60]	; 0x3c

        return HAL_ERROR;
 80020c2:	2301      	movs	r3, #1
 80020c4:	e007      	b.n	80020d6 <I2C_WaitOnTXEFlagUntilTimeout+0x7a>
  while (__HAL_I2C_GET_FLAG(hi2c, I2C_FLAG_TXE) == RESET)
 80020c6:	68fb      	ldr	r3, [r7, #12]
 80020c8:	681b      	ldr	r3, [r3, #0]
 80020ca:	695b      	ldr	r3, [r3, #20]
 80020cc:	f003 0380 	and.w	r3, r3, #128	; 0x80
 80020d0:	2b80      	cmp	r3, #128	; 0x80
 80020d2:	d1ca      	bne.n	800206a <I2C_WaitOnTXEFlagUntilTimeout+0xe>
      }
    }
  }
  return HAL_OK;
 80020d4:	2300      	movs	r3, #0
}
 80020d6:	4618      	mov	r0, r3
 80020d8:	3710      	adds	r7, #16
 80020da:	46bd      	mov	sp, r7
 80020dc:	bd80      	pop	{r7, pc}

080020de <I2C_WaitOnBTFFlagUntilTimeout>:
  * @param  Timeout Timeout duration
  * @param  Tickstart Tick start value
  * @retval HAL status
  */
static HAL_StatusTypeDef I2C_WaitOnBTFFlagUntilTimeout(I2C_HandleTypeDef *hi2c, uint32_t Timeout, uint32_t Tickstart)
{
 80020de:	b580      	push	{r7, lr}
 80020e0:	b084      	sub	sp, #16
 80020e2:	af00      	add	r7, sp, #0
 80020e4:	60f8      	str	r0, [r7, #12]
 80020e6:	60b9      	str	r1, [r7, #8]
 80020e8:	607a      	str	r2, [r7, #4]
  while (__HAL_I2C_GET_FLAG(hi2c, I2C_FLAG_BTF) == RESET)
 80020ea:	e02d      	b.n	8002148 <I2C_WaitOnBTFFlagUntilTimeout+0x6a>
  {
    /* Check if a NACK is detected */
    if (I2C_IsAcknowledgeFailed(hi2c) != HAL_OK)
 80020ec:	68f8      	ldr	r0, [r7, #12]
 80020ee:	f000 f88d 	bl	800220c <I2C_IsAcknowledgeFailed>
 80020f2:	4603      	mov	r3, r0
 80020f4:	2b00      	cmp	r3, #0
 80020f6:	d001      	beq.n	80020fc <I2C_WaitOnBTFFlagUntilTimeout+0x1e>
    {
      return HAL_ERROR;
 80020f8:	2301      	movs	r3, #1
 80020fa:	e02d      	b.n	8002158 <I2C_WaitOnBTFFlagUntilTimeout+0x7a>
    }

    /* Check for the Timeout */
    if (Timeout != HAL_MAX_DELAY)
 80020fc:	68bb      	ldr	r3, [r7, #8]
 80020fe:	f1b3 3fff 	cmp.w	r3, #4294967295
 8002102:	d021      	beq.n	8002148 <I2C_WaitOnBTFFlagUntilTimeout+0x6a>
    {
      if (((HAL_GetTick() - Tickstart) > Timeout) || (Timeout == 0U))
 8002104:	f7fe fdac 	bl	8000c60 <HAL_GetTick>
 8002108:	4602      	mov	r2, r0
 800210a:	687b      	ldr	r3, [r7, #4]
 800210c:	1ad3      	subs	r3, r2, r3
 800210e:	68ba      	ldr	r2, [r7, #8]
 8002110:	429a      	cmp	r2, r3
 8002112:	d302      	bcc.n	800211a <I2C_WaitOnBTFFlagUntilTimeout+0x3c>
 8002114:	68bb      	ldr	r3, [r7, #8]
 8002116:	2b00      	cmp	r3, #0
 8002118:	d116      	bne.n	8002148 <I2C_WaitOnBTFFlagUntilTimeout+0x6a>
      {
        hi2c->PreviousState       = I2C_STATE_NONE;
 800211a:	68fb      	ldr	r3, [r7, #12]
 800211c:	2200      	movs	r2, #0
 800211e:	631a      	str	r2, [r3, #48]	; 0x30
        hi2c->State               = HAL_I2C_STATE_READY;
 8002120:	68fb      	ldr	r3, [r7, #12]
 8002122:	2220      	movs	r2, #32
 8002124:	f883 203d 	strb.w	r2, [r3, #61]	; 0x3d
        hi2c->Mode                = HAL_I2C_MODE_NONE;
 8002128:	68fb      	ldr	r3, [r7, #12]
 800212a:	2200      	movs	r2, #0
 800212c:	f883 203e 	strb.w	r2, [r3, #62]	; 0x3e
        hi2c->ErrorCode           |= HAL_I2C_ERROR_TIMEOUT;
 8002130:	68fb      	ldr	r3, [r7, #12]
 8002132:	6c1b      	ldr	r3, [r3, #64]	; 0x40
 8002134:	f043 0220 	orr.w	r2, r3, #32
 8002138:	68fb      	ldr	r3, [r7, #12]
 800213a:	641a      	str	r2, [r3, #64]	; 0x40

        /* Process Unlocked */
        __HAL_UNLOCK(hi2c);
 800213c:	68fb      	ldr	r3, [r7, #12]
 800213e:	2200      	movs	r2, #0
 8002140:	f883 203c 	strb.w	r2, [r3, #60]	; 0x3c

        return HAL_ERROR;
 8002144:	2301      	movs	r3, #1
 8002146:	e007      	b.n	8002158 <I2C_WaitOnBTFFlagUntilTimeout+0x7a>
  while (__HAL_I2C_GET_FLAG(hi2c, I2C_FLAG_BTF) == RESET)
 8002148:	68fb      	ldr	r3, [r7, #12]
 800214a:	681b      	ldr	r3, [r3, #0]
 800214c:	695b      	ldr	r3, [r3, #20]
 800214e:	f003 0304 	and.w	r3, r3, #4
 8002152:	2b04      	cmp	r3, #4
 8002154:	d1ca      	bne.n	80020ec <I2C_WaitOnBTFFlagUntilTimeout+0xe>
      }
    }
  }
  return HAL_OK;
 8002156:	2300      	movs	r3, #0
}
 8002158:	4618      	mov	r0, r3
 800215a:	3710      	adds	r7, #16
 800215c:	46bd      	mov	sp, r7
 800215e:	bd80      	pop	{r7, pc}

08002160 <I2C_WaitOnRXNEFlagUntilTimeout>:
  * @param  Timeout Timeout duration
  * @param  Tickstart Tick start value
  * @retval HAL status
  */
static HAL_StatusTypeDef I2C_WaitOnRXNEFlagUntilTimeout(I2C_HandleTypeDef *hi2c, uint32_t Timeout, uint32_t Tickstart)
{
 8002160:	b580      	push	{r7, lr}
 8002162:	b084      	sub	sp, #16
 8002164:	af00      	add	r7, sp, #0
 8002166:	60f8      	str	r0, [r7, #12]
 8002168:	60b9      	str	r1, [r7, #8]
 800216a:	607a      	str	r2, [r7, #4]

  while (__HAL_I2C_GET_FLAG(hi2c, I2C_FLAG_RXNE) == RESET)
 800216c:	e042      	b.n	80021f4 <I2C_WaitOnRXNEFlagUntilTimeout+0x94>
  {
    /* Check if a STOPF is detected */
    if (__HAL_I2C_GET_FLAG(hi2c, I2C_FLAG_STOPF) == SET)
 800216e:	68fb      	ldr	r3, [r7, #12]
 8002170:	681b      	ldr	r3, [r3, #0]
 8002172:	695b      	ldr	r3, [r3, #20]
 8002174:	f003 0310 	and.w	r3, r3, #16
 8002178:	2b10      	cmp	r3, #16
 800217a:	d119      	bne.n	80021b0 <I2C_WaitOnRXNEFlagUntilTimeout+0x50>
    {
      /* Clear STOP Flag */
      __HAL_I2C_CLEAR_FLAG(hi2c, I2C_FLAG_STOPF);
 800217c:	68fb      	ldr	r3, [r7, #12]
 800217e:	681b      	ldr	r3, [r3, #0]
 8002180:	f06f 0210 	mvn.w	r2, #16
 8002184:	615a      	str	r2, [r3, #20]

      hi2c->PreviousState       = I2C_STATE_NONE;
 8002186:	68fb      	ldr	r3, [r7, #12]
 8002188:	2200      	movs	r2, #0
 800218a:	631a      	str	r2, [r3, #48]	; 0x30
      hi2c->State               = HAL_I2C_STATE_READY;
 800218c:	68fb      	ldr	r3, [r7, #12]
 800218e:	2220      	movs	r2, #32
 8002190:	f883 203d 	strb.w	r2, [r3, #61]	; 0x3d
      hi2c->Mode                = HAL_I2C_MODE_NONE;
 8002194:	68fb      	ldr	r3, [r7, #12]
 8002196:	2200      	movs	r2, #0
 8002198:	f883 203e 	strb.w	r2, [r3, #62]	; 0x3e
      hi2c->ErrorCode           |= HAL_I2C_ERROR_NONE;
 800219c:	68fb      	ldr	r3, [r7, #12]
 800219e:	6c1a      	ldr	r2, [r3, #64]	; 0x40
 80021a0:	68fb      	ldr	r3, [r7, #12]
 80021a2:	641a      	str	r2, [r3, #64]	; 0x40

      /* Process Unlocked */
      __HAL_UNLOCK(hi2c);
 80021a4:	68fb      	ldr	r3, [r7, #12]
 80021a6:	2200      	movs	r2, #0
 80021a8:	f883 203c 	strb.w	r2, [r3, #60]	; 0x3c

      return HAL_ERROR;
 80021ac:	2301      	movs	r3, #1
 80021ae:	e029      	b.n	8002204 <I2C_WaitOnRXNEFlagUntilTimeout+0xa4>
    }

    /* Check for the Timeout */
    if (((HAL_GetTick() - Tickstart) > Timeout) || (Timeout == 0U))
 80021b0:	f7fe fd56 	bl	8000c60 <HAL_GetTick>
 80021b4:	4602      	mov	r2, r0
 80021b6:	687b      	ldr	r3, [r7, #4]
 80021b8:	1ad3      	subs	r3, r2, r3
 80021ba:	68ba      	ldr	r2, [r7, #8]
 80021bc:	429a      	cmp	r2, r3
 80021be:	d302      	bcc.n	80021c6 <I2C_WaitOnRXNEFlagUntilTimeout+0x66>
 80021c0:	68bb      	ldr	r3, [r7, #8]
 80021c2:	2b00      	cmp	r3, #0
 80021c4:	d116      	bne.n	80021f4 <I2C_WaitOnRXNEFlagUntilTimeout+0x94>
    {
      hi2c->PreviousState       = I2C_STATE_NONE;
 80021c6:	68fb      	ldr	r3, [r7, #12]
 80021c8:	2200      	movs	r2, #0
 80021ca:	631a      	str	r2, [r3, #48]	; 0x30
      hi2c->State               = HAL_I2C_STATE_READY;
 80021cc:	68fb      	ldr	r3, [r7, #12]
 80021ce:	2220      	movs	r2, #32
 80021d0:	f883 203d 	strb.w	r2, [r3, #61]	; 0x3d
      hi2c->Mode                = HAL_I2C_MODE_NONE;
 80021d4:	68fb      	ldr	r3, [r7, #12]
 80021d6:	2200      	movs	r2, #0
 80021d8:	f883 203e 	strb.w	r2, [r3, #62]	; 0x3e
      hi2c->ErrorCode           |= HAL_I2C_ERROR_TIMEOUT;
 80021dc:	68fb      	ldr	r3, [r7, #12]
 80021de:	6c1b      	ldr	r3, [r3, #64]	; 0x40
 80021e0:	f043 0220 	orr.w	r2, r3, #32
 80021e4:	68fb      	ldr	r3, [r7, #12]
 80021e6:	641a      	str	r2, [r3, #64]	; 0x40

      /* Process Unlocked */
      __HAL_UNLOCK(hi2c);
 80021e8:	68fb      	ldr	r3, [r7, #12]
 80021ea:	2200      	movs	r2, #0
 80021ec:	f883 203c 	strb.w	r2, [r3, #60]	; 0x3c

      return HAL_ERROR;
 80021f0:	2301      	movs	r3, #1
 80021f2:	e007      	b.n	8002204 <I2C_WaitOnRXNEFlagUntilTimeout+0xa4>
  while (__HAL_I2C_GET_FLAG(hi2c, I2C_FLAG_RXNE) == RESET)
 80021f4:	68fb      	ldr	r3, [r7, #12]
 80021f6:	681b      	ldr	r3, [r3, #0]
 80021f8:	695b      	ldr	r3, [r3, #20]
 80021fa:	f003 0340 	and.w	r3, r3, #64	; 0x40
 80021fe:	2b40      	cmp	r3, #64	; 0x40
 8002200:	d1b5      	bne.n	800216e <I2C_WaitOnRXNEFlagUntilTimeout+0xe>
    }
  }
  return HAL_OK;
 8002202:	2300      	movs	r3, #0
}
 8002204:	4618      	mov	r0, r3
 8002206:	3710      	adds	r7, #16
 8002208:	46bd      	mov	sp, r7
 800220a:	bd80      	pop	{r7, pc}

0800220c <I2C_IsAcknowledgeFailed>:
  * @param  hi2c Pointer to a I2C_HandleTypeDef structure that contains
  *                the configuration information for the specified I2C.
  * @retval HAL status
  */
static HAL_StatusTypeDef I2C_IsAcknowledgeFailed(I2C_HandleTypeDef *hi2c)
{
 800220c:	b480      	push	{r7}
 800220e:	b083      	sub	sp, #12
 8002210:	af00      	add	r7, sp, #0
 8002212:	6078      	str	r0, [r7, #4]
  if (__HAL_I2C_GET_FLAG(hi2c, I2C_FLAG_AF) == SET)
 8002214:	687b      	ldr	r3, [r7, #4]
 8002216:	681b      	ldr	r3, [r3, #0]
 8002218:	695b      	ldr	r3, [r3, #20]
 800221a:	f403 6380 	and.w	r3, r3, #1024	; 0x400
 800221e:	f5b3 6f80 	cmp.w	r3, #1024	; 0x400
 8002222:	d11b      	bne.n	800225c <I2C_IsAcknowledgeFailed+0x50>
  {
    /* Clear NACKF Flag */
    __HAL_I2C_CLEAR_FLAG(hi2c, I2C_FLAG_AF);
 8002224:	687b      	ldr	r3, [r7, #4]
 8002226:	681b      	ldr	r3, [r3, #0]
 8002228:	f46f 6280 	mvn.w	r2, #1024	; 0x400
 800222c:	615a      	str	r2, [r3, #20]

    hi2c->PreviousState       = I2C_STATE_NONE;
 800222e:	687b      	ldr	r3, [r7, #4]
 8002230:	2200      	movs	r2, #0
 8002232:	631a      	str	r2, [r3, #48]	; 0x30
    hi2c->State               = HAL_I2C_STATE_READY;
 8002234:	687b      	ldr	r3, [r7, #4]
 8002236:	2220      	movs	r2, #32
 8002238:	f883 203d 	strb.w	r2, [r3, #61]	; 0x3d
    hi2c->Mode                = HAL_I2C_MODE_NONE;
 800223c:	687b      	ldr	r3, [r7, #4]
 800223e:	2200      	movs	r2, #0
 8002240:	f883 203e 	strb.w	r2, [r3, #62]	; 0x3e
    hi2c->ErrorCode           |= HAL_I2C_ERROR_AF;
 8002244:	687b      	ldr	r3, [r7, #4]
 8002246:	6c1b      	ldr	r3, [r3, #64]	; 0x40
 8002248:	f043 0204 	orr.w	r2, r3, #4
 800224c:	687b      	ldr	r3, [r7, #4]
 800224e:	641a      	str	r2, [r3, #64]	; 0x40

    /* Process Unlocked */
    __HAL_UNLOCK(hi2c);
 8002250:	687b      	ldr	r3, [r7, #4]
 8002252:	2200      	movs	r2, #0
 8002254:	f883 203c 	strb.w	r2, [r3, #60]	; 0x3c

    return HAL_ERROR;
 8002258:	2301      	movs	r3, #1
 800225a:	e000      	b.n	800225e <I2C_IsAcknowledgeFailed+0x52>
  }
  return HAL_OK;
 800225c:	2300      	movs	r3, #0
}
 800225e:	4618      	mov	r0, r3
 8002260:	370c      	adds	r7, #12
 8002262:	46bd      	mov	sp, r7
 8002264:	bc80      	pop	{r7}
 8002266:	4770      	bx	lr

08002268 <HAL_RCC_OscConfig>:
  *         supported by this macro. User should request a transition to HSE Off
  *         first and then HSE On or HSE Bypass.
  * @retval HAL status
  */
HAL_StatusTypeDef HAL_RCC_OscConfig(RCC_OscInitTypeDef  *RCC_OscInitStruct)
{
 8002268:	b580      	push	{r7, lr}
 800226a:	b086      	sub	sp, #24
 800226c:	af00      	add	r7, sp, #0
 800226e:	6078      	str	r0, [r7, #4]
  uint32_t tickstart;
  uint32_t pll_config;

  /* Check Null pointer */
  if (RCC_OscInitStruct == NULL)
 8002270:	687b      	ldr	r3, [r7, #4]
 8002272:	2b00      	cmp	r3, #0
 8002274:	d101      	bne.n	800227a <HAL_RCC_OscConfig+0x12>
  {
    return HAL_ERROR;
 8002276:	2301      	movs	r3, #1
 8002278:	e272      	b.n	8002760 <HAL_RCC_OscConfig+0x4f8>

  /* Check the parameters */
  assert_param(IS_RCC_OSCILLATORTYPE(RCC_OscInitStruct->OscillatorType));

  /*------------------------------- HSE Configuration ------------------------*/
  if (((RCC_OscInitStruct->OscillatorType) & RCC_OSCILLATORTYPE_HSE) == RCC_OSCILLATORTYPE_HSE)
 800227a:	687b      	ldr	r3, [r7, #4]
 800227c:	681b      	ldr	r3, [r3, #0]
 800227e:	f003 0301 	and.w	r3, r3, #1
 8002282:	2b00      	cmp	r3, #0
 8002284:	f000 8087 	beq.w	8002396 <HAL_RCC_OscConfig+0x12e>
  {
    /* Check the parameters */
    assert_param(IS_RCC_HSE(RCC_OscInitStruct->HSEState));

    /* When the HSE is used as system clock or clock source for PLL in these cases it is not allowed to be disabled */
    if ((__HAL_RCC_GET_SYSCLK_SOURCE() == RCC_SYSCLKSOURCE_STATUS_HSE)
 8002288:	4b92      	ldr	r3, [pc, #584]	; (80024d4 <HAL_RCC_OscConfig+0x26c>)
 800228a:	685b      	ldr	r3, [r3, #4]
 800228c:	f003 030c 	and.w	r3, r3, #12
 8002290:	2b04      	cmp	r3, #4
 8002292:	d00c      	beq.n	80022ae <HAL_RCC_OscConfig+0x46>
        || ((__HAL_RCC_GET_SYSCLK_SOURCE() == RCC_SYSCLKSOURCE_STATUS_PLLCLK) && (__HAL_RCC_GET_PLL_OSCSOURCE() == RCC_PLLSOURCE_HSE)))
 8002294:	4b8f      	ldr	r3, [pc, #572]	; (80024d4 <HAL_RCC_OscConfig+0x26c>)
 8002296:	685b      	ldr	r3, [r3, #4]
 8002298:	f003 030c 	and.w	r3, r3, #12
 800229c:	2b08      	cmp	r3, #8
 800229e:	d112      	bne.n	80022c6 <HAL_RCC_OscConfig+0x5e>
 80022a0:	4b8c      	ldr	r3, [pc, #560]	; (80024d4 <HAL_RCC_OscConfig+0x26c>)
 80022a2:	685b      	ldr	r3, [r3, #4]
 80022a4:	f403 3380 	and.w	r3, r3, #65536	; 0x10000
 80022a8:	f5b3 3f80 	cmp.w	r3, #65536	; 0x10000
 80022ac:	d10b      	bne.n	80022c6 <HAL_RCC_OscConfig+0x5e>
    {
      if ((__HAL_RCC_GET_FLAG(RCC_FLAG_HSERDY) != RESET) && (RCC_OscInitStruct->HSEState == RCC_HSE_OFF))
 80022ae:	4b89      	ldr	r3, [pc, #548]	; (80024d4 <HAL_RCC_OscConfig+0x26c>)
 80022b0:	681b      	ldr	r3, [r3, #0]
 80022b2:	f403 3300 	and.w	r3, r3, #131072	; 0x20000
 80022b6:	2b00      	cmp	r3, #0
 80022b8:	d06c      	beq.n	8002394 <HAL_RCC_OscConfig+0x12c>
 80022ba:	687b      	ldr	r3, [r7, #4]
 80022bc:	685b      	ldr	r3, [r3, #4]
 80022be:	2b00      	cmp	r3, #0
 80022c0:	d168      	bne.n	8002394 <HAL_RCC_OscConfig+0x12c>
      {
        return HAL_ERROR;
 80022c2:	2301      	movs	r3, #1
 80022c4:	e24c      	b.n	8002760 <HAL_RCC_OscConfig+0x4f8>
      }
    }
    else
    {
      /* Set the new HSE configuration ---------------------------------------*/
      __HAL_RCC_HSE_CONFIG(RCC_OscInitStruct->HSEState);
 80022c6:	687b      	ldr	r3, [r7, #4]
 80022c8:	685b      	ldr	r3, [r3, #4]
 80022ca:	f5b3 3f80 	cmp.w	r3, #65536	; 0x10000
 80022ce:	d106      	bne.n	80022de <HAL_RCC_OscConfig+0x76>
 80022d0:	4b80      	ldr	r3, [pc, #512]	; (80024d4 <HAL_RCC_OscConfig+0x26c>)
 80022d2:	681b      	ldr	r3, [r3, #0]
 80022d4:	4a7f      	ldr	r2, [pc, #508]	; (80024d4 <HAL_RCC_OscConfig+0x26c>)
 80022d6:	f443 3380 	orr.w	r3, r3, #65536	; 0x10000
 80022da:	6013      	str	r3, [r2, #0]
 80022dc:	e02e      	b.n	800233c <HAL_RCC_OscConfig+0xd4>
 80022de:	687b      	ldr	r3, [r7, #4]
 80022e0:	685b      	ldr	r3, [r3, #4]
 80022e2:	2b00      	cmp	r3, #0
 80022e4:	d10c      	bne.n	8002300 <HAL_RCC_OscConfig+0x98>
 80022e6:	4b7b      	ldr	r3, [pc, #492]	; (80024d4 <HAL_RCC_OscConfig+0x26c>)
 80022e8:	681b      	ldr	r3, [r3, #0]
 80022ea:	4a7a      	ldr	r2, [pc, #488]	; (80024d4 <HAL_RCC_OscConfig+0x26c>)
 80022ec:	f423 3380 	bic.w	r3, r3, #65536	; 0x10000
 80022f0:	6013      	str	r3, [r2, #0]
 80022f2:	4b78      	ldr	r3, [pc, #480]	; (80024d4 <HAL_RCC_OscConfig+0x26c>)
 80022f4:	681b      	ldr	r3, [r3, #0]
 80022f6:	4a77      	ldr	r2, [pc, #476]	; (80024d4 <HAL_RCC_OscConfig+0x26c>)
 80022f8:	f423 2380 	bic.w	r3, r3, #262144	; 0x40000
 80022fc:	6013      	str	r3, [r2, #0]
 80022fe:	e01d      	b.n	800233c <HAL_RCC_OscConfig+0xd4>
 8002300:	687b      	ldr	r3, [r7, #4]
 8002302:	685b      	ldr	r3, [r3, #4]
 8002304:	f5b3 2fa0 	cmp.w	r3, #327680	; 0x50000
 8002308:	d10c      	bne.n	8002324 <HAL_RCC_OscConfig+0xbc>
 800230a:	4b72      	ldr	r3, [pc, #456]	; (80024d4 <HAL_RCC_OscConfig+0x26c>)
 800230c:	681b      	ldr	r3, [r3, #0]
 800230e:	4a71      	ldr	r2, [pc, #452]	; (80024d4 <HAL_RCC_OscConfig+0x26c>)
 8002310:	f443 2380 	orr.w	r3, r3, #262144	; 0x40000
 8002314:	6013      	str	r3, [r2, #0]
 8002316:	4b6f      	ldr	r3, [pc, #444]	; (80024d4 <HAL_RCC_OscConfig+0x26c>)
 8002318:	681b      	ldr	r3, [r3, #0]
 800231a:	4a6e      	ldr	r2, [pc, #440]	; (80024d4 <HAL_RCC_OscConfig+0x26c>)
 800231c:	f443 3380 	orr.w	r3, r3, #65536	; 0x10000
 8002320:	6013      	str	r3, [r2, #0]
 8002322:	e00b      	b.n	800233c <HAL_RCC_OscConfig+0xd4>
 8002324:	4b6b      	ldr	r3, [pc, #428]	; (80024d4 <HAL_RCC_OscConfig+0x26c>)
 8002326:	681b      	ldr	r3, [r3, #0]
 8002328:	4a6a      	ldr	r2, [pc, #424]	; (80024d4 <HAL_RCC_OscConfig+0x26c>)
 800232a:	f423 3380 	bic.w	r3, r3, #65536	; 0x10000
 800232e:	6013      	str	r3, [r2, #0]
 8002330:	4b68      	ldr	r3, [pc, #416]	; (80024d4 <HAL_RCC_OscConfig+0x26c>)
 8002332:	681b      	ldr	r3, [r3, #0]
 8002334:	4a67      	ldr	r2, [pc, #412]	; (80024d4 <HAL_RCC_OscConfig+0x26c>)
 8002336:	f423 2380 	bic.w	r3, r3, #262144	; 0x40000
 800233a:	6013      	str	r3, [r2, #0]


      /* Check the HSE State */
      if (RCC_OscInitStruct->HSEState != RCC_HSE_OFF)
 800233c:	687b      	ldr	r3, [r7, #4]
 800233e:	685b      	ldr	r3, [r3, #4]
 8002340:	2b00      	cmp	r3, #0
 8002342:	d013      	beq.n	800236c <HAL_RCC_OscConfig+0x104>
      {
        /* Get Start Tick */
        tickstart = HAL_GetTick();
 8002344:	f7fe fc8c 	bl	8000c60 <HAL_GetTick>
 8002348:	6138      	str	r0, [r7, #16]

        /* Wait till HSE is ready */
        while (__HAL_RCC_GET_FLAG(RCC_FLAG_HSERDY) == RESET)
 800234a:	e008      	b.n	800235e <HAL_RCC_OscConfig+0xf6>
        {
          if ((HAL_GetTick() - tickstart) > HSE_TIMEOUT_VALUE)
 800234c:	f7fe fc88 	bl	8000c60 <HAL_GetTick>
 8002350:	4602      	mov	r2, r0
 8002352:	693b      	ldr	r3, [r7, #16]
 8002354:	1ad3      	subs	r3, r2, r3
 8002356:	2b64      	cmp	r3, #100	; 0x64
 8002358:	d901      	bls.n	800235e <HAL_RCC_OscConfig+0xf6>
          {
            return HAL_TIMEOUT;
 800235a:	2303      	movs	r3, #3
 800235c:	e200      	b.n	8002760 <HAL_RCC_OscConfig+0x4f8>
        while (__HAL_RCC_GET_FLAG(RCC_FLAG_HSERDY) == RESET)
 800235e:	4b5d      	ldr	r3, [pc, #372]	; (80024d4 <HAL_RCC_OscConfig+0x26c>)
 8002360:	681b      	ldr	r3, [r3, #0]
 8002362:	f403 3300 	and.w	r3, r3, #131072	; 0x20000
 8002366:	2b00      	cmp	r3, #0
 8002368:	d0f0      	beq.n	800234c <HAL_RCC_OscConfig+0xe4>
 800236a:	e014      	b.n	8002396 <HAL_RCC_OscConfig+0x12e>
        }
      }
      else
      {
        /* Get Start Tick */
        tickstart = HAL_GetTick();
 800236c:	f7fe fc78 	bl	8000c60 <HAL_GetTick>
 8002370:	6138      	str	r0, [r7, #16]

        /* Wait till HSE is disabled */
        while (__HAL_RCC_GET_FLAG(RCC_FLAG_HSERDY) != RESET)
 8002372:	e008      	b.n	8002386 <HAL_RCC_OscConfig+0x11e>
        {
          if ((HAL_GetTick() - tickstart) > HSE_TIMEOUT_VALUE)
 8002374:	f7fe fc74 	bl	8000c60 <HAL_GetTick>
 8002378:	4602      	mov	r2, r0
 800237a:	693b      	ldr	r3, [r7, #16]
 800237c:	1ad3      	subs	r3, r2, r3
 800237e:	2b64      	cmp	r3, #100	; 0x64
 8002380:	d901      	bls.n	8002386 <HAL_RCC_OscConfig+0x11e>
          {
            return HAL_TIMEOUT;
 8002382:	2303      	movs	r3, #3
 8002384:	e1ec      	b.n	8002760 <HAL_RCC_OscConfig+0x4f8>
        while (__HAL_RCC_GET_FLAG(RCC_FLAG_HSERDY) != RESET)
 8002386:	4b53      	ldr	r3, [pc, #332]	; (80024d4 <HAL_RCC_OscConfig+0x26c>)
 8002388:	681b      	ldr	r3, [r3, #0]
 800238a:	f403 3300 	and.w	r3, r3, #131072	; 0x20000
 800238e:	2b00      	cmp	r3, #0
 8002390:	d1f0      	bne.n	8002374 <HAL_RCC_OscConfig+0x10c>
 8002392:	e000      	b.n	8002396 <HAL_RCC_OscConfig+0x12e>
      if ((__HAL_RCC_GET_FLAG(RCC_FLAG_HSERDY) != RESET) && (RCC_OscInitStruct->HSEState == RCC_HSE_OFF))
 8002394:	bf00      	nop
        }
      }
    }
  }
  /*----------------------------- HSI Configuration --------------------------*/
  if (((RCC_OscInitStruct->OscillatorType) & RCC_OSCILLATORTYPE_HSI) == RCC_OSCILLATORTYPE_HSI)
 8002396:	687b      	ldr	r3, [r7, #4]
 8002398:	681b      	ldr	r3, [r3, #0]
 800239a:	f003 0302 	and.w	r3, r3, #2
 800239e:	2b00      	cmp	r3, #0
 80023a0:	d063      	beq.n	800246a <HAL_RCC_OscConfig+0x202>
    /* Check the parameters */
    assert_param(IS_RCC_HSI(RCC_OscInitStruct->HSIState));
    assert_param(IS_RCC_CALIBRATION_VALUE(RCC_OscInitStruct->HSICalibrationValue));

    /* Check if HSI is used as system clock or as PLL source when PLL is selected as system clock */
    if ((__HAL_RCC_GET_SYSCLK_SOURCE() == RCC_SYSCLKSOURCE_STATUS_HSI)
 80023a2:	4b4c      	ldr	r3, [pc, #304]	; (80024d4 <HAL_RCC_OscConfig+0x26c>)
 80023a4:	685b      	ldr	r3, [r3, #4]
 80023a6:	f003 030c 	and.w	r3, r3, #12
 80023aa:	2b00      	cmp	r3, #0
 80023ac:	d00b      	beq.n	80023c6 <HAL_RCC_OscConfig+0x15e>
        || ((__HAL_RCC_GET_SYSCLK_SOURCE() == RCC_SYSCLKSOURCE_STATUS_PLLCLK) && (__HAL_RCC_GET_PLL_OSCSOURCE() == RCC_PLLSOURCE_HSI_DIV2)))
 80023ae:	4b49      	ldr	r3, [pc, #292]	; (80024d4 <HAL_RCC_OscConfig+0x26c>)
 80023b0:	685b      	ldr	r3, [r3, #4]
 80023b2:	f003 030c 	and.w	r3, r3, #12
 80023b6:	2b08      	cmp	r3, #8
 80023b8:	d11c      	bne.n	80023f4 <HAL_RCC_OscConfig+0x18c>
 80023ba:	4b46      	ldr	r3, [pc, #280]	; (80024d4 <HAL_RCC_OscConfig+0x26c>)
 80023bc:	685b      	ldr	r3, [r3, #4]
 80023be:	f403 3380 	and.w	r3, r3, #65536	; 0x10000
 80023c2:	2b00      	cmp	r3, #0
 80023c4:	d116      	bne.n	80023f4 <HAL_RCC_OscConfig+0x18c>
    {
      /* When HSI is used as system clock it will not disabled */
      if ((__HAL_RCC_GET_FLAG(RCC_FLAG_HSIRDY) != RESET) && (RCC_OscInitStruct->HSIState != RCC_HSI_ON))
 80023c6:	4b43      	ldr	r3, [pc, #268]	; (80024d4 <HAL_RCC_OscConfig+0x26c>)
 80023c8:	681b      	ldr	r3, [r3, #0]
 80023ca:	f003 0302 	and.w	r3, r3, #2
 80023ce:	2b00      	cmp	r3, #0
 80023d0:	d005      	beq.n	80023de <HAL_RCC_OscConfig+0x176>
 80023d2:	687b      	ldr	r3, [r7, #4]
 80023d4:	691b      	ldr	r3, [r3, #16]
 80023d6:	2b01      	cmp	r3, #1
 80023d8:	d001      	beq.n	80023de <HAL_RCC_OscConfig+0x176>
      {
        return HAL_ERROR;
 80023da:	2301      	movs	r3, #1
 80023dc:	e1c0      	b.n	8002760 <HAL_RCC_OscConfig+0x4f8>
      }
      /* Otherwise, just the calibration is allowed */
      else
      {
        /* Adjusts the Internal High Speed oscillator (HSI) calibration value.*/
        __HAL_RCC_HSI_CALIBRATIONVALUE_ADJUST(RCC_OscInitStruct->HSICalibrationValue);
 80023de:	4b3d      	ldr	r3, [pc, #244]	; (80024d4 <HAL_RCC_OscConfig+0x26c>)
 80023e0:	681b      	ldr	r3, [r3, #0]
 80023e2:	f023 02f8 	bic.w	r2, r3, #248	; 0xf8
 80023e6:	687b      	ldr	r3, [r7, #4]
 80023e8:	695b      	ldr	r3, [r3, #20]
 80023ea:	00db      	lsls	r3, r3, #3
 80023ec:	4939      	ldr	r1, [pc, #228]	; (80024d4 <HAL_RCC_OscConfig+0x26c>)
 80023ee:	4313      	orrs	r3, r2
 80023f0:	600b      	str	r3, [r1, #0]
      if ((__HAL_RCC_GET_FLAG(RCC_FLAG_HSIRDY) != RESET) && (RCC_OscInitStruct->HSIState != RCC_HSI_ON))
 80023f2:	e03a      	b.n	800246a <HAL_RCC_OscConfig+0x202>
      }
    }
    else
    {
      /* Check the HSI State */
      if (RCC_OscInitStruct->HSIState != RCC_HSI_OFF)
 80023f4:	687b      	ldr	r3, [r7, #4]
 80023f6:	691b      	ldr	r3, [r3, #16]
 80023f8:	2b00      	cmp	r3, #0
 80023fa:	d020      	beq.n	800243e <HAL_RCC_OscConfig+0x1d6>
      {
        /* Enable the Internal High Speed oscillator (HSI). */
        __HAL_RCC_HSI_ENABLE();
 80023fc:	4b36      	ldr	r3, [pc, #216]	; (80024d8 <HAL_RCC_OscConfig+0x270>)
 80023fe:	2201      	movs	r2, #1
 8002400:	601a      	str	r2, [r3, #0]

        /* Get Start Tick */
        tickstart = HAL_GetTick();
 8002402:	f7fe fc2d 	bl	8000c60 <HAL_GetTick>
 8002406:	6138      	str	r0, [r7, #16]

        /* Wait till HSI is ready */
        while (__HAL_RCC_GET_FLAG(RCC_FLAG_HSIRDY) == RESET)
 8002408:	e008      	b.n	800241c <HAL_RCC_OscConfig+0x1b4>
        {
          if ((HAL_GetTick() - tickstart) > HSI_TIMEOUT_VALUE)
 800240a:	f7fe fc29 	bl	8000c60 <HAL_GetTick>
 800240e:	4602      	mov	r2, r0
 8002410:	693b      	ldr	r3, [r7, #16]
 8002412:	1ad3      	subs	r3, r2, r3
 8002414:	2b02      	cmp	r3, #2
 8002416:	d901      	bls.n	800241c <HAL_RCC_OscConfig+0x1b4>
          {
            return HAL_TIMEOUT;
 8002418:	2303      	movs	r3, #3
 800241a:	e1a1      	b.n	8002760 <HAL_RCC_OscConfig+0x4f8>
        while (__HAL_RCC_GET_FLAG(RCC_FLAG_HSIRDY) == RESET)
 800241c:	4b2d      	ldr	r3, [pc, #180]	; (80024d4 <HAL_RCC_OscConfig+0x26c>)
 800241e:	681b      	ldr	r3, [r3, #0]
 8002420:	f003 0302 	and.w	r3, r3, #2
 8002424:	2b00      	cmp	r3, #0
 8002426:	d0f0      	beq.n	800240a <HAL_RCC_OscConfig+0x1a2>
          }
        }

        /* Adjusts the Internal High Speed oscillator (HSI) calibration value.*/
        __HAL_RCC_HSI_CALIBRATIONVALUE_ADJUST(RCC_OscInitStruct->HSICalibrationValue);
 8002428:	4b2a      	ldr	r3, [pc, #168]	; (80024d4 <HAL_RCC_OscConfig+0x26c>)
 800242a:	681b      	ldr	r3, [r3, #0]
 800242c:	f023 02f8 	bic.w	r2, r3, #248	; 0xf8
 8002430:	687b      	ldr	r3, [r7, #4]
 8002432:	695b      	ldr	r3, [r3, #20]
 8002434:	00db      	lsls	r3, r3, #3
 8002436:	4927      	ldr	r1, [pc, #156]	; (80024d4 <HAL_RCC_OscConfig+0x26c>)
 8002438:	4313      	orrs	r3, r2
 800243a:	600b      	str	r3, [r1, #0]
 800243c:	e015      	b.n	800246a <HAL_RCC_OscConfig+0x202>
      }
      else
      {
        /* Disable the Internal High Speed oscillator (HSI). */
        __HAL_RCC_HSI_DISABLE();
 800243e:	4b26      	ldr	r3, [pc, #152]	; (80024d8 <HAL_RCC_OscConfig+0x270>)
 8002440:	2200      	movs	r2, #0
 8002442:	601a      	str	r2, [r3, #0]

        /* Get Start Tick */
        tickstart = HAL_GetTick();
 8002444:	f7fe fc0c 	bl	8000c60 <HAL_GetTick>
 8002448:	6138      	str	r0, [r7, #16]

        /* Wait till HSI is disabled */
        while (__HAL_RCC_GET_FLAG(RCC_FLAG_HSIRDY) != RESET)
 800244a:	e008      	b.n	800245e <HAL_RCC_OscConfig+0x1f6>
        {
          if ((HAL_GetTick() - tickstart) > HSI_TIMEOUT_VALUE)
 800244c:	f7fe fc08 	bl	8000c60 <HAL_GetTick>
 8002450:	4602      	mov	r2, r0
 8002452:	693b      	ldr	r3, [r7, #16]
 8002454:	1ad3      	subs	r3, r2, r3
 8002456:	2b02      	cmp	r3, #2
 8002458:	d901      	bls.n	800245e <HAL_RCC_OscConfig+0x1f6>
          {
            return HAL_TIMEOUT;
 800245a:	2303      	movs	r3, #3
 800245c:	e180      	b.n	8002760 <HAL_RCC_OscConfig+0x4f8>
        while (__HAL_RCC_GET_FLAG(RCC_FLAG_HSIRDY) != RESET)
 800245e:	4b1d      	ldr	r3, [pc, #116]	; (80024d4 <HAL_RCC_OscConfig+0x26c>)
 8002460:	681b      	ldr	r3, [r3, #0]
 8002462:	f003 0302 	and.w	r3, r3, #2
 8002466:	2b00      	cmp	r3, #0
 8002468:	d1f0      	bne.n	800244c <HAL_RCC_OscConfig+0x1e4>
        }
      }
    }
  }
  /*------------------------------ LSI Configuration -------------------------*/
  if (((RCC_OscInitStruct->OscillatorType) & RCC_OSCILLATORTYPE_LSI) == RCC_OSCILLATORTYPE_LSI)
 800246a:	687b      	ldr	r3, [r7, #4]
 800246c:	681b      	ldr	r3, [r3, #0]
 800246e:	f003 0308 	and.w	r3, r3, #8
 8002472:	2b00      	cmp	r3, #0
 8002474:	d03a      	beq.n	80024ec <HAL_RCC_OscConfig+0x284>
  {
    /* Check the parameters */
    assert_param(IS_RCC_LSI(RCC_OscInitStruct->LSIState));

    /* Check the LSI State */
    if (RCC_OscInitStruct->LSIState != RCC_LSI_OFF)
 8002476:	687b      	ldr	r3, [r7, #4]
 8002478:	699b      	ldr	r3, [r3, #24]
 800247a:	2b00      	cmp	r3, #0
 800247c:	d019      	beq.n	80024b2 <HAL_RCC_OscConfig+0x24a>
    {
      /* Enable the Internal Low Speed oscillator (LSI). */
      __HAL_RCC_LSI_ENABLE();
 800247e:	4b17      	ldr	r3, [pc, #92]	; (80024dc <HAL_RCC_OscConfig+0x274>)
 8002480:	2201      	movs	r2, #1
 8002482:	601a      	str	r2, [r3, #0]

      /* Get Start Tick */
      tickstart = HAL_GetTick();
 8002484:	f7fe fbec 	bl	8000c60 <HAL_GetTick>
 8002488:	6138      	str	r0, [r7, #16]

      /* Wait till LSI is ready */
      while (__HAL_RCC_GET_FLAG(RCC_FLAG_LSIRDY) == RESET)
 800248a:	e008      	b.n	800249e <HAL_RCC_OscConfig+0x236>
      {
        if ((HAL_GetTick() - tickstart) > LSI_TIMEOUT_VALUE)
 800248c:	f7fe fbe8 	bl	8000c60 <HAL_GetTick>
 8002490:	4602      	mov	r2, r0
 8002492:	693b      	ldr	r3, [r7, #16]
 8002494:	1ad3      	subs	r3, r2, r3
 8002496:	2b02      	cmp	r3, #2
 8002498:	d901      	bls.n	800249e <HAL_RCC_OscConfig+0x236>
        {
          return HAL_TIMEOUT;
 800249a:	2303      	movs	r3, #3
 800249c:	e160      	b.n	8002760 <HAL_RCC_OscConfig+0x4f8>
      while (__HAL_RCC_GET_FLAG(RCC_FLAG_LSIRDY) == RESET)
 800249e:	4b0d      	ldr	r3, [pc, #52]	; (80024d4 <HAL_RCC_OscConfig+0x26c>)
 80024a0:	6a5b      	ldr	r3, [r3, #36]	; 0x24
 80024a2:	f003 0302 	and.w	r3, r3, #2
 80024a6:	2b00      	cmp	r3, #0
 80024a8:	d0f0      	beq.n	800248c <HAL_RCC_OscConfig+0x224>
        }
      }
      /*  To have a fully stabilized clock in the specified range, a software delay of 1ms
          should be added.*/
      RCC_Delay(1);
 80024aa:	2001      	movs	r0, #1
 80024ac:	f000 fad8 	bl	8002a60 <RCC_Delay>
 80024b0:	e01c      	b.n	80024ec <HAL_RCC_OscConfig+0x284>
    }
    else
    {
      /* Disable the Internal Low Speed oscillator (LSI). */
      __HAL_RCC_LSI_DISABLE();
 80024b2:	4b0a      	ldr	r3, [pc, #40]	; (80024dc <HAL_RCC_OscConfig+0x274>)
 80024b4:	2200      	movs	r2, #0
 80024b6:	601a      	str	r2, [r3, #0]

      /* Get Start Tick */
      tickstart = HAL_GetTick();
 80024b8:	f7fe fbd2 	bl	8000c60 <HAL_GetTick>
 80024bc:	6138      	str	r0, [r7, #16]

      /* Wait till LSI is disabled */
      while (__HAL_RCC_GET_FLAG(RCC_FLAG_LSIRDY) != RESET)
 80024be:	e00f      	b.n	80024e0 <HAL_RCC_OscConfig+0x278>
      {
        if ((HAL_GetTick() - tickstart) > LSI_TIMEOUT_VALUE)
 80024c0:	f7fe fbce 	bl	8000c60 <HAL_GetTick>
 80024c4:	4602      	mov	r2, r0
 80024c6:	693b      	ldr	r3, [r7, #16]
 80024c8:	1ad3      	subs	r3, r2, r3
 80024ca:	2b02      	cmp	r3, #2
 80024cc:	d908      	bls.n	80024e0 <HAL_RCC_OscConfig+0x278>
        {
          return HAL_TIMEOUT;
 80024ce:	2303      	movs	r3, #3
 80024d0:	e146      	b.n	8002760 <HAL_RCC_OscConfig+0x4f8>
 80024d2:	bf00      	nop
 80024d4:	40021000 	.word	0x40021000
 80024d8:	42420000 	.word	0x42420000
 80024dc:	42420480 	.word	0x42420480
      while (__HAL_RCC_GET_FLAG(RCC_FLAG_LSIRDY) != RESET)
 80024e0:	4b92      	ldr	r3, [pc, #584]	; (800272c <HAL_RCC_OscConfig+0x4c4>)
 80024e2:	6a5b      	ldr	r3, [r3, #36]	; 0x24
 80024e4:	f003 0302 	and.w	r3, r3, #2
 80024e8:	2b00      	cmp	r3, #0
 80024ea:	d1e9      	bne.n	80024c0 <HAL_RCC_OscConfig+0x258>
        }
      }
    }
  }
  /*------------------------------ LSE Configuration -------------------------*/
  if (((RCC_OscInitStruct->OscillatorType) & RCC_OSCILLATORTYPE_LSE) == RCC_OSCILLATORTYPE_LSE)
 80024ec:	687b      	ldr	r3, [r7, #4]
 80024ee:	681b      	ldr	r3, [r3, #0]
 80024f0:	f003 0304 	and.w	r3, r3, #4
 80024f4:	2b00      	cmp	r3, #0
 80024f6:	f000 80a6 	beq.w	8002646 <HAL_RCC_OscConfig+0x3de>
  {
    FlagStatus       pwrclkchanged = RESET;
 80024fa:	2300      	movs	r3, #0
 80024fc:	75fb      	strb	r3, [r7, #23]
    /* Check the parameters */
    assert_param(IS_RCC_LSE(RCC_OscInitStruct->LSEState));

    /* Update LSE configuration in Backup Domain control register    */
    /* Requires to enable write access to Backup Domain of necessary */
    if (__HAL_RCC_PWR_IS_CLK_DISABLED())
 80024fe:	4b8b      	ldr	r3, [pc, #556]	; (800272c <HAL_RCC_OscConfig+0x4c4>)
 8002500:	69db      	ldr	r3, [r3, #28]
 8002502:	f003 5380 	and.w	r3, r3, #268435456	; 0x10000000
 8002506:	2b00      	cmp	r3, #0
 8002508:	d10d      	bne.n	8002526 <HAL_RCC_OscConfig+0x2be>
    {
      __HAL_RCC_PWR_CLK_ENABLE();
 800250a:	4b88      	ldr	r3, [pc, #544]	; (800272c <HAL_RCC_OscConfig+0x4c4>)
 800250c:	69db      	ldr	r3, [r3, #28]
 800250e:	4a87      	ldr	r2, [pc, #540]	; (800272c <HAL_RCC_OscConfig+0x4c4>)
 8002510:	f043 5380 	orr.w	r3, r3, #268435456	; 0x10000000
 8002514:	61d3      	str	r3, [r2, #28]
 8002516:	4b85      	ldr	r3, [pc, #532]	; (800272c <HAL_RCC_OscConfig+0x4c4>)
 8002518:	69db      	ldr	r3, [r3, #28]
 800251a:	f003 5380 	and.w	r3, r3, #268435456	; 0x10000000
 800251e:	60bb      	str	r3, [r7, #8]
 8002520:	68bb      	ldr	r3, [r7, #8]
      pwrclkchanged = SET;
 8002522:	2301      	movs	r3, #1
 8002524:	75fb      	strb	r3, [r7, #23]
    }

    if (HAL_IS_BIT_CLR(PWR->CR, PWR_CR_DBP))
 8002526:	4b82      	ldr	r3, [pc, #520]	; (8002730 <HAL_RCC_OscConfig+0x4c8>)
 8002528:	681b      	ldr	r3, [r3, #0]
 800252a:	f403 7380 	and.w	r3, r3, #256	; 0x100
 800252e:	2b00      	cmp	r3, #0
 8002530:	d118      	bne.n	8002564 <HAL_RCC_OscConfig+0x2fc>
    {
      /* Enable write access to Backup domain */
      SET_BIT(PWR->CR, PWR_CR_DBP);
 8002532:	4b7f      	ldr	r3, [pc, #508]	; (8002730 <HAL_RCC_OscConfig+0x4c8>)
 8002534:	681b      	ldr	r3, [r3, #0]
 8002536:	4a7e      	ldr	r2, [pc, #504]	; (8002730 <HAL_RCC_OscConfig+0x4c8>)
 8002538:	f443 7380 	orr.w	r3, r3, #256	; 0x100
 800253c:	6013      	str	r3, [r2, #0]

      /* Wait for Backup domain Write protection disable */
      tickstart = HAL_GetTick();
 800253e:	f7fe fb8f 	bl	8000c60 <HAL_GetTick>
 8002542:	6138      	str	r0, [r7, #16]

      while (HAL_IS_BIT_CLR(PWR->CR, PWR_CR_DBP))
 8002544:	e008      	b.n	8002558 <HAL_RCC_OscConfig+0x2f0>
      {
        if ((HAL_GetTick() - tickstart) > RCC_DBP_TIMEOUT_VALUE)
 8002546:	f7fe fb8b 	bl	8000c60 <HAL_GetTick>
 800254a:	4602      	mov	r2, r0
 800254c:	693b      	ldr	r3, [r7, #16]
 800254e:	1ad3      	subs	r3, r2, r3
 8002550:	2b64      	cmp	r3, #100	; 0x64
 8002552:	d901      	bls.n	8002558 <HAL_RCC_OscConfig+0x2f0>
        {
          return HAL_TIMEOUT;
 8002554:	2303      	movs	r3, #3
 8002556:	e103      	b.n	8002760 <HAL_RCC_OscConfig+0x4f8>
      while (HAL_IS_BIT_CLR(PWR->CR, PWR_CR_DBP))
 8002558:	4b75      	ldr	r3, [pc, #468]	; (8002730 <HAL_RCC_OscConfig+0x4c8>)
 800255a:	681b      	ldr	r3, [r3, #0]
 800255c:	f403 7380 	and.w	r3, r3, #256	; 0x100
 8002560:	2b00      	cmp	r3, #0
 8002562:	d0f0      	beq.n	8002546 <HAL_RCC_OscConfig+0x2de>
        }
      }
    }

    /* Set the new LSE configuration -----------------------------------------*/
    __HAL_RCC_LSE_CONFIG(RCC_OscInitStruct->LSEState);
 8002564:	687b      	ldr	r3, [r7, #4]
 8002566:	68db      	ldr	r3, [r3, #12]
 8002568:	2b01      	cmp	r3, #1
 800256a:	d106      	bne.n	800257a <HAL_RCC_OscConfig+0x312>
 800256c:	4b6f      	ldr	r3, [pc, #444]	; (800272c <HAL_RCC_OscConfig+0x4c4>)
 800256e:	6a1b      	ldr	r3, [r3, #32]
 8002570:	4a6e      	ldr	r2, [pc, #440]	; (800272c <HAL_RCC_OscConfig+0x4c4>)
 8002572:	f043 0301 	orr.w	r3, r3, #1
 8002576:	6213      	str	r3, [r2, #32]
 8002578:	e02d      	b.n	80025d6 <HAL_RCC_OscConfig+0x36e>
 800257a:	687b      	ldr	r3, [r7, #4]
 800257c:	68db      	ldr	r3, [r3, #12]
 800257e:	2b00      	cmp	r3, #0
 8002580:	d10c      	bne.n	800259c <HAL_RCC_OscConfig+0x334>
 8002582:	4b6a      	ldr	r3, [pc, #424]	; (800272c <HAL_RCC_OscConfig+0x4c4>)
 8002584:	6a1b      	ldr	r3, [r3, #32]
 8002586:	4a69      	ldr	r2, [pc, #420]	; (800272c <HAL_RCC_OscConfig+0x4c4>)
 8002588:	f023 0301 	bic.w	r3, r3, #1
 800258c:	6213      	str	r3, [r2, #32]
 800258e:	4b67      	ldr	r3, [pc, #412]	; (800272c <HAL_RCC_OscConfig+0x4c4>)
 8002590:	6a1b      	ldr	r3, [r3, #32]
 8002592:	4a66      	ldr	r2, [pc, #408]	; (800272c <HAL_RCC_OscConfig+0x4c4>)
 8002594:	f023 0304 	bic.w	r3, r3, #4
 8002598:	6213      	str	r3, [r2, #32]
 800259a:	e01c      	b.n	80025d6 <HAL_RCC_OscConfig+0x36e>
 800259c:	687b      	ldr	r3, [r7, #4]
 800259e:	68db      	ldr	r3, [r3, #12]
 80025a0:	2b05      	cmp	r3, #5
 80025a2:	d10c      	bne.n	80025be <HAL_RCC_OscConfig+0x356>
 80025a4:	4b61      	ldr	r3, [pc, #388]	; (800272c <HAL_RCC_OscConfig+0x4c4>)
 80025a6:	6a1b      	ldr	r3, [r3, #32]
 80025a8:	4a60      	ldr	r2, [pc, #384]	; (800272c <HAL_RCC_OscConfig+0x4c4>)
 80025aa:	f043 0304 	orr.w	r3, r3, #4
 80025ae:	6213      	str	r3, [r2, #32]
 80025b0:	4b5e      	ldr	r3, [pc, #376]	; (800272c <HAL_RCC_OscConfig+0x4c4>)
 80025b2:	6a1b      	ldr	r3, [r3, #32]
 80025b4:	4a5d      	ldr	r2, [pc, #372]	; (800272c <HAL_RCC_OscConfig+0x4c4>)
 80025b6:	f043 0301 	orr.w	r3, r3, #1
 80025ba:	6213      	str	r3, [r2, #32]
 80025bc:	e00b      	b.n	80025d6 <HAL_RCC_OscConfig+0x36e>
 80025be:	4b5b      	ldr	r3, [pc, #364]	; (800272c <HAL_RCC_OscConfig+0x4c4>)
 80025c0:	6a1b      	ldr	r3, [r3, #32]
 80025c2:	4a5a      	ldr	r2, [pc, #360]	; (800272c <HAL_RCC_OscConfig+0x4c4>)
 80025c4:	f023 0301 	bic.w	r3, r3, #1
 80025c8:	6213      	str	r3, [r2, #32]
 80025ca:	4b58      	ldr	r3, [pc, #352]	; (800272c <HAL_RCC_OscConfig+0x4c4>)
 80025cc:	6a1b      	ldr	r3, [r3, #32]
 80025ce:	4a57      	ldr	r2, [pc, #348]	; (800272c <HAL_RCC_OscConfig+0x4c4>)
 80025d0:	f023 0304 	bic.w	r3, r3, #4
 80025d4:	6213      	str	r3, [r2, #32]
    /* Check the LSE State */
    if (RCC_OscInitStruct->LSEState != RCC_LSE_OFF)
 80025d6:	687b      	ldr	r3, [r7, #4]
 80025d8:	68db      	ldr	r3, [r3, #12]
 80025da:	2b00      	cmp	r3, #0
 80025dc:	d015      	beq.n	800260a <HAL_RCC_OscConfig+0x3a2>
    {
      /* Get Start Tick */
      tickstart = HAL_GetTick();
 80025de:	f7fe fb3f 	bl	8000c60 <HAL_GetTick>
 80025e2:	6138      	str	r0, [r7, #16]

      /* Wait till LSE is ready */
      while (__HAL_RCC_GET_FLAG(RCC_FLAG_LSERDY) == RESET)
 80025e4:	e00a      	b.n	80025fc <HAL_RCC_OscConfig+0x394>
      {
        if ((HAL_GetTick() - tickstart) > RCC_LSE_TIMEOUT_VALUE)
 80025e6:	f7fe fb3b 	bl	8000c60 <HAL_GetTick>
 80025ea:	4602      	mov	r2, r0
 80025ec:	693b      	ldr	r3, [r7, #16]
 80025ee:	1ad3      	subs	r3, r2, r3
 80025f0:	f241 3288 	movw	r2, #5000	; 0x1388
 80025f4:	4293      	cmp	r3, r2
 80025f6:	d901      	bls.n	80025fc <HAL_RCC_OscConfig+0x394>
        {
          return HAL_TIMEOUT;
 80025f8:	2303      	movs	r3, #3
 80025fa:	e0b1      	b.n	8002760 <HAL_RCC_OscConfig+0x4f8>
      while (__HAL_RCC_GET_FLAG(RCC_FLAG_LSERDY) == RESET)
 80025fc:	4b4b      	ldr	r3, [pc, #300]	; (800272c <HAL_RCC_OscConfig+0x4c4>)
 80025fe:	6a1b      	ldr	r3, [r3, #32]
 8002600:	f003 0302 	and.w	r3, r3, #2
 8002604:	2b00      	cmp	r3, #0
 8002606:	d0ee      	beq.n	80025e6 <HAL_RCC_OscConfig+0x37e>
 8002608:	e014      	b.n	8002634 <HAL_RCC_OscConfig+0x3cc>
      }
    }
    else
    {
      /* Get Start Tick */
      tickstart = HAL_GetTick();
 800260a:	f7fe fb29 	bl	8000c60 <HAL_GetTick>
 800260e:	6138      	str	r0, [r7, #16]

      /* Wait till LSE is disabled */
      while (__HAL_RCC_GET_FLAG(RCC_FLAG_LSERDY) != RESET)
 8002610:	e00a      	b.n	8002628 <HAL_RCC_OscConfig+0x3c0>
      {
        if ((HAL_GetTick() - tickstart) > RCC_LSE_TIMEOUT_VALUE)
 8002612:	f7fe fb25 	bl	8000c60 <HAL_GetTick>
 8002616:	4602      	mov	r2, r0
 8002618:	693b      	ldr	r3, [r7, #16]
 800261a:	1ad3      	subs	r3, r2, r3
 800261c:	f241 3288 	movw	r2, #5000	; 0x1388
 8002620:	4293      	cmp	r3, r2
 8002622:	d901      	bls.n	8002628 <HAL_RCC_OscConfig+0x3c0>
        {
          return HAL_TIMEOUT;
 8002624:	2303      	movs	r3, #3
 8002626:	e09b      	b.n	8002760 <HAL_RCC_OscConfig+0x4f8>
      while (__HAL_RCC_GET_FLAG(RCC_FLAG_LSERDY) != RESET)
 8002628:	4b40      	ldr	r3, [pc, #256]	; (800272c <HAL_RCC_OscConfig+0x4c4>)
 800262a:	6a1b      	ldr	r3, [r3, #32]
 800262c:	f003 0302 	and.w	r3, r3, #2
 8002630:	2b00      	cmp	r3, #0
 8002632:	d1ee      	bne.n	8002612 <HAL_RCC_OscConfig+0x3aa>
        }
      }
    }

    /* Require to disable power clock if necessary */
    if (pwrclkchanged == SET)
 8002634:	7dfb      	ldrb	r3, [r7, #23]
 8002636:	2b01      	cmp	r3, #1
 8002638:	d105      	bne.n	8002646 <HAL_RCC_OscConfig+0x3de>
    {
      __HAL_RCC_PWR_CLK_DISABLE();
 800263a:	4b3c      	ldr	r3, [pc, #240]	; (800272c <HAL_RCC_OscConfig+0x4c4>)
 800263c:	69db      	ldr	r3, [r3, #28]
 800263e:	4a3b      	ldr	r2, [pc, #236]	; (800272c <HAL_RCC_OscConfig+0x4c4>)
 8002640:	f023 5380 	bic.w	r3, r3, #268435456	; 0x10000000
 8002644:	61d3      	str	r3, [r2, #28]

#endif /* RCC_CR_PLL2ON */
  /*-------------------------------- PLL Configuration -----------------------*/
  /* Check the parameters */
  assert_param(IS_RCC_PLL(RCC_OscInitStruct->PLL.PLLState));
  if ((RCC_OscInitStruct->PLL.PLLState) != RCC_PLL_NONE)
 8002646:	687b      	ldr	r3, [r7, #4]
 8002648:	69db      	ldr	r3, [r3, #28]
 800264a:	2b00      	cmp	r3, #0
 800264c:	f000 8087 	beq.w	800275e <HAL_RCC_OscConfig+0x4f6>
  {
    /* Check if the PLL is used as system clock or not */
    if (__HAL_RCC_GET_SYSCLK_SOURCE() != RCC_SYSCLKSOURCE_STATUS_PLLCLK)
 8002650:	4b36      	ldr	r3, [pc, #216]	; (800272c <HAL_RCC_OscConfig+0x4c4>)
 8002652:	685b      	ldr	r3, [r3, #4]
 8002654:	f003 030c 	and.w	r3, r3, #12
 8002658:	2b08      	cmp	r3, #8
 800265a:	d061      	beq.n	8002720 <HAL_RCC_OscConfig+0x4b8>
    {
      if ((RCC_OscInitStruct->PLL.PLLState) == RCC_PLL_ON)
 800265c:	687b      	ldr	r3, [r7, #4]
 800265e:	69db      	ldr	r3, [r3, #28]
 8002660:	2b02      	cmp	r3, #2
 8002662:	d146      	bne.n	80026f2 <HAL_RCC_OscConfig+0x48a>
        /* Check the parameters */
        assert_param(IS_RCC_PLLSOURCE(RCC_OscInitStruct->PLL.PLLSource));
        assert_param(IS_RCC_PLL_MUL(RCC_OscInitStruct->PLL.PLLMUL));

        /* Disable the main PLL. */
        __HAL_RCC_PLL_DISABLE();
 8002664:	4b33      	ldr	r3, [pc, #204]	; (8002734 <HAL_RCC_OscConfig+0x4cc>)
 8002666:	2200      	movs	r2, #0
 8002668:	601a      	str	r2, [r3, #0]

        /* Get Start Tick */
        tickstart = HAL_GetTick();
 800266a:	f7fe faf9 	bl	8000c60 <HAL_GetTick>
 800266e:	6138      	str	r0, [r7, #16]

        /* Wait till PLL is disabled */
        while (__HAL_RCC_GET_FLAG(RCC_FLAG_PLLRDY)  != RESET)
 8002670:	e008      	b.n	8002684 <HAL_RCC_OscConfig+0x41c>
        {
          if ((HAL_GetTick() - tickstart) > PLL_TIMEOUT_VALUE)
 8002672:	f7fe faf5 	bl	8000c60 <HAL_GetTick>
 8002676:	4602      	mov	r2, r0
 8002678:	693b      	ldr	r3, [r7, #16]
 800267a:	1ad3      	subs	r3, r2, r3
 800267c:	2b02      	cmp	r3, #2
 800267e:	d901      	bls.n	8002684 <HAL_RCC_OscConfig+0x41c>
          {
            return HAL_TIMEOUT;
 8002680:	2303      	movs	r3, #3
 8002682:	e06d      	b.n	8002760 <HAL_RCC_OscConfig+0x4f8>
        while (__HAL_RCC_GET_FLAG(RCC_FLAG_PLLRDY)  != RESET)
 8002684:	4b29      	ldr	r3, [pc, #164]	; (800272c <HAL_RCC_OscConfig+0x4c4>)
 8002686:	681b      	ldr	r3, [r3, #0]
 8002688:	f003 7300 	and.w	r3, r3, #33554432	; 0x2000000
 800268c:	2b00      	cmp	r3, #0
 800268e:	d1f0      	bne.n	8002672 <HAL_RCC_OscConfig+0x40a>
          }
        }

        /* Configure the HSE prediv factor --------------------------------*/
        /* It can be written only when the PLL is disabled. Not used in PLL source is different than HSE */
        if (RCC_OscInitStruct->PLL.PLLSource == RCC_PLLSOURCE_HSE)
 8002690:	687b      	ldr	r3, [r7, #4]
 8002692:	6a1b      	ldr	r3, [r3, #32]
 8002694:	f5b3 3f80 	cmp.w	r3, #65536	; 0x10000
 8002698:	d108      	bne.n	80026ac <HAL_RCC_OscConfig+0x444>
          /* Set PREDIV1 source */
          SET_BIT(RCC->CFGR2, RCC_OscInitStruct->Prediv1Source);
#endif /* RCC_CFGR2_PREDIV1SRC */

          /* Set PREDIV1 Value */
          __HAL_RCC_HSE_PREDIV_CONFIG(RCC_OscInitStruct->HSEPredivValue);
 800269a:	4b24      	ldr	r3, [pc, #144]	; (800272c <HAL_RCC_OscConfig+0x4c4>)
 800269c:	685b      	ldr	r3, [r3, #4]
 800269e:	f423 3200 	bic.w	r2, r3, #131072	; 0x20000
 80026a2:	687b      	ldr	r3, [r7, #4]
 80026a4:	689b      	ldr	r3, [r3, #8]
 80026a6:	4921      	ldr	r1, [pc, #132]	; (800272c <HAL_RCC_OscConfig+0x4c4>)
 80026a8:	4313      	orrs	r3, r2
 80026aa:	604b      	str	r3, [r1, #4]
        }

        /* Configure the main PLL clock source and multiplication factors. */
        __HAL_RCC_PLL_CONFIG(RCC_OscInitStruct->PLL.PLLSource,
 80026ac:	4b1f      	ldr	r3, [pc, #124]	; (800272c <HAL_RCC_OscConfig+0x4c4>)
 80026ae:	685b      	ldr	r3, [r3, #4]
 80026b0:	f423 1274 	bic.w	r2, r3, #3997696	; 0x3d0000
 80026b4:	687b      	ldr	r3, [r7, #4]
 80026b6:	6a19      	ldr	r1, [r3, #32]
 80026b8:	687b      	ldr	r3, [r7, #4]
 80026ba:	6a5b      	ldr	r3, [r3, #36]	; 0x24
 80026bc:	430b      	orrs	r3, r1
 80026be:	491b      	ldr	r1, [pc, #108]	; (800272c <HAL_RCC_OscConfig+0x4c4>)
 80026c0:	4313      	orrs	r3, r2
 80026c2:	604b      	str	r3, [r1, #4]
                             RCC_OscInitStruct->PLL.PLLMUL);
        /* Enable the main PLL. */
        __HAL_RCC_PLL_ENABLE();
 80026c4:	4b1b      	ldr	r3, [pc, #108]	; (8002734 <HAL_RCC_OscConfig+0x4cc>)
 80026c6:	2201      	movs	r2, #1
 80026c8:	601a      	str	r2, [r3, #0]

        /* Get Start Tick */
        tickstart = HAL_GetTick();
 80026ca:	f7fe fac9 	bl	8000c60 <HAL_GetTick>
 80026ce:	6138      	str	r0, [r7, #16]

        /* Wait till PLL is ready */
        while (__HAL_RCC_GET_FLAG(RCC_FLAG_PLLRDY)  == RESET)
 80026d0:	e008      	b.n	80026e4 <HAL_RCC_OscConfig+0x47c>
        {
          if ((HAL_GetTick() - tickstart) > PLL_TIMEOUT_VALUE)
 80026d2:	f7fe fac5 	bl	8000c60 <HAL_GetTick>
 80026d6:	4602      	mov	r2, r0
 80026d8:	693b      	ldr	r3, [r7, #16]
 80026da:	1ad3      	subs	r3, r2, r3
 80026dc:	2b02      	cmp	r3, #2
 80026de:	d901      	bls.n	80026e4 <HAL_RCC_OscConfig+0x47c>
          {
            return HAL_TIMEOUT;
 80026e0:	2303      	movs	r3, #3
 80026e2:	e03d      	b.n	8002760 <HAL_RCC_OscConfig+0x4f8>
        while (__HAL_RCC_GET_FLAG(RCC_FLAG_PLLRDY)  == RESET)
 80026e4:	4b11      	ldr	r3, [pc, #68]	; (800272c <HAL_RCC_OscConfig+0x4c4>)
 80026e6:	681b      	ldr	r3, [r3, #0]
 80026e8:	f003 7300 	and.w	r3, r3, #33554432	; 0x2000000
 80026ec:	2b00      	cmp	r3, #0
 80026ee:	d0f0      	beq.n	80026d2 <HAL_RCC_OscConfig+0x46a>
 80026f0:	e035      	b.n	800275e <HAL_RCC_OscConfig+0x4f6>
        }
      }
      else
      {
        /* Disable the main PLL. */
        __HAL_RCC_PLL_DISABLE();
 80026f2:	4b10      	ldr	r3, [pc, #64]	; (8002734 <HAL_RCC_OscConfig+0x4cc>)
 80026f4:	2200      	movs	r2, #0
 80026f6:	601a      	str	r2, [r3, #0]

        /* Get Start Tick */
        tickstart = HAL_GetTick();
 80026f8:	f7fe fab2 	bl	8000c60 <HAL_GetTick>
 80026fc:	6138      	str	r0, [r7, #16]

        /* Wait till PLL is disabled */
        while (__HAL_RCC_GET_FLAG(RCC_FLAG_PLLRDY)  != RESET)
 80026fe:	e008      	b.n	8002712 <HAL_RCC_OscConfig+0x4aa>
        {
          if ((HAL_GetTick() - tickstart) > PLL_TIMEOUT_VALUE)
 8002700:	f7fe faae 	bl	8000c60 <HAL_GetTick>
 8002704:	4602      	mov	r2, r0
 8002706:	693b      	ldr	r3, [r7, #16]
 8002708:	1ad3      	subs	r3, r2, r3
 800270a:	2b02      	cmp	r3, #2
 800270c:	d901      	bls.n	8002712 <HAL_RCC_OscConfig+0x4aa>
          {
            return HAL_TIMEOUT;
 800270e:	2303      	movs	r3, #3
 8002710:	e026      	b.n	8002760 <HAL_RCC_OscConfig+0x4f8>
        while (__HAL_RCC_GET_FLAG(RCC_FLAG_PLLRDY)  != RESET)
 8002712:	4b06      	ldr	r3, [pc, #24]	; (800272c <HAL_RCC_OscConfig+0x4c4>)
 8002714:	681b      	ldr	r3, [r3, #0]
 8002716:	f003 7300 	and.w	r3, r3, #33554432	; 0x2000000
 800271a:	2b00      	cmp	r3, #0
 800271c:	d1f0      	bne.n	8002700 <HAL_RCC_OscConfig+0x498>
 800271e:	e01e      	b.n	800275e <HAL_RCC_OscConfig+0x4f6>
      }
    }
    else
    {
      /* Check if there is a request to disable the PLL used as System clock source */
      if ((RCC_OscInitStruct->PLL.PLLState) == RCC_PLL_OFF)
 8002720:	687b      	ldr	r3, [r7, #4]
 8002722:	69db      	ldr	r3, [r3, #28]
 8002724:	2b01      	cmp	r3, #1
 8002726:	d107      	bne.n	8002738 <HAL_RCC_OscConfig+0x4d0>
      {
        return HAL_ERROR;
 8002728:	2301      	movs	r3, #1
 800272a:	e019      	b.n	8002760 <HAL_RCC_OscConfig+0x4f8>
 800272c:	40021000 	.word	0x40021000
 8002730:	40007000 	.word	0x40007000
 8002734:	42420060 	.word	0x42420060
      }
      else
      {
        /* Do not return HAL_ERROR if request repeats the current configuration */
        pll_config = RCC->CFGR;
 8002738:	4b0b      	ldr	r3, [pc, #44]	; (8002768 <HAL_RCC_OscConfig+0x500>)
 800273a:	685b      	ldr	r3, [r3, #4]
 800273c:	60fb      	str	r3, [r7, #12]
        if ((READ_BIT(pll_config, RCC_CFGR_PLLSRC) != RCC_OscInitStruct->PLL.PLLSource) ||
 800273e:	68fb      	ldr	r3, [r7, #12]
 8002740:	f403 3280 	and.w	r2, r3, #65536	; 0x10000
 8002744:	687b      	ldr	r3, [r7, #4]
 8002746:	6a1b      	ldr	r3, [r3, #32]
 8002748:	429a      	cmp	r2, r3
 800274a:	d106      	bne.n	800275a <HAL_RCC_OscConfig+0x4f2>
            (READ_BIT(pll_config, RCC_CFGR_PLLMULL) != RCC_OscInitStruct->PLL.PLLMUL))
 800274c:	68fb      	ldr	r3, [r7, #12]
 800274e:	f403 1270 	and.w	r2, r3, #3932160	; 0x3c0000
 8002752:	687b      	ldr	r3, [r7, #4]
 8002754:	6a5b      	ldr	r3, [r3, #36]	; 0x24
        if ((READ_BIT(pll_config, RCC_CFGR_PLLSRC) != RCC_OscInitStruct->PLL.PLLSource) ||
 8002756:	429a      	cmp	r2, r3
 8002758:	d001      	beq.n	800275e <HAL_RCC_OscConfig+0x4f6>
        {
          return HAL_ERROR;
 800275a:	2301      	movs	r3, #1
 800275c:	e000      	b.n	8002760 <HAL_RCC_OscConfig+0x4f8>
        }
      }
    }
  }

  return HAL_OK;
 800275e:	2300      	movs	r3, #0
}
 8002760:	4618      	mov	r0, r3
 8002762:	3718      	adds	r7, #24
 8002764:	46bd      	mov	sp, r7
 8002766:	bd80      	pop	{r7, pc}
 8002768:	40021000 	.word	0x40021000

0800276c <HAL_RCC_ClockConfig>:
  *         You can use @ref HAL_RCC_GetClockConfig() function to know which clock is
  *         currently used as system clock source.
  * @retval HAL status
  */
HAL_StatusTypeDef HAL_RCC_ClockConfig(RCC_ClkInitTypeDef  *RCC_ClkInitStruct, uint32_t FLatency)
{
 800276c:	b580      	push	{r7, lr}
 800276e:	b084      	sub	sp, #16
 8002770:	af00      	add	r7, sp, #0
 8002772:	6078      	str	r0, [r7, #4]
 8002774:	6039      	str	r1, [r7, #0]
  uint32_t tickstart;

  /* Check Null pointer */
  if (RCC_ClkInitStruct == NULL)
 8002776:	687b      	ldr	r3, [r7, #4]
 8002778:	2b00      	cmp	r3, #0
 800277a:	d101      	bne.n	8002780 <HAL_RCC_ClockConfig+0x14>
  {
    return HAL_ERROR;
 800277c:	2301      	movs	r3, #1
 800277e:	e0d0      	b.n	8002922 <HAL_RCC_ClockConfig+0x1b6>
  must be correctly programmed according to the frequency of the CPU clock
    (HCLK) of the device. */

#if defined(FLASH_ACR_LATENCY)
  /* Increasing the number of wait states because of higher CPU frequency */
  if (FLatency > __HAL_FLASH_GET_LATENCY())
 8002780:	4b6a      	ldr	r3, [pc, #424]	; (800292c <HAL_RCC_ClockConfig+0x1c0>)
 8002782:	681b      	ldr	r3, [r3, #0]
 8002784:	f003 0307 	and.w	r3, r3, #7
 8002788:	683a      	ldr	r2, [r7, #0]
 800278a:	429a      	cmp	r2, r3
 800278c:	d910      	bls.n	80027b0 <HAL_RCC_ClockConfig+0x44>
  {
    /* Program the new number of wait states to the LATENCY bits in the FLASH_ACR register */
    __HAL_FLASH_SET_LATENCY(FLatency);
 800278e:	4b67      	ldr	r3, [pc, #412]	; (800292c <HAL_RCC_ClockConfig+0x1c0>)
 8002790:	681b      	ldr	r3, [r3, #0]
 8002792:	f023 0207 	bic.w	r2, r3, #7
 8002796:	4965      	ldr	r1, [pc, #404]	; (800292c <HAL_RCC_ClockConfig+0x1c0>)
 8002798:	683b      	ldr	r3, [r7, #0]
 800279a:	4313      	orrs	r3, r2
 800279c:	600b      	str	r3, [r1, #0]

    /* Check that the new number of wait states is taken into account to access the Flash
    memory by reading the FLASH_ACR register */
    if (__HAL_FLASH_GET_LATENCY() != FLatency)
 800279e:	4b63      	ldr	r3, [pc, #396]	; (800292c <HAL_RCC_ClockConfig+0x1c0>)
 80027a0:	681b      	ldr	r3, [r3, #0]
 80027a2:	f003 0307 	and.w	r3, r3, #7
 80027a6:	683a      	ldr	r2, [r7, #0]
 80027a8:	429a      	cmp	r2, r3
 80027aa:	d001      	beq.n	80027b0 <HAL_RCC_ClockConfig+0x44>
  {
    return HAL_ERROR;
 80027ac:	2301      	movs	r3, #1
 80027ae:	e0b8      	b.n	8002922 <HAL_RCC_ClockConfig+0x1b6>
  }
}

#endif /* FLASH_ACR_LATENCY */
/*-------------------------- HCLK Configuration --------------------------*/
if (((RCC_ClkInitStruct->ClockType) & RCC_CLOCKTYPE_HCLK) == RCC_CLOCKTYPE_HCLK)
 80027b0:	687b      	ldr	r3, [r7, #4]
 80027b2:	681b      	ldr	r3, [r3, #0]
 80027b4:	f003 0302 	and.w	r3, r3, #2
 80027b8:	2b00      	cmp	r3, #0
 80027ba:	d020      	beq.n	80027fe <HAL_RCC_ClockConfig+0x92>
  {
    /* Set the highest APBx dividers in order to ensure that we do not go through
    a non-spec phase whatever we decrease or increase HCLK. */
    if (((RCC_ClkInitStruct->ClockType) & RCC_CLOCKTYPE_PCLK1) == RCC_CLOCKTYPE_PCLK1)
 80027bc:	687b      	ldr	r3, [r7, #4]
 80027be:	681b      	ldr	r3, [r3, #0]
 80027c0:	f003 0304 	and.w	r3, r3, #4
 80027c4:	2b00      	cmp	r3, #0
 80027c6:	d005      	beq.n	80027d4 <HAL_RCC_ClockConfig+0x68>
    {
      MODIFY_REG(RCC->CFGR, RCC_CFGR_PPRE1, RCC_HCLK_DIV16);
 80027c8:	4b59      	ldr	r3, [pc, #356]	; (8002930 <HAL_RCC_ClockConfig+0x1c4>)
 80027ca:	685b      	ldr	r3, [r3, #4]
 80027cc:	4a58      	ldr	r2, [pc, #352]	; (8002930 <HAL_RCC_ClockConfig+0x1c4>)
 80027ce:	f443 63e0 	orr.w	r3, r3, #1792	; 0x700
 80027d2:	6053      	str	r3, [r2, #4]
    }

    if (((RCC_ClkInitStruct->ClockType) & RCC_CLOCKTYPE_PCLK2) == RCC_CLOCKTYPE_PCLK2)
 80027d4:	687b      	ldr	r3, [r7, #4]
 80027d6:	681b      	ldr	r3, [r3, #0]
 80027d8:	f003 0308 	and.w	r3, r3, #8
 80027dc:	2b00      	cmp	r3, #0
 80027de:	d005      	beq.n	80027ec <HAL_RCC_ClockConfig+0x80>
    {
      MODIFY_REG(RCC->CFGR, RCC_CFGR_PPRE2, (RCC_HCLK_DIV16 << 3));
 80027e0:	4b53      	ldr	r3, [pc, #332]	; (8002930 <HAL_RCC_ClockConfig+0x1c4>)
 80027e2:	685b      	ldr	r3, [r3, #4]
 80027e4:	4a52      	ldr	r2, [pc, #328]	; (8002930 <HAL_RCC_ClockConfig+0x1c4>)
 80027e6:	f443 5360 	orr.w	r3, r3, #14336	; 0x3800
 80027ea:	6053      	str	r3, [r2, #4]
    }

    /* Set the new HCLK clock divider */
    assert_param(IS_RCC_HCLK(RCC_ClkInitStruct->AHBCLKDivider));
    MODIFY_REG(RCC->CFGR, RCC_CFGR_HPRE, RCC_ClkInitStruct->AHBCLKDivider);
 80027ec:	4b50      	ldr	r3, [pc, #320]	; (8002930 <HAL_RCC_ClockConfig+0x1c4>)
 80027ee:	685b      	ldr	r3, [r3, #4]
 80027f0:	f023 02f0 	bic.w	r2, r3, #240	; 0xf0
 80027f4:	687b      	ldr	r3, [r7, #4]
 80027f6:	689b      	ldr	r3, [r3, #8]
 80027f8:	494d      	ldr	r1, [pc, #308]	; (8002930 <HAL_RCC_ClockConfig+0x1c4>)
 80027fa:	4313      	orrs	r3, r2
 80027fc:	604b      	str	r3, [r1, #4]
  }

  /*------------------------- SYSCLK Configuration ---------------------------*/
  if (((RCC_ClkInitStruct->ClockType) & RCC_CLOCKTYPE_SYSCLK) == RCC_CLOCKTYPE_SYSCLK)
 80027fe:	687b      	ldr	r3, [r7, #4]
 8002800:	681b      	ldr	r3, [r3, #0]
 8002802:	f003 0301 	and.w	r3, r3, #1
 8002806:	2b00      	cmp	r3, #0
 8002808:	d040      	beq.n	800288c <HAL_RCC_ClockConfig+0x120>
  {
    assert_param(IS_RCC_SYSCLKSOURCE(RCC_ClkInitStruct->SYSCLKSource));

    /* HSE is selected as System Clock Source */
    if (RCC_ClkInitStruct->SYSCLKSource == RCC_SYSCLKSOURCE_HSE)
 800280a:	687b      	ldr	r3, [r7, #4]
 800280c:	685b      	ldr	r3, [r3, #4]
 800280e:	2b01      	cmp	r3, #1
 8002810:	d107      	bne.n	8002822 <HAL_RCC_ClockConfig+0xb6>
    {
      /* Check the HSE ready flag */
      if (__HAL_RCC_GET_FLAG(RCC_FLAG_HSERDY) == RESET)
 8002812:	4b47      	ldr	r3, [pc, #284]	; (8002930 <HAL_RCC_ClockConfig+0x1c4>)
 8002814:	681b      	ldr	r3, [r3, #0]
 8002816:	f403 3300 	and.w	r3, r3, #131072	; 0x20000
 800281a:	2b00      	cmp	r3, #0
 800281c:	d115      	bne.n	800284a <HAL_RCC_ClockConfig+0xde>
      {
        return HAL_ERROR;
 800281e:	2301      	movs	r3, #1
 8002820:	e07f      	b.n	8002922 <HAL_RCC_ClockConfig+0x1b6>
      }
    }
    /* PLL is selected as System Clock Source */
    else if (RCC_ClkInitStruct->SYSCLKSource == RCC_SYSCLKSOURCE_PLLCLK)
 8002822:	687b      	ldr	r3, [r7, #4]
 8002824:	685b      	ldr	r3, [r3, #4]
 8002826:	2b02      	cmp	r3, #2
 8002828:	d107      	bne.n	800283a <HAL_RCC_ClockConfig+0xce>
    {
      /* Check the PLL ready flag */
      if (__HAL_RCC_GET_FLAG(RCC_FLAG_PLLRDY) == RESET)
 800282a:	4b41      	ldr	r3, [pc, #260]	; (8002930 <HAL_RCC_ClockConfig+0x1c4>)
 800282c:	681b      	ldr	r3, [r3, #0]
 800282e:	f003 7300 	and.w	r3, r3, #33554432	; 0x2000000
 8002832:	2b00      	cmp	r3, #0
 8002834:	d109      	bne.n	800284a <HAL_RCC_ClockConfig+0xde>
      {
        return HAL_ERROR;
 8002836:	2301      	movs	r3, #1
 8002838:	e073      	b.n	8002922 <HAL_RCC_ClockConfig+0x1b6>
    }
    /* HSI is selected as System Clock Source */
    else
    {
      /* Check the HSI ready flag */
      if (__HAL_RCC_GET_FLAG(RCC_FLAG_HSIRDY) == RESET)
 800283a:	4b3d      	ldr	r3, [pc, #244]	; (8002930 <HAL_RCC_ClockConfig+0x1c4>)
 800283c:	681b      	ldr	r3, [r3, #0]
 800283e:	f003 0302 	and.w	r3, r3, #2
 8002842:	2b00      	cmp	r3, #0
 8002844:	d101      	bne.n	800284a <HAL_RCC_ClockConfig+0xde>
      {
        return HAL_ERROR;
 8002846:	2301      	movs	r3, #1
 8002848:	e06b      	b.n	8002922 <HAL_RCC_ClockConfig+0x1b6>
      }
    }
    __HAL_RCC_SYSCLK_CONFIG(RCC_ClkInitStruct->SYSCLKSource);
 800284a:	4b39      	ldr	r3, [pc, #228]	; (8002930 <HAL_RCC_ClockConfig+0x1c4>)
 800284c:	685b      	ldr	r3, [r3, #4]
 800284e:	f023 0203 	bic.w	r2, r3, #3
 8002852:	687b      	ldr	r3, [r7, #4]
 8002854:	685b      	ldr	r3, [r3, #4]
 8002856:	4936      	ldr	r1, [pc, #216]	; (8002930 <HAL_RCC_ClockConfig+0x1c4>)
 8002858:	4313      	orrs	r3, r2
 800285a:	604b      	str	r3, [r1, #4]

    /* Get Start Tick */
    tickstart = HAL_GetTick();
 800285c:	f7fe fa00 	bl	8000c60 <HAL_GetTick>
 8002860:	60f8      	str	r0, [r7, #12]

    while (__HAL_RCC_GET_SYSCLK_SOURCE() != (RCC_ClkInitStruct->SYSCLKSource << RCC_CFGR_SWS_Pos))
 8002862:	e00a      	b.n	800287a <HAL_RCC_ClockConfig+0x10e>
    {
      if ((HAL_GetTick() - tickstart) > CLOCKSWITCH_TIMEOUT_VALUE)
 8002864:	f7fe f9fc 	bl	8000c60 <HAL_GetTick>
 8002868:	4602      	mov	r2, r0
 800286a:	68fb      	ldr	r3, [r7, #12]
 800286c:	1ad3      	subs	r3, r2, r3
 800286e:	f241 3288 	movw	r2, #5000	; 0x1388
 8002872:	4293      	cmp	r3, r2
 8002874:	d901      	bls.n	800287a <HAL_RCC_ClockConfig+0x10e>
      {
        return HAL_TIMEOUT;
 8002876:	2303      	movs	r3, #3
 8002878:	e053      	b.n	8002922 <HAL_RCC_ClockConfig+0x1b6>
    while (__HAL_RCC_GET_SYSCLK_SOURCE() != (RCC_ClkInitStruct->SYSCLKSource << RCC_CFGR_SWS_Pos))
 800287a:	4b2d      	ldr	r3, [pc, #180]	; (8002930 <HAL_RCC_ClockConfig+0x1c4>)
 800287c:	685b      	ldr	r3, [r3, #4]
 800287e:	f003 020c 	and.w	r2, r3, #12
 8002882:	687b      	ldr	r3, [r7, #4]
 8002884:	685b      	ldr	r3, [r3, #4]
 8002886:	009b      	lsls	r3, r3, #2
 8002888:	429a      	cmp	r2, r3
 800288a:	d1eb      	bne.n	8002864 <HAL_RCC_ClockConfig+0xf8>
    }
  }

#if defined(FLASH_ACR_LATENCY)
  /* Decreasing the number of wait states because of lower CPU frequency */
  if (FLatency < __HAL_FLASH_GET_LATENCY())
 800288c:	4b27      	ldr	r3, [pc, #156]	; (800292c <HAL_RCC_ClockConfig+0x1c0>)
 800288e:	681b      	ldr	r3, [r3, #0]
 8002890:	f003 0307 	and.w	r3, r3, #7
 8002894:	683a      	ldr	r2, [r7, #0]
 8002896:	429a      	cmp	r2, r3
 8002898:	d210      	bcs.n	80028bc <HAL_RCC_ClockConfig+0x150>
  {
    /* Program the new number of wait states to the LATENCY bits in the FLASH_ACR register */
    __HAL_FLASH_SET_LATENCY(FLatency);
 800289a:	4b24      	ldr	r3, [pc, #144]	; (800292c <HAL_RCC_ClockConfig+0x1c0>)
 800289c:	681b      	ldr	r3, [r3, #0]
 800289e:	f023 0207 	bic.w	r2, r3, #7
 80028a2:	4922      	ldr	r1, [pc, #136]	; (800292c <HAL_RCC_ClockConfig+0x1c0>)
 80028a4:	683b      	ldr	r3, [r7, #0]
 80028a6:	4313      	orrs	r3, r2
 80028a8:	600b      	str	r3, [r1, #0]

    /* Check that the new number of wait states is taken into account to access the Flash
    memory by reading the FLASH_ACR register */
    if (__HAL_FLASH_GET_LATENCY() != FLatency)
 80028aa:	4b20      	ldr	r3, [pc, #128]	; (800292c <HAL_RCC_ClockConfig+0x1c0>)
 80028ac:	681b      	ldr	r3, [r3, #0]
 80028ae:	f003 0307 	and.w	r3, r3, #7
 80028b2:	683a      	ldr	r2, [r7, #0]
 80028b4:	429a      	cmp	r2, r3
 80028b6:	d001      	beq.n	80028bc <HAL_RCC_ClockConfig+0x150>
  {
    return HAL_ERROR;
 80028b8:	2301      	movs	r3, #1
 80028ba:	e032      	b.n	8002922 <HAL_RCC_ClockConfig+0x1b6>
  }
}
#endif /* FLASH_ACR_LATENCY */

/*-------------------------- PCLK1 Configuration ---------------------------*/
if (((RCC_ClkInitStruct->ClockType) & RCC_CLOCKTYPE_PCLK1) == RCC_CLOCKTYPE_PCLK1)
 80028bc:	687b      	ldr	r3, [r7, #4]
 80028be:	681b      	ldr	r3, [r3, #0]
 80028c0:	f003 0304 	and.w	r3, r3, #4
 80028c4:	2b00      	cmp	r3, #0
 80028c6:	d008      	beq.n	80028da <HAL_RCC_ClockConfig+0x16e>
  {
    assert_param(IS_RCC_PCLK(RCC_ClkInitStruct->APB1CLKDivider));
    MODIFY_REG(RCC->CFGR, RCC_CFGR_PPRE1, RCC_ClkInitStruct->APB1CLKDivider);
 80028c8:	4b19      	ldr	r3, [pc, #100]	; (8002930 <HAL_RCC_ClockConfig+0x1c4>)
 80028ca:	685b      	ldr	r3, [r3, #4]
 80028cc:	f423 62e0 	bic.w	r2, r3, #1792	; 0x700
 80028d0:	687b      	ldr	r3, [r7, #4]
 80028d2:	68db      	ldr	r3, [r3, #12]
 80028d4:	4916      	ldr	r1, [pc, #88]	; (8002930 <HAL_RCC_ClockConfig+0x1c4>)
 80028d6:	4313      	orrs	r3, r2
 80028d8:	604b      	str	r3, [r1, #4]
  }

  /*-------------------------- PCLK2 Configuration ---------------------------*/
  if (((RCC_ClkInitStruct->ClockType) & RCC_CLOCKTYPE_PCLK2) == RCC_CLOCKTYPE_PCLK2)
 80028da:	687b      	ldr	r3, [r7, #4]
 80028dc:	681b      	ldr	r3, [r3, #0]
 80028de:	f003 0308 	and.w	r3, r3, #8
 80028e2:	2b00      	cmp	r3, #0
 80028e4:	d009      	beq.n	80028fa <HAL_RCC_ClockConfig+0x18e>
  {
    assert_param(IS_RCC_PCLK(RCC_ClkInitStruct->APB2CLKDivider));
    MODIFY_REG(RCC->CFGR, RCC_CFGR_PPRE2, ((RCC_ClkInitStruct->APB2CLKDivider) << 3));
 80028e6:	4b12      	ldr	r3, [pc, #72]	; (8002930 <HAL_RCC_ClockConfig+0x1c4>)
 80028e8:	685b      	ldr	r3, [r3, #4]
 80028ea:	f423 5260 	bic.w	r2, r3, #14336	; 0x3800
 80028ee:	687b      	ldr	r3, [r7, #4]
 80028f0:	691b      	ldr	r3, [r3, #16]
 80028f2:	00db      	lsls	r3, r3, #3
 80028f4:	490e      	ldr	r1, [pc, #56]	; (8002930 <HAL_RCC_ClockConfig+0x1c4>)
 80028f6:	4313      	orrs	r3, r2
 80028f8:	604b      	str	r3, [r1, #4]
  }

  /* Update the SystemCoreClock global variable */
  SystemCoreClock = HAL_RCC_GetSysClockFreq() >> AHBPrescTable[(RCC->CFGR & RCC_CFGR_HPRE) >> RCC_CFGR_HPRE_Pos];
 80028fa:	f000 f821 	bl	8002940 <HAL_RCC_GetSysClockFreq>
 80028fe:	4602      	mov	r2, r0
 8002900:	4b0b      	ldr	r3, [pc, #44]	; (8002930 <HAL_RCC_ClockConfig+0x1c4>)
 8002902:	685b      	ldr	r3, [r3, #4]
 8002904:	091b      	lsrs	r3, r3, #4
 8002906:	f003 030f 	and.w	r3, r3, #15
 800290a:	490a      	ldr	r1, [pc, #40]	; (8002934 <HAL_RCC_ClockConfig+0x1c8>)
 800290c:	5ccb      	ldrb	r3, [r1, r3]
 800290e:	fa22 f303 	lsr.w	r3, r2, r3
 8002912:	4a09      	ldr	r2, [pc, #36]	; (8002938 <HAL_RCC_ClockConfig+0x1cc>)
 8002914:	6013      	str	r3, [r2, #0]

  /* Configure the source of time base considering new system clocks settings*/
  HAL_InitTick(uwTickPrio);
 8002916:	4b09      	ldr	r3, [pc, #36]	; (800293c <HAL_RCC_ClockConfig+0x1d0>)
 8002918:	681b      	ldr	r3, [r3, #0]
 800291a:	4618      	mov	r0, r3
 800291c:	f7fe f95e 	bl	8000bdc <HAL_InitTick>

  return HAL_OK;
 8002920:	2300      	movs	r3, #0
}
 8002922:	4618      	mov	r0, r3
 8002924:	3710      	adds	r7, #16
 8002926:	46bd      	mov	sp, r7
 8002928:	bd80      	pop	{r7, pc}
 800292a:	bf00      	nop
 800292c:	40022000 	.word	0x40022000
 8002930:	40021000 	.word	0x40021000
 8002934:	08003474 	.word	0x08003474
 8002938:	20000000 	.word	0x20000000
 800293c:	20000004 	.word	0x20000004

08002940 <HAL_RCC_GetSysClockFreq>:
  *         right SYSCLK value. Otherwise, any configuration based on this function will be incorrect.
  *
  * @retval SYSCLK frequency
  */
uint32_t HAL_RCC_GetSysClockFreq(void)
{
 8002940:	b490      	push	{r4, r7}
 8002942:	b08a      	sub	sp, #40	; 0x28
 8002944:	af00      	add	r7, sp, #0
#if defined(RCC_CFGR2_PREDIV1SRC)
  const uint8_t aPLLMULFactorTable[14] = {0, 0, 4, 5, 6, 7, 8, 9, 0, 0, 0, 0, 0, 13};
  const uint8_t aPredivFactorTable[16] = {1, 2, 3, 4, 5, 6, 7, 8, 9, 10, 11, 12, 13, 14, 15, 16};
#else
  const uint8_t aPLLMULFactorTable[16] = {2, 3, 4, 5, 6, 7, 8, 9, 10, 11, 12, 13, 14, 15, 16, 16};
 8002946:	4b29      	ldr	r3, [pc, #164]	; (80029ec <HAL_RCC_GetSysClockFreq+0xac>)
 8002948:	1d3c      	adds	r4, r7, #4
 800294a:	cb0f      	ldmia	r3, {r0, r1, r2, r3}
 800294c:	e884 000f 	stmia.w	r4, {r0, r1, r2, r3}
#if defined(RCC_CFGR2_PREDIV1)
  const uint8_t aPredivFactorTable[16] = {1, 2, 3, 4, 5, 6, 7, 8, 9, 10, 11, 12, 13, 14, 15, 16};
#else
  const uint8_t aPredivFactorTable[2] = {1, 2};
 8002950:	f240 2301 	movw	r3, #513	; 0x201
 8002954:	803b      	strh	r3, [r7, #0]
#endif /*RCC_CFGR2_PREDIV1*/

#endif
  uint32_t tmpreg = 0U, prediv = 0U, pllclk = 0U, pllmul = 0U;
 8002956:	2300      	movs	r3, #0
 8002958:	61fb      	str	r3, [r7, #28]
 800295a:	2300      	movs	r3, #0
 800295c:	61bb      	str	r3, [r7, #24]
 800295e:	2300      	movs	r3, #0
 8002960:	627b      	str	r3, [r7, #36]	; 0x24
 8002962:	2300      	movs	r3, #0
 8002964:	617b      	str	r3, [r7, #20]
  uint32_t sysclockfreq = 0U;
 8002966:	2300      	movs	r3, #0
 8002968:	623b      	str	r3, [r7, #32]
#if defined(RCC_CFGR2_PREDIV1SRC)
  uint32_t prediv2 = 0U, pll2mul = 0U;
#endif /*RCC_CFGR2_PREDIV1SRC*/

  tmpreg = RCC->CFGR;
 800296a:	4b21      	ldr	r3, [pc, #132]	; (80029f0 <HAL_RCC_GetSysClockFreq+0xb0>)
 800296c:	685b      	ldr	r3, [r3, #4]
 800296e:	61fb      	str	r3, [r7, #28]

  /* Get SYSCLK source -------------------------------------------------------*/
  switch (tmpreg & RCC_CFGR_SWS)
 8002970:	69fb      	ldr	r3, [r7, #28]
 8002972:	f003 030c 	and.w	r3, r3, #12
 8002976:	2b04      	cmp	r3, #4
 8002978:	d002      	beq.n	8002980 <HAL_RCC_GetSysClockFreq+0x40>
 800297a:	2b08      	cmp	r3, #8
 800297c:	d003      	beq.n	8002986 <HAL_RCC_GetSysClockFreq+0x46>
 800297e:	e02b      	b.n	80029d8 <HAL_RCC_GetSysClockFreq+0x98>
  {
    case RCC_SYSCLKSOURCE_STATUS_HSE:  /* HSE used as system clock */
    {
      sysclockfreq = HSE_VALUE;
 8002980:	4b1c      	ldr	r3, [pc, #112]	; (80029f4 <HAL_RCC_GetSysClockFreq+0xb4>)
 8002982:	623b      	str	r3, [r7, #32]
      break;
 8002984:	e02b      	b.n	80029de <HAL_RCC_GetSysClockFreq+0x9e>
    }
    case RCC_SYSCLKSOURCE_STATUS_PLLCLK:  /* PLL used as system clock */
    {
      pllmul = aPLLMULFactorTable[(uint32_t)(tmpreg & RCC_CFGR_PLLMULL) >> RCC_CFGR_PLLMULL_Pos];
 8002986:	69fb      	ldr	r3, [r7, #28]
 8002988:	0c9b      	lsrs	r3, r3, #18
 800298a:	f003 030f 	and.w	r3, r3, #15
 800298e:	3328      	adds	r3, #40	; 0x28
 8002990:	443b      	add	r3, r7
 8002992:	f813 3c24 	ldrb.w	r3, [r3, #-36]
 8002996:	617b      	str	r3, [r7, #20]
      if ((tmpreg & RCC_CFGR_PLLSRC) != RCC_PLLSOURCE_HSI_DIV2)
 8002998:	69fb      	ldr	r3, [r7, #28]
 800299a:	f403 3380 	and.w	r3, r3, #65536	; 0x10000
 800299e:	2b00      	cmp	r3, #0
 80029a0:	d012      	beq.n	80029c8 <HAL_RCC_GetSysClockFreq+0x88>
      {
#if defined(RCC_CFGR2_PREDIV1)
        prediv = aPredivFactorTable[(uint32_t)(RCC->CFGR2 & RCC_CFGR2_PREDIV1) >> RCC_CFGR2_PREDIV1_Pos];
#else
        prediv = aPredivFactorTable[(uint32_t)(RCC->CFGR & RCC_CFGR_PLLXTPRE) >> RCC_CFGR_PLLXTPRE_Pos];
 80029a2:	4b13      	ldr	r3, [pc, #76]	; (80029f0 <HAL_RCC_GetSysClockFreq+0xb0>)
 80029a4:	685b      	ldr	r3, [r3, #4]
 80029a6:	0c5b      	lsrs	r3, r3, #17
 80029a8:	f003 0301 	and.w	r3, r3, #1
 80029ac:	3328      	adds	r3, #40	; 0x28
 80029ae:	443b      	add	r3, r7
 80029b0:	f813 3c28 	ldrb.w	r3, [r3, #-40]
 80029b4:	61bb      	str	r3, [r7, #24]
        {
          pllclk = pllclk / 2;
        }
#else
        /* HSE used as PLL clock source : PLLCLK = HSE/PREDIV1 * PLLMUL */
        pllclk = (uint32_t)((HSE_VALUE  * pllmul) / prediv);
 80029b6:	697b      	ldr	r3, [r7, #20]
 80029b8:	4a0e      	ldr	r2, [pc, #56]	; (80029f4 <HAL_RCC_GetSysClockFreq+0xb4>)
 80029ba:	fb03 f202 	mul.w	r2, r3, r2
 80029be:	69bb      	ldr	r3, [r7, #24]
 80029c0:	fbb2 f3f3 	udiv	r3, r2, r3
 80029c4:	627b      	str	r3, [r7, #36]	; 0x24
 80029c6:	e004      	b.n	80029d2 <HAL_RCC_GetSysClockFreq+0x92>
#endif /*RCC_CFGR2_PREDIV1SRC*/
      }
      else
      {
        /* HSI used as PLL clock source : PLLCLK = HSI/2 * PLLMUL */
        pllclk = (uint32_t)((HSI_VALUE >> 1) * pllmul);
 80029c8:	697b      	ldr	r3, [r7, #20]
 80029ca:	4a0b      	ldr	r2, [pc, #44]	; (80029f8 <HAL_RCC_GetSysClockFreq+0xb8>)
 80029cc:	fb02 f303 	mul.w	r3, r2, r3
 80029d0:	627b      	str	r3, [r7, #36]	; 0x24
      }
      sysclockfreq = pllclk;
 80029d2:	6a7b      	ldr	r3, [r7, #36]	; 0x24
 80029d4:	623b      	str	r3, [r7, #32]
      break;
 80029d6:	e002      	b.n	80029de <HAL_RCC_GetSysClockFreq+0x9e>
    }
    case RCC_SYSCLKSOURCE_STATUS_HSI:  /* HSI used as system clock source */
    default: /* HSI used as system clock */
    {
      sysclockfreq = HSI_VALUE;
 80029d8:	4b06      	ldr	r3, [pc, #24]	; (80029f4 <HAL_RCC_GetSysClockFreq+0xb4>)
 80029da:	623b      	str	r3, [r7, #32]
      break;
 80029dc:	bf00      	nop
    }
  }
  return sysclockfreq;
 80029de:	6a3b      	ldr	r3, [r7, #32]
}
 80029e0:	4618      	mov	r0, r3
 80029e2:	3728      	adds	r7, #40	; 0x28
 80029e4:	46bd      	mov	sp, r7
 80029e6:	bc90      	pop	{r4, r7}
 80029e8:	4770      	bx	lr
 80029ea:	bf00      	nop
 80029ec:	08003464 	.word	0x08003464
 80029f0:	40021000 	.word	0x40021000
 80029f4:	007a1200 	.word	0x007a1200
 80029f8:	003d0900 	.word	0x003d0900

080029fc <HAL_RCC_GetHCLKFreq>:
  * @note   The SystemCoreClock CMSIS variable is used to store System Clock Frequency
  *         and updated within this function
  * @retval HCLK frequency
  */
uint32_t HAL_RCC_GetHCLKFreq(void)
{
 80029fc:	b480      	push	{r7}
 80029fe:	af00      	add	r7, sp, #0
  return SystemCoreClock;
 8002a00:	4b02      	ldr	r3, [pc, #8]	; (8002a0c <HAL_RCC_GetHCLKFreq+0x10>)
 8002a02:	681b      	ldr	r3, [r3, #0]
}
 8002a04:	4618      	mov	r0, r3
 8002a06:	46bd      	mov	sp, r7
 8002a08:	bc80      	pop	{r7}
 8002a0a:	4770      	bx	lr
 8002a0c:	20000000 	.word	0x20000000

08002a10 <HAL_RCC_GetPCLK1Freq>:
  * @note   Each time PCLK1 changes, this function must be called to update the
  *         right PCLK1 value. Otherwise, any configuration based on this function will be incorrect.
  * @retval PCLK1 frequency
  */
uint32_t HAL_RCC_GetPCLK1Freq(void)
{
 8002a10:	b580      	push	{r7, lr}
 8002a12:	af00      	add	r7, sp, #0
  /* Get HCLK source and Compute PCLK1 frequency ---------------------------*/
  return (HAL_RCC_GetHCLKFreq() >> APBPrescTable[(RCC->CFGR & RCC_CFGR_PPRE1) >> RCC_CFGR_PPRE1_Pos]);
 8002a14:	f7ff fff2 	bl	80029fc <HAL_RCC_GetHCLKFreq>
 8002a18:	4602      	mov	r2, r0
 8002a1a:	4b05      	ldr	r3, [pc, #20]	; (8002a30 <HAL_RCC_GetPCLK1Freq+0x20>)
 8002a1c:	685b      	ldr	r3, [r3, #4]
 8002a1e:	0a1b      	lsrs	r3, r3, #8
 8002a20:	f003 0307 	and.w	r3, r3, #7
 8002a24:	4903      	ldr	r1, [pc, #12]	; (8002a34 <HAL_RCC_GetPCLK1Freq+0x24>)
 8002a26:	5ccb      	ldrb	r3, [r1, r3]
 8002a28:	fa22 f303 	lsr.w	r3, r2, r3
}
 8002a2c:	4618      	mov	r0, r3
 8002a2e:	bd80      	pop	{r7, pc}
 8002a30:	40021000 	.word	0x40021000
 8002a34:	08003484 	.word	0x08003484

08002a38 <HAL_RCC_GetPCLK2Freq>:
  * @note   Each time PCLK2 changes, this function must be called to update the
  *         right PCLK2 value. Otherwise, any configuration based on this function will be incorrect.
  * @retval PCLK2 frequency
  */
uint32_t HAL_RCC_GetPCLK2Freq(void)
{
 8002a38:	b580      	push	{r7, lr}
 8002a3a:	af00      	add	r7, sp, #0
  /* Get HCLK source and Compute PCLK2 frequency ---------------------------*/
  return (HAL_RCC_GetHCLKFreq() >> APBPrescTable[(RCC->CFGR & RCC_CFGR_PPRE2) >> RCC_CFGR_PPRE2_Pos]);
 8002a3c:	f7ff ffde 	bl	80029fc <HAL_RCC_GetHCLKFreq>
 8002a40:	4602      	mov	r2, r0
 8002a42:	4b05      	ldr	r3, [pc, #20]	; (8002a58 <HAL_RCC_GetPCLK2Freq+0x20>)
 8002a44:	685b      	ldr	r3, [r3, #4]
 8002a46:	0adb      	lsrs	r3, r3, #11
 8002a48:	f003 0307 	and.w	r3, r3, #7
 8002a4c:	4903      	ldr	r1, [pc, #12]	; (8002a5c <HAL_RCC_GetPCLK2Freq+0x24>)
 8002a4e:	5ccb      	ldrb	r3, [r1, r3]
 8002a50:	fa22 f303 	lsr.w	r3, r2, r3
}
 8002a54:	4618      	mov	r0, r3
 8002a56:	bd80      	pop	{r7, pc}
 8002a58:	40021000 	.word	0x40021000
 8002a5c:	08003484 	.word	0x08003484

08002a60 <RCC_Delay>:
  * @brief  This function provides delay (in milliseconds) based on CPU cycles method.
  * @param  mdelay: specifies the delay time length, in milliseconds.
  * @retval None
  */
static void RCC_Delay(uint32_t mdelay)
{
 8002a60:	b480      	push	{r7}
 8002a62:	b085      	sub	sp, #20
 8002a64:	af00      	add	r7, sp, #0
 8002a66:	6078      	str	r0, [r7, #4]
  __IO uint32_t Delay = mdelay * (SystemCoreClock / 8U / 1000U);
 8002a68:	4b0a      	ldr	r3, [pc, #40]	; (8002a94 <RCC_Delay+0x34>)
 8002a6a:	681b      	ldr	r3, [r3, #0]
 8002a6c:	4a0a      	ldr	r2, [pc, #40]	; (8002a98 <RCC_Delay+0x38>)
 8002a6e:	fba2 2303 	umull	r2, r3, r2, r3
 8002a72:	0a5b      	lsrs	r3, r3, #9
 8002a74:	687a      	ldr	r2, [r7, #4]
 8002a76:	fb02 f303 	mul.w	r3, r2, r3
 8002a7a:	60fb      	str	r3, [r7, #12]
  do
  {
    __NOP();
 8002a7c:	bf00      	nop
  }
  while (Delay --);
 8002a7e:	68fb      	ldr	r3, [r7, #12]
 8002a80:	1e5a      	subs	r2, r3, #1
 8002a82:	60fa      	str	r2, [r7, #12]
 8002a84:	2b00      	cmp	r3, #0
 8002a86:	d1f9      	bne.n	8002a7c <RCC_Delay+0x1c>
}
 8002a88:	bf00      	nop
 8002a8a:	bf00      	nop
 8002a8c:	3714      	adds	r7, #20
 8002a8e:	46bd      	mov	sp, r7
 8002a90:	bc80      	pop	{r7}
 8002a92:	4770      	bx	lr
 8002a94:	20000000 	.word	0x20000000
 8002a98:	10624dd3 	.word	0x10624dd3

08002a9c <HAL_USART_Init>:
  * @param  husart Pointer to a USART_HandleTypeDef structure that contains
  *                the configuration information for the specified USART module.
  * @retval HAL status
  */
HAL_StatusTypeDef HAL_USART_Init(USART_HandleTypeDef *husart)
{
 8002a9c:	b580      	push	{r7, lr}
 8002a9e:	b082      	sub	sp, #8
 8002aa0:	af00      	add	r7, sp, #0
 8002aa2:	6078      	str	r0, [r7, #4]
  /* Check the USART handle allocation */
  if (husart == NULL)
 8002aa4:	687b      	ldr	r3, [r7, #4]
 8002aa6:	2b00      	cmp	r3, #0
 8002aa8:	d101      	bne.n	8002aae <HAL_USART_Init+0x12>
  {
    return HAL_ERROR;
 8002aaa:	2301      	movs	r3, #1
 8002aac:	e033      	b.n	8002b16 <HAL_USART_Init+0x7a>
  }

  /* Check the parameters */
  assert_param(IS_USART_INSTANCE(husart->Instance));

  if (husart->State == HAL_USART_STATE_RESET)
 8002aae:	687b      	ldr	r3, [r7, #4]
 8002ab0:	f893 303d 	ldrb.w	r3, [r3, #61]	; 0x3d
 8002ab4:	b2db      	uxtb	r3, r3
 8002ab6:	2b00      	cmp	r3, #0
 8002ab8:	d106      	bne.n	8002ac8 <HAL_USART_Init+0x2c>
  {
    /* Allocate lock resource and initialize it */
    husart->Lock = HAL_UNLOCKED;
 8002aba:	687b      	ldr	r3, [r7, #4]
 8002abc:	2200      	movs	r2, #0
 8002abe:	f883 203c 	strb.w	r2, [r3, #60]	; 0x3c

    /* Init the low level hardware */
    husart->MspInitCallback(husart);
#else
    /* Init the low level hardware : GPIO, CLOCK */
    HAL_USART_MspInit(husart);
 8002ac2:	6878      	ldr	r0, [r7, #4]
 8002ac4:	f7fd ffc2 	bl	8000a4c <HAL_USART_MspInit>
#endif /* USE_HAL_USART_REGISTER_CALLBACKS */
  }

  husart->State = HAL_USART_STATE_BUSY;
 8002ac8:	687b      	ldr	r3, [r7, #4]
 8002aca:	2202      	movs	r2, #2
 8002acc:	f883 203d 	strb.w	r2, [r3, #61]	; 0x3d

  /* Set the USART Communication parameters */
  USART_SetConfig(husart);
 8002ad0:	6878      	ldr	r0, [r7, #4]
 8002ad2:	f000 fb61 	bl	8003198 <USART_SetConfig>

  /* In USART mode, the following bits must be kept cleared:
     - LINEN bit in the USART_CR2 register
     - HDSEL, SCEN and IREN bits in the USART_CR3 register */
  CLEAR_BIT(husart->Instance->CR2, USART_CR2_LINEN);
 8002ad6:	687b      	ldr	r3, [r7, #4]
 8002ad8:	681b      	ldr	r3, [r3, #0]
 8002ada:	691a      	ldr	r2, [r3, #16]
 8002adc:	687b      	ldr	r3, [r7, #4]
 8002ade:	681b      	ldr	r3, [r3, #0]
 8002ae0:	f422 4280 	bic.w	r2, r2, #16384	; 0x4000
 8002ae4:	611a      	str	r2, [r3, #16]
  CLEAR_BIT(husart->Instance->CR3, (USART_CR3_SCEN | USART_CR3_HDSEL | USART_CR3_IREN));
 8002ae6:	687b      	ldr	r3, [r7, #4]
 8002ae8:	681b      	ldr	r3, [r3, #0]
 8002aea:	695a      	ldr	r2, [r3, #20]
 8002aec:	687b      	ldr	r3, [r7, #4]
 8002aee:	681b      	ldr	r3, [r3, #0]
 8002af0:	f022 022a 	bic.w	r2, r2, #42	; 0x2a
 8002af4:	615a      	str	r2, [r3, #20]

  /* Enable the Peripheral */
  __HAL_USART_ENABLE(husart);
 8002af6:	687b      	ldr	r3, [r7, #4]
 8002af8:	681b      	ldr	r3, [r3, #0]
 8002afa:	68da      	ldr	r2, [r3, #12]
 8002afc:	687b      	ldr	r3, [r7, #4]
 8002afe:	681b      	ldr	r3, [r3, #0]
 8002b00:	f442 5200 	orr.w	r2, r2, #8192	; 0x2000
 8002b04:	60da      	str	r2, [r3, #12]

  /* Initialize the USART state */
  husart->ErrorCode = HAL_USART_ERROR_NONE;
 8002b06:	687b      	ldr	r3, [r7, #4]
 8002b08:	2200      	movs	r2, #0
 8002b0a:	641a      	str	r2, [r3, #64]	; 0x40
  husart->State = HAL_USART_STATE_READY;
 8002b0c:	687b      	ldr	r3, [r7, #4]
 8002b0e:	2201      	movs	r2, #1
 8002b10:	f883 203d 	strb.w	r2, [r3, #61]	; 0x3d

  return HAL_OK;
 8002b14:	2300      	movs	r3, #0
}
 8002b16:	4618      	mov	r0, r3
 8002b18:	3708      	adds	r7, #8
 8002b1a:	46bd      	mov	sp, r7
 8002b1c:	bd80      	pop	{r7, pc}
	...

08002b20 <HAL_USART_IRQHandler>:
  * @param  husart Pointer to a USART_HandleTypeDef structure that contains
  *                the configuration information for the specified USART module.
  * @retval None
  */
void HAL_USART_IRQHandler(USART_HandleTypeDef *husart)
{
 8002b20:	b580      	push	{r7, lr}
 8002b22:	b088      	sub	sp, #32
 8002b24:	af00      	add	r7, sp, #0
 8002b26:	6078      	str	r0, [r7, #4]
  uint32_t isrflags = READ_REG(husart->Instance->SR);
 8002b28:	687b      	ldr	r3, [r7, #4]
 8002b2a:	681b      	ldr	r3, [r3, #0]
 8002b2c:	681b      	ldr	r3, [r3, #0]
 8002b2e:	61fb      	str	r3, [r7, #28]
  uint32_t cr1its   = READ_REG(husart->Instance->CR1);
 8002b30:	687b      	ldr	r3, [r7, #4]
 8002b32:	681b      	ldr	r3, [r3, #0]
 8002b34:	68db      	ldr	r3, [r3, #12]
 8002b36:	61bb      	str	r3, [r7, #24]
  uint32_t cr3its   = READ_REG(husart->Instance->CR3);
 8002b38:	687b      	ldr	r3, [r7, #4]
 8002b3a:	681b      	ldr	r3, [r3, #0]
 8002b3c:	695b      	ldr	r3, [r3, #20]
 8002b3e:	617b      	str	r3, [r7, #20]
  uint32_t errorflags = 0x00U;
 8002b40:	2300      	movs	r3, #0
 8002b42:	613b      	str	r3, [r7, #16]
  uint32_t dmarequest = 0x00U;
 8002b44:	2300      	movs	r3, #0
 8002b46:	60fb      	str	r3, [r7, #12]

  /* If no error occurs */
  errorflags = (isrflags & (uint32_t)(USART_SR_PE | USART_SR_FE | USART_SR_ORE | USART_SR_NE));
 8002b48:	69fb      	ldr	r3, [r7, #28]
 8002b4a:	f003 030f 	and.w	r3, r3, #15
 8002b4e:	613b      	str	r3, [r7, #16]
  if (errorflags == RESET)
 8002b50:	693b      	ldr	r3, [r7, #16]
 8002b52:	2b00      	cmp	r3, #0
 8002b54:	d117      	bne.n	8002b86 <HAL_USART_IRQHandler+0x66>
  {
    /* USART in mode Receiver -------------------------------------------------*/
    if (((isrflags & USART_SR_RXNE) != RESET) && ((cr1its & USART_CR1_RXNEIE) != RESET))
 8002b56:	69fb      	ldr	r3, [r7, #28]
 8002b58:	f003 0320 	and.w	r3, r3, #32
 8002b5c:	2b00      	cmp	r3, #0
 8002b5e:	d012      	beq.n	8002b86 <HAL_USART_IRQHandler+0x66>
 8002b60:	69bb      	ldr	r3, [r7, #24]
 8002b62:	f003 0320 	and.w	r3, r3, #32
 8002b66:	2b00      	cmp	r3, #0
 8002b68:	d00d      	beq.n	8002b86 <HAL_USART_IRQHandler+0x66>
    {
      if (husart->State == HAL_USART_STATE_BUSY_RX)
 8002b6a:	687b      	ldr	r3, [r7, #4]
 8002b6c:	f893 303d 	ldrb.w	r3, [r3, #61]	; 0x3d
 8002b70:	b2db      	uxtb	r3, r3
 8002b72:	2b22      	cmp	r3, #34	; 0x22
 8002b74:	d103      	bne.n	8002b7e <HAL_USART_IRQHandler+0x5e>
      {
        USART_Receive_IT(husart);
 8002b76:	6878      	ldr	r0, [r7, #4]
 8002b78:	f000 f9b4 	bl	8002ee4 <USART_Receive_IT>
      }
      else
      {
        USART_TransmitReceive_IT(husart);
      }
      return;
 8002b7c:	e0e9      	b.n	8002d52 <HAL_USART_IRQHandler+0x232>
        USART_TransmitReceive_IT(husart);
 8002b7e:	6878      	ldr	r0, [r7, #4]
 8002b80:	f000 fa36 	bl	8002ff0 <USART_TransmitReceive_IT>
      return;
 8002b84:	e0e5      	b.n	8002d52 <HAL_USART_IRQHandler+0x232>
    }
  }
  /* If some errors occur */
  if ((errorflags != RESET) && (((cr3its & USART_CR3_EIE) != RESET) || ((cr1its & (USART_CR1_RXNEIE | USART_CR1_PEIE)) != RESET)))
 8002b86:	693b      	ldr	r3, [r7, #16]
 8002b88:	2b00      	cmp	r3, #0
 8002b8a:	f000 80bb 	beq.w	8002d04 <HAL_USART_IRQHandler+0x1e4>
 8002b8e:	697b      	ldr	r3, [r7, #20]
 8002b90:	f003 0301 	and.w	r3, r3, #1
 8002b94:	2b00      	cmp	r3, #0
 8002b96:	d105      	bne.n	8002ba4 <HAL_USART_IRQHandler+0x84>
 8002b98:	69bb      	ldr	r3, [r7, #24]
 8002b9a:	f403 7390 	and.w	r3, r3, #288	; 0x120
 8002b9e:	2b00      	cmp	r3, #0
 8002ba0:	f000 80b0 	beq.w	8002d04 <HAL_USART_IRQHandler+0x1e4>
  {
    /* USART parity error interrupt occurred ----------------------------------*/
    if (((isrflags & USART_SR_PE) != RESET) && ((cr1its & USART_CR1_PEIE) != RESET))
 8002ba4:	69fb      	ldr	r3, [r7, #28]
 8002ba6:	f003 0301 	and.w	r3, r3, #1
 8002baa:	2b00      	cmp	r3, #0
 8002bac:	d00a      	beq.n	8002bc4 <HAL_USART_IRQHandler+0xa4>
 8002bae:	69bb      	ldr	r3, [r7, #24]
 8002bb0:	f403 7380 	and.w	r3, r3, #256	; 0x100
 8002bb4:	2b00      	cmp	r3, #0
 8002bb6:	d005      	beq.n	8002bc4 <HAL_USART_IRQHandler+0xa4>
    {
      husart->ErrorCode |= HAL_USART_ERROR_PE;
 8002bb8:	687b      	ldr	r3, [r7, #4]
 8002bba:	6c1b      	ldr	r3, [r3, #64]	; 0x40
 8002bbc:	f043 0201 	orr.w	r2, r3, #1
 8002bc0:	687b      	ldr	r3, [r7, #4]
 8002bc2:	641a      	str	r2, [r3, #64]	; 0x40
    }

    /* USART noise error interrupt occurred --------------------------------*/
    if (((isrflags & USART_SR_NE) != RESET) && ((cr3its & USART_CR3_EIE) != RESET))
 8002bc4:	69fb      	ldr	r3, [r7, #28]
 8002bc6:	f003 0304 	and.w	r3, r3, #4
 8002bca:	2b00      	cmp	r3, #0
 8002bcc:	d00a      	beq.n	8002be4 <HAL_USART_IRQHandler+0xc4>
 8002bce:	697b      	ldr	r3, [r7, #20]
 8002bd0:	f003 0301 	and.w	r3, r3, #1
 8002bd4:	2b00      	cmp	r3, #0
 8002bd6:	d005      	beq.n	8002be4 <HAL_USART_IRQHandler+0xc4>
    {
      husart->ErrorCode |= HAL_USART_ERROR_NE;
 8002bd8:	687b      	ldr	r3, [r7, #4]
 8002bda:	6c1b      	ldr	r3, [r3, #64]	; 0x40
 8002bdc:	f043 0202 	orr.w	r2, r3, #2
 8002be0:	687b      	ldr	r3, [r7, #4]
 8002be2:	641a      	str	r2, [r3, #64]	; 0x40
    }

    /* USART frame error interrupt occurred --------------------------------*/
    if (((isrflags & USART_SR_FE) != RESET) && ((cr3its & USART_CR3_EIE) != RESET))
 8002be4:	69fb      	ldr	r3, [r7, #28]
 8002be6:	f003 0302 	and.w	r3, r3, #2
 8002bea:	2b00      	cmp	r3, #0
 8002bec:	d00a      	beq.n	8002c04 <HAL_USART_IRQHandler+0xe4>
 8002bee:	697b      	ldr	r3, [r7, #20]
 8002bf0:	f003 0301 	and.w	r3, r3, #1
 8002bf4:	2b00      	cmp	r3, #0
 8002bf6:	d005      	beq.n	8002c04 <HAL_USART_IRQHandler+0xe4>
    {
      husart->ErrorCode |= HAL_USART_ERROR_FE;
 8002bf8:	687b      	ldr	r3, [r7, #4]
 8002bfa:	6c1b      	ldr	r3, [r3, #64]	; 0x40
 8002bfc:	f043 0204 	orr.w	r2, r3, #4
 8002c00:	687b      	ldr	r3, [r7, #4]
 8002c02:	641a      	str	r2, [r3, #64]	; 0x40
    }

    /* USART Over-Run interrupt occurred -----------------------------------*/
    if (((isrflags & USART_SR_ORE) != RESET) && (((cr1its & USART_CR1_RXNEIE) != RESET) || ((cr3its & USART_CR3_EIE) != RESET)))
 8002c04:	69fb      	ldr	r3, [r7, #28]
 8002c06:	f003 0308 	and.w	r3, r3, #8
 8002c0a:	2b00      	cmp	r3, #0
 8002c0c:	d00f      	beq.n	8002c2e <HAL_USART_IRQHandler+0x10e>
 8002c0e:	69bb      	ldr	r3, [r7, #24]
 8002c10:	f003 0320 	and.w	r3, r3, #32
 8002c14:	2b00      	cmp	r3, #0
 8002c16:	d104      	bne.n	8002c22 <HAL_USART_IRQHandler+0x102>
 8002c18:	697b      	ldr	r3, [r7, #20]
 8002c1a:	f003 0301 	and.w	r3, r3, #1
 8002c1e:	2b00      	cmp	r3, #0
 8002c20:	d005      	beq.n	8002c2e <HAL_USART_IRQHandler+0x10e>
    {
      husart->ErrorCode |= HAL_USART_ERROR_ORE;
 8002c22:	687b      	ldr	r3, [r7, #4]
 8002c24:	6c1b      	ldr	r3, [r3, #64]	; 0x40
 8002c26:	f043 0208 	orr.w	r2, r3, #8
 8002c2a:	687b      	ldr	r3, [r7, #4]
 8002c2c:	641a      	str	r2, [r3, #64]	; 0x40
    }

    if (husart->ErrorCode != HAL_USART_ERROR_NONE)
 8002c2e:	687b      	ldr	r3, [r7, #4]
 8002c30:	6c1b      	ldr	r3, [r3, #64]	; 0x40
 8002c32:	2b00      	cmp	r3, #0
 8002c34:	f000 808c 	beq.w	8002d50 <HAL_USART_IRQHandler+0x230>
    {
      /* USART in mode Receiver -----------------------------------------------*/
      if (((isrflags & USART_SR_RXNE) != RESET) && ((cr1its & USART_CR1_RXNEIE) != RESET))
 8002c38:	69fb      	ldr	r3, [r7, #28]
 8002c3a:	f003 0320 	and.w	r3, r3, #32
 8002c3e:	2b00      	cmp	r3, #0
 8002c40:	d011      	beq.n	8002c66 <HAL_USART_IRQHandler+0x146>
 8002c42:	69bb      	ldr	r3, [r7, #24]
 8002c44:	f003 0320 	and.w	r3, r3, #32
 8002c48:	2b00      	cmp	r3, #0
 8002c4a:	d00c      	beq.n	8002c66 <HAL_USART_IRQHandler+0x146>
      {
        if (husart->State == HAL_USART_STATE_BUSY_RX)
 8002c4c:	687b      	ldr	r3, [r7, #4]
 8002c4e:	f893 303d 	ldrb.w	r3, [r3, #61]	; 0x3d
 8002c52:	b2db      	uxtb	r3, r3
 8002c54:	2b22      	cmp	r3, #34	; 0x22
 8002c56:	d103      	bne.n	8002c60 <HAL_USART_IRQHandler+0x140>
        {
          USART_Receive_IT(husart);
 8002c58:	6878      	ldr	r0, [r7, #4]
 8002c5a:	f000 f943 	bl	8002ee4 <USART_Receive_IT>
 8002c5e:	e002      	b.n	8002c66 <HAL_USART_IRQHandler+0x146>
        }
        else
        {
          USART_TransmitReceive_IT(husart);
 8002c60:	6878      	ldr	r0, [r7, #4]
 8002c62:	f000 f9c5 	bl	8002ff0 <USART_TransmitReceive_IT>
        }
      }
      /* If Overrun error occurs, or if any error occurs in DMA mode reception,
      consider error as blocking */
      dmarequest = HAL_IS_BIT_SET(husart->Instance->CR3, USART_CR3_DMAR);
 8002c66:	687b      	ldr	r3, [r7, #4]
 8002c68:	681b      	ldr	r3, [r3, #0]
 8002c6a:	695b      	ldr	r3, [r3, #20]
 8002c6c:	f003 0340 	and.w	r3, r3, #64	; 0x40
 8002c70:	2b00      	cmp	r3, #0
 8002c72:	bf14      	ite	ne
 8002c74:	2301      	movne	r3, #1
 8002c76:	2300      	moveq	r3, #0
 8002c78:	b2db      	uxtb	r3, r3
 8002c7a:	60fb      	str	r3, [r7, #12]
      if (((husart->ErrorCode & HAL_USART_ERROR_ORE) != RESET) || dmarequest)
 8002c7c:	687b      	ldr	r3, [r7, #4]
 8002c7e:	6c1b      	ldr	r3, [r3, #64]	; 0x40
 8002c80:	f003 0308 	and.w	r3, r3, #8
 8002c84:	2b00      	cmp	r3, #0
 8002c86:	d102      	bne.n	8002c8e <HAL_USART_IRQHandler+0x16e>
 8002c88:	68fb      	ldr	r3, [r7, #12]
 8002c8a:	2b00      	cmp	r3, #0
 8002c8c:	d031      	beq.n	8002cf2 <HAL_USART_IRQHandler+0x1d2>
      {
        /* Set the USART state ready to be able to start again the process,
        Disable Rx Interrupts, and disable Rx DMA request, if ongoing */
        USART_EndRxTransfer(husart);
 8002c8e:	6878      	ldr	r0, [r7, #4]
 8002c90:	f000 f888 	bl	8002da4 <USART_EndRxTransfer>

        /* Disable the USART DMA Rx request if enabled */
        if (HAL_IS_BIT_SET(husart->Instance->CR3, USART_CR3_DMAR))
 8002c94:	687b      	ldr	r3, [r7, #4]
 8002c96:	681b      	ldr	r3, [r3, #0]
 8002c98:	695b      	ldr	r3, [r3, #20]
 8002c9a:	f003 0340 	and.w	r3, r3, #64	; 0x40
 8002c9e:	2b00      	cmp	r3, #0
 8002ca0:	d023      	beq.n	8002cea <HAL_USART_IRQHandler+0x1ca>
        {
          CLEAR_BIT(husart->Instance->CR3, USART_CR3_DMAR);
 8002ca2:	687b      	ldr	r3, [r7, #4]
 8002ca4:	681b      	ldr	r3, [r3, #0]
 8002ca6:	695a      	ldr	r2, [r3, #20]
 8002ca8:	687b      	ldr	r3, [r7, #4]
 8002caa:	681b      	ldr	r3, [r3, #0]
 8002cac:	f022 0240 	bic.w	r2, r2, #64	; 0x40
 8002cb0:	615a      	str	r2, [r3, #20]

          /* Abort the USART DMA Rx channel */
          if (husart->hdmarx != NULL)
 8002cb2:	687b      	ldr	r3, [r7, #4]
 8002cb4:	6b9b      	ldr	r3, [r3, #56]	; 0x38
 8002cb6:	2b00      	cmp	r3, #0
 8002cb8:	d013      	beq.n	8002ce2 <HAL_USART_IRQHandler+0x1c2>
          {
            /* Set the USART DMA Abort callback :
            will lead to call HAL_USART_ErrorCallback() at end of DMA abort procedure */
            husart->hdmarx->XferAbortCallback = USART_DMAAbortOnError;
 8002cba:	687b      	ldr	r3, [r7, #4]
 8002cbc:	6b9b      	ldr	r3, [r3, #56]	; 0x38
 8002cbe:	4a26      	ldr	r2, [pc, #152]	; (8002d58 <HAL_USART_IRQHandler+0x238>)
 8002cc0:	635a      	str	r2, [r3, #52]	; 0x34

            if (HAL_DMA_Abort_IT(husart->hdmarx) != HAL_OK)
 8002cc2:	687b      	ldr	r3, [r7, #4]
 8002cc4:	6b9b      	ldr	r3, [r3, #56]	; 0x38
 8002cc6:	4618      	mov	r0, r3
 8002cc8:	f7fe f906 	bl	8000ed8 <HAL_DMA_Abort_IT>
 8002ccc:	4603      	mov	r3, r0
 8002cce:	2b00      	cmp	r3, #0
 8002cd0:	d016      	beq.n	8002d00 <HAL_USART_IRQHandler+0x1e0>
            {
              /* Call Directly XferAbortCallback function in case of error */
              husart->hdmarx->XferAbortCallback(husart->hdmarx);
 8002cd2:	687b      	ldr	r3, [r7, #4]
 8002cd4:	6b9b      	ldr	r3, [r3, #56]	; 0x38
 8002cd6:	6b5b      	ldr	r3, [r3, #52]	; 0x34
 8002cd8:	687a      	ldr	r2, [r7, #4]
 8002cda:	6b92      	ldr	r2, [r2, #56]	; 0x38
 8002cdc:	4610      	mov	r0, r2
 8002cde:	4798      	blx	r3
        if (HAL_IS_BIT_SET(husart->Instance->CR3, USART_CR3_DMAR))
 8002ce0:	e00e      	b.n	8002d00 <HAL_USART_IRQHandler+0x1e0>
#if (USE_HAL_USART_REGISTER_CALLBACKS == 1)
            /* Call registered Error Callback */
            husart->ErrorCallback(husart);
#else
            /* Call legacy weak Error Callback */
            HAL_USART_ErrorCallback(husart);
 8002ce2:	6878      	ldr	r0, [r7, #4]
 8002ce4:	f000 f855 	bl	8002d92 <HAL_USART_ErrorCallback>
        if (HAL_IS_BIT_SET(husart->Instance->CR3, USART_CR3_DMAR))
 8002ce8:	e00a      	b.n	8002d00 <HAL_USART_IRQHandler+0x1e0>
#if (USE_HAL_USART_REGISTER_CALLBACKS == 1)
          /* Call registered Error Callback */
          husart->ErrorCallback(husart);
#else
          /* Call legacy weak Error Callback */
          HAL_USART_ErrorCallback(husart);
 8002cea:	6878      	ldr	r0, [r7, #4]
 8002cec:	f000 f851 	bl	8002d92 <HAL_USART_ErrorCallback>
        if (HAL_IS_BIT_SET(husart->Instance->CR3, USART_CR3_DMAR))
 8002cf0:	e006      	b.n	8002d00 <HAL_USART_IRQHandler+0x1e0>
#if (USE_HAL_USART_REGISTER_CALLBACKS == 1)
        /* Call registered Error Callback */
        husart->ErrorCallback(husart);
#else
        /* Call legacy weak Error Callback */
        HAL_USART_ErrorCallback(husart);
 8002cf2:	6878      	ldr	r0, [r7, #4]
 8002cf4:	f000 f84d 	bl	8002d92 <HAL_USART_ErrorCallback>
#endif /* USE_HAL_USART_REGISTER_CALLBACKS */
        husart->ErrorCode = HAL_USART_ERROR_NONE;
 8002cf8:	687b      	ldr	r3, [r7, #4]
 8002cfa:	2200      	movs	r2, #0
 8002cfc:	641a      	str	r2, [r3, #64]	; 0x40
      }
    }
    return;
 8002cfe:	e027      	b.n	8002d50 <HAL_USART_IRQHandler+0x230>
        if (HAL_IS_BIT_SET(husart->Instance->CR3, USART_CR3_DMAR))
 8002d00:	bf00      	nop
    return;
 8002d02:	e025      	b.n	8002d50 <HAL_USART_IRQHandler+0x230>
  }

  /* USART in mode Transmitter -----------------------------------------------*/
  if (((isrflags & USART_SR_TXE) != RESET) && ((cr1its & USART_CR1_TXEIE) != RESET))
 8002d04:	69fb      	ldr	r3, [r7, #28]
 8002d06:	f003 0380 	and.w	r3, r3, #128	; 0x80
 8002d0a:	2b00      	cmp	r3, #0
 8002d0c:	d012      	beq.n	8002d34 <HAL_USART_IRQHandler+0x214>
 8002d0e:	69bb      	ldr	r3, [r7, #24]
 8002d10:	f003 0380 	and.w	r3, r3, #128	; 0x80
 8002d14:	2b00      	cmp	r3, #0
 8002d16:	d00d      	beq.n	8002d34 <HAL_USART_IRQHandler+0x214>
  {
    if (husart->State == HAL_USART_STATE_BUSY_TX)
 8002d18:	687b      	ldr	r3, [r7, #4]
 8002d1a:	f893 303d 	ldrb.w	r3, [r3, #61]	; 0x3d
 8002d1e:	b2db      	uxtb	r3, r3
 8002d20:	2b12      	cmp	r3, #18
 8002d22:	d103      	bne.n	8002d2c <HAL_USART_IRQHandler+0x20c>
    {
      USART_Transmit_IT(husart);
 8002d24:	6878      	ldr	r0, [r7, #4]
 8002d26:	f000 f86e 	bl	8002e06 <USART_Transmit_IT>
    }
    else
    {
      USART_TransmitReceive_IT(husart);
    }
    return;
 8002d2a:	e012      	b.n	8002d52 <HAL_USART_IRQHandler+0x232>
      USART_TransmitReceive_IT(husart);
 8002d2c:	6878      	ldr	r0, [r7, #4]
 8002d2e:	f000 f95f 	bl	8002ff0 <USART_TransmitReceive_IT>
    return;
 8002d32:	e00e      	b.n	8002d52 <HAL_USART_IRQHandler+0x232>
  }

  /* USART in mode Transmitter (transmission end) ----------------------------*/
  if (((isrflags & USART_SR_TC) != RESET) && ((cr1its & USART_CR1_TCIE) != RESET))
 8002d34:	69fb      	ldr	r3, [r7, #28]
 8002d36:	f003 0340 	and.w	r3, r3, #64	; 0x40
 8002d3a:	2b00      	cmp	r3, #0
 8002d3c:	d009      	beq.n	8002d52 <HAL_USART_IRQHandler+0x232>
 8002d3e:	69bb      	ldr	r3, [r7, #24]
 8002d40:	f003 0340 	and.w	r3, r3, #64	; 0x40
 8002d44:	2b00      	cmp	r3, #0
 8002d46:	d004      	beq.n	8002d52 <HAL_USART_IRQHandler+0x232>
  {
    USART_EndTransmit_IT(husart);
 8002d48:	6878      	ldr	r0, [r7, #4]
 8002d4a:	f000 f8ab 	bl	8002ea4 <USART_EndTransmit_IT>
    return;
 8002d4e:	e000      	b.n	8002d52 <HAL_USART_IRQHandler+0x232>
    return;
 8002d50:	bf00      	nop
  }
}
 8002d52:	3720      	adds	r7, #32
 8002d54:	46bd      	mov	sp, r7
 8002d56:	bd80      	pop	{r7, pc}
 8002d58:	08002ddf 	.word	0x08002ddf

08002d5c <HAL_USART_TxCpltCallback>:
  * @param  husart Pointer to a USART_HandleTypeDef structure that contains
  *                the configuration information for the specified USART module.
  * @retval None
  */
__weak void HAL_USART_TxCpltCallback(USART_HandleTypeDef *husart)
{
 8002d5c:	b480      	push	{r7}
 8002d5e:	b083      	sub	sp, #12
 8002d60:	af00      	add	r7, sp, #0
 8002d62:	6078      	str	r0, [r7, #4]
  /* Prevent unused argument(s) compilation warning */
  UNUSED(husart);
  /* NOTE: This function should not be modified, when the callback is needed,
           the HAL_USART_TxCpltCallback could be implemented in the user file
   */
}
 8002d64:	bf00      	nop
 8002d66:	370c      	adds	r7, #12
 8002d68:	46bd      	mov	sp, r7
 8002d6a:	bc80      	pop	{r7}
 8002d6c:	4770      	bx	lr

08002d6e <HAL_USART_RxCpltCallback>:
  * @param  husart Pointer to a USART_HandleTypeDef structure that contains
  *                the configuration information for the specified USART module.
  * @retval None
  */
__weak void HAL_USART_RxCpltCallback(USART_HandleTypeDef *husart)
{
 8002d6e:	b480      	push	{r7}
 8002d70:	b083      	sub	sp, #12
 8002d72:	af00      	add	r7, sp, #0
 8002d74:	6078      	str	r0, [r7, #4]
  /* Prevent unused argument(s) compilation warning */
  UNUSED(husart);
  /* NOTE: This function should not be modified, when the callback is needed,
           the HAL_USART_RxCpltCallback could be implemented in the user file
   */
}
 8002d76:	bf00      	nop
 8002d78:	370c      	adds	r7, #12
 8002d7a:	46bd      	mov	sp, r7
 8002d7c:	bc80      	pop	{r7}
 8002d7e:	4770      	bx	lr

08002d80 <HAL_USART_TxRxCpltCallback>:
  * @param  husart Pointer to a USART_HandleTypeDef structure that contains
  *                the configuration information for the specified USART module.
  * @retval None
  */
__weak void HAL_USART_TxRxCpltCallback(USART_HandleTypeDef *husart)
{
 8002d80:	b480      	push	{r7}
 8002d82:	b083      	sub	sp, #12
 8002d84:	af00      	add	r7, sp, #0
 8002d86:	6078      	str	r0, [r7, #4]
  /* Prevent unused argument(s) compilation warning */
  UNUSED(husart);
  /* NOTE: This function should not be modified, when the callback is needed,
           the HAL_USART_TxRxCpltCallback could be implemented in the user file
   */
}
 8002d88:	bf00      	nop
 8002d8a:	370c      	adds	r7, #12
 8002d8c:	46bd      	mov	sp, r7
 8002d8e:	bc80      	pop	{r7}
 8002d90:	4770      	bx	lr

08002d92 <HAL_USART_ErrorCallback>:
  * @param  husart Pointer to a USART_HandleTypeDef structure that contains
  *                the configuration information for the specified USART module.
  * @retval None
  */
__weak void HAL_USART_ErrorCallback(USART_HandleTypeDef *husart)
{
 8002d92:	b480      	push	{r7}
 8002d94:	b083      	sub	sp, #12
 8002d96:	af00      	add	r7, sp, #0
 8002d98:	6078      	str	r0, [r7, #4]
  /* Prevent unused argument(s) compilation warning */
  UNUSED(husart);
  /* NOTE: This function should not be modified, when the callback is needed,
           the HAL_USART_ErrorCallback could be implemented in the user file
   */
}
 8002d9a:	bf00      	nop
 8002d9c:	370c      	adds	r7, #12
 8002d9e:	46bd      	mov	sp, r7
 8002da0:	bc80      	pop	{r7}
 8002da2:	4770      	bx	lr

08002da4 <USART_EndRxTransfer>:
  * @brief  End ongoing Rx transfer on USART peripheral (following error detection or Reception completion).
  * @param  husart USART handle.
  * @retval None
  */
static void USART_EndRxTransfer(USART_HandleTypeDef *husart)
{
 8002da4:	b480      	push	{r7}
 8002da6:	b083      	sub	sp, #12
 8002da8:	af00      	add	r7, sp, #0
 8002daa:	6078      	str	r0, [r7, #4]
  /* Disable RXNE, PE and ERR interrupts */
  CLEAR_BIT(husart->Instance->CR1, (USART_CR1_RXNEIE | USART_CR1_PEIE));
 8002dac:	687b      	ldr	r3, [r7, #4]
 8002dae:	681b      	ldr	r3, [r3, #0]
 8002db0:	68da      	ldr	r2, [r3, #12]
 8002db2:	687b      	ldr	r3, [r7, #4]
 8002db4:	681b      	ldr	r3, [r3, #0]
 8002db6:	f422 7290 	bic.w	r2, r2, #288	; 0x120
 8002dba:	60da      	str	r2, [r3, #12]
  CLEAR_BIT(husart->Instance->CR3, USART_CR3_EIE);
 8002dbc:	687b      	ldr	r3, [r7, #4]
 8002dbe:	681b      	ldr	r3, [r3, #0]
 8002dc0:	695a      	ldr	r2, [r3, #20]
 8002dc2:	687b      	ldr	r3, [r7, #4]
 8002dc4:	681b      	ldr	r3, [r3, #0]
 8002dc6:	f022 0201 	bic.w	r2, r2, #1
 8002dca:	615a      	str	r2, [r3, #20]

  /* At end of Rx process, restore husart->State to Ready */
  husart->State = HAL_USART_STATE_READY;
 8002dcc:	687b      	ldr	r3, [r7, #4]
 8002dce:	2201      	movs	r2, #1
 8002dd0:	f883 203d 	strb.w	r2, [r3, #61]	; 0x3d
}
 8002dd4:	bf00      	nop
 8002dd6:	370c      	adds	r7, #12
 8002dd8:	46bd      	mov	sp, r7
 8002dda:	bc80      	pop	{r7}
 8002ddc:	4770      	bx	lr

08002dde <USART_DMAAbortOnError>:
  *         (To be called at end of DMA Abort procedure following error occurrence).
  * @param  hdma DMA handle.
  * @retval None
  */
static void USART_DMAAbortOnError(DMA_HandleTypeDef *hdma)
{
 8002dde:	b580      	push	{r7, lr}
 8002de0:	b084      	sub	sp, #16
 8002de2:	af00      	add	r7, sp, #0
 8002de4:	6078      	str	r0, [r7, #4]
  USART_HandleTypeDef *husart = (USART_HandleTypeDef *)((DMA_HandleTypeDef *)hdma)->Parent;
 8002de6:	687b      	ldr	r3, [r7, #4]
 8002de8:	6a5b      	ldr	r3, [r3, #36]	; 0x24
 8002dea:	60fb      	str	r3, [r7, #12]
  husart->RxXferCount = 0x00U;
 8002dec:	68fb      	ldr	r3, [r7, #12]
 8002dee:	2200      	movs	r2, #0
 8002df0:	865a      	strh	r2, [r3, #50]	; 0x32
  husart->TxXferCount = 0x00U;
 8002df2:	68fb      	ldr	r3, [r7, #12]
 8002df4:	2200      	movs	r2, #0
 8002df6:	855a      	strh	r2, [r3, #42]	; 0x2a
#if (USE_HAL_USART_REGISTER_CALLBACKS == 1)
  /* Call registered Error Callback */
  husart->ErrorCallback(husart);
#else
  /* Call legacy weak Error Callback */
  HAL_USART_ErrorCallback(husart);
 8002df8:	68f8      	ldr	r0, [r7, #12]
 8002dfa:	f7ff ffca 	bl	8002d92 <HAL_USART_ErrorCallback>
#endif /* USE_HAL_USART_REGISTER_CALLBACKS */
}
 8002dfe:	bf00      	nop
 8002e00:	3710      	adds	r7, #16
 8002e02:	46bd      	mov	sp, r7
 8002e04:	bd80      	pop	{r7, pc}

08002e06 <USART_Transmit_IT>:
  *                the configuration information for the specified USART module.
  * @retval HAL status
  * @note   The USART errors are not managed to avoid the overrun error.
  */
static HAL_StatusTypeDef USART_Transmit_IT(USART_HandleTypeDef *husart)
{
 8002e06:	b480      	push	{r7}
 8002e08:	b085      	sub	sp, #20
 8002e0a:	af00      	add	r7, sp, #0
 8002e0c:	6078      	str	r0, [r7, #4]
  uint16_t *tmp;

  if (husart->State == HAL_USART_STATE_BUSY_TX)
 8002e0e:	687b      	ldr	r3, [r7, #4]
 8002e10:	f893 303d 	ldrb.w	r3, [r3, #61]	; 0x3d
 8002e14:	b2db      	uxtb	r3, r3
 8002e16:	2b12      	cmp	r3, #18
 8002e18:	d13e      	bne.n	8002e98 <USART_Transmit_IT+0x92>
  {
    if ((husart->Init.WordLength == USART_WORDLENGTH_9B) && (husart->Init.Parity == USART_PARITY_NONE))
 8002e1a:	687b      	ldr	r3, [r7, #4]
 8002e1c:	689b      	ldr	r3, [r3, #8]
 8002e1e:	f5b3 5f80 	cmp.w	r3, #4096	; 0x1000
 8002e22:	d114      	bne.n	8002e4e <USART_Transmit_IT+0x48>
 8002e24:	687b      	ldr	r3, [r7, #4]
 8002e26:	691b      	ldr	r3, [r3, #16]
 8002e28:	2b00      	cmp	r3, #0
 8002e2a:	d110      	bne.n	8002e4e <USART_Transmit_IT+0x48>
    {
      tmp = (uint16_t *) husart->pTxBuffPtr;
 8002e2c:	687b      	ldr	r3, [r7, #4]
 8002e2e:	6a5b      	ldr	r3, [r3, #36]	; 0x24
 8002e30:	60fb      	str	r3, [r7, #12]
      husart->Instance->DR = (uint16_t)(*tmp & (uint16_t)0x01FF);
 8002e32:	68fb      	ldr	r3, [r7, #12]
 8002e34:	881b      	ldrh	r3, [r3, #0]
 8002e36:	461a      	mov	r2, r3
 8002e38:	687b      	ldr	r3, [r7, #4]
 8002e3a:	681b      	ldr	r3, [r3, #0]
 8002e3c:	f3c2 0208 	ubfx	r2, r2, #0, #9
 8002e40:	605a      	str	r2, [r3, #4]
      husart->pTxBuffPtr += 2U;
 8002e42:	687b      	ldr	r3, [r7, #4]
 8002e44:	6a5b      	ldr	r3, [r3, #36]	; 0x24
 8002e46:	1c9a      	adds	r2, r3, #2
 8002e48:	687b      	ldr	r3, [r7, #4]
 8002e4a:	625a      	str	r2, [r3, #36]	; 0x24
 8002e4c:	e008      	b.n	8002e60 <USART_Transmit_IT+0x5a>
    }
    else
    {
      husart->Instance->DR = (uint8_t)(*husart->pTxBuffPtr++ & (uint8_t)0x00FF);
 8002e4e:	687b      	ldr	r3, [r7, #4]
 8002e50:	6a5b      	ldr	r3, [r3, #36]	; 0x24
 8002e52:	1c59      	adds	r1, r3, #1
 8002e54:	687a      	ldr	r2, [r7, #4]
 8002e56:	6251      	str	r1, [r2, #36]	; 0x24
 8002e58:	781a      	ldrb	r2, [r3, #0]
 8002e5a:	687b      	ldr	r3, [r7, #4]
 8002e5c:	681b      	ldr	r3, [r3, #0]
 8002e5e:	605a      	str	r2, [r3, #4]
    }

    if (--husart->TxXferCount == 0U)
 8002e60:	687b      	ldr	r3, [r7, #4]
 8002e62:	8d5b      	ldrh	r3, [r3, #42]	; 0x2a
 8002e64:	b29b      	uxth	r3, r3
 8002e66:	3b01      	subs	r3, #1
 8002e68:	b29b      	uxth	r3, r3
 8002e6a:	687a      	ldr	r2, [r7, #4]
 8002e6c:	4619      	mov	r1, r3
 8002e6e:	8551      	strh	r1, [r2, #42]	; 0x2a
 8002e70:	2b00      	cmp	r3, #0
 8002e72:	d10f      	bne.n	8002e94 <USART_Transmit_IT+0x8e>
    {
      /* Disable the USART Transmit data register empty Interrupt */
      CLEAR_BIT(husart->Instance->CR1, USART_CR1_TXEIE);
 8002e74:	687b      	ldr	r3, [r7, #4]
 8002e76:	681b      	ldr	r3, [r3, #0]
 8002e78:	68da      	ldr	r2, [r3, #12]
 8002e7a:	687b      	ldr	r3, [r7, #4]
 8002e7c:	681b      	ldr	r3, [r3, #0]
 8002e7e:	f022 0280 	bic.w	r2, r2, #128	; 0x80
 8002e82:	60da      	str	r2, [r3, #12]

      /* Enable the USART Transmit Complete Interrupt */
      SET_BIT(husart->Instance->CR1, USART_CR1_TCIE);
 8002e84:	687b      	ldr	r3, [r7, #4]
 8002e86:	681b      	ldr	r3, [r3, #0]
 8002e88:	68da      	ldr	r2, [r3, #12]
 8002e8a:	687b      	ldr	r3, [r7, #4]
 8002e8c:	681b      	ldr	r3, [r3, #0]
 8002e8e:	f042 0240 	orr.w	r2, r2, #64	; 0x40
 8002e92:	60da      	str	r2, [r3, #12]
    }
    return HAL_OK;
 8002e94:	2300      	movs	r3, #0
 8002e96:	e000      	b.n	8002e9a <USART_Transmit_IT+0x94>
  }
  else
  {
    return HAL_BUSY;
 8002e98:	2302      	movs	r3, #2
  }
}
 8002e9a:	4618      	mov	r0, r3
 8002e9c:	3714      	adds	r7, #20
 8002e9e:	46bd      	mov	sp, r7
 8002ea0:	bc80      	pop	{r7}
 8002ea2:	4770      	bx	lr

08002ea4 <USART_EndTransmit_IT>:
  * @param  husart Pointer to a USART_HandleTypeDef structure that contains
  *                the configuration information for the specified USART module.
  * @retval HAL status
  */
static HAL_StatusTypeDef USART_EndTransmit_IT(USART_HandleTypeDef *husart)
{
 8002ea4:	b580      	push	{r7, lr}
 8002ea6:	b082      	sub	sp, #8
 8002ea8:	af00      	add	r7, sp, #0
 8002eaa:	6078      	str	r0, [r7, #4]
  /* Disable the USART Transmit Complete Interrupt */
  CLEAR_BIT(husart->Instance->CR1, USART_CR1_TCIE);
 8002eac:	687b      	ldr	r3, [r7, #4]
 8002eae:	681b      	ldr	r3, [r3, #0]
 8002eb0:	68da      	ldr	r2, [r3, #12]
 8002eb2:	687b      	ldr	r3, [r7, #4]
 8002eb4:	681b      	ldr	r3, [r3, #0]
 8002eb6:	f022 0240 	bic.w	r2, r2, #64	; 0x40
 8002eba:	60da      	str	r2, [r3, #12]

  /* Disable the USART Error Interrupt: (Frame error, noise error, overrun error) */
  CLEAR_BIT(husart->Instance->CR3, USART_CR3_EIE);
 8002ebc:	687b      	ldr	r3, [r7, #4]
 8002ebe:	681b      	ldr	r3, [r3, #0]
 8002ec0:	695a      	ldr	r2, [r3, #20]
 8002ec2:	687b      	ldr	r3, [r7, #4]
 8002ec4:	681b      	ldr	r3, [r3, #0]
 8002ec6:	f022 0201 	bic.w	r2, r2, #1
 8002eca:	615a      	str	r2, [r3, #20]

  husart->State = HAL_USART_STATE_READY;
 8002ecc:	687b      	ldr	r3, [r7, #4]
 8002ece:	2201      	movs	r2, #1
 8002ed0:	f883 203d 	strb.w	r2, [r3, #61]	; 0x3d
#if (USE_HAL_USART_REGISTER_CALLBACKS == 1)
  /* Call registered Tx Complete Callback */
  husart->TxCpltCallback(husart);
#else
  /* Call legacy weak Tx Complete Callback */
  HAL_USART_TxCpltCallback(husart);
 8002ed4:	6878      	ldr	r0, [r7, #4]
 8002ed6:	f7ff ff41 	bl	8002d5c <HAL_USART_TxCpltCallback>
#endif /* USE_HAL_USART_REGISTER_CALLBACKS */

  return HAL_OK;
 8002eda:	2300      	movs	r3, #0
}
 8002edc:	4618      	mov	r0, r3
 8002ede:	3708      	adds	r7, #8
 8002ee0:	46bd      	mov	sp, r7
 8002ee2:	bd80      	pop	{r7, pc}

08002ee4 <USART_Receive_IT>:
  * @param  husart Pointer to a USART_HandleTypeDef structure that contains
  *                the configuration information for the specified USART module.
  * @retval HAL status
  */
static HAL_StatusTypeDef USART_Receive_IT(USART_HandleTypeDef *husart)
{
 8002ee4:	b580      	push	{r7, lr}
 8002ee6:	b084      	sub	sp, #16
 8002ee8:	af00      	add	r7, sp, #0
 8002eea:	6078      	str	r0, [r7, #4]
  uint8_t  *pdata8bits;
  uint16_t *pdata16bits;

  if (husart->State == HAL_USART_STATE_BUSY_RX)
 8002eec:	687b      	ldr	r3, [r7, #4]
 8002eee:	f893 303d 	ldrb.w	r3, [r3, #61]	; 0x3d
 8002ef2:	b2db      	uxtb	r3, r3
 8002ef4:	2b22      	cmp	r3, #34	; 0x22
 8002ef6:	d176      	bne.n	8002fe6 <USART_Receive_IT+0x102>
  {
    if ((husart->Init.WordLength == USART_WORDLENGTH_9B) && (husart->Init.Parity == USART_PARITY_NONE))
 8002ef8:	687b      	ldr	r3, [r7, #4]
 8002efa:	689b      	ldr	r3, [r3, #8]
 8002efc:	f5b3 5f80 	cmp.w	r3, #4096	; 0x1000
 8002f00:	d117      	bne.n	8002f32 <USART_Receive_IT+0x4e>
 8002f02:	687b      	ldr	r3, [r7, #4]
 8002f04:	691b      	ldr	r3, [r3, #16]
 8002f06:	2b00      	cmp	r3, #0
 8002f08:	d113      	bne.n	8002f32 <USART_Receive_IT+0x4e>
    {
      pdata8bits  = NULL;
 8002f0a:	2300      	movs	r3, #0
 8002f0c:	60fb      	str	r3, [r7, #12]
      pdata16bits = (uint16_t *) husart->pRxBuffPtr;
 8002f0e:	687b      	ldr	r3, [r7, #4]
 8002f10:	6adb      	ldr	r3, [r3, #44]	; 0x2c
 8002f12:	60bb      	str	r3, [r7, #8]
      *pdata16bits = (uint16_t)(husart->Instance->DR & (uint16_t)0x01FF);
 8002f14:	687b      	ldr	r3, [r7, #4]
 8002f16:	681b      	ldr	r3, [r3, #0]
 8002f18:	685b      	ldr	r3, [r3, #4]
 8002f1a:	b29b      	uxth	r3, r3
 8002f1c:	f3c3 0308 	ubfx	r3, r3, #0, #9
 8002f20:	b29a      	uxth	r2, r3
 8002f22:	68bb      	ldr	r3, [r7, #8]
 8002f24:	801a      	strh	r2, [r3, #0]
      husart->pRxBuffPtr += 2U;
 8002f26:	687b      	ldr	r3, [r7, #4]
 8002f28:	6adb      	ldr	r3, [r3, #44]	; 0x2c
 8002f2a:	1c9a      	adds	r2, r3, #2
 8002f2c:	687b      	ldr	r3, [r7, #4]
 8002f2e:	62da      	str	r2, [r3, #44]	; 0x2c
 8002f30:	e026      	b.n	8002f80 <USART_Receive_IT+0x9c>
    }
    else
    {
      pdata8bits = (uint8_t *) husart->pRxBuffPtr;
 8002f32:	687b      	ldr	r3, [r7, #4]
 8002f34:	6adb      	ldr	r3, [r3, #44]	; 0x2c
 8002f36:	60fb      	str	r3, [r7, #12]
      pdata16bits  = NULL;
 8002f38:	2300      	movs	r3, #0
 8002f3a:	60bb      	str	r3, [r7, #8]

      if ((husart->Init.WordLength == USART_WORDLENGTH_9B) || ((husart->Init.WordLength == USART_WORDLENGTH_8B) && (husart->Init.Parity == USART_PARITY_NONE)))
 8002f3c:	687b      	ldr	r3, [r7, #4]
 8002f3e:	689b      	ldr	r3, [r3, #8]
 8002f40:	f5b3 5f80 	cmp.w	r3, #4096	; 0x1000
 8002f44:	d007      	beq.n	8002f56 <USART_Receive_IT+0x72>
 8002f46:	687b      	ldr	r3, [r7, #4]
 8002f48:	689b      	ldr	r3, [r3, #8]
 8002f4a:	2b00      	cmp	r3, #0
 8002f4c:	d10a      	bne.n	8002f64 <USART_Receive_IT+0x80>
 8002f4e:	687b      	ldr	r3, [r7, #4]
 8002f50:	691b      	ldr	r3, [r3, #16]
 8002f52:	2b00      	cmp	r3, #0
 8002f54:	d106      	bne.n	8002f64 <USART_Receive_IT+0x80>
      {
        *pdata8bits = (uint8_t)(husart->Instance->DR & (uint8_t)0x00FF);
 8002f56:	687b      	ldr	r3, [r7, #4]
 8002f58:	681b      	ldr	r3, [r3, #0]
 8002f5a:	685b      	ldr	r3, [r3, #4]
 8002f5c:	b2da      	uxtb	r2, r3
 8002f5e:	68fb      	ldr	r3, [r7, #12]
 8002f60:	701a      	strb	r2, [r3, #0]
 8002f62:	e008      	b.n	8002f76 <USART_Receive_IT+0x92>
      }
      else
      {
        *pdata8bits = (uint8_t)(husart->Instance->DR & (uint8_t)0x007F);
 8002f64:	687b      	ldr	r3, [r7, #4]
 8002f66:	681b      	ldr	r3, [r3, #0]
 8002f68:	685b      	ldr	r3, [r3, #4]
 8002f6a:	b2db      	uxtb	r3, r3
 8002f6c:	f003 037f 	and.w	r3, r3, #127	; 0x7f
 8002f70:	b2da      	uxtb	r2, r3
 8002f72:	68fb      	ldr	r3, [r7, #12]
 8002f74:	701a      	strb	r2, [r3, #0]
      }

      husart->pRxBuffPtr += 1U;
 8002f76:	687b      	ldr	r3, [r7, #4]
 8002f78:	6adb      	ldr	r3, [r3, #44]	; 0x2c
 8002f7a:	1c5a      	adds	r2, r3, #1
 8002f7c:	687b      	ldr	r3, [r7, #4]
 8002f7e:	62da      	str	r2, [r3, #44]	; 0x2c
    }

    husart->RxXferCount--;
 8002f80:	687b      	ldr	r3, [r7, #4]
 8002f82:	8e5b      	ldrh	r3, [r3, #50]	; 0x32
 8002f84:	b29b      	uxth	r3, r3
 8002f86:	3b01      	subs	r3, #1
 8002f88:	b29a      	uxth	r2, r3
 8002f8a:	687b      	ldr	r3, [r7, #4]
 8002f8c:	865a      	strh	r2, [r3, #50]	; 0x32

    if (husart->RxXferCount == 0U)
 8002f8e:	687b      	ldr	r3, [r7, #4]
 8002f90:	8e5b      	ldrh	r3, [r3, #50]	; 0x32
 8002f92:	b29b      	uxth	r3, r3
 8002f94:	2b00      	cmp	r3, #0
 8002f96:	d120      	bne.n	8002fda <USART_Receive_IT+0xf6>
    {
      /* Disable the USART RXNE Interrupt */
      CLEAR_BIT(husart->Instance->CR1, USART_CR1_RXNEIE);
 8002f98:	687b      	ldr	r3, [r7, #4]
 8002f9a:	681b      	ldr	r3, [r3, #0]
 8002f9c:	68da      	ldr	r2, [r3, #12]
 8002f9e:	687b      	ldr	r3, [r7, #4]
 8002fa0:	681b      	ldr	r3, [r3, #0]
 8002fa2:	f022 0220 	bic.w	r2, r2, #32
 8002fa6:	60da      	str	r2, [r3, #12]

      /* Disable the USART Parity Error Interrupt */
      CLEAR_BIT(husart->Instance->CR1, USART_CR1_PEIE);
 8002fa8:	687b      	ldr	r3, [r7, #4]
 8002faa:	681b      	ldr	r3, [r3, #0]
 8002fac:	68da      	ldr	r2, [r3, #12]
 8002fae:	687b      	ldr	r3, [r7, #4]
 8002fb0:	681b      	ldr	r3, [r3, #0]
 8002fb2:	f422 7280 	bic.w	r2, r2, #256	; 0x100
 8002fb6:	60da      	str	r2, [r3, #12]

      /* Disable the USART Error Interrupt: (Frame error, noise error, overrun error) */
      CLEAR_BIT(husart->Instance->CR3, USART_CR3_EIE);
 8002fb8:	687b      	ldr	r3, [r7, #4]
 8002fba:	681b      	ldr	r3, [r3, #0]
 8002fbc:	695a      	ldr	r2, [r3, #20]
 8002fbe:	687b      	ldr	r3, [r7, #4]
 8002fc0:	681b      	ldr	r3, [r3, #0]
 8002fc2:	f022 0201 	bic.w	r2, r2, #1
 8002fc6:	615a      	str	r2, [r3, #20]

      husart->State = HAL_USART_STATE_READY;
 8002fc8:	687b      	ldr	r3, [r7, #4]
 8002fca:	2201      	movs	r2, #1
 8002fcc:	f883 203d 	strb.w	r2, [r3, #61]	; 0x3d
#if (USE_HAL_USART_REGISTER_CALLBACKS == 1)
      /* Call registered Rx Complete Callback */
      husart->RxCpltCallback(husart);
#else
      /* Call legacy weak Rx Complete Callback */
      HAL_USART_RxCpltCallback(husart);
 8002fd0:	6878      	ldr	r0, [r7, #4]
 8002fd2:	f7ff fecc 	bl	8002d6e <HAL_USART_RxCpltCallback>
#endif /* USE_HAL_USART_REGISTER_CALLBACKS */

      return HAL_OK;
 8002fd6:	2300      	movs	r3, #0
 8002fd8:	e006      	b.n	8002fe8 <USART_Receive_IT+0x104>
    else
    {
      /* Send dummy byte in order to generate the clock for the slave to send the next data.
      * Whatever the frame length (7, 8 or 9-bit long), the same dummy value
      * can be written for all the cases. */
      husart->Instance->DR = (DUMMY_DATA & (uint16_t)0x0FF);
 8002fda:	687b      	ldr	r3, [r7, #4]
 8002fdc:	681b      	ldr	r3, [r3, #0]
 8002fde:	22ff      	movs	r2, #255	; 0xff
 8002fe0:	605a      	str	r2, [r3, #4]
    }
    return HAL_OK;
 8002fe2:	2300      	movs	r3, #0
 8002fe4:	e000      	b.n	8002fe8 <USART_Receive_IT+0x104>
  }
  else
  {
    return HAL_BUSY;
 8002fe6:	2302      	movs	r3, #2
  }
}
 8002fe8:	4618      	mov	r0, r3
 8002fea:	3710      	adds	r7, #16
 8002fec:	46bd      	mov	sp, r7
 8002fee:	bd80      	pop	{r7, pc}

08002ff0 <USART_TransmitReceive_IT>:
  * @param  husart Pointer to a USART_HandleTypeDef structure that contains
  *                the configuration information for the specified USART module.
  * @retval HAL status
  */
static HAL_StatusTypeDef USART_TransmitReceive_IT(USART_HandleTypeDef *husart)
{
 8002ff0:	b580      	push	{r7, lr}
 8002ff2:	b084      	sub	sp, #16
 8002ff4:	af00      	add	r7, sp, #0
 8002ff6:	6078      	str	r0, [r7, #4]
  uint8_t  *pdata8bits;
  uint16_t *pdata16bits;

  if (husart->State == HAL_USART_STATE_BUSY_TX_RX)
 8002ff8:	687b      	ldr	r3, [r7, #4]
 8002ffa:	f893 303d 	ldrb.w	r3, [r3, #61]	; 0x3d
 8002ffe:	b2db      	uxtb	r3, r3
 8003000:	2b32      	cmp	r3, #50	; 0x32
 8003002:	f040 80c4 	bne.w	800318e <USART_TransmitReceive_IT+0x19e>
  {
    if (husart->TxXferCount != 0x00U)
 8003006:	687b      	ldr	r3, [r7, #4]
 8003008:	8d5b      	ldrh	r3, [r3, #42]	; 0x2a
 800300a:	b29b      	uxth	r3, r3
 800300c:	2b00      	cmp	r3, #0
 800300e:	d03f      	beq.n	8003090 <USART_TransmitReceive_IT+0xa0>
    {
      if (__HAL_USART_GET_FLAG(husart, USART_FLAG_TXE) != RESET)
 8003010:	687b      	ldr	r3, [r7, #4]
 8003012:	681b      	ldr	r3, [r3, #0]
 8003014:	681b      	ldr	r3, [r3, #0]
 8003016:	f003 0380 	and.w	r3, r3, #128	; 0x80
 800301a:	2b80      	cmp	r3, #128	; 0x80
 800301c:	d138      	bne.n	8003090 <USART_TransmitReceive_IT+0xa0>
      {
        if ((husart->Init.WordLength == USART_WORDLENGTH_9B) && (husart->Init.Parity == USART_PARITY_NONE))
 800301e:	687b      	ldr	r3, [r7, #4]
 8003020:	689b      	ldr	r3, [r3, #8]
 8003022:	f5b3 5f80 	cmp.w	r3, #4096	; 0x1000
 8003026:	d116      	bne.n	8003056 <USART_TransmitReceive_IT+0x66>
 8003028:	687b      	ldr	r3, [r7, #4]
 800302a:	691b      	ldr	r3, [r3, #16]
 800302c:	2b00      	cmp	r3, #0
 800302e:	d112      	bne.n	8003056 <USART_TransmitReceive_IT+0x66>
        {
          pdata8bits  = NULL;
 8003030:	2300      	movs	r3, #0
 8003032:	60fb      	str	r3, [r7, #12]
          pdata16bits = (uint16_t *) husart->pTxBuffPtr;
 8003034:	687b      	ldr	r3, [r7, #4]
 8003036:	6a5b      	ldr	r3, [r3, #36]	; 0x24
 8003038:	60bb      	str	r3, [r7, #8]
          husart->Instance->DR = (uint16_t)(*pdata16bits & (uint16_t)0x01FF);
 800303a:	68bb      	ldr	r3, [r7, #8]
 800303c:	881b      	ldrh	r3, [r3, #0]
 800303e:	461a      	mov	r2, r3
 8003040:	687b      	ldr	r3, [r7, #4]
 8003042:	681b      	ldr	r3, [r3, #0]
 8003044:	f3c2 0208 	ubfx	r2, r2, #0, #9
 8003048:	605a      	str	r2, [r3, #4]
          husart->pTxBuffPtr += 2U;
 800304a:	687b      	ldr	r3, [r7, #4]
 800304c:	6a5b      	ldr	r3, [r3, #36]	; 0x24
 800304e:	1c9a      	adds	r2, r3, #2
 8003050:	687b      	ldr	r3, [r7, #4]
 8003052:	625a      	str	r2, [r3, #36]	; 0x24
 8003054:	e008      	b.n	8003068 <USART_TransmitReceive_IT+0x78>
        }
        else
        {
          husart->Instance->DR = (uint8_t)(*husart->pTxBuffPtr++ & (uint8_t)0x00FF);
 8003056:	687b      	ldr	r3, [r7, #4]
 8003058:	6a5b      	ldr	r3, [r3, #36]	; 0x24
 800305a:	1c59      	adds	r1, r3, #1
 800305c:	687a      	ldr	r2, [r7, #4]
 800305e:	6251      	str	r1, [r2, #36]	; 0x24
 8003060:	781a      	ldrb	r2, [r3, #0]
 8003062:	687b      	ldr	r3, [r7, #4]
 8003064:	681b      	ldr	r3, [r3, #0]
 8003066:	605a      	str	r2, [r3, #4]
        }

        husart->TxXferCount--;
 8003068:	687b      	ldr	r3, [r7, #4]
 800306a:	8d5b      	ldrh	r3, [r3, #42]	; 0x2a
 800306c:	b29b      	uxth	r3, r3
 800306e:	3b01      	subs	r3, #1
 8003070:	b29a      	uxth	r2, r3
 8003072:	687b      	ldr	r3, [r7, #4]
 8003074:	855a      	strh	r2, [r3, #42]	; 0x2a

        /* Check the latest data transmitted */
        if (husart->TxXferCount == 0U)
 8003076:	687b      	ldr	r3, [r7, #4]
 8003078:	8d5b      	ldrh	r3, [r3, #42]	; 0x2a
 800307a:	b29b      	uxth	r3, r3
 800307c:	2b00      	cmp	r3, #0
 800307e:	d107      	bne.n	8003090 <USART_TransmitReceive_IT+0xa0>
        {
          CLEAR_BIT(husart->Instance->CR1, USART_CR1_TXEIE);
 8003080:	687b      	ldr	r3, [r7, #4]
 8003082:	681b      	ldr	r3, [r3, #0]
 8003084:	68da      	ldr	r2, [r3, #12]
 8003086:	687b      	ldr	r3, [r7, #4]
 8003088:	681b      	ldr	r3, [r3, #0]
 800308a:	f022 0280 	bic.w	r2, r2, #128	; 0x80
 800308e:	60da      	str	r2, [r3, #12]
        }
      }
    }

    if (husart->RxXferCount != 0x00U)
 8003090:	687b      	ldr	r3, [r7, #4]
 8003092:	8e5b      	ldrh	r3, [r3, #50]	; 0x32
 8003094:	b29b      	uxth	r3, r3
 8003096:	2b00      	cmp	r3, #0
 8003098:	d051      	beq.n	800313e <USART_TransmitReceive_IT+0x14e>
    {
      if (__HAL_USART_GET_FLAG(husart, USART_FLAG_RXNE) != RESET)
 800309a:	687b      	ldr	r3, [r7, #4]
 800309c:	681b      	ldr	r3, [r3, #0]
 800309e:	681b      	ldr	r3, [r3, #0]
 80030a0:	f003 0320 	and.w	r3, r3, #32
 80030a4:	2b20      	cmp	r3, #32
 80030a6:	d14a      	bne.n	800313e <USART_TransmitReceive_IT+0x14e>
      {
        if ((husart->Init.WordLength == USART_WORDLENGTH_9B) && (husart->Init.Parity == USART_PARITY_NONE))
 80030a8:	687b      	ldr	r3, [r7, #4]
 80030aa:	689b      	ldr	r3, [r3, #8]
 80030ac:	f5b3 5f80 	cmp.w	r3, #4096	; 0x1000
 80030b0:	d117      	bne.n	80030e2 <USART_TransmitReceive_IT+0xf2>
 80030b2:	687b      	ldr	r3, [r7, #4]
 80030b4:	691b      	ldr	r3, [r3, #16]
 80030b6:	2b00      	cmp	r3, #0
 80030b8:	d113      	bne.n	80030e2 <USART_TransmitReceive_IT+0xf2>
        {
           pdata8bits  = NULL;
 80030ba:	2300      	movs	r3, #0
 80030bc:	60fb      	str	r3, [r7, #12]
           pdata16bits = (uint16_t *) husart->pRxBuffPtr;
 80030be:	687b      	ldr	r3, [r7, #4]
 80030c0:	6adb      	ldr	r3, [r3, #44]	; 0x2c
 80030c2:	60bb      	str	r3, [r7, #8]
           *pdata16bits = (uint16_t)(husart->Instance->DR & (uint16_t)0x01FF);
 80030c4:	687b      	ldr	r3, [r7, #4]
 80030c6:	681b      	ldr	r3, [r3, #0]
 80030c8:	685b      	ldr	r3, [r3, #4]
 80030ca:	b29b      	uxth	r3, r3
 80030cc:	f3c3 0308 	ubfx	r3, r3, #0, #9
 80030d0:	b29a      	uxth	r2, r3
 80030d2:	68bb      	ldr	r3, [r7, #8]
 80030d4:	801a      	strh	r2, [r3, #0]
           husart->pRxBuffPtr += 2U;
 80030d6:	687b      	ldr	r3, [r7, #4]
 80030d8:	6adb      	ldr	r3, [r3, #44]	; 0x2c
 80030da:	1c9a      	adds	r2, r3, #2
 80030dc:	687b      	ldr	r3, [r7, #4]
 80030de:	62da      	str	r2, [r3, #44]	; 0x2c
 80030e0:	e026      	b.n	8003130 <USART_TransmitReceive_IT+0x140>
        }
        else
        {
          pdata8bits = (uint8_t *) husart->pRxBuffPtr;
 80030e2:	687b      	ldr	r3, [r7, #4]
 80030e4:	6adb      	ldr	r3, [r3, #44]	; 0x2c
 80030e6:	60fb      	str	r3, [r7, #12]
          pdata16bits  = NULL;
 80030e8:	2300      	movs	r3, #0
 80030ea:	60bb      	str	r3, [r7, #8]
          if ((husart->Init.WordLength == USART_WORDLENGTH_9B) || ((husart->Init.WordLength == USART_WORDLENGTH_8B) && (husart->Init.Parity == USART_PARITY_NONE)))
 80030ec:	687b      	ldr	r3, [r7, #4]
 80030ee:	689b      	ldr	r3, [r3, #8]
 80030f0:	f5b3 5f80 	cmp.w	r3, #4096	; 0x1000
 80030f4:	d007      	beq.n	8003106 <USART_TransmitReceive_IT+0x116>
 80030f6:	687b      	ldr	r3, [r7, #4]
 80030f8:	689b      	ldr	r3, [r3, #8]
 80030fa:	2b00      	cmp	r3, #0
 80030fc:	d10a      	bne.n	8003114 <USART_TransmitReceive_IT+0x124>
 80030fe:	687b      	ldr	r3, [r7, #4]
 8003100:	691b      	ldr	r3, [r3, #16]
 8003102:	2b00      	cmp	r3, #0
 8003104:	d106      	bne.n	8003114 <USART_TransmitReceive_IT+0x124>
          {
            *pdata8bits = (uint8_t)(husart->Instance->DR & (uint8_t)0x00FF);
 8003106:	687b      	ldr	r3, [r7, #4]
 8003108:	681b      	ldr	r3, [r3, #0]
 800310a:	685b      	ldr	r3, [r3, #4]
 800310c:	b2da      	uxtb	r2, r3
 800310e:	68fb      	ldr	r3, [r7, #12]
 8003110:	701a      	strb	r2, [r3, #0]
 8003112:	e008      	b.n	8003126 <USART_TransmitReceive_IT+0x136>
          }
          else
          {
            *pdata8bits = (uint8_t)(husart->Instance->DR & (uint8_t)0x007F);
 8003114:	687b      	ldr	r3, [r7, #4]
 8003116:	681b      	ldr	r3, [r3, #0]
 8003118:	685b      	ldr	r3, [r3, #4]
 800311a:	b2db      	uxtb	r3, r3
 800311c:	f003 037f 	and.w	r3, r3, #127	; 0x7f
 8003120:	b2da      	uxtb	r2, r3
 8003122:	68fb      	ldr	r3, [r7, #12]
 8003124:	701a      	strb	r2, [r3, #0]
          }
          husart->pRxBuffPtr += 1U;
 8003126:	687b      	ldr	r3, [r7, #4]
 8003128:	6adb      	ldr	r3, [r3, #44]	; 0x2c
 800312a:	1c5a      	adds	r2, r3, #1
 800312c:	687b      	ldr	r3, [r7, #4]
 800312e:	62da      	str	r2, [r3, #44]	; 0x2c
        }

        husart->RxXferCount--;
 8003130:	687b      	ldr	r3, [r7, #4]
 8003132:	8e5b      	ldrh	r3, [r3, #50]	; 0x32
 8003134:	b29b      	uxth	r3, r3
 8003136:	3b01      	subs	r3, #1
 8003138:	b29a      	uxth	r2, r3
 800313a:	687b      	ldr	r3, [r7, #4]
 800313c:	865a      	strh	r2, [r3, #50]	; 0x32
      }
    }

    /* Check the latest data received */
    if (husart->RxXferCount == 0U)
 800313e:	687b      	ldr	r3, [r7, #4]
 8003140:	8e5b      	ldrh	r3, [r3, #50]	; 0x32
 8003142:	b29b      	uxth	r3, r3
 8003144:	2b00      	cmp	r3, #0
 8003146:	d120      	bne.n	800318a <USART_TransmitReceive_IT+0x19a>
    {
      /* Disable the USART RXNE Interrupt */
      CLEAR_BIT(husart->Instance->CR1, USART_CR1_RXNEIE);
 8003148:	687b      	ldr	r3, [r7, #4]
 800314a:	681b      	ldr	r3, [r3, #0]
 800314c:	68da      	ldr	r2, [r3, #12]
 800314e:	687b      	ldr	r3, [r7, #4]
 8003150:	681b      	ldr	r3, [r3, #0]
 8003152:	f022 0220 	bic.w	r2, r2, #32
 8003156:	60da      	str	r2, [r3, #12]

      /* Disable the USART Parity Error Interrupt */
      CLEAR_BIT(husart->Instance->CR1, USART_CR1_PEIE);
 8003158:	687b      	ldr	r3, [r7, #4]
 800315a:	681b      	ldr	r3, [r3, #0]
 800315c:	68da      	ldr	r2, [r3, #12]
 800315e:	687b      	ldr	r3, [r7, #4]
 8003160:	681b      	ldr	r3, [r3, #0]
 8003162:	f422 7280 	bic.w	r2, r2, #256	; 0x100
 8003166:	60da      	str	r2, [r3, #12]

      /* Disable the USART Error Interrupt: (Frame error, noise error, overrun error) */
      CLEAR_BIT(husart->Instance->CR3, USART_CR3_EIE);
 8003168:	687b      	ldr	r3, [r7, #4]
 800316a:	681b      	ldr	r3, [r3, #0]
 800316c:	695a      	ldr	r2, [r3, #20]
 800316e:	687b      	ldr	r3, [r7, #4]
 8003170:	681b      	ldr	r3, [r3, #0]
 8003172:	f022 0201 	bic.w	r2, r2, #1
 8003176:	615a      	str	r2, [r3, #20]

      husart->State = HAL_USART_STATE_READY;
 8003178:	687b      	ldr	r3, [r7, #4]
 800317a:	2201      	movs	r2, #1
 800317c:	f883 203d 	strb.w	r2, [r3, #61]	; 0x3d
#if (USE_HAL_USART_REGISTER_CALLBACKS == 1)
      /* Call registered Tx Rx Complete Callback */
      husart->TxRxCpltCallback(husart);
#else
      /* Call legacy weak Tx Rx Complete Callback */
      HAL_USART_TxRxCpltCallback(husart);
 8003180:	6878      	ldr	r0, [r7, #4]
 8003182:	f7ff fdfd 	bl	8002d80 <HAL_USART_TxRxCpltCallback>
#endif /* USE_HAL_USART_REGISTER_CALLBACKS */

      return HAL_OK;
 8003186:	2300      	movs	r3, #0
 8003188:	e002      	b.n	8003190 <USART_TransmitReceive_IT+0x1a0>
    }

    return HAL_OK;
 800318a:	2300      	movs	r3, #0
 800318c:	e000      	b.n	8003190 <USART_TransmitReceive_IT+0x1a0>
  }
  else
  {
    return HAL_BUSY;
 800318e:	2302      	movs	r3, #2
  }
}
 8003190:	4618      	mov	r0, r3
 8003192:	3710      	adds	r7, #16
 8003194:	46bd      	mov	sp, r7
 8003196:	bd80      	pop	{r7, pc}

08003198 <USART_SetConfig>:
  * @param  husart Pointer to a USART_HandleTypeDef structure that contains
  *                the configuration information for the specified USART module.
  * @retval None
  */
static void USART_SetConfig(USART_HandleTypeDef *husart)
{
 8003198:	b580      	push	{r7, lr}
 800319a:	b084      	sub	sp, #16
 800319c:	af00      	add	r7, sp, #0
 800319e:	6078      	str	r0, [r7, #4]
  uint32_t tmpreg = 0x00U;
 80031a0:	2300      	movs	r3, #0
 80031a2:	60fb      	str	r3, [r7, #12]
  assert_param(IS_USART_PARITY(husart->Init.Parity));
  assert_param(IS_USART_MODE(husart->Init.Mode));

  /* The LBCL, CPOL and CPHA bits have to be selected when both the transmitter and the
     receiver are disabled (TE=RE=0) to ensure that the clock pulses function correctly. */
  CLEAR_BIT(husart->Instance->CR1, (USART_CR1_TE | USART_CR1_RE));
 80031a4:	687b      	ldr	r3, [r7, #4]
 80031a6:	681b      	ldr	r3, [r3, #0]
 80031a8:	68da      	ldr	r2, [r3, #12]
 80031aa:	687b      	ldr	r3, [r7, #4]
 80031ac:	681b      	ldr	r3, [r3, #0]
 80031ae:	f022 020c 	bic.w	r2, r2, #12
 80031b2:	60da      	str	r2, [r3, #12]

  /*---------------------------- USART CR2 Configuration ---------------------*/
  tmpreg = husart->Instance->CR2;
 80031b4:	687b      	ldr	r3, [r7, #4]
 80031b6:	681b      	ldr	r3, [r3, #0]
 80031b8:	691b      	ldr	r3, [r3, #16]
 80031ba:	60fb      	str	r3, [r7, #12]
  /* Clear CLKEN, CPOL, CPHA and LBCL bits */
  tmpreg &= (uint32_t)~((uint32_t)(USART_CR2_CPHA | USART_CR2_CPOL | USART_CR2_CLKEN | USART_CR2_LBCL | USART_CR2_STOP));
 80031bc:	68fb      	ldr	r3, [r7, #12]
 80031be:	f423 537c 	bic.w	r3, r3, #16128	; 0x3f00
 80031c2:	60fb      	str	r3, [r7, #12]
  /* Configure the USART Clock, CPOL, CPHA and LastBit -----------------------*/
  /* Set CPOL bit according to husart->Init.CLKPolarity value */
  /* Set CPHA bit according to husart->Init.CLKPhase value */
  /* Set LBCL bit according to husart->Init.CLKLastBit value */
  /* Set Stop Bits: Set STOP[13:12] bits according to husart->Init.StopBits value */
  tmpreg |= (uint32_t)(USART_CLOCK_ENABLE | husart->Init.CLKPolarity |
 80031c4:	687b      	ldr	r3, [r7, #4]
 80031c6:	699a      	ldr	r2, [r3, #24]
                       husart->Init.CLKPhase | husart->Init.CLKLastBit | husart->Init.StopBits);
 80031c8:	687b      	ldr	r3, [r7, #4]
 80031ca:	69db      	ldr	r3, [r3, #28]
  tmpreg |= (uint32_t)(USART_CLOCK_ENABLE | husart->Init.CLKPolarity |
 80031cc:	431a      	orrs	r2, r3
                       husart->Init.CLKPhase | husart->Init.CLKLastBit | husart->Init.StopBits);
 80031ce:	687b      	ldr	r3, [r7, #4]
 80031d0:	6a1b      	ldr	r3, [r3, #32]
 80031d2:	431a      	orrs	r2, r3
 80031d4:	687b      	ldr	r3, [r7, #4]
 80031d6:	68db      	ldr	r3, [r3, #12]
  tmpreg |= (uint32_t)(USART_CLOCK_ENABLE | husart->Init.CLKPolarity |
 80031d8:	431a      	orrs	r2, r3
 80031da:	68fb      	ldr	r3, [r7, #12]
 80031dc:	4313      	orrs	r3, r2
 80031de:	f443 6300 	orr.w	r3, r3, #2048	; 0x800
 80031e2:	60fb      	str	r3, [r7, #12]
  /* Write to USART CR2 */
  WRITE_REG(husart->Instance->CR2, (uint32_t)tmpreg);
 80031e4:	687b      	ldr	r3, [r7, #4]
 80031e6:	681b      	ldr	r3, [r3, #0]
 80031e8:	68fa      	ldr	r2, [r7, #12]
 80031ea:	611a      	str	r2, [r3, #16]

  /*-------------------------- USART CR1 Configuration -----------------------*/
  tmpreg = husart->Instance->CR1;
 80031ec:	687b      	ldr	r3, [r7, #4]
 80031ee:	681b      	ldr	r3, [r3, #0]
 80031f0:	68db      	ldr	r3, [r3, #12]
 80031f2:	60fb      	str	r3, [r7, #12]

  /* Clear M, PCE, PS, TE and RE bits */
  tmpreg &= (uint32_t)~((uint32_t)(USART_CR1_M | USART_CR1_PCE | USART_CR1_PS | USART_CR1_TE | USART_CR1_RE));
 80031f4:	68fb      	ldr	r3, [r7, #12]
 80031f6:	f423 53b0 	bic.w	r3, r3, #5632	; 0x1600
 80031fa:	f023 030c 	bic.w	r3, r3, #12
 80031fe:	60fb      	str	r3, [r7, #12]
  /* Configure the USART Word Length, Parity and mode:
     Set the M bits according to husart->Init.WordLength value
     Set PCE and PS bits according to husart->Init.Parity value
     Set TE and RE bits according to husart->Init.Mode value
   */
  tmpreg |= (uint32_t)husart->Init.WordLength | husart->Init.Parity | husart->Init.Mode;
 8003200:	687b      	ldr	r3, [r7, #4]
 8003202:	689a      	ldr	r2, [r3, #8]
 8003204:	687b      	ldr	r3, [r7, #4]
 8003206:	691b      	ldr	r3, [r3, #16]
 8003208:	431a      	orrs	r2, r3
 800320a:	687b      	ldr	r3, [r7, #4]
 800320c:	695b      	ldr	r3, [r3, #20]
 800320e:	4313      	orrs	r3, r2
 8003210:	68fa      	ldr	r2, [r7, #12]
 8003212:	4313      	orrs	r3, r2
 8003214:	60fb      	str	r3, [r7, #12]

  /* Write to USART CR1 */
  WRITE_REG(husart->Instance->CR1, (uint32_t)tmpreg);
 8003216:	687b      	ldr	r3, [r7, #4]
 8003218:	681b      	ldr	r3, [r3, #0]
 800321a:	68fa      	ldr	r2, [r7, #12]
 800321c:	60da      	str	r2, [r3, #12]

  /*-------------------------- USART CR3 Configuration -----------------------*/
  /* Clear CTSE and RTSE bits */
  CLEAR_BIT(husart->Instance->CR3, (USART_CR3_RTSE | USART_CR3_CTSE));
 800321e:	687b      	ldr	r3, [r7, #4]
 8003220:	681b      	ldr	r3, [r3, #0]
 8003222:	695a      	ldr	r2, [r3, #20]
 8003224:	687b      	ldr	r3, [r7, #4]
 8003226:	681b      	ldr	r3, [r3, #0]
 8003228:	f422 7240 	bic.w	r2, r2, #768	; 0x300
 800322c:	615a      	str	r2, [r3, #20]

  /*-------------------------- USART BRR Configuration -----------------------*/
  if((husart->Instance == USART1))
 800322e:	687b      	ldr	r3, [r7, #4]
 8003230:	681b      	ldr	r3, [r3, #0]
 8003232:	4a53      	ldr	r2, [pc, #332]	; (8003380 <USART_SetConfig+0x1e8>)
 8003234:	4293      	cmp	r3, r2
 8003236:	d14f      	bne.n	80032d8 <USART_SetConfig+0x140>
  {
    pclk = HAL_RCC_GetPCLK2Freq();
 8003238:	f7ff fbfe 	bl	8002a38 <HAL_RCC_GetPCLK2Freq>
 800323c:	60b8      	str	r0, [r7, #8]
    husart->Instance->BRR = USART_BRR(pclk, husart->Init.BaudRate);
 800323e:	68ba      	ldr	r2, [r7, #8]
 8003240:	4613      	mov	r3, r2
 8003242:	009b      	lsls	r3, r3, #2
 8003244:	4413      	add	r3, r2
 8003246:	009a      	lsls	r2, r3, #2
 8003248:	441a      	add	r2, r3
 800324a:	687b      	ldr	r3, [r7, #4]
 800324c:	685b      	ldr	r3, [r3, #4]
 800324e:	009b      	lsls	r3, r3, #2
 8003250:	fbb2 f3f3 	udiv	r3, r2, r3
 8003254:	4a4b      	ldr	r2, [pc, #300]	; (8003384 <USART_SetConfig+0x1ec>)
 8003256:	fba2 2303 	umull	r2, r3, r2, r3
 800325a:	095b      	lsrs	r3, r3, #5
 800325c:	0119      	lsls	r1, r3, #4
 800325e:	68ba      	ldr	r2, [r7, #8]
 8003260:	4613      	mov	r3, r2
 8003262:	009b      	lsls	r3, r3, #2
 8003264:	4413      	add	r3, r2
 8003266:	009a      	lsls	r2, r3, #2
 8003268:	441a      	add	r2, r3
 800326a:	687b      	ldr	r3, [r7, #4]
 800326c:	685b      	ldr	r3, [r3, #4]
 800326e:	009b      	lsls	r3, r3, #2
 8003270:	fbb2 f2f3 	udiv	r2, r2, r3
 8003274:	4b43      	ldr	r3, [pc, #268]	; (8003384 <USART_SetConfig+0x1ec>)
 8003276:	fba3 0302 	umull	r0, r3, r3, r2
 800327a:	095b      	lsrs	r3, r3, #5
 800327c:	2064      	movs	r0, #100	; 0x64
 800327e:	fb00 f303 	mul.w	r3, r0, r3
 8003282:	1ad3      	subs	r3, r2, r3
 8003284:	011b      	lsls	r3, r3, #4
 8003286:	3332      	adds	r3, #50	; 0x32
 8003288:	4a3e      	ldr	r2, [pc, #248]	; (8003384 <USART_SetConfig+0x1ec>)
 800328a:	fba2 2303 	umull	r2, r3, r2, r3
 800328e:	095b      	lsrs	r3, r3, #5
 8003290:	005b      	lsls	r3, r3, #1
 8003292:	f403 73f0 	and.w	r3, r3, #480	; 0x1e0
 8003296:	4419      	add	r1, r3
 8003298:	68ba      	ldr	r2, [r7, #8]
 800329a:	4613      	mov	r3, r2
 800329c:	009b      	lsls	r3, r3, #2
 800329e:	4413      	add	r3, r2
 80032a0:	009a      	lsls	r2, r3, #2
 80032a2:	441a      	add	r2, r3
 80032a4:	687b      	ldr	r3, [r7, #4]
 80032a6:	685b      	ldr	r3, [r3, #4]
 80032a8:	009b      	lsls	r3, r3, #2
 80032aa:	fbb2 f2f3 	udiv	r2, r2, r3
 80032ae:	4b35      	ldr	r3, [pc, #212]	; (8003384 <USART_SetConfig+0x1ec>)
 80032b0:	fba3 0302 	umull	r0, r3, r3, r2
 80032b4:	095b      	lsrs	r3, r3, #5
 80032b6:	2064      	movs	r0, #100	; 0x64
 80032b8:	fb00 f303 	mul.w	r3, r0, r3
 80032bc:	1ad3      	subs	r3, r2, r3
 80032be:	011b      	lsls	r3, r3, #4
 80032c0:	3332      	adds	r3, #50	; 0x32
 80032c2:	4a30      	ldr	r2, [pc, #192]	; (8003384 <USART_SetConfig+0x1ec>)
 80032c4:	fba2 2303 	umull	r2, r3, r2, r3
 80032c8:	095b      	lsrs	r3, r3, #5
 80032ca:	f003 020f 	and.w	r2, r3, #15
 80032ce:	687b      	ldr	r3, [r7, #4]
 80032d0:	681b      	ldr	r3, [r3, #0]
 80032d2:	440a      	add	r2, r1
 80032d4:	609a      	str	r2, [r3, #8]
  else
  {
    pclk = HAL_RCC_GetPCLK1Freq();
    husart->Instance->BRR = USART_BRR(pclk, husart->Init.BaudRate);
  }
}
 80032d6:	e04e      	b.n	8003376 <USART_SetConfig+0x1de>
    pclk = HAL_RCC_GetPCLK1Freq();
 80032d8:	f7ff fb9a 	bl	8002a10 <HAL_RCC_GetPCLK1Freq>
 80032dc:	60b8      	str	r0, [r7, #8]
    husart->Instance->BRR = USART_BRR(pclk, husart->Init.BaudRate);
 80032de:	68ba      	ldr	r2, [r7, #8]
 80032e0:	4613      	mov	r3, r2
 80032e2:	009b      	lsls	r3, r3, #2
 80032e4:	4413      	add	r3, r2
 80032e6:	009a      	lsls	r2, r3, #2
 80032e8:	441a      	add	r2, r3
 80032ea:	687b      	ldr	r3, [r7, #4]
 80032ec:	685b      	ldr	r3, [r3, #4]
 80032ee:	009b      	lsls	r3, r3, #2
 80032f0:	fbb2 f3f3 	udiv	r3, r2, r3
 80032f4:	4a23      	ldr	r2, [pc, #140]	; (8003384 <USART_SetConfig+0x1ec>)
 80032f6:	fba2 2303 	umull	r2, r3, r2, r3
 80032fa:	095b      	lsrs	r3, r3, #5
 80032fc:	0119      	lsls	r1, r3, #4
 80032fe:	68ba      	ldr	r2, [r7, #8]
 8003300:	4613      	mov	r3, r2
 8003302:	009b      	lsls	r3, r3, #2
 8003304:	4413      	add	r3, r2
 8003306:	009a      	lsls	r2, r3, #2
 8003308:	441a      	add	r2, r3
 800330a:	687b      	ldr	r3, [r7, #4]
 800330c:	685b      	ldr	r3, [r3, #4]
 800330e:	009b      	lsls	r3, r3, #2
 8003310:	fbb2 f2f3 	udiv	r2, r2, r3
 8003314:	4b1b      	ldr	r3, [pc, #108]	; (8003384 <USART_SetConfig+0x1ec>)
 8003316:	fba3 0302 	umull	r0, r3, r3, r2
 800331a:	095b      	lsrs	r3, r3, #5
 800331c:	2064      	movs	r0, #100	; 0x64
 800331e:	fb00 f303 	mul.w	r3, r0, r3
 8003322:	1ad3      	subs	r3, r2, r3
 8003324:	011b      	lsls	r3, r3, #4
 8003326:	3332      	adds	r3, #50	; 0x32
 8003328:	4a16      	ldr	r2, [pc, #88]	; (8003384 <USART_SetConfig+0x1ec>)
 800332a:	fba2 2303 	umull	r2, r3, r2, r3
 800332e:	095b      	lsrs	r3, r3, #5
 8003330:	005b      	lsls	r3, r3, #1
 8003332:	f403 73f0 	and.w	r3, r3, #480	; 0x1e0
 8003336:	4419      	add	r1, r3
 8003338:	68ba      	ldr	r2, [r7, #8]
 800333a:	4613      	mov	r3, r2
 800333c:	009b      	lsls	r3, r3, #2
 800333e:	4413      	add	r3, r2
 8003340:	009a      	lsls	r2, r3, #2
 8003342:	441a      	add	r2, r3
 8003344:	687b      	ldr	r3, [r7, #4]
 8003346:	685b      	ldr	r3, [r3, #4]
 8003348:	009b      	lsls	r3, r3, #2
 800334a:	fbb2 f2f3 	udiv	r2, r2, r3
 800334e:	4b0d      	ldr	r3, [pc, #52]	; (8003384 <USART_SetConfig+0x1ec>)
 8003350:	fba3 0302 	umull	r0, r3, r3, r2
 8003354:	095b      	lsrs	r3, r3, #5
 8003356:	2064      	movs	r0, #100	; 0x64
 8003358:	fb00 f303 	mul.w	r3, r0, r3
 800335c:	1ad3      	subs	r3, r2, r3
 800335e:	011b      	lsls	r3, r3, #4
 8003360:	3332      	adds	r3, #50	; 0x32
 8003362:	4a08      	ldr	r2, [pc, #32]	; (8003384 <USART_SetConfig+0x1ec>)
 8003364:	fba2 2303 	umull	r2, r3, r2, r3
 8003368:	095b      	lsrs	r3, r3, #5
 800336a:	f003 020f 	and.w	r2, r3, #15
 800336e:	687b      	ldr	r3, [r7, #4]
 8003370:	681b      	ldr	r3, [r3, #0]
 8003372:	440a      	add	r2, r1
 8003374:	609a      	str	r2, [r3, #8]
}
 8003376:	bf00      	nop
 8003378:	3710      	adds	r7, #16
 800337a:	46bd      	mov	sp, r7
 800337c:	bd80      	pop	{r7, pc}
 800337e:	bf00      	nop
 8003380:	40013800 	.word	0x40013800
 8003384:	51eb851f 	.word	0x51eb851f

08003388 <memset>:
 8003388:	4603      	mov	r3, r0
 800338a:	4402      	add	r2, r0
 800338c:	4293      	cmp	r3, r2
 800338e:	d100      	bne.n	8003392 <memset+0xa>
 8003390:	4770      	bx	lr
 8003392:	f803 1b01 	strb.w	r1, [r3], #1
 8003396:	e7f9      	b.n	800338c <memset+0x4>

08003398 <__libc_init_array>:
 8003398:	b570      	push	{r4, r5, r6, lr}
 800339a:	2600      	movs	r6, #0
 800339c:	4d0c      	ldr	r5, [pc, #48]	; (80033d0 <__libc_init_array+0x38>)
 800339e:	4c0d      	ldr	r4, [pc, #52]	; (80033d4 <__libc_init_array+0x3c>)
 80033a0:	1b64      	subs	r4, r4, r5
 80033a2:	10a4      	asrs	r4, r4, #2
 80033a4:	42a6      	cmp	r6, r4
 80033a6:	d109      	bne.n	80033bc <__libc_init_array+0x24>
 80033a8:	f000 f81a 	bl	80033e0 <_init>
 80033ac:	2600      	movs	r6, #0
 80033ae:	4d0a      	ldr	r5, [pc, #40]	; (80033d8 <__libc_init_array+0x40>)
 80033b0:	4c0a      	ldr	r4, [pc, #40]	; (80033dc <__libc_init_array+0x44>)
 80033b2:	1b64      	subs	r4, r4, r5
 80033b4:	10a4      	asrs	r4, r4, #2
 80033b6:	42a6      	cmp	r6, r4
 80033b8:	d105      	bne.n	80033c6 <__libc_init_array+0x2e>
 80033ba:	bd70      	pop	{r4, r5, r6, pc}
 80033bc:	f855 3b04 	ldr.w	r3, [r5], #4
 80033c0:	4798      	blx	r3
 80033c2:	3601      	adds	r6, #1
 80033c4:	e7ee      	b.n	80033a4 <__libc_init_array+0xc>
 80033c6:	f855 3b04 	ldr.w	r3, [r5], #4
 80033ca:	4798      	blx	r3
 80033cc:	3601      	adds	r6, #1
 80033ce:	e7f2      	b.n	80033b6 <__libc_init_array+0x1e>
 80033d0:	0800348c 	.word	0x0800348c
 80033d4:	0800348c 	.word	0x0800348c
 80033d8:	0800348c 	.word	0x0800348c
 80033dc:	08003490 	.word	0x08003490

080033e0 <_init>:
 80033e0:	b5f8      	push	{r3, r4, r5, r6, r7, lr}
 80033e2:	bf00      	nop
 80033e4:	bcf8      	pop	{r3, r4, r5, r6, r7}
 80033e6:	bc08      	pop	{r3}
 80033e8:	469e      	mov	lr, r3
 80033ea:	4770      	bx	lr

080033ec <_fini>:
 80033ec:	b5f8      	push	{r3, r4, r5, r6, r7, lr}
 80033ee:	bf00      	nop
 80033f0:	bcf8      	pop	{r3, r4, r5, r6, r7}
 80033f2:	bc08      	pop	{r3}
 80033f4:	469e      	mov	lr, r3
 80033f6:	4770      	bx	lr
